   1              		.file	"TestChecks.cpp"
   2              		.section	.text.unlikely._ZN17RecordingReporter13ReportSummaryEiiif,"axG",@progbits,_ZN17RecordingR
   3              		.align 2
   4              	.LCOLDB0:
   5              		.section	.text._ZN17RecordingReporter13ReportSummaryEiiif,"axG",@progbits,_ZN17RecordingReporter13
   6              	.LHOTB0:
   7              		.align 2
   8              		.p2align 4,,15
   9              		.weak	_ZN17RecordingReporter13ReportSummaryEiiif
  11              	_ZN17RecordingReporter13ReportSummaryEiiif:
  12              	.LFB1130:
  13              		.cfi_startproc
  14 0000 89B71C08 		movl	%esi, 2076(%rdi)
  14      0000
  15 0006 89972008 		movl	%edx, 2080(%rdi)
  15      0000
  16 000c F30F1187 		movss	%xmm0, 2088(%rdi)
  16      28080000 
  17 0014 898F2408 		movl	%ecx, 2084(%rdi)
  17      0000
  18 001a C3       		ret
  19              		.cfi_endproc
  20              	.LFE1130:
  22              		.section	.text.unlikely._ZN17RecordingReporter13ReportSummaryEiiif,"axG",@progbits,_ZN17RecordingR
  23              	.LCOLDE0:
  24              		.section	.text._ZN17RecordingReporter13ReportSummaryEiiif,"axG",@progbits,_ZN17RecordingReporter13
  25              	.LHOTE0:
  26              		.section	.text.unlikely,"ax",@progbits
  27              		.align 2
  28              	.LCOLDB1:
  29              		.text
  30              	.LHOTB1:
  31              		.align 2
  32              		.p2align 4,,15
  34              	_ZN12_GLOBAL__N_143TestCheckArray2DCloseFailureIncludesDetailsD2Ev:
  35              	.LFB1333:
  36              		.cfi_startproc
  37 0000 48C70700 		movq	$_ZTVN12_GLOBAL__N_143TestCheckArray2DCloseFailureIncludesDetailsE+16, (%rdi)
  37      000000
  38 0007 E9000000 		jmp	_ZN8UnitTest4TestD2Ev
  38      00
  39              		.cfi_endproc
  40              	.LFE1333:
  42              		.section	.text.unlikely
  43              	.LCOLDE1:
  44              		.text
  45              	.LHOTE1:
  46              		.set	_ZN12_GLOBAL__N_143TestCheckArray2DCloseFailureIncludesDetailsD1Ev,_ZN12_GLOBAL__N_143TestChe
  47              		.section	.text.unlikely
  48              		.align 2
  49              	.LCOLDB2:
  50              		.text
  51              	.LHOTB2:
  52              		.align 2
  53 000c 0F1F4000 		.p2align 4,,15
  55              	_ZN12_GLOBAL__N_133TestCheckCloseWithDoublesSucceedsD2Ev:
  56              	.LFB1337:
  57              		.cfi_startproc
  58 0010 48C70700 		movq	$_ZTVN12_GLOBAL__N_133TestCheckCloseWithDoublesSucceedsE+16, (%rdi)
  58      000000
  59 0017 E9000000 		jmp	_ZN8UnitTest4TestD2Ev
  59      00
  60              		.cfi_endproc
  61              	.LFE1337:
  63              		.section	.text.unlikely
  64              	.LCOLDE2:
  65              		.text
  66              	.LHOTE2:
  67              		.set	_ZN12_GLOBAL__N_133TestCheckCloseWithDoublesSucceedsD1Ev,_ZN12_GLOBAL__N_133TestCheckCloseWit
  68              		.section	.text.unlikely
  69              		.align 2
  70              	.LCOLDB3:
  71              		.text
  72              	.LHOTB3:
  73              		.align 2
  74 001c 0F1F4000 		.p2align 4,,15
  76              	_ZN12_GLOBAL__N_126TestCheckArray2DCloseFalseD2Ev:
  77              	.LFB1341:
  78              		.cfi_startproc
  79 0020 48C70700 		movq	$_ZTVN12_GLOBAL__N_126TestCheckArray2DCloseFalseE+16, (%rdi)
  79      000000
  80 0027 E9000000 		jmp	_ZN8UnitTest4TestD2Ev
  80      00
  81              		.cfi_endproc
  82              	.LFE1341:
  84              		.section	.text.unlikely
  85              	.LCOLDE3:
  86              		.text
  87              	.LHOTE3:
  88              		.set	_ZN12_GLOBAL__N_126TestCheckArray2DCloseFalseD1Ev,_ZN12_GLOBAL__N_126TestCheckArray2DCloseFal
  89              		.section	.text.unlikely
  90              		.align 2
  91              	.LCOLDB4:
  92              		.text
  93              	.LHOTB4:
  94              		.align 2
  95 002c 0F1F4000 		.p2align 4,,15
  97              	_ZN12_GLOBAL__N_125TestCheckArray2DCloseTrueD2Ev:
  98              	.LFB1345:
  99              		.cfi_startproc
 100 0030 48C70700 		movq	$_ZTVN12_GLOBAL__N_125TestCheckArray2DCloseTrueE+16, (%rdi)
 100      000000
 101 0037 E9000000 		jmp	_ZN8UnitTest4TestD2Ev
 101      00
 102              		.cfi_endproc
 103              	.LFE1345:
 105              		.section	.text.unlikely
 106              	.LCOLDE4:
 107              		.text
 108              	.LHOTE4:
 109              		.set	_ZN12_GLOBAL__N_125TestCheckArray2DCloseTrueD1Ev,_ZN12_GLOBAL__N_125TestCheckArray2DCloseTrue
 110              		.section	.text.unlikely
 111              		.align 2
 112              	.LCOLDB5:
 113              		.text
 114              	.LHOTB5:
 115              		.align 2
 116 003c 0F1F4000 		.p2align 4,,15
 118              	_ZN12_GLOBAL__N_141TestCheckArrayCloseFailureIncludesDetailsD2Ev:
 119              	.LFB1349:
 120              		.cfi_startproc
 121 0040 48C70700 		movq	$_ZTVN12_GLOBAL__N_141TestCheckArrayCloseFailureIncludesDetailsE+16, (%rdi)
 121      000000
 122 0047 E9000000 		jmp	_ZN8UnitTest4TestD2Ev
 122      00
 123              		.cfi_endproc
 124              	.LFE1349:
 126              		.section	.text.unlikely
 127              	.LCOLDE5:
 128              		.text
 129              	.LHOTE5:
 130              		.set	_ZN12_GLOBAL__N_141TestCheckArrayCloseFailureIncludesDetailsD1Ev,_ZN12_GLOBAL__N_141TestCheck
 131              		.section	.text.unlikely
 132              		.align 2
 133              	.LCOLDB6:
 134              		.text
 135              	.LHOTB6:
 136              		.align 2
 137 004c 0F1F4000 		.p2align 4,,15
 139              	_ZN12_GLOBAL__N_124TestCheckArrayCloseFalseD2Ev:
 140              	.LFB1353:
 141              		.cfi_startproc
 142 0050 48C70700 		movq	$_ZTVN12_GLOBAL__N_124TestCheckArrayCloseFalseE+16, (%rdi)
 142      000000
 143 0057 E9000000 		jmp	_ZN8UnitTest4TestD2Ev
 143      00
 144              		.cfi_endproc
 145              	.LFE1353:
 147              		.section	.text.unlikely
 148              	.LCOLDE6:
 149              		.text
 150              	.LHOTE6:
 151              		.set	_ZN12_GLOBAL__N_124TestCheckArrayCloseFalseD1Ev,_ZN12_GLOBAL__N_124TestCheckArrayCloseFalseD2
 152              		.section	.text.unlikely
 153              		.align 2
 154              	.LCOLDB7:
 155              		.text
 156              	.LHOTB7:
 157              		.align 2
 158 005c 0F1F4000 		.p2align 4,,15
 160              	_ZN12_GLOBAL__N_123TestCheckArrayCloseTrueD2Ev:
 161              	.LFB1357:
 162              		.cfi_startproc
 163 0060 48C70700 		movq	$_ZTVN12_GLOBAL__N_123TestCheckArrayCloseTrueE+16, (%rdi)
 163      000000
 164 0067 E9000000 		jmp	_ZN8UnitTest4TestD2Ev
 164      00
 165              		.cfi_endproc
 166              	.LFE1357:
 168              		.section	.text.unlikely
 169              	.LCOLDE7:
 170              		.text
 171              	.LHOTE7:
 172              		.set	_ZN12_GLOBAL__N_123TestCheckArrayCloseTrueD1Ev,_ZN12_GLOBAL__N_123TestCheckArrayCloseTrueD2Ev
 173              		.section	.text.unlikely
 174              		.align 2
 175              	.LCOLDB8:
 176              		.text
 177              	.LHOTB8:
 178              		.align 2
 179 006c 0F1F4000 		.p2align 4,,15
 181              	_ZN12_GLOBAL__N_124TestCheckArrayEqualFalseD2Ev:
 182              	.LFB1361:
 183              		.cfi_startproc
 184 0070 48C70700 		movq	$_ZTVN12_GLOBAL__N_124TestCheckArrayEqualFalseE+16, (%rdi)
 184      000000
 185 0077 E9000000 		jmp	_ZN8UnitTest4TestD2Ev
 185      00
 186              		.cfi_endproc
 187              	.LFE1361:
 189              		.section	.text.unlikely
 190              	.LCOLDE8:
 191              		.text
 192              	.LHOTE8:
 193              		.set	_ZN12_GLOBAL__N_124TestCheckArrayEqualFalseD1Ev,_ZN12_GLOBAL__N_124TestCheckArrayEqualFalseD2
 194              		.section	.text.unlikely
 195              		.align 2
 196              	.LCOLDB9:
 197              		.text
 198              	.LHOTB9:
 199              		.align 2
 200 007c 0F1F4000 		.p2align 4,,15
 202              	_ZN12_GLOBAL__N_123TestCheckArrayEqualTrueD2Ev:
 203              	.LFB1365:
 204              		.cfi_startproc
 205 0080 48C70700 		movq	$_ZTVN12_GLOBAL__N_123TestCheckArrayEqualTrueE+16, (%rdi)
 205      000000
 206 0087 E9000000 		jmp	_ZN8UnitTest4TestD2Ev
 206      00
 207              		.cfi_endproc
 208              	.LFE1365:
 210              		.section	.text.unlikely
 211              	.LCOLDE9:
 212              		.text
 213              	.LHOTE9:
 214              		.set	_ZN12_GLOBAL__N_123TestCheckArrayEqualTrueD1Ev,_ZN12_GLOBAL__N_123TestCheckArrayEqualTrueD2Ev
 215              		.section	.text.unlikely
 216              		.align 2
 217              	.LCOLDB10:
 218              		.text
 219              	.LHOTB10:
 220              		.align 2
 221 008c 0F1F4000 		.p2align 4,,15
 223              	_ZN12_GLOBAL__N_136TestCheckCloseFailureIncludesDetailsD2Ev:
 224              	.LFB1369:
 225              		.cfi_startproc
 226 0090 48C70700 		movq	$_ZTVN12_GLOBAL__N_136TestCheckCloseFailureIncludesDetailsE+16, (%rdi)
 226      000000
 227 0097 E9000000 		jmp	_ZN8UnitTest4TestD2Ev
 227      00
 228              		.cfi_endproc
 229              	.LFE1369:
 231              		.section	.text.unlikely
 232              	.LCOLDE10:
 233              		.text
 234              	.LHOTE10:
 235              		.set	_ZN12_GLOBAL__N_136TestCheckCloseFailureIncludesDetailsD1Ev,_ZN12_GLOBAL__N_136TestCheckClose
 236              		.section	.text.unlikely
 237              		.align 2
 238              	.LCOLDB11:
 239              		.text
 240              	.LHOTB11:
 241              		.align 2
 242 009c 0F1F4000 		.p2align 4,,15
 244              	_ZN12_GLOBAL__N_138TestCheckCloseFailureIncludesToleranceD2Ev:
 245              	.LFB1373:
 246              		.cfi_startproc
 247 00a0 48C70700 		movq	$_ZTVN12_GLOBAL__N_138TestCheckCloseFailureIncludesToleranceE+16, (%rdi)
 247      000000
 248 00a7 E9000000 		jmp	_ZN8UnitTest4TestD2Ev
 248      00
 249              		.cfi_endproc
 250              	.LFE1373:
 252              		.section	.text.unlikely
 253              	.LCOLDE11:
 254              		.text
 255              	.LHOTE11:
 256              		.set	_ZN12_GLOBAL__N_138TestCheckCloseFailureIncludesToleranceD1Ev,_ZN12_GLOBAL__N_138TestCheckClo
 257              		.section	.text.unlikely
 258              		.align 2
 259              	.LCOLDB12:
 260              		.text
 261              	.LHOTB12:
 262              		.align 2
 263 00ac 0F1F4000 		.p2align 4,,15
 265              	_ZN12_GLOBAL__N_151TestCheckCloseFailureIncludesCheckExpectedAndActualD2Ev:
 266              	.LFB1377:
 267              		.cfi_startproc
 268 00b0 48C70700 		movq	$_ZTVN12_GLOBAL__N_151TestCheckCloseFailureIncludesCheckExpectedAndActualE+16, (%rdi)
 268      000000
 269 00b7 E9000000 		jmp	_ZN8UnitTest4TestD2Ev
 269      00
 270              		.cfi_endproc
 271              	.LFE1377:
 273              		.section	.text.unlikely
 274              	.LCOLDE12:
 275              		.text
 276              	.LHOTE12:
 277              		.set	_ZN12_GLOBAL__N_151TestCheckCloseFailureIncludesCheckExpectedAndActualD1Ev,_ZN12_GLOBAL__N_15
 278              		.section	.text.unlikely
 279              		.align 2
 280              	.LCOLDB13:
 281              		.text
 282              	.LHOTB13:
 283              		.align 2
 284 00bc 0F1F4000 		.p2align 4,,15
 286              	_ZN12_GLOBAL__N_139TestCheckCloseWithNaNAgainstItselfFailsD2Ev:
 287              	.LFB1381:
 288              		.cfi_startproc
 289 00c0 48C70700 		movq	$_ZTVN12_GLOBAL__N_139TestCheckCloseWithNaNAgainstItselfFailsE+16, (%rdi)
 289      000000
 290 00c7 E9000000 		jmp	_ZN8UnitTest4TestD2Ev
 290      00
 291              		.cfi_endproc
 292              	.LFE1381:
 294              		.section	.text.unlikely
 295              	.LCOLDE13:
 296              		.text
 297              	.LHOTE13:
 298              		.set	_ZN12_GLOBAL__N_139TestCheckCloseWithNaNAgainstItselfFailsD1Ev,_ZN12_GLOBAL__N_139TestCheckCl
 299              		.section	.text.unlikely
 300              		.align 2
 301              	.LCOLDB14:
 302              		.text
 303              	.LHOTB14:
 304              		.align 2
 305 00cc 0F1F4000 		.p2align 4,,15
 307              	_ZN12_GLOBAL__N_126TestCheckCloseWithNaNFailsD2Ev:
 308              	.LFB1385:
 309              		.cfi_startproc
 310 00d0 48C70700 		movq	$_ZTVN12_GLOBAL__N_126TestCheckCloseWithNaNFailsE+16, (%rdi)
 310      000000
 311 00d7 E9000000 		jmp	_ZN8UnitTest4TestD2Ev
 311      00
 312              		.cfi_endproc
 313              	.LFE1385:
 315              		.section	.text.unlikely
 316              	.LCOLDE14:
 317              		.text
 318              	.LHOTE14:
 319              		.set	_ZN12_GLOBAL__N_126TestCheckCloseWithNaNFailsD1Ev,_ZN12_GLOBAL__N_126TestCheckCloseWithNaNFai
 320              		.section	.text.unlikely
 321              		.align 2
 322              	.LCOLDB15:
 323              		.text
 324              	.LHOTB15:
 325              		.align 2
 326 00dc 0F1F4000 		.p2align 4,,15
 328              	_ZN12_GLOBAL__N_147TestCheckCloseWithZeroEpsilonWorksForSameNumberD2Ev:
 329              	.LFB1389:
 330              		.cfi_startproc
 331 00e0 48C70700 		movq	$_ZTVN12_GLOBAL__N_147TestCheckCloseWithZeroEpsilonWorksForSameNumberE+16, (%rdi)
 331      000000
 332 00e7 E9000000 		jmp	_ZN8UnitTest4TestD2Ev
 332      00
 333              		.cfi_endproc
 334              	.LFE1389:
 336              		.section	.text.unlikely
 337              	.LCOLDE15:
 338              		.text
 339              	.LHOTE15:
 340              		.set	_ZN12_GLOBAL__N_147TestCheckCloseWithZeroEpsilonWorksForSameNumberD1Ev,_ZN12_GLOBAL__N_147Tes
 341              		.section	.text.unlikely
 342              		.align 2
 343              	.LCOLDB16:
 344              		.text
 345              	.LHOTB16:
 346              		.align 2
 347 00ec 0F1F4000 		.p2align 4,,15
 349              	_ZN12_GLOBAL__N_119TestCheckCloseFalseD2Ev:
 350              	.LFB1393:
 351              		.cfi_startproc
 352 00f0 48C70700 		movq	$_ZTVN12_GLOBAL__N_119TestCheckCloseFalseE+16, (%rdi)
 352      000000
 353 00f7 E9000000 		jmp	_ZN8UnitTest4TestD2Ev
 353      00
 354              		.cfi_endproc
 355              	.LFE1393:
 357              		.section	.text.unlikely
 358              	.LCOLDE16:
 359              		.text
 360              	.LHOTE16:
 361              		.set	_ZN12_GLOBAL__N_119TestCheckCloseFalseD1Ev,_ZN12_GLOBAL__N_119TestCheckCloseFalseD2Ev
 362              		.section	.text.unlikely
 363              		.align 2
 364              	.LCOLDB17:
 365              		.text
 366              	.LHOTB17:
 367              		.align 2
 368 00fc 0F1F4000 		.p2align 4,,15
 370              	_ZN12_GLOBAL__N_118TestCheckCloseTrueD2Ev:
 371              	.LFB1397:
 372              		.cfi_startproc
 373 0100 48C70700 		movq	$_ZTVN12_GLOBAL__N_118TestCheckCloseTrueE+16, (%rdi)
 373      000000
 374 0107 E9000000 		jmp	_ZN8UnitTest4TestD2Ev
 374      00
 375              		.cfi_endproc
 376              	.LFE1397:
 378              		.section	.text.unlikely
 379              	.LCOLDE17:
 380              		.text
 381              	.LHOTE17:
 382              		.set	_ZN12_GLOBAL__N_118TestCheckCloseTrueD1Ev,_ZN12_GLOBAL__N_118TestCheckCloseTrueD2Ev
 383              		.section	.text.unlikely
 384              		.align 2
 385              	.LCOLDB18:
 386              		.text
 387              	.LHOTB18:
 388              		.align 2
 389 010c 0F1F4000 		.p2align 4,,15
 391              	_ZN12_GLOBAL__N_136TestCheckEqualFailureIncludesDetailsD2Ev:
 392              	.LFB1401:
 393              		.cfi_startproc
 394 0110 48C70700 		movq	$_ZTVN12_GLOBAL__N_136TestCheckEqualFailureIncludesDetailsE+16, (%rdi)
 394      000000
 395 0117 E9000000 		jmp	_ZN8UnitTest4TestD2Ev
 395      00
 396              		.cfi_endproc
 397              	.LFE1401:
 399              		.section	.text.unlikely
 400              	.LCOLDE18:
 401              		.text
 402              	.LHOTE18:
 403              		.set	_ZN12_GLOBAL__N_136TestCheckEqualFailureIncludesDetailsD1Ev,_ZN12_GLOBAL__N_136TestCheckEqual
 404              		.section	.text.unlikely
 405              		.align 2
 406              	.LCOLDB19:
 407              		.text
 408              	.LHOTB19:
 409              		.align 2
 410 011c 0F1F4000 		.p2align 4,,15
 412              	_ZN12_GLOBAL__N_151TestCheckEqualFailureIncludesCheckExpectedAndActualD2Ev:
 413              	.LFB1405:
 414              		.cfi_startproc
 415 0120 48C70700 		movq	$_ZTVN12_GLOBAL__N_151TestCheckEqualFailureIncludesCheckExpectedAndActualE+16, (%rdi)
 415      000000
 416 0127 E9000000 		jmp	_ZN8UnitTest4TestD2Ev
 416      00
 417              		.cfi_endproc
 418              	.LFE1405:
 420              		.section	.text.unlikely
 421              	.LCOLDE19:
 422              		.text
 423              	.LHOTE19:
 424              		.set	_ZN12_GLOBAL__N_151TestCheckEqualFailureIncludesCheckExpectedAndActualD1Ev,_ZN12_GLOBAL__N_15
 425              		.section	.text.unlikely
 426              		.align 2
 427              	.LCOLDB20:
 428              		.text
 429              	.LHOTB20:
 430              		.align 2
 431 012c 0F1F4000 		.p2align 4,,15
 433              	_ZN12_GLOBAL__N_153TestCheckEqualsWithStringsWorksOnContentsWithALiteralD2Ev:
 434              	.LFB1409:
 435              		.cfi_startproc
 436 0130 48C70700 		movq	$_ZTVN12_GLOBAL__N_153TestCheckEqualsWithStringsWorksOnContentsWithALiteralE+16, (%rdi)
 436      000000
 437 0137 E9000000 		jmp	_ZN8UnitTest4TestD2Ev
 437      00
 438              		.cfi_endproc
 439              	.LFE1409:
 441              		.section	.text.unlikely
 442              	.LCOLDE20:
 443              		.text
 444              	.LHOTE20:
 445              		.set	_ZN12_GLOBAL__N_153TestCheckEqualsWithStringsWorksOnContentsWithALiteralD1Ev,_ZN12_GLOBAL__N_
 446              		.section	.text.unlikely
 447              		.align 2
 448              	.LCOLDB21:
 449              		.text
 450              	.LHOTB21:
 451              		.align 2
 452 013c 0F1F4000 		.p2align 4,,15
 454              	_ZN12_GLOBAL__N_154TestCheckEqualsWithStringsWorksOnContentsConstNonConstD2Ev:
 455              	.LFB1413:
 456              		.cfi_startproc
 457 0140 48C70700 		movq	$_ZTVN12_GLOBAL__N_154TestCheckEqualsWithStringsWorksOnContentsConstNonConstE+16, (%rdi)
 457      000000
 458 0147 E9000000 		jmp	_ZN8UnitTest4TestD2Ev
 458      00
 459              		.cfi_endproc
 460              	.LFE1413:
 462              		.section	.text.unlikely
 463              	.LCOLDE21:
 464              		.text
 465              	.LHOTE21:
 466              		.set	_ZN12_GLOBAL__N_154TestCheckEqualsWithStringsWorksOnContentsConstNonConstD1Ev,_ZN12_GLOBAL__N
 467              		.section	.text.unlikely
 468              		.align 2
 469              	.LCOLDB22:
 470              		.text
 471              	.LHOTB22:
 472              		.align 2
 473 014c 0F1F4000 		.p2align 4,,15
 475              	_ZN12_GLOBAL__N_154TestCheckEqualsWithStringsWorksOnContentsNonConstConstD2Ev:
 476              	.LFB1417:
 477              		.cfi_startproc
 478 0150 48C70700 		movq	$_ZTVN12_GLOBAL__N_154TestCheckEqualsWithStringsWorksOnContentsNonConstConstE+16, (%rdi)
 478      000000
 479 0157 E9000000 		jmp	_ZN8UnitTest4TestD2Ev
 479      00
 480              		.cfi_endproc
 481              	.LFE1417:
 483              		.section	.text.unlikely
 484              	.LCOLDE22:
 485              		.text
 486              	.LHOTE22:
 487              		.set	_ZN12_GLOBAL__N_154TestCheckEqualsWithStringsWorksOnContentsNonConstConstD1Ev,_ZN12_GLOBAL__N
 488              		.section	.text.unlikely
 489              		.align 2
 490              	.LCOLDB23:
 491              		.text
 492              	.LHOTB23:
 493              		.align 2
 494 015c 0F1F4000 		.p2align 4,,15
 496              	_ZN12_GLOBAL__N_151TestCheckEqualsWithStringsWorksOnContentsConstConstD2Ev:
 497              	.LFB1421:
 498              		.cfi_startproc
 499 0160 48C70700 		movq	$_ZTVN12_GLOBAL__N_151TestCheckEqualsWithStringsWorksOnContentsConstConstE+16, (%rdi)
 499      000000
 500 0167 E9000000 		jmp	_ZN8UnitTest4TestD2Ev
 500      00
 501              		.cfi_endproc
 502              	.LFE1421:
 504              		.section	.text.unlikely
 505              	.LCOLDE23:
 506              		.text
 507              	.LHOTE23:
 508              		.set	_ZN12_GLOBAL__N_151TestCheckEqualsWithStringsWorksOnContentsConstConstD1Ev,_ZN12_GLOBAL__N_15
 509              		.section	.text.unlikely
 510              		.align 2
 511              	.LCOLDB24:
 512              		.text
 513              	.LHOTB24:
 514              		.align 2
 515 016c 0F1F4000 		.p2align 4,,15
 517              	_ZN12_GLOBAL__N_157TestCheckEqualsWithStringsWorksOnContentsNonConstNonConstD2Ev:
 518              	.LFB1425:
 519              		.cfi_startproc
 520 0170 48C70700 		movq	$_ZTVN12_GLOBAL__N_157TestCheckEqualsWithStringsWorksOnContentsNonConstNonConstE+16, (%rdi)
 520      000000
 521 0177 E9000000 		jmp	_ZN8UnitTest4TestD2Ev
 521      00
 522              		.cfi_endproc
 523              	.LFE1425:
 525              		.section	.text.unlikely
 526              	.LCOLDE24:
 527              		.text
 528              	.LHOTE24:
 529              		.set	_ZN12_GLOBAL__N_157TestCheckEqualsWithStringsWorksOnContentsNonConstNonConstD1Ev,_ZN12_GLOBAL
 530              		.section	.text.unlikely
 531              		.align 2
 532              	.LCOLDB25:
 533              		.text
 534              	.LHOTB25:
 535              		.align 2
 536 017c 0F1F4000 		.p2align 4,,15
 538              	_ZN12_GLOBAL__N_149TestCheckEqualsWithStringsFailsOnDifferentStringsD2Ev:
 539              	.LFB1429:
 540              		.cfi_startproc
 541 0180 48C70700 		movq	$_ZTVN12_GLOBAL__N_149TestCheckEqualsWithStringsFailsOnDifferentStringsE+16, (%rdi)
 541      000000
 542 0187 E9000000 		jmp	_ZN8UnitTest4TestD2Ev
 542      00
 543              		.cfi_endproc
 544              	.LFE1429:
 546              		.section	.text.unlikely
 547              	.LCOLDE25:
 548              		.text
 549              	.LHOTE25:
 550              		.set	_ZN12_GLOBAL__N_149TestCheckEqualsWithStringsFailsOnDifferentStringsD1Ev,_ZN12_GLOBAL__N_149T
 551              		.section	.text.unlikely
 552              		.align 2
 553              	.LCOLDB26:
 554              		.text
 555              	.LHOTB26:
 556              		.align 2
 557 018c 0F1F4000 		.p2align 4,,15
 559              	_ZN12_GLOBAL__N_130TestCheckEqualWithUnsignedLongD2Ev:
 560              	.LFB1433:
 561              		.cfi_startproc
 562 0190 48C70700 		movq	$_ZTVN12_GLOBAL__N_130TestCheckEqualWithUnsignedLongE+16, (%rdi)
 562      000000
 563 0197 E9000000 		jmp	_ZN8UnitTest4TestD2Ev
 563      00
 564              		.cfi_endproc
 565              	.LFE1433:
 567              		.section	.text.unlikely
 568              	.LCOLDE26:
 569              		.text
 570              	.LHOTE26:
 571              		.set	_ZN12_GLOBAL__N_130TestCheckEqualWithUnsignedLongD1Ev,_ZN12_GLOBAL__N_130TestCheckEqualWithUn
 572              		.section	.text.unlikely
 573              		.align 2
 574              	.LCOLDB27:
 575              		.text
 576              	.LHOTB27:
 577              		.align 2
 578 019c 0F1F4000 		.p2align 4,,15
 580              	_ZN12_GLOBAL__N_143TestCheckArray2DCloseFailureIncludesDetailsD0Ev:
 581              	.LFB1335:
 582              		.cfi_startproc
 583 01a0 53       		pushq	%rbx
 584              		.cfi_def_cfa_offset 16
 585              		.cfi_offset 3, -16
 586 01a1 4889FB   		movq	%rdi, %rbx
 587 01a4 48C70700 		movq	$_ZTVN12_GLOBAL__N_143TestCheckArray2DCloseFailureIncludesDetailsE+16, (%rdi)
 587      000000
 588 01ab E8000000 		call	_ZN8UnitTest4TestD2Ev
 588      00
 589 01b0 4889DF   		movq	%rbx, %rdi
 590 01b3 5B       		popq	%rbx
 591              		.cfi_def_cfa_offset 8
 592 01b4 E9000000 		jmp	_ZdlPv
 592      00
 593              		.cfi_endproc
 594              	.LFE1335:
 596              		.section	.text.unlikely
 597              	.LCOLDE27:
 598              		.text
 599              	.LHOTE27:
 600              		.section	.text.unlikely
 601              		.align 2
 602              	.LCOLDB28:
 603              		.text
 604              	.LHOTB28:
 605 01b9 90       		.align 2
 606 01ba 660F1F44 		.p2align 4,,15
 606      0000
 608              	_ZN12_GLOBAL__N_133TestCheckCloseWithDoublesSucceedsD0Ev:
 609              	.LFB1339:
 610              		.cfi_startproc
 611 01c0 53       		pushq	%rbx
 612              		.cfi_def_cfa_offset 16
 613              		.cfi_offset 3, -16
 614 01c1 4889FB   		movq	%rdi, %rbx
 615 01c4 48C70700 		movq	$_ZTVN12_GLOBAL__N_133TestCheckCloseWithDoublesSucceedsE+16, (%rdi)
 615      000000
 616 01cb E8000000 		call	_ZN8UnitTest4TestD2Ev
 616      00
 617 01d0 4889DF   		movq	%rbx, %rdi
 618 01d3 5B       		popq	%rbx
 619              		.cfi_def_cfa_offset 8
 620 01d4 E9000000 		jmp	_ZdlPv
 620      00
 621              		.cfi_endproc
 622              	.LFE1339:
 624              		.section	.text.unlikely
 625              	.LCOLDE28:
 626              		.text
 627              	.LHOTE28:
 628              		.section	.text.unlikely
 629              		.align 2
 630              	.LCOLDB29:
 631              		.text
 632              	.LHOTB29:
 633 01d9 90       		.align 2
 634 01da 660F1F44 		.p2align 4,,15
 634      0000
 636              	_ZN12_GLOBAL__N_126TestCheckArray2DCloseFalseD0Ev:
 637              	.LFB1343:
 638              		.cfi_startproc
 639 01e0 53       		pushq	%rbx
 640              		.cfi_def_cfa_offset 16
 641              		.cfi_offset 3, -16
 642 01e1 4889FB   		movq	%rdi, %rbx
 643 01e4 48C70700 		movq	$_ZTVN12_GLOBAL__N_126TestCheckArray2DCloseFalseE+16, (%rdi)
 643      000000
 644 01eb E8000000 		call	_ZN8UnitTest4TestD2Ev
 644      00
 645 01f0 4889DF   		movq	%rbx, %rdi
 646 01f3 5B       		popq	%rbx
 647              		.cfi_def_cfa_offset 8
 648 01f4 E9000000 		jmp	_ZdlPv
 648      00
 649              		.cfi_endproc
 650              	.LFE1343:
 652              		.section	.text.unlikely
 653              	.LCOLDE29:
 654              		.text
 655              	.LHOTE29:
 656              		.section	.text.unlikely
 657              		.align 2
 658              	.LCOLDB30:
 659              		.text
 660              	.LHOTB30:
 661 01f9 90       		.align 2
 662 01fa 660F1F44 		.p2align 4,,15
 662      0000
 664              	_ZN12_GLOBAL__N_125TestCheckArray2DCloseTrueD0Ev:
 665              	.LFB1347:
 666              		.cfi_startproc
 667 0200 53       		pushq	%rbx
 668              		.cfi_def_cfa_offset 16
 669              		.cfi_offset 3, -16
 670 0201 4889FB   		movq	%rdi, %rbx
 671 0204 48C70700 		movq	$_ZTVN12_GLOBAL__N_125TestCheckArray2DCloseTrueE+16, (%rdi)
 671      000000
 672 020b E8000000 		call	_ZN8UnitTest4TestD2Ev
 672      00
 673 0210 4889DF   		movq	%rbx, %rdi
 674 0213 5B       		popq	%rbx
 675              		.cfi_def_cfa_offset 8
 676 0214 E9000000 		jmp	_ZdlPv
 676      00
 677              		.cfi_endproc
 678              	.LFE1347:
 680              		.section	.text.unlikely
 681              	.LCOLDE30:
 682              		.text
 683              	.LHOTE30:
 684              		.section	.text.unlikely
 685              		.align 2
 686              	.LCOLDB31:
 687              		.text
 688              	.LHOTB31:
 689 0219 90       		.align 2
 690 021a 660F1F44 		.p2align 4,,15
 690      0000
 692              	_ZN12_GLOBAL__N_141TestCheckArrayCloseFailureIncludesDetailsD0Ev:
 693              	.LFB1351:
 694              		.cfi_startproc
 695 0220 53       		pushq	%rbx
 696              		.cfi_def_cfa_offset 16
 697              		.cfi_offset 3, -16
 698 0221 4889FB   		movq	%rdi, %rbx
 699 0224 48C70700 		movq	$_ZTVN12_GLOBAL__N_141TestCheckArrayCloseFailureIncludesDetailsE+16, (%rdi)
 699      000000
 700 022b E8000000 		call	_ZN8UnitTest4TestD2Ev
 700      00
 701 0230 4889DF   		movq	%rbx, %rdi
 702 0233 5B       		popq	%rbx
 703              		.cfi_def_cfa_offset 8
 704 0234 E9000000 		jmp	_ZdlPv
 704      00
 705              		.cfi_endproc
 706              	.LFE1351:
 708              		.section	.text.unlikely
 709              	.LCOLDE31:
 710              		.text
 711              	.LHOTE31:
 712              		.section	.text.unlikely
 713              		.align 2
 714              	.LCOLDB32:
 715              		.text
 716              	.LHOTB32:
 717 0239 90       		.align 2
 718 023a 660F1F44 		.p2align 4,,15
 718      0000
 720              	_ZN12_GLOBAL__N_124TestCheckArrayCloseFalseD0Ev:
 721              	.LFB1355:
 722              		.cfi_startproc
 723 0240 53       		pushq	%rbx
 724              		.cfi_def_cfa_offset 16
 725              		.cfi_offset 3, -16
 726 0241 4889FB   		movq	%rdi, %rbx
 727 0244 48C70700 		movq	$_ZTVN12_GLOBAL__N_124TestCheckArrayCloseFalseE+16, (%rdi)
 727      000000
 728 024b E8000000 		call	_ZN8UnitTest4TestD2Ev
 728      00
 729 0250 4889DF   		movq	%rbx, %rdi
 730 0253 5B       		popq	%rbx
 731              		.cfi_def_cfa_offset 8
 732 0254 E9000000 		jmp	_ZdlPv
 732      00
 733              		.cfi_endproc
 734              	.LFE1355:
 736              		.section	.text.unlikely
 737              	.LCOLDE32:
 738              		.text
 739              	.LHOTE32:
 740              		.section	.text.unlikely
 741              		.align 2
 742              	.LCOLDB33:
 743              		.text
 744              	.LHOTB33:
 745 0259 90       		.align 2
 746 025a 660F1F44 		.p2align 4,,15
 746      0000
 748              	_ZN12_GLOBAL__N_123TestCheckArrayCloseTrueD0Ev:
 749              	.LFB1359:
 750              		.cfi_startproc
 751 0260 53       		pushq	%rbx
 752              		.cfi_def_cfa_offset 16
 753              		.cfi_offset 3, -16
 754 0261 4889FB   		movq	%rdi, %rbx
 755 0264 48C70700 		movq	$_ZTVN12_GLOBAL__N_123TestCheckArrayCloseTrueE+16, (%rdi)
 755      000000
 756 026b E8000000 		call	_ZN8UnitTest4TestD2Ev
 756      00
 757 0270 4889DF   		movq	%rbx, %rdi
 758 0273 5B       		popq	%rbx
 759              		.cfi_def_cfa_offset 8
 760 0274 E9000000 		jmp	_ZdlPv
 760      00
 761              		.cfi_endproc
 762              	.LFE1359:
 764              		.section	.text.unlikely
 765              	.LCOLDE33:
 766              		.text
 767              	.LHOTE33:
 768              		.section	.text.unlikely
 769              		.align 2
 770              	.LCOLDB34:
 771              		.text
 772              	.LHOTB34:
 773 0279 90       		.align 2
 774 027a 660F1F44 		.p2align 4,,15
 774      0000
 776              	_ZN12_GLOBAL__N_124TestCheckArrayEqualFalseD0Ev:
 777              	.LFB1363:
 778              		.cfi_startproc
 779 0280 53       		pushq	%rbx
 780              		.cfi_def_cfa_offset 16
 781              		.cfi_offset 3, -16
 782 0281 4889FB   		movq	%rdi, %rbx
 783 0284 48C70700 		movq	$_ZTVN12_GLOBAL__N_124TestCheckArrayEqualFalseE+16, (%rdi)
 783      000000
 784 028b E8000000 		call	_ZN8UnitTest4TestD2Ev
 784      00
 785 0290 4889DF   		movq	%rbx, %rdi
 786 0293 5B       		popq	%rbx
 787              		.cfi_def_cfa_offset 8
 788 0294 E9000000 		jmp	_ZdlPv
 788      00
 789              		.cfi_endproc
 790              	.LFE1363:
 792              		.section	.text.unlikely
 793              	.LCOLDE34:
 794              		.text
 795              	.LHOTE34:
 796              		.section	.text.unlikely
 797              		.align 2
 798              	.LCOLDB35:
 799              		.text
 800              	.LHOTB35:
 801 0299 90       		.align 2
 802 029a 660F1F44 		.p2align 4,,15
 802      0000
 804              	_ZN12_GLOBAL__N_123TestCheckArrayEqualTrueD0Ev:
 805              	.LFB1367:
 806              		.cfi_startproc
 807 02a0 53       		pushq	%rbx
 808              		.cfi_def_cfa_offset 16
 809              		.cfi_offset 3, -16
 810 02a1 4889FB   		movq	%rdi, %rbx
 811 02a4 48C70700 		movq	$_ZTVN12_GLOBAL__N_123TestCheckArrayEqualTrueE+16, (%rdi)
 811      000000
 812 02ab E8000000 		call	_ZN8UnitTest4TestD2Ev
 812      00
 813 02b0 4889DF   		movq	%rbx, %rdi
 814 02b3 5B       		popq	%rbx
 815              		.cfi_def_cfa_offset 8
 816 02b4 E9000000 		jmp	_ZdlPv
 816      00
 817              		.cfi_endproc
 818              	.LFE1367:
 820              		.section	.text.unlikely
 821              	.LCOLDE35:
 822              		.text
 823              	.LHOTE35:
 824              		.section	.text.unlikely
 825              		.align 2
 826              	.LCOLDB36:
 827              		.text
 828              	.LHOTB36:
 829 02b9 90       		.align 2
 830 02ba 660F1F44 		.p2align 4,,15
 830      0000
 832              	_ZN12_GLOBAL__N_136TestCheckCloseFailureIncludesDetailsD0Ev:
 833              	.LFB1371:
 834              		.cfi_startproc
 835 02c0 53       		pushq	%rbx
 836              		.cfi_def_cfa_offset 16
 837              		.cfi_offset 3, -16
 838 02c1 4889FB   		movq	%rdi, %rbx
 839 02c4 48C70700 		movq	$_ZTVN12_GLOBAL__N_136TestCheckCloseFailureIncludesDetailsE+16, (%rdi)
 839      000000
 840 02cb E8000000 		call	_ZN8UnitTest4TestD2Ev
 840      00
 841 02d0 4889DF   		movq	%rbx, %rdi
 842 02d3 5B       		popq	%rbx
 843              		.cfi_def_cfa_offset 8
 844 02d4 E9000000 		jmp	_ZdlPv
 844      00
 845              		.cfi_endproc
 846              	.LFE1371:
 848              		.section	.text.unlikely
 849              	.LCOLDE36:
 850              		.text
 851              	.LHOTE36:
 852              		.section	.text.unlikely
 853              		.align 2
 854              	.LCOLDB37:
 855              		.text
 856              	.LHOTB37:
 857 02d9 90       		.align 2
 858 02da 660F1F44 		.p2align 4,,15
 858      0000
 860              	_ZN12_GLOBAL__N_138TestCheckCloseFailureIncludesToleranceD0Ev:
 861              	.LFB1375:
 862              		.cfi_startproc
 863 02e0 53       		pushq	%rbx
 864              		.cfi_def_cfa_offset 16
 865              		.cfi_offset 3, -16
 866 02e1 4889FB   		movq	%rdi, %rbx
 867 02e4 48C70700 		movq	$_ZTVN12_GLOBAL__N_138TestCheckCloseFailureIncludesToleranceE+16, (%rdi)
 867      000000
 868 02eb E8000000 		call	_ZN8UnitTest4TestD2Ev
 868      00
 869 02f0 4889DF   		movq	%rbx, %rdi
 870 02f3 5B       		popq	%rbx
 871              		.cfi_def_cfa_offset 8
 872 02f4 E9000000 		jmp	_ZdlPv
 872      00
 873              		.cfi_endproc
 874              	.LFE1375:
 876              		.section	.text.unlikely
 877              	.LCOLDE37:
 878              		.text
 879              	.LHOTE37:
 880              		.section	.text.unlikely
 881              		.align 2
 882              	.LCOLDB38:
 883              		.text
 884              	.LHOTB38:
 885 02f9 90       		.align 2
 886 02fa 660F1F44 		.p2align 4,,15
 886      0000
 888              	_ZN12_GLOBAL__N_151TestCheckCloseFailureIncludesCheckExpectedAndActualD0Ev:
 889              	.LFB1379:
 890              		.cfi_startproc
 891 0300 53       		pushq	%rbx
 892              		.cfi_def_cfa_offset 16
 893              		.cfi_offset 3, -16
 894 0301 4889FB   		movq	%rdi, %rbx
 895 0304 48C70700 		movq	$_ZTVN12_GLOBAL__N_151TestCheckCloseFailureIncludesCheckExpectedAndActualE+16, (%rdi)
 895      000000
 896 030b E8000000 		call	_ZN8UnitTest4TestD2Ev
 896      00
 897 0310 4889DF   		movq	%rbx, %rdi
 898 0313 5B       		popq	%rbx
 899              		.cfi_def_cfa_offset 8
 900 0314 E9000000 		jmp	_ZdlPv
 900      00
 901              		.cfi_endproc
 902              	.LFE1379:
 904              		.section	.text.unlikely
 905              	.LCOLDE38:
 906              		.text
 907              	.LHOTE38:
 908              		.section	.text.unlikely
 909              		.align 2
 910              	.LCOLDB39:
 911              		.text
 912              	.LHOTB39:
 913 0319 90       		.align 2
 914 031a 660F1F44 		.p2align 4,,15
 914      0000
 916              	_ZN12_GLOBAL__N_139TestCheckCloseWithNaNAgainstItselfFailsD0Ev:
 917              	.LFB1383:
 918              		.cfi_startproc
 919 0320 53       		pushq	%rbx
 920              		.cfi_def_cfa_offset 16
 921              		.cfi_offset 3, -16
 922 0321 4889FB   		movq	%rdi, %rbx
 923 0324 48C70700 		movq	$_ZTVN12_GLOBAL__N_139TestCheckCloseWithNaNAgainstItselfFailsE+16, (%rdi)
 923      000000
 924 032b E8000000 		call	_ZN8UnitTest4TestD2Ev
 924      00
 925 0330 4889DF   		movq	%rbx, %rdi
 926 0333 5B       		popq	%rbx
 927              		.cfi_def_cfa_offset 8
 928 0334 E9000000 		jmp	_ZdlPv
 928      00
 929              		.cfi_endproc
 930              	.LFE1383:
 932              		.section	.text.unlikely
 933              	.LCOLDE39:
 934              		.text
 935              	.LHOTE39:
 936              		.section	.text.unlikely
 937              		.align 2
 938              	.LCOLDB40:
 939              		.text
 940              	.LHOTB40:
 941 0339 90       		.align 2
 942 033a 660F1F44 		.p2align 4,,15
 942      0000
 944              	_ZN12_GLOBAL__N_126TestCheckCloseWithNaNFailsD0Ev:
 945              	.LFB1387:
 946              		.cfi_startproc
 947 0340 53       		pushq	%rbx
 948              		.cfi_def_cfa_offset 16
 949              		.cfi_offset 3, -16
 950 0341 4889FB   		movq	%rdi, %rbx
 951 0344 48C70700 		movq	$_ZTVN12_GLOBAL__N_126TestCheckCloseWithNaNFailsE+16, (%rdi)
 951      000000
 952 034b E8000000 		call	_ZN8UnitTest4TestD2Ev
 952      00
 953 0350 4889DF   		movq	%rbx, %rdi
 954 0353 5B       		popq	%rbx
 955              		.cfi_def_cfa_offset 8
 956 0354 E9000000 		jmp	_ZdlPv
 956      00
 957              		.cfi_endproc
 958              	.LFE1387:
 960              		.section	.text.unlikely
 961              	.LCOLDE40:
 962              		.text
 963              	.LHOTE40:
 964              		.section	.text.unlikely
 965              		.align 2
 966              	.LCOLDB41:
 967              		.text
 968              	.LHOTB41:
 969 0359 90       		.align 2
 970 035a 660F1F44 		.p2align 4,,15
 970      0000
 972              	_ZN12_GLOBAL__N_147TestCheckCloseWithZeroEpsilonWorksForSameNumberD0Ev:
 973              	.LFB1391:
 974              		.cfi_startproc
 975 0360 53       		pushq	%rbx
 976              		.cfi_def_cfa_offset 16
 977              		.cfi_offset 3, -16
 978 0361 4889FB   		movq	%rdi, %rbx
 979 0364 48C70700 		movq	$_ZTVN12_GLOBAL__N_147TestCheckCloseWithZeroEpsilonWorksForSameNumberE+16, (%rdi)
 979      000000
 980 036b E8000000 		call	_ZN8UnitTest4TestD2Ev
 980      00
 981 0370 4889DF   		movq	%rbx, %rdi
 982 0373 5B       		popq	%rbx
 983              		.cfi_def_cfa_offset 8
 984 0374 E9000000 		jmp	_ZdlPv
 984      00
 985              		.cfi_endproc
 986              	.LFE1391:
 988              		.section	.text.unlikely
 989              	.LCOLDE41:
 990              		.text
 991              	.LHOTE41:
 992              		.section	.text.unlikely
 993              		.align 2
 994              	.LCOLDB42:
 995              		.text
 996              	.LHOTB42:
 997 0379 90       		.align 2
 998 037a 660F1F44 		.p2align 4,,15
 998      0000
 1000              	_ZN12_GLOBAL__N_119TestCheckCloseFalseD0Ev:
 1001              	.LFB1395:
 1002              		.cfi_startproc
 1003 0380 53       		pushq	%rbx
 1004              		.cfi_def_cfa_offset 16
 1005              		.cfi_offset 3, -16
 1006 0381 4889FB   		movq	%rdi, %rbx
 1007 0384 48C70700 		movq	$_ZTVN12_GLOBAL__N_119TestCheckCloseFalseE+16, (%rdi)
 1007      000000
 1008 038b E8000000 		call	_ZN8UnitTest4TestD2Ev
 1008      00
 1009 0390 4889DF   		movq	%rbx, %rdi
 1010 0393 5B       		popq	%rbx
 1011              		.cfi_def_cfa_offset 8
 1012 0394 E9000000 		jmp	_ZdlPv
 1012      00
 1013              		.cfi_endproc
 1014              	.LFE1395:
 1016              		.section	.text.unlikely
 1017              	.LCOLDE42:
 1018              		.text
 1019              	.LHOTE42:
 1020              		.section	.text.unlikely
 1021              		.align 2
 1022              	.LCOLDB43:
 1023              		.text
 1024              	.LHOTB43:
 1025 0399 90       		.align 2
 1026 039a 660F1F44 		.p2align 4,,15
 1026      0000
 1028              	_ZN12_GLOBAL__N_118TestCheckCloseTrueD0Ev:
 1029              	.LFB1399:
 1030              		.cfi_startproc
 1031 03a0 53       		pushq	%rbx
 1032              		.cfi_def_cfa_offset 16
 1033              		.cfi_offset 3, -16
 1034 03a1 4889FB   		movq	%rdi, %rbx
 1035 03a4 48C70700 		movq	$_ZTVN12_GLOBAL__N_118TestCheckCloseTrueE+16, (%rdi)
 1035      000000
 1036 03ab E8000000 		call	_ZN8UnitTest4TestD2Ev
 1036      00
 1037 03b0 4889DF   		movq	%rbx, %rdi
 1038 03b3 5B       		popq	%rbx
 1039              		.cfi_def_cfa_offset 8
 1040 03b4 E9000000 		jmp	_ZdlPv
 1040      00
 1041              		.cfi_endproc
 1042              	.LFE1399:
 1044              		.section	.text.unlikely
 1045              	.LCOLDE43:
 1046              		.text
 1047              	.LHOTE43:
 1048              		.section	.text.unlikely
 1049              		.align 2
 1050              	.LCOLDB44:
 1051              		.text
 1052              	.LHOTB44:
 1053 03b9 90       		.align 2
 1054 03ba 660F1F44 		.p2align 4,,15
 1054      0000
 1056              	_ZN12_GLOBAL__N_136TestCheckEqualFailureIncludesDetailsD0Ev:
 1057              	.LFB1403:
 1058              		.cfi_startproc
 1059 03c0 53       		pushq	%rbx
 1060              		.cfi_def_cfa_offset 16
 1061              		.cfi_offset 3, -16
 1062 03c1 4889FB   		movq	%rdi, %rbx
 1063 03c4 48C70700 		movq	$_ZTVN12_GLOBAL__N_136TestCheckEqualFailureIncludesDetailsE+16, (%rdi)
 1063      000000
 1064 03cb E8000000 		call	_ZN8UnitTest4TestD2Ev
 1064      00
 1065 03d0 4889DF   		movq	%rbx, %rdi
 1066 03d3 5B       		popq	%rbx
 1067              		.cfi_def_cfa_offset 8
 1068 03d4 E9000000 		jmp	_ZdlPv
 1068      00
 1069              		.cfi_endproc
 1070              	.LFE1403:
 1072              		.section	.text.unlikely
 1073              	.LCOLDE44:
 1074              		.text
 1075              	.LHOTE44:
 1076              		.section	.text.unlikely
 1077              		.align 2
 1078              	.LCOLDB45:
 1079              		.text
 1080              	.LHOTB45:
 1081 03d9 90       		.align 2
 1082 03da 660F1F44 		.p2align 4,,15
 1082      0000
 1084              	_ZN12_GLOBAL__N_151TestCheckEqualFailureIncludesCheckExpectedAndActualD0Ev:
 1085              	.LFB1407:
 1086              		.cfi_startproc
 1087 03e0 53       		pushq	%rbx
 1088              		.cfi_def_cfa_offset 16
 1089              		.cfi_offset 3, -16
 1090 03e1 4889FB   		movq	%rdi, %rbx
 1091 03e4 48C70700 		movq	$_ZTVN12_GLOBAL__N_151TestCheckEqualFailureIncludesCheckExpectedAndActualE+16, (%rdi)
 1091      000000
 1092 03eb E8000000 		call	_ZN8UnitTest4TestD2Ev
 1092      00
 1093 03f0 4889DF   		movq	%rbx, %rdi
 1094 03f3 5B       		popq	%rbx
 1095              		.cfi_def_cfa_offset 8
 1096 03f4 E9000000 		jmp	_ZdlPv
 1096      00
 1097              		.cfi_endproc
 1098              	.LFE1407:
 1100              		.section	.text.unlikely
 1101              	.LCOLDE45:
 1102              		.text
 1103              	.LHOTE45:
 1104              		.section	.text.unlikely
 1105              		.align 2
 1106              	.LCOLDB46:
 1107              		.text
 1108              	.LHOTB46:
 1109 03f9 90       		.align 2
 1110 03fa 660F1F44 		.p2align 4,,15
 1110      0000
 1112              	_ZN12_GLOBAL__N_153TestCheckEqualsWithStringsWorksOnContentsWithALiteralD0Ev:
 1113              	.LFB1411:
 1114              		.cfi_startproc
 1115 0400 53       		pushq	%rbx
 1116              		.cfi_def_cfa_offset 16
 1117              		.cfi_offset 3, -16
 1118 0401 4889FB   		movq	%rdi, %rbx
 1119 0404 48C70700 		movq	$_ZTVN12_GLOBAL__N_153TestCheckEqualsWithStringsWorksOnContentsWithALiteralE+16, (%rdi)
 1119      000000
 1120 040b E8000000 		call	_ZN8UnitTest4TestD2Ev
 1120      00
 1121 0410 4889DF   		movq	%rbx, %rdi
 1122 0413 5B       		popq	%rbx
 1123              		.cfi_def_cfa_offset 8
 1124 0414 E9000000 		jmp	_ZdlPv
 1124      00
 1125              		.cfi_endproc
 1126              	.LFE1411:
 1128              		.section	.text.unlikely
 1129              	.LCOLDE46:
 1130              		.text
 1131              	.LHOTE46:
 1132              		.section	.text.unlikely
 1133              		.align 2
 1134              	.LCOLDB47:
 1135              		.text
 1136              	.LHOTB47:
 1137 0419 90       		.align 2
 1138 041a 660F1F44 		.p2align 4,,15
 1138      0000
 1140              	_ZN12_GLOBAL__N_154TestCheckEqualsWithStringsWorksOnContentsConstNonConstD0Ev:
 1141              	.LFB1415:
 1142              		.cfi_startproc
 1143 0420 53       		pushq	%rbx
 1144              		.cfi_def_cfa_offset 16
 1145              		.cfi_offset 3, -16
 1146 0421 4889FB   		movq	%rdi, %rbx
 1147 0424 48C70700 		movq	$_ZTVN12_GLOBAL__N_154TestCheckEqualsWithStringsWorksOnContentsConstNonConstE+16, (%rdi)
 1147      000000
 1148 042b E8000000 		call	_ZN8UnitTest4TestD2Ev
 1148      00
 1149 0430 4889DF   		movq	%rbx, %rdi
 1150 0433 5B       		popq	%rbx
 1151              		.cfi_def_cfa_offset 8
 1152 0434 E9000000 		jmp	_ZdlPv
 1152      00
 1153              		.cfi_endproc
 1154              	.LFE1415:
 1156              		.section	.text.unlikely
 1157              	.LCOLDE47:
 1158              		.text
 1159              	.LHOTE47:
 1160              		.section	.text.unlikely
 1161              		.align 2
 1162              	.LCOLDB48:
 1163              		.text
 1164              	.LHOTB48:
 1165 0439 90       		.align 2
 1166 043a 660F1F44 		.p2align 4,,15
 1166      0000
 1168              	_ZN12_GLOBAL__N_154TestCheckEqualsWithStringsWorksOnContentsNonConstConstD0Ev:
 1169              	.LFB1419:
 1170              		.cfi_startproc
 1171 0440 53       		pushq	%rbx
 1172              		.cfi_def_cfa_offset 16
 1173              		.cfi_offset 3, -16
 1174 0441 4889FB   		movq	%rdi, %rbx
 1175 0444 48C70700 		movq	$_ZTVN12_GLOBAL__N_154TestCheckEqualsWithStringsWorksOnContentsNonConstConstE+16, (%rdi)
 1175      000000
 1176 044b E8000000 		call	_ZN8UnitTest4TestD2Ev
 1176      00
 1177 0450 4889DF   		movq	%rbx, %rdi
 1178 0453 5B       		popq	%rbx
 1179              		.cfi_def_cfa_offset 8
 1180 0454 E9000000 		jmp	_ZdlPv
 1180      00
 1181              		.cfi_endproc
 1182              	.LFE1419:
 1184              		.section	.text.unlikely
 1185              	.LCOLDE48:
 1186              		.text
 1187              	.LHOTE48:
 1188              		.section	.text.unlikely
 1189              		.align 2
 1190              	.LCOLDB49:
 1191              		.text
 1192              	.LHOTB49:
 1193 0459 90       		.align 2
 1194 045a 660F1F44 		.p2align 4,,15
 1194      0000
 1196              	_ZN12_GLOBAL__N_151TestCheckEqualsWithStringsWorksOnContentsConstConstD0Ev:
 1197              	.LFB1423:
 1198              		.cfi_startproc
 1199 0460 53       		pushq	%rbx
 1200              		.cfi_def_cfa_offset 16
 1201              		.cfi_offset 3, -16
 1202 0461 4889FB   		movq	%rdi, %rbx
 1203 0464 48C70700 		movq	$_ZTVN12_GLOBAL__N_151TestCheckEqualsWithStringsWorksOnContentsConstConstE+16, (%rdi)
 1203      000000
 1204 046b E8000000 		call	_ZN8UnitTest4TestD2Ev
 1204      00
 1205 0470 4889DF   		movq	%rbx, %rdi
 1206 0473 5B       		popq	%rbx
 1207              		.cfi_def_cfa_offset 8
 1208 0474 E9000000 		jmp	_ZdlPv
 1208      00
 1209              		.cfi_endproc
 1210              	.LFE1423:
 1212              		.section	.text.unlikely
 1213              	.LCOLDE49:
 1214              		.text
 1215              	.LHOTE49:
 1216              		.section	.text.unlikely
 1217              		.align 2
 1218              	.LCOLDB50:
 1219              		.text
 1220              	.LHOTB50:
 1221 0479 90       		.align 2
 1222 047a 660F1F44 		.p2align 4,,15
 1222      0000
 1224              	_ZN12_GLOBAL__N_157TestCheckEqualsWithStringsWorksOnContentsNonConstNonConstD0Ev:
 1225              	.LFB1427:
 1226              		.cfi_startproc
 1227 0480 53       		pushq	%rbx
 1228              		.cfi_def_cfa_offset 16
 1229              		.cfi_offset 3, -16
 1230 0481 4889FB   		movq	%rdi, %rbx
 1231 0484 48C70700 		movq	$_ZTVN12_GLOBAL__N_157TestCheckEqualsWithStringsWorksOnContentsNonConstNonConstE+16, (%rdi)
 1231      000000
 1232 048b E8000000 		call	_ZN8UnitTest4TestD2Ev
 1232      00
 1233 0490 4889DF   		movq	%rbx, %rdi
 1234 0493 5B       		popq	%rbx
 1235              		.cfi_def_cfa_offset 8
 1236 0494 E9000000 		jmp	_ZdlPv
 1236      00
 1237              		.cfi_endproc
 1238              	.LFE1427:
 1240              		.section	.text.unlikely
 1241              	.LCOLDE50:
 1242              		.text
 1243              	.LHOTE50:
 1244              		.section	.text.unlikely
 1245              		.align 2
 1246              	.LCOLDB51:
 1247              		.text
 1248              	.LHOTB51:
 1249 0499 90       		.align 2
 1250 049a 660F1F44 		.p2align 4,,15
 1250      0000
 1252              	_ZN12_GLOBAL__N_149TestCheckEqualsWithStringsFailsOnDifferentStringsD0Ev:
 1253              	.LFB1431:
 1254              		.cfi_startproc
 1255 04a0 53       		pushq	%rbx
 1256              		.cfi_def_cfa_offset 16
 1257              		.cfi_offset 3, -16
 1258 04a1 4889FB   		movq	%rdi, %rbx
 1259 04a4 48C70700 		movq	$_ZTVN12_GLOBAL__N_149TestCheckEqualsWithStringsFailsOnDifferentStringsE+16, (%rdi)
 1259      000000
 1260 04ab E8000000 		call	_ZN8UnitTest4TestD2Ev
 1260      00
 1261 04b0 4889DF   		movq	%rbx, %rdi
 1262 04b3 5B       		popq	%rbx
 1263              		.cfi_def_cfa_offset 8
 1264 04b4 E9000000 		jmp	_ZdlPv
 1264      00
 1265              		.cfi_endproc
 1266              	.LFE1431:
 1268              		.section	.text.unlikely
 1269              	.LCOLDE51:
 1270              		.text
 1271              	.LHOTE51:
 1272              		.section	.text.unlikely
 1273              		.align 2
 1274              	.LCOLDB52:
 1275              		.text
 1276              	.LHOTB52:
 1277 04b9 90       		.align 2
 1278 04ba 660F1F44 		.p2align 4,,15
 1278      0000
 1280              	_ZN12_GLOBAL__N_130TestCheckEqualWithUnsignedLongD0Ev:
 1281              	.LFB1435:
 1282              		.cfi_startproc
 1283 04c0 53       		pushq	%rbx
 1284              		.cfi_def_cfa_offset 16
 1285              		.cfi_offset 3, -16
 1286 04c1 4889FB   		movq	%rdi, %rbx
 1287 04c4 48C70700 		movq	$_ZTVN12_GLOBAL__N_130TestCheckEqualWithUnsignedLongE+16, (%rdi)
 1287      000000
 1288 04cb E8000000 		call	_ZN8UnitTest4TestD2Ev
 1288      00
 1289 04d0 4889DF   		movq	%rbx, %rdi
 1290 04d3 5B       		popq	%rbx
 1291              		.cfi_def_cfa_offset 8
 1292 04d4 E9000000 		jmp	_ZdlPv
 1292      00
 1293              		.cfi_endproc
 1294              	.LFE1435:
 1296              		.section	.text.unlikely
 1297              	.LCOLDE52:
 1298              		.text
 1299              	.LHOTE52:
 1300              		.section	.text.unlikely._ZN17RecordingReporter15ReportTestStartERKN8UnitTest11TestDetailsE,"axG",@
 1301              		.align 2
 1302              	.LCOLDB53:
 1303              		.section	.text._ZN17RecordingReporter15ReportTestStartERKN8UnitTest11TestDetailsE,"axG",@progbits,
 1304              	.LHOTB53:
 1305              		.align 2
 1306              		.p2align 4,,15
 1307              		.weak	_ZN17RecordingReporter15ReportTestStartERKN8UnitTest11TestDetailsE
 1309              	_ZN17RecordingReporter15ReportTestStartERKN8UnitTest11TestDetailsE:
 1310              	.LFB1127:
 1311              		.cfi_startproc
 1312 0000 55       		pushq	%rbp
 1313              		.cfi_def_cfa_offset 16
 1314              		.cfi_offset 6, -16
 1315 0001 53       		pushq	%rbx
 1316              		.cfi_def_cfa_offset 24
 1317              		.cfi_offset 3, -24
 1318 0002 4889F5   		movq	%rsi, %rbp
 1319 0005 4889FB   		movq	%rdi, %rbx
 1320 0008 BA000100 		movl	$256, %edx
 1320      00
 1321 000d 4883EC08 		subq	$8, %rsp
 1322              		.cfi_def_cfa_offset 32
 1323 0011 83470801 		addl	$1, 8(%rdi)
 1324 0015 488B36   		movq	(%rsi), %rsi
 1325 0018 488D7F0C 		leaq	12(%rdi), %rdi
 1326 001c E8000000 		call	__strcpy_chk
 1326      00
 1327 0021 488B7508 		movq	8(%rbp), %rsi
 1328 0025 4883C408 		addq	$8, %rsp
 1329              		.cfi_def_cfa_offset 24
 1330 0029 488DBB0C 		leaq	268(%rbx), %rdi
 1330      010000
 1331 0030 5B       		popq	%rbx
 1332              		.cfi_def_cfa_offset 16
 1333 0031 5D       		popq	%rbp
 1334              		.cfi_def_cfa_offset 8
 1335 0032 BA000100 		movl	$256, %edx
 1335      00
 1336 0037 E9000000 		jmp	__strcpy_chk
 1336      00
 1337              		.cfi_endproc
 1338              	.LFE1127:
 1340              		.section	.text.unlikely._ZN17RecordingReporter15ReportTestStartERKN8UnitTest11TestDetailsE,"axG",@
 1341              	.LCOLDE53:
 1342              		.section	.text._ZN17RecordingReporter15ReportTestStartERKN8UnitTest11TestDetailsE,"axG",@progbits,
 1343              	.LHOTE53:
 1344              		.section	.text.unlikely._ZN17RecordingReporter13ReportFailureERKN8UnitTest11TestDetailsEPKc,"axG",
 1345              		.align 2
 1346              	.LCOLDB54:
 1347              		.section	.text._ZN17RecordingReporter13ReportFailureERKN8UnitTest11TestDetailsEPKc,"axG",@progbits
 1348              	.LHOTB54:
 1349              		.align 2
 1350              		.p2align 4,,15
 1351              		.weak	_ZN17RecordingReporter13ReportFailureERKN8UnitTest11TestDetailsEPKc
 1353              	_ZN17RecordingReporter13ReportFailureERKN8UnitTest11TestDetailsEPKc:
 1354              	.LFB1128:
 1355              		.cfi_startproc
 1356 0000 4154     		pushq	%r12
 1357              		.cfi_def_cfa_offset 16
 1358              		.cfi_offset 12, -16
 1359 0002 55       		pushq	%rbp
 1360              		.cfi_def_cfa_offset 24
 1361              		.cfi_offset 6, -24
 1362 0003 4889F5   		movq	%rsi, %rbp
 1363 0006 53       		pushq	%rbx
 1364              		.cfi_def_cfa_offset 32
 1365              		.cfi_offset 3, -32
 1366 0007 83870C02 		addl	$1, 524(%rdi)
 1366      000001
 1367 000e 4889FB   		movq	%rdi, %rbx
 1368 0011 488B7610 		movq	16(%rsi), %rsi
 1369 0015 488DBF10 		leaq	528(%rdi), %rdi
 1369      020000
 1370 001c 4989D4   		movq	%rdx, %r12
 1371 001f BA000100 		movl	$256, %edx
 1371      00
 1372 0024 E8000000 		call	__strcpy_chk
 1372      00
 1373 0029 8B4518   		movl	24(%rbp), %eax
 1374 002c 488B7500 		movq	0(%rbp), %rsi
 1375 0030 488DBB14 		leaq	788(%rbx), %rdi
 1375      030000
 1376 0037 BA000100 		movl	$256, %edx
 1376      00
 1377 003c 89831003 		movl	%eax, 784(%rbx)
 1377      0000
 1378 0042 E8000000 		call	__strcpy_chk
 1378      00
 1379 0047 488B7508 		movq	8(%rbp), %rsi
 1380 004b 488DBB14 		leaq	1044(%rbx), %rdi
 1380      040000
 1381 0052 BA000100 		movl	$256, %edx
 1381      00
 1382 0057 E8000000 		call	__strcpy_chk
 1382      00
 1383 005c 488DBB14 		leaq	1300(%rbx), %rdi
 1383      050000
 1384 0063 4C89E6   		movq	%r12, %rsi
 1385 0066 BA000100 		movl	$256, %edx
 1385      00
 1386 006b 5B       		popq	%rbx
 1387              		.cfi_def_cfa_offset 24
 1388 006c 5D       		popq	%rbp
 1389              		.cfi_def_cfa_offset 16
 1390 006d 415C     		popq	%r12
 1391              		.cfi_def_cfa_offset 8
 1392 006f E9000000 		jmp	__strcpy_chk
 1392      00
 1393              		.cfi_endproc
 1394              	.LFE1128:
 1396              		.section	.text.unlikely._ZN17RecordingReporter13ReportFailureERKN8UnitTest11TestDetailsEPKc,"axG",
 1397              	.LCOLDE54:
 1398              		.section	.text._ZN17RecordingReporter13ReportFailureERKN8UnitTest11TestDetailsEPKc,"axG",@progbits
 1399              	.LHOTE54:
 1400              		.section	.text.unlikely._ZN17RecordingReporter16ReportTestFinishERKN8UnitTest11TestDetailsEf,"axG"
 1401              		.align 2
 1402              	.LCOLDB55:
 1403              		.section	.text._ZN17RecordingReporter16ReportTestFinishERKN8UnitTest11TestDetailsEf,"axG",@progbit
 1404              	.LHOTB55:
 1405              		.align 2
 1406              		.p2align 4,,15
 1407              		.weak	_ZN17RecordingReporter16ReportTestFinishERKN8UnitTest11TestDetailsEf
 1409              	_ZN17RecordingReporter16ReportTestFinishERKN8UnitTest11TestDetailsEf:
 1410              	.LFB1129:
 1411              		.cfi_startproc
 1412 0000 55       		pushq	%rbp
 1413              		.cfi_def_cfa_offset 16
 1414              		.cfi_offset 6, -16
 1415 0001 53       		pushq	%rbx
 1416              		.cfi_def_cfa_offset 24
 1417              		.cfi_offset 3, -24
 1418 0002 4889F5   		movq	%rsi, %rbp
 1419 0005 4889FB   		movq	%rdi, %rbx
 1420 0008 BA000100 		movl	$256, %edx
 1420      00
 1421 000d 4883EC18 		subq	$24, %rsp
 1422              		.cfi_def_cfa_offset 48
 1423 0011 83871406 		addl	$1, 1556(%rdi)
 1423      000001
 1424 0018 488B36   		movq	(%rsi), %rsi
 1425 001b 488DBF18 		leaq	1560(%rdi), %rdi
 1425      060000
 1426 0022 F30F1144 		movss	%xmm0, 12(%rsp)
 1426      240C
 1427 0028 E8000000 		call	__strcpy_chk
 1427      00
 1428 002d 488B7508 		movq	8(%rbp), %rsi
 1429 0031 488DBB18 		leaq	1816(%rbx), %rdi
 1429      070000
 1430 0038 BA000100 		movl	$256, %edx
 1430      00
 1431 003d E8000000 		call	__strcpy_chk
 1431      00
 1432 0042 F30F1044 		movss	12(%rsp), %xmm0
 1432      240C
 1433 0048 F30F1183 		movss	%xmm0, 2072(%rbx)
 1433      18080000 
 1434 0050 4883C418 		addq	$24, %rsp
 1435              		.cfi_def_cfa_offset 24
 1436 0054 5B       		popq	%rbx
 1437              		.cfi_def_cfa_offset 16
 1438 0055 5D       		popq	%rbp
 1439              		.cfi_def_cfa_offset 8
 1440 0056 C3       		ret
 1441              		.cfi_endproc
 1442              	.LFE1129:
 1444              		.section	.text.unlikely._ZN17RecordingReporter16ReportTestFinishERKN8UnitTest11TestDetailsEf,"axG"
 1445              	.LCOLDE55:
 1446              		.section	.text._ZN17RecordingReporter16ReportTestFinishERKN8UnitTest11TestDetailsEf,"axG",@progbit
 1447              	.LHOTE55:
 1448              		.section	.text.unlikely._ZN17RecordingReporterD2Ev,"axG",@progbits,_ZN17RecordingReporterD5Ev,comd
 1449              		.align 2
 1450              	.LCOLDB56:
 1451              		.section	.text._ZN17RecordingReporterD2Ev,"axG",@progbits,_ZN17RecordingReporterD5Ev,comdat
 1452              	.LHOTB56:
 1453              		.align 2
 1454              		.p2align 4,,15
 1455              		.weak	_ZN17RecordingReporterD2Ev
 1457              	_ZN17RecordingReporterD2Ev:
 1458              	.LFB1437:
 1459              		.cfi_startproc
 1460 0000 48C70700 		movq	$_ZTV17RecordingReporter+16, (%rdi)
 1460      000000
 1461 0007 E9000000 		jmp	_ZN8UnitTest12TestReporterD2Ev
 1461      00
 1462              		.cfi_endproc
 1463              	.LFE1437:
 1465              		.section	.text.unlikely._ZN17RecordingReporterD2Ev,"axG",@progbits,_ZN17RecordingReporterD5Ev,comd
 1466              	.LCOLDE56:
 1467              		.section	.text._ZN17RecordingReporterD2Ev,"axG",@progbits,_ZN17RecordingReporterD5Ev,comdat
 1468              	.LHOTE56:
 1469              		.weak	_ZN17RecordingReporterD1Ev
 1470              		.set	_ZN17RecordingReporterD1Ev,_ZN17RecordingReporterD2Ev
 1471              		.section	.text.unlikely._ZN17RecordingReporterD0Ev,"axG",@progbits,_ZN17RecordingReporterD5Ev,comd
 1472              		.align 2
 1473              	.LCOLDB57:
 1474              		.section	.text._ZN17RecordingReporterD0Ev,"axG",@progbits,_ZN17RecordingReporterD5Ev,comdat
 1475              	.LHOTB57:
 1476              		.align 2
 1477              		.p2align 4,,15
 1478              		.weak	_ZN17RecordingReporterD0Ev
 1480              	_ZN17RecordingReporterD0Ev:
 1481              	.LFB1439:
 1482              		.cfi_startproc
 1483 0000 53       		pushq	%rbx
 1484              		.cfi_def_cfa_offset 16
 1485              		.cfi_offset 3, -16
 1486 0001 4889FB   		movq	%rdi, %rbx
 1487 0004 48C70700 		movq	$_ZTV17RecordingReporter+16, (%rdi)
 1487      000000
 1488 000b E8000000 		call	_ZN8UnitTest12TestReporterD2Ev
 1488      00
 1489 0010 4889DF   		movq	%rbx, %rdi
 1490 0013 5B       		popq	%rbx
 1491              		.cfi_def_cfa_offset 8
 1492 0014 E9000000 		jmp	_ZdlPv
 1492      00
 1493              		.cfi_endproc
 1494              	.LFE1439:
 1496              		.section	.text.unlikely._ZN17RecordingReporterD0Ev,"axG",@progbits,_ZN17RecordingReporterD5Ev,comd
 1497              	.LCOLDE57:
 1498              		.section	.text._ZN17RecordingReporterD0Ev,"axG",@progbits,_ZN17RecordingReporterD5Ev,comdat
 1499              	.LHOTE57:
 1500              		.section	.text.unlikely._ZN8UnitTest15MemoryOutStreamD1Ev,"axG",@progbits,_ZN8UnitTest15MemoryOutS
 1501              		.align 2
 1502              	.LCOLDB58:
 1503              		.section	.text._ZN8UnitTest15MemoryOutStreamD1Ev,"axG",@progbits,_ZN8UnitTest15MemoryOutStreamD1Ev
 1504              	.LHOTB58:
 1505              		.align 2
 1506              		.p2align 4,,15
 1507              		.weak	_ZN8UnitTest15MemoryOutStreamD1Ev
 1509              	_ZN8UnitTest15MemoryOutStreamD1Ev:
 1510              	.LFB1265:
 1511              		.cfi_startproc
 1512 0000 53       		pushq	%rbx
 1513              		.cfi_def_cfa_offset 16
 1514              		.cfi_offset 3, -16
 1515 0001 4889FB   		movq	%rdi, %rbx
 1516 0004 4883EC10 		subq	$16, %rsp
 1517              		.cfi_def_cfa_offset 32
 1518 0008 48C70700 		movq	$_ZTVN8UnitTest15MemoryOutStreamE+24, (%rdi)
 1518      000000
 1519 000f 48C74760 		movq	$_ZTVN8UnitTest15MemoryOutStreamE+64, 96(%rdi)
 1519      00000000 
 1520 0017 64488B04 		movq	%fs:40, %rax
 1520      25280000 
 1520      00
 1521 0020 48894424 		movq	%rax, 8(%rsp)
 1521      08
 1522 0025 31C0     		xorl	%eax, %eax
 1523 0027 488B4758 		movq	88(%rdi), %rax
 1524 002b 488D78E8 		leaq	-24(%rax), %rdi
 1525 002f 4881FF00 		cmpq	$_ZNSs4_Rep20_S_empty_rep_storageE, %rdi
 1525      000000
 1526 0036 7568     		jne	.L103
 1527              	.L91:
 1528 0038 488B4350 		movq	80(%rbx), %rax
 1529 003c 48C70300 		movq	$_ZTCN8UnitTest15MemoryOutStreamE0_St19basic_ostringstreamIcSt11char_traitsIcESaIcEE+24, (%rb
 1529      000000
 1530 0043 48C74360 		movq	$_ZTCN8UnitTest15MemoryOutStreamE0_St19basic_ostringstreamIcSt11char_traitsIcESaIcEE+64, 96(%
 1530      00000000 
 1531 004b 48C74308 		movq	$_ZTVSt15basic_stringbufIcSt11char_traitsIcESaIcEE+16, 8(%rbx)
 1531      00000000 
 1532 0053 488D78E8 		leaq	-24(%rax), %rdi
 1533 0057 4881FF00 		cmpq	$_ZNSs4_Rep20_S_empty_rep_storageE, %rdi
 1533      000000
 1534 005e 7570     		jne	.L104
 1535              	.L96:
 1536 0060 488D7B40 		leaq	64(%rbx), %rdi
 1537 0064 48C74308 		movq	$_ZTVSt15basic_streambufIcSt11char_traitsIcEE+16, 8(%rbx)
 1537      00000000 
 1538 006c E8000000 		call	_ZNSt6localeD1Ev
 1538      00
 1539 0071 488D7B60 		leaq	96(%rbx), %rdi
 1540 0075 48C74360 		movq	$_ZTVSt9basic_iosIcSt11char_traitsIcEE+16, 96(%rbx)
 1540      00000000 
 1541 007d E8000000 		call	_ZNSt8ios_baseD2Ev
 1541      00
 1542 0082 488B4424 		movq	8(%rsp), %rax
 1542      08
 1543 0087 64483304 		xorq	%fs:40, %rax
 1543      25280000 
 1543      00
 1544 0090 0F858700 		jne	.L105
 1544      0000
 1545 0096 4883C410 		addq	$16, %rsp
 1546              		.cfi_remember_state
 1547              		.cfi_def_cfa_offset 16
 1548 009a 5B       		popq	%rbx
 1549              		.cfi_def_cfa_offset 8
 1550 009b C3       		ret
 1551 009c 0F1F4000 		.p2align 4,,10
 1552              		.p2align 3
 1553              	.L103:
 1554              		.cfi_restore_state
 1555 00a0 BA000000 		movl	$_ZL28__gthrw___pthread_key_createPjPFvPvE, %edx
 1555      00
 1556 00a5 4885D2   		testq	%rdx, %rdx
 1557 00a8 7466     		je	.L92
 1558 00aa BAFFFFFF 		movl	$-1, %edx
 1558      FF
 1559 00af F00FC150 		lock xaddl	%edx, -8(%rax)
 1559      F8
 1560 00b4 89D0     		movl	%edx, %eax
 1561              	.L93:
 1562 00b6 85C0     		testl	%eax, %eax
 1563 00b8 0F8F7AFF 		jg	.L91
 1563      FFFF
 1564 00be 488D7424 		leaq	7(%rsp), %rsi
 1564      07
 1565 00c3 E8000000 		call	_ZNSs4_Rep10_M_destroyERKSaIcE
 1565      00
 1566 00c8 E96BFFFF 		jmp	.L91
 1566      FF
 1567 00cd 0F1F00   		.p2align 4,,10
 1568              		.p2align 3
 1569              	.L104:
 1570 00d0 BA000000 		movl	$_ZL28__gthrw___pthread_key_createPjPFvPvE, %edx
 1570      00
 1571 00d5 4885D2   		testq	%rdx, %rdx
 1572 00d8 7426     		je	.L97
 1573 00da BAFFFFFF 		movl	$-1, %edx
 1573      FF
 1574 00df F00FC150 		lock xaddl	%edx, -8(%rax)
 1574      F8
 1575 00e4 89D0     		movl	%edx, %eax
 1576              	.L98:
 1577 00e6 85C0     		testl	%eax, %eax
 1578 00e8 0F8F72FF 		jg	.L96
 1578      FFFF
 1579 00ee 488D7424 		leaq	7(%rsp), %rsi
 1579      07
 1580 00f3 E8000000 		call	_ZNSs4_Rep10_M_destroyERKSaIcE
 1580      00
 1581 00f8 E963FFFF 		jmp	.L96
 1581      FF
 1582 00fd 0F1F00   		.p2align 4,,10
 1583              		.p2align 3
 1584              	.L97:
 1585 0100 8B50F8   		movl	-8(%rax), %edx
 1586 0103 8D4AFF   		leal	-1(%rdx), %ecx
 1587 0106 8948F8   		movl	%ecx, -8(%rax)
 1588 0109 89D0     		movl	%edx, %eax
 1589 010b EBD9     		jmp	.L98
 1590 010d 0F1F00   		.p2align 4,,10
 1591              		.p2align 3
 1592              	.L92:
 1593 0110 8B50F8   		movl	-8(%rax), %edx
 1594 0113 8D4AFF   		leal	-1(%rdx), %ecx
 1595 0116 8948F8   		movl	%ecx, -8(%rax)
 1596 0119 89D0     		movl	%edx, %eax
 1597 011b EB99     		jmp	.L93
 1598              	.L105:
 1599 011d E8000000 		call	__stack_chk_fail
 1599      00
 1600              		.cfi_endproc
 1601              	.LFE1265:
 1603              		.section	.text.unlikely._ZN8UnitTest15MemoryOutStreamD1Ev,"axG",@progbits,_ZN8UnitTest15MemoryOutS
 1604              	.LCOLDE58:
 1605              		.section	.text._ZN8UnitTest15MemoryOutStreamD1Ev,"axG",@progbits,_ZN8UnitTest15MemoryOutStreamD1Ev
 1606              	.LHOTE58:
 1607              		.set	.LTHUNK0,_ZN8UnitTest15MemoryOutStreamD1Ev
 1608              	.LCOLDB59:
 1609              	.LHOTB59:
 1610 0122 0F1F4000 		.p2align 4,,15
 1610      662E0F1F 
 1610      84000000 
 1610      0000
 1611              		.weak	_ZTv0_n24_N8UnitTest15MemoryOutStreamD1Ev
 1613              	_ZTv0_n24_N8UnitTest15MemoryOutStreamD1Ev:
 1614              	.LFB1458:
 1615              		.cfi_startproc
 1616 0130 4C8B17   		movq	(%rdi), %r10
 1617 0133 49037AE8 		addq	-24(%r10), %rdi
 1618 0137 E9C4FEFF 		jmp	.LTHUNK0
 1618      FF
 1619              		.cfi_endproc
 1620              	.LFE1458:
 1622              	.LCOLDE59:
 1623              	.LHOTE59:
 1624              		.section	.text.unlikely._ZN8UnitTest15MemoryOutStreamD0Ev,"axG",@progbits,_ZN8UnitTest15MemoryOutS
 1625              		.align 2
 1626              	.LCOLDB60:
 1627              		.section	.text._ZN8UnitTest15MemoryOutStreamD0Ev,"axG",@progbits,_ZN8UnitTest15MemoryOutStreamD0Ev
 1628              	.LHOTB60:
 1629              		.align 2
 1630              		.p2align 4,,15
 1631              		.weak	_ZN8UnitTest15MemoryOutStreamD0Ev
 1633              	_ZN8UnitTest15MemoryOutStreamD0Ev:
 1634              	.LFB1266:
 1635              		.cfi_startproc
 1636 0000 53       		pushq	%rbx
 1637              		.cfi_def_cfa_offset 16
 1638              		.cfi_offset 3, -16
 1639 0001 4889FB   		movq	%rdi, %rbx
 1640 0004 4883EC10 		subq	$16, %rsp
 1641              		.cfi_def_cfa_offset 32
 1642 0008 48C70700 		movq	$_ZTVN8UnitTest15MemoryOutStreamE+24, (%rdi)
 1642      000000
 1643 000f 48C74760 		movq	$_ZTVN8UnitTest15MemoryOutStreamE+64, 96(%rdi)
 1643      00000000 
 1644 0017 64488B04 		movq	%fs:40, %rax
 1644      25280000 
 1644      00
 1645 0020 48894424 		movq	%rax, 8(%rsp)
 1645      08
 1646 0025 31C0     		xorl	%eax, %eax
 1647 0027 488B4758 		movq	88(%rdi), %rax
 1648 002b 488D78E8 		leaq	-24(%rax), %rdi
 1649 002f 4881FF00 		cmpq	$_ZNSs4_Rep20_S_empty_rep_storageE, %rdi
 1649      000000
 1650 0036 7570     		jne	.L119
 1651              	.L108:
 1652 0038 488B4350 		movq	80(%rbx), %rax
 1653 003c 48C70300 		movq	$_ZTCN8UnitTest15MemoryOutStreamE0_St19basic_ostringstreamIcSt11char_traitsIcESaIcEE+24, (%rb
 1653      000000
 1654 0043 48C74360 		movq	$_ZTCN8UnitTest15MemoryOutStreamE0_St19basic_ostringstreamIcSt11char_traitsIcESaIcEE+64, 96(%
 1654      00000000 
 1655 004b 48C74308 		movq	$_ZTVSt15basic_stringbufIcSt11char_traitsIcESaIcEE+16, 8(%rbx)
 1655      00000000 
 1656 0053 488D78E8 		leaq	-24(%rax), %rdi
 1657 0057 4881FF00 		cmpq	$_ZNSs4_Rep20_S_empty_rep_storageE, %rdi
 1657      000000
 1658 005e 7578     		jne	.L120
 1659              	.L113:
 1660 0060 488D7B40 		leaq	64(%rbx), %rdi
 1661 0064 48C74308 		movq	$_ZTVSt15basic_streambufIcSt11char_traitsIcEE+16, 8(%rbx)
 1661      00000000 
 1662 006c E8000000 		call	_ZNSt6localeD1Ev
 1662      00
 1663 0071 488D7B60 		leaq	96(%rbx), %rdi
 1664 0075 48C74360 		movq	$_ZTVSt9basic_iosIcSt11char_traitsIcEE+16, 96(%rbx)
 1664      00000000 
 1665 007d E8000000 		call	_ZNSt8ios_baseD2Ev
 1665      00
 1666 0082 4889DF   		movq	%rbx, %rdi
 1667 0085 E8000000 		call	_ZdlPv
 1667      00
 1668 008a 488B4424 		movq	8(%rsp), %rax
 1668      08
 1669 008f 64483304 		xorq	%fs:40, %rax
 1669      25280000 
 1669      00
 1670 0098 0F858700 		jne	.L121
 1670      0000
 1671 009e 4883C410 		addq	$16, %rsp
 1672              		.cfi_remember_state
 1673              		.cfi_def_cfa_offset 16
 1674 00a2 5B       		popq	%rbx
 1675              		.cfi_def_cfa_offset 8
 1676 00a3 C3       		ret
 1677              		.p2align 4,,10
 1678 00a4 0F1F4000 		.p2align 3
 1679              	.L119:
 1680              		.cfi_restore_state
 1681 00a8 BA000000 		movl	$_ZL28__gthrw___pthread_key_createPjPFvPvE, %edx
 1681      00
 1682 00ad 4885D2   		testq	%rdx, %rdx
 1683 00b0 7466     		je	.L109
 1684 00b2 BAFFFFFF 		movl	$-1, %edx
 1684      FF
 1685 00b7 F00FC150 		lock xaddl	%edx, -8(%rax)
 1685      F8
 1686 00bc 89D0     		movl	%edx, %eax
 1687              	.L110:
 1688 00be 85C0     		testl	%eax, %eax
 1689 00c0 0F8F72FF 		jg	.L108
 1689      FFFF
 1690 00c6 488D7424 		leaq	7(%rsp), %rsi
 1690      07
 1691 00cb E8000000 		call	_ZNSs4_Rep10_M_destroyERKSaIcE
 1691      00
 1692 00d0 E963FFFF 		jmp	.L108
 1692      FF
 1693              		.p2align 4,,10
 1694 00d5 0F1F00   		.p2align 3
 1695              	.L120:
 1696 00d8 BA000000 		movl	$_ZL28__gthrw___pthread_key_createPjPFvPvE, %edx
 1696      00
 1697 00dd 4885D2   		testq	%rdx, %rdx
 1698 00e0 7426     		je	.L114
 1699 00e2 BAFFFFFF 		movl	$-1, %edx
 1699      FF
 1700 00e7 F00FC150 		lock xaddl	%edx, -8(%rax)
 1700      F8
 1701 00ec 89D0     		movl	%edx, %eax
 1702              	.L115:
 1703 00ee 85C0     		testl	%eax, %eax
 1704 00f0 0F8F6AFF 		jg	.L113
 1704      FFFF
 1705 00f6 488D7424 		leaq	7(%rsp), %rsi
 1705      07
 1706 00fb E8000000 		call	_ZNSs4_Rep10_M_destroyERKSaIcE
 1706      00
 1707 0100 E95BFFFF 		jmp	.L113
 1707      FF
 1708              		.p2align 4,,10
 1709 0105 0F1F00   		.p2align 3
 1710              	.L114:
 1711 0108 8B50F8   		movl	-8(%rax), %edx
 1712 010b 8D4AFF   		leal	-1(%rdx), %ecx
 1713 010e 8948F8   		movl	%ecx, -8(%rax)
 1714 0111 89D0     		movl	%edx, %eax
 1715 0113 EBD9     		jmp	.L115
 1716              		.p2align 4,,10
 1717 0115 0F1F00   		.p2align 3
 1718              	.L109:
 1719 0118 8B50F8   		movl	-8(%rax), %edx
 1720 011b 8D4AFF   		leal	-1(%rdx), %ecx
 1721 011e 8948F8   		movl	%ecx, -8(%rax)
 1722 0121 89D0     		movl	%edx, %eax
 1723 0123 EB99     		jmp	.L110
 1724              	.L121:
 1725 0125 E8000000 		call	__stack_chk_fail
 1725      00
 1726              		.cfi_endproc
 1727              	.LFE1266:
 1729              		.section	.text.unlikely._ZN8UnitTest15MemoryOutStreamD0Ev,"axG",@progbits,_ZN8UnitTest15MemoryOutS
 1730              	.LCOLDE60:
 1731              		.section	.text._ZN8UnitTest15MemoryOutStreamD0Ev,"axG",@progbits,_ZN8UnitTest15MemoryOutStreamD0Ev
 1732              	.LHOTE60:
 1733              		.set	.LTHUNK1,_ZN8UnitTest15MemoryOutStreamD0Ev
 1734              	.LCOLDB61:
 1735              	.LHOTB61:
 1736 012a 660F1F44 		.p2align 4,,15
 1736      0000
 1737              		.weak	_ZTv0_n24_N8UnitTest15MemoryOutStreamD0Ev
 1739              	_ZTv0_n24_N8UnitTest15MemoryOutStreamD0Ev:
 1740              	.LFB1459:
 1741              		.cfi_startproc
 1742 0130 4C8B17   		movq	(%rdi), %r10
 1743 0133 49037AE8 		addq	-24(%r10), %rdi
 1744 0137 E9C4FEFF 		jmp	.LTHUNK1
 1744      FF
 1745              		.cfi_endproc
 1746              	.LFE1459:
 1748              	.LCOLDE61:
 1749              	.LHOTE61:
 1750              		.section	.text.unlikely._ZNSt15basic_stringbufIcSt11char_traitsIcESaIcEED2Ev,"axG",@progbits,_ZNSt
 1751              		.align 2
 1752              	.LCOLDB62:
 1753              		.section	.text._ZNSt15basic_stringbufIcSt11char_traitsIcESaIcEED2Ev,"axG",@progbits,_ZNSt15basic_s
 1754              	.LHOTB62:
 1755              		.align 2
 1756              		.p2align 4,,15
 1757              		.weak	_ZNSt15basic_stringbufIcSt11char_traitsIcESaIcEED2Ev
 1759              	_ZNSt15basic_stringbufIcSt11char_traitsIcESaIcEED2Ev:
 1760              	.LFB1244:
 1761              		.cfi_startproc
 1762 0000 53       		pushq	%rbx
 1763              		.cfi_def_cfa_offset 16
 1764              		.cfi_offset 3, -16
 1765 0001 4889FB   		movq	%rdi, %rbx
 1766 0004 4883EC10 		subq	$16, %rsp
 1767              		.cfi_def_cfa_offset 32
 1768 0008 48C70700 		movq	$_ZTVSt15basic_stringbufIcSt11char_traitsIcESaIcEE+16, (%rdi)
 1768      000000
 1769 000f 64488B04 		movq	%fs:40, %rax
 1769      25280000 
 1769      00
 1770 0018 48894424 		movq	%rax, 8(%rsp)
 1770      08
 1771 001d 31C0     		xorl	%eax, %eax
 1772 001f 488B4748 		movq	72(%rdi), %rax
 1773 0023 488D78E8 		leaq	-24(%rax), %rdi
 1774 0027 4881FF00 		cmpq	$_ZNSs4_Rep20_S_empty_rep_storageE, %rdi
 1774      000000
 1775 002e 7530     		jne	.L130
 1776              	.L124:
 1777 0030 488D7B38 		leaq	56(%rbx), %rdi
 1778 0034 48C70300 		movq	$_ZTVSt15basic_streambufIcSt11char_traitsIcEE+16, (%rbx)
 1778      000000
 1779 003b E8000000 		call	_ZNSt6localeD1Ev
 1779      00
 1780 0040 488B4424 		movq	8(%rsp), %rax
 1780      08
 1781 0045 64483304 		xorq	%fs:40, %rax
 1781      25280000 
 1781      00
 1782 004e 754D     		jne	.L131
 1783 0050 4883C410 		addq	$16, %rsp
 1784              		.cfi_remember_state
 1785              		.cfi_def_cfa_offset 16
 1786 0054 5B       		popq	%rbx
 1787              		.cfi_def_cfa_offset 8
 1788 0055 C3       		ret
 1789 0056 662E0F1F 		.p2align 4,,10
 1789      84000000 
 1789      0000
 1790              		.p2align 3
 1791              	.L130:
 1792              		.cfi_restore_state
 1793 0060 BA000000 		movl	$_ZL28__gthrw___pthread_key_createPjPFvPvE, %edx
 1793      00
 1794 0065 4885D2   		testq	%rdx, %rdx
 1795 0068 7426     		je	.L125
 1796 006a BAFFFFFF 		movl	$-1, %edx
 1796      FF
 1797 006f F00FC150 		lock xaddl	%edx, -8(%rax)
 1797      F8
 1798 0074 89D0     		movl	%edx, %eax
 1799              	.L126:
 1800 0076 85C0     		testl	%eax, %eax
 1801 0078 7FB6     		jg	.L124
 1802 007a 488D7424 		leaq	7(%rsp), %rsi
 1802      07
 1803 007f E8000000 		call	_ZNSs4_Rep10_M_destroyERKSaIcE
 1803      00
 1804 0084 EBAA     		jmp	.L124
 1805 0086 662E0F1F 		.p2align 4,,10
 1805      84000000 
 1805      0000
 1806              		.p2align 3
 1807              	.L125:
 1808 0090 8B50F8   		movl	-8(%rax), %edx
 1809 0093 8D4AFF   		leal	-1(%rdx), %ecx
 1810 0096 8948F8   		movl	%ecx, -8(%rax)
 1811 0099 89D0     		movl	%edx, %eax
 1812 009b EBD9     		jmp	.L126
 1813              	.L131:
 1814 009d E8000000 		call	__stack_chk_fail
 1814      00
 1815              		.cfi_endproc
 1816              	.LFE1244:
 1818              		.section	.text.unlikely._ZNSt15basic_stringbufIcSt11char_traitsIcESaIcEED2Ev,"axG",@progbits,_ZNSt
 1819              	.LCOLDE62:
 1820              		.section	.text._ZNSt15basic_stringbufIcSt11char_traitsIcESaIcEED2Ev,"axG",@progbits,_ZNSt15basic_s
 1821              	.LHOTE62:
 1822              		.weak	_ZNSt15basic_stringbufIcSt11char_traitsIcESaIcEED1Ev
 1823              		.set	_ZNSt15basic_stringbufIcSt11char_traitsIcESaIcEED1Ev,_ZNSt15basic_stringbufIcSt11char_traitsI
 1824              		.section	.rodata.str1.1,"aMS",@progbits,1
 1825              	.LC63:
 1826 0000 45787065 		.string	"Expected [ "
 1826      63746564 
 1826      205B2000 
 1827              	.LC64:
 1828 000c 5B2000   		.string	"[ "
 1829              	.LC65:
 1830 000f 2000     		.string	" "
 1831              	.LC66:
 1832 0011 5D2000   		.string	"] "
 1833              	.LC67:
 1834 0014 5D202B2F 		.string	"] +/- "
 1834      2D2000
 1835              	.LC68:
 1836 001b 20627574 		.string	" but was [ "
 1836      20776173 
 1836      205B2000 
 1837              	.LC69:
 1838 0027 5D00     		.string	"]"
 1839              		.section	.text.unlikely
 1840              	.LCOLDB70:
 1841              		.text
 1842              	.LHOTB70:
 1843 04d9 0F1F8000 		.p2align 4,,15
 1843      000000
 1845              	_ZN8UnitTest17CheckArray2DCloseIA3_A3_fS2_fEEvRNS_11TestResultsERKT_RKT0_iiRKT1_RKNS_11TestDetailsE
 1846              	.LFB1455:
 1847              		.cfi_startproc
 1848              		.cfi_personality 0x3,__gxx_personality_v0
 1849              		.cfi_lsda 0x3,.LLSDA1455
 1850 04e0 4157     		pushq	%r15
 1851              		.cfi_def_cfa_offset 16
 1852              		.cfi_offset 15, -16
 1853 04e2 4156     		pushq	%r14
 1854              		.cfi_def_cfa_offset 24
 1855              		.cfi_offset 14, -24
 1856 04e4 4D89C7   		movq	%r8, %r15
 1857 04e7 4155     		pushq	%r13
 1858              		.cfi_def_cfa_offset 32
 1859              		.cfi_offset 13, -32
 1860 04e9 4154     		pushq	%r12
 1861              		.cfi_def_cfa_offset 40
 1862              		.cfi_offset 12, -40
 1863 04eb 4989CE   		movq	%rcx, %r14
 1864 04ee 55       		pushq	%rbp
 1865              		.cfi_def_cfa_offset 48
 1866              		.cfi_offset 6, -48
 1867 04ef 53       		pushq	%rbx
 1868              		.cfi_def_cfa_offset 56
 1869              		.cfi_offset 3, -56
 1870 04f0 4989F4   		movq	%rsi, %r12
 1871 04f3 4889D5   		movq	%rdx, %rbp
 1872 04f6 4881EC98 		subq	$408, %rsp
 1872      010000
 1873              		.cfi_def_cfa_offset 464
 1874 04fd F30F100E 		movss	(%rsi), %xmm1
 1875 0501 48897C24 		movq	%rdi, 8(%rsp)
 1875      08
 1876 0506 0F28D9   		movaps	%xmm1, %xmm3
 1877 0509 F30F1001 		movss	(%rcx), %xmm0
 1878 050d F30F1012 		movss	(%rdx), %xmm2
 1879 0511 F30F5CD8 		subss	%xmm0, %xmm3
 1880 0515 64488B04 		movq	%fs:40, %rax
 1880      25280000 
 1880      00
 1881 051e 48898424 		movq	%rax, 392(%rsp)
 1881      88010000 
 1882 0526 31C0     		xorl	%eax, %eax
 1883 0528 31C0     		xorl	%eax, %eax
 1884 052a 0F2ED3   		ucomiss	%xmm3, %xmm2
 1885 052d 720A     		jb	.L133
 1886 052f F30F58C8 		addss	%xmm0, %xmm1
 1887 0533 0F2ECA   		ucomiss	%xmm2, %xmm1
 1888 0536 0F93C0   		setnb	%al
 1889              	.L133:
 1890 0539 F3410F10 		movss	4(%r12), %xmm1
 1890      4C2404
 1891 0540 0F28D9   		movaps	%xmm1, %xmm3
 1892 0543 F30F1055 		movss	4(%rbp), %xmm2
 1892      04
 1893 0548 F30F5CD8 		subss	%xmm0, %xmm3
 1894 054c 0F2ED3   		ucomiss	%xmm3, %xmm2
 1895 054f 0F82B704 		jb	.L206
 1895      0000
 1896 0555 F30F58C8 		addss	%xmm0, %xmm1
 1897 0559 BA000000 		movl	$0, %edx
 1897      00
 1898 055e 0F2ECA   		ucomiss	%xmm2, %xmm1
 1899 0561 0F42C2   		cmovb	%edx, %eax
 1900              	.L135:
 1901 0564 F3410F10 		movss	8(%r12), %xmm1
 1901      4C2408
 1902 056b 0F28D9   		movaps	%xmm1, %xmm3
 1903 056e F30F1055 		movss	8(%rbp), %xmm2
 1903      08
 1904 0573 F30F5CD8 		subss	%xmm0, %xmm3
 1905 0577 0F2ED3   		ucomiss	%xmm3, %xmm2
 1906 057a 0F828504 		jb	.L207
 1906      0000
 1907 0580 F30F58C8 		addss	%xmm0, %xmm1
 1908 0584 BA000000 		movl	$0, %edx
 1908      00
 1909 0589 0F2ECA   		ucomiss	%xmm2, %xmm1
 1910 058c 0F42C2   		cmovb	%edx, %eax
 1911              	.L137:
 1912 058f F3410F10 		movss	12(%r12), %xmm1
 1912      4C240C
 1913 0596 31D2     		xorl	%edx, %edx
 1914 0598 0F28D9   		movaps	%xmm1, %xmm3
 1915 059b F30F1055 		movss	12(%rbp), %xmm2
 1915      0C
 1916 05a0 F30F5CD8 		subss	%xmm0, %xmm3
 1917 05a4 0F2ED3   		ucomiss	%xmm3, %xmm2
 1918 05a7 720A     		jb	.L139
 1919 05a9 F30F58C8 		addss	%xmm0, %xmm1
 1920 05ad 0F2ECA   		ucomiss	%xmm2, %xmm1
 1921 05b0 0F93C2   		setnb	%dl
 1922              	.L139:
 1923 05b3 F3410F10 		movss	16(%r12), %xmm1
 1923      4C2410
 1924 05ba 0F28D9   		movaps	%xmm1, %xmm3
 1925 05bd F30F1055 		movss	16(%rbp), %xmm2
 1925      10
 1926 05c2 F30F5CD8 		subss	%xmm0, %xmm3
 1927 05c6 0F2ED3   		ucomiss	%xmm3, %xmm2
 1928 05c9 0F822F04 		jb	.L209
 1928      0000
 1929 05cf F30F58C8 		addss	%xmm0, %xmm1
 1930 05d3 B9000000 		movl	$0, %ecx
 1930      00
 1931 05d8 0F2ECA   		ucomiss	%xmm2, %xmm1
 1932 05db 0F42D1   		cmovb	%ecx, %edx
 1933              	.L141:
 1934 05de F3410F10 		movss	20(%r12), %xmm1
 1934      4C2414
 1935 05e5 0F28D9   		movaps	%xmm1, %xmm3
 1936 05e8 F30F1055 		movss	20(%rbp), %xmm2
 1936      14
 1937 05ed F30F5CD8 		subss	%xmm0, %xmm3
 1938 05f1 0F2ED3   		ucomiss	%xmm3, %xmm2
 1939 05f4 0F82FD03 		jb	.L210
 1939      0000
 1940 05fa F30F58C8 		addss	%xmm0, %xmm1
 1941 05fe 21D0     		andl	%edx, %eax
 1942 0600 BA000000 		movl	$0, %edx
 1942      00
 1943 0605 0F2ECA   		ucomiss	%xmm2, %xmm1
 1944 0608 0F42C2   		cmovb	%edx, %eax
 1945              	.L143:
 1946 060b F3410F10 		movss	24(%r12), %xmm1
 1946      4C2418
 1947 0612 31D2     		xorl	%edx, %edx
 1948 0614 0F28D9   		movaps	%xmm1, %xmm3
 1949 0617 F30F1055 		movss	24(%rbp), %xmm2
 1949      18
 1950 061c F30F5CD8 		subss	%xmm0, %xmm3
 1951 0620 0F2ED3   		ucomiss	%xmm3, %xmm2
 1952 0623 720A     		jb	.L146
 1953 0625 F30F58C8 		addss	%xmm0, %xmm1
 1954 0629 0F2ECA   		ucomiss	%xmm2, %xmm1
 1955 062c 0F93C2   		setnb	%dl
 1956              	.L146:
 1957 062f F3410F10 		movss	28(%r12), %xmm1
 1957      4C241C
 1958 0636 0F28D9   		movaps	%xmm1, %xmm3
 1959 0639 F30F1055 		movss	28(%rbp), %xmm2
 1959      1C
 1960 063e F30F5CD8 		subss	%xmm0, %xmm3
 1961 0642 0F2ED3   		ucomiss	%xmm3, %xmm2
 1962 0645 0F82A503 		jb	.L212
 1962      0000
 1963 064b F30F58C8 		addss	%xmm0, %xmm1
 1964 064f B9000000 		movl	$0, %ecx
 1964      00
 1965 0654 0F2ECA   		ucomiss	%xmm2, %xmm1
 1966 0657 0F42D1   		cmovb	%ecx, %edx
 1967              	.L148:
 1968 065a F3410F10 		movss	32(%r12), %xmm2
 1968      542420
 1969 0661 0F28DA   		movaps	%xmm2, %xmm3
 1970 0664 F30F104D 		movss	32(%rbp), %xmm1
 1970      20
 1971 0669 F30F5CD8 		subss	%xmm0, %xmm3
 1972 066d 0F2ECB   		ucomiss	%xmm3, %xmm1
 1973 0670 0F835903 		jnb	.L218
 1973      0000
 1974              	.L150:
 1975 0676 488D9C24 		leaq	128(%rsp), %rbx
 1975      80000000 
 1976 067e 4889DF   		movq	%rbx, %rdi
 1977 0681 E8000000 		call	_ZNSt8ios_baseC2Ev
 1977      00
 1978 0686 31F6     		xorl	%esi, %esi
 1979 0688 4889DF   		movq	%rbx, %rdi
 1980 068b 48C78424 		movq	$0, 344(%rsp)
 1980      58010000 
 1980      00000000 
 1981 0697 C6842460 		movb	$0, 352(%rsp)
 1981      01000000 
 1982 069f C6842461 		movb	$0, 353(%rsp)
 1982      01000000 
 1983 06a7 48C78424 		movq	$0, 360(%rsp)
 1983      68010000 
 1983      00000000 
 1984 06b3 48C78424 		movq	$0, 368(%rsp)
 1984      70010000 
 1984      00000000 
 1985 06bf 48C78424 		movq	$0, 376(%rsp)
 1985      78010000 
 1985      00000000 
 1986 06cb 48C78424 		movq	$0, 384(%rsp)
 1986      80010000 
 1986      00000000 
 1987 06d7 48C74424 		movq	$_ZTCN8UnitTest15MemoryOutStreamE0_So+24, 32(%rsp)
 1987      20000000 
 1987      00
 1988 06e0 48C78424 		movq	$_ZTCN8UnitTest15MemoryOutStreamE0_So+64, 128(%rsp)
 1988      80000000 
 1988      00000000 
 1989              	.LEHB0:
 1990 06ec E8000000 		call	_ZNSt9basic_iosIcSt11char_traitsIcEE4initEPSt15basic_streambufIcS1_E
 1990      00
 1991              	.LEHE0:
 1992 06f1 488D7C24 		leaq	96(%rsp), %rdi
 1992      60
 1993 06f6 48C74424 		movq	$_ZTCN8UnitTest15MemoryOutStreamE0_St19basic_ostringstreamIcSt11char_traitsIcESaIcEE+24, 32(%
 1993      20000000 
 1993      00
 1994 06ff 48C78424 		movq	$_ZTCN8UnitTest15MemoryOutStreamE0_St19basic_ostringstreamIcSt11char_traitsIcESaIcEE+64, 128(
 1994      80000000 
 1994      00000000 
 1995 070b 48C74424 		movq	$_ZTVSt15basic_streambufIcSt11char_traitsIcEE+16, 40(%rsp)
 1995      28000000 
 1995      00
 1996 0714 48C74424 		movq	$0, 48(%rsp)
 1996      30000000 
 1996      00
 1997 071d 48C74424 		movq	$0, 56(%rsp)
 1997      38000000 
 1997      00
 1998 0726 48C74424 		movq	$0, 64(%rsp)
 1998      40000000 
 1998      00
 1999 072f 48C74424 		movq	$0, 72(%rsp)
 1999      48000000 
 1999      00
 2000 0738 48C74424 		movq	$0, 80(%rsp)
 2000      50000000 
 2000      00
 2001 0741 48C74424 		movq	$0, 88(%rsp)
 2001      58000000 
 2001      00
 2002 074a E8000000 		call	_ZNSt6localeC1Ev
 2002      00
 2003 074f 488B4424 		movq	32(%rsp), %rax
 2003      20
 2004 0754 488D7C24 		leaq	32(%rsp), %rdi
 2004      20
 2005 0759 488D7424 		leaq	40(%rsp), %rsi
 2005      28
 2006 075e 48C74424 		movq	$_ZTVSt15basic_stringbufIcSt11char_traitsIcESaIcEE+16, 40(%rsp)
 2006      28000000 
 2006      00
 2007 0767 C7442468 		movl	$16, 104(%rsp)
 2007      10000000 
 2008 076f 48C74424 		movq	$_ZNSs4_Rep20_S_empty_rep_storageE+24, 112(%rsp)
 2008      70000000 
 2008      00
 2009 0778 480378E8 		addq	-24(%rax), %rdi
 2010              	.LEHB1:
 2011 077c E8000000 		call	_ZNSt9basic_iosIcSt11char_traitsIcEE4initEPSt15basic_streambufIcS1_E
 2011      00
 2012              	.LEHE1:
 2013 0781 488D7C24 		leaq	32(%rsp), %rdi
 2013      20
 2014 0786 BA0B0000 		movl	$11, %edx
 2014      00
 2015 078b BE000000 		movl	$.LC63, %esi
 2015      00
 2016 0790 48C74424 		movq	$_ZTVN8UnitTest15MemoryOutStreamE+24, 32(%rsp)
 2016      20000000 
 2016      00
 2017 0799 48C78424 		movq	$_ZTVN8UnitTest15MemoryOutStreamE+64, 128(%rsp)
 2017      80000000 
 2017      00000000 
 2018 07a5 48C74424 		movq	$_ZNSs4_Rep20_S_empty_rep_storageE+24, 120(%rsp)
 2018      78000000 
 2018      00
 2019              	.LEHB2:
 2020 07ae E8000000 		call	_ZSt16__ostream_insertIcSt11char_traitsIcEERSt13basic_ostreamIT_T0_ES6_PKS3_l
 2020      00
 2021 07b3 4D8D6C24 		leaq	36(%r12), %r13
 2021      24
 2022 07b8 0F1F8400 		.p2align 4,,10
 2022      00000000 
 2023              		.p2align 3
 2024              	.L160:
 2025 07c0 488D7C24 		leaq	32(%rsp), %rdi
 2025      20
 2026 07c5 BA020000 		movl	$2, %edx
 2026      00
 2027 07ca BE000000 		movl	$.LC64, %esi
 2027      00
 2028 07cf E8000000 		call	_ZSt16__ostream_insertIcSt11char_traitsIcEERSt13basic_ostreamIT_T0_ES6_PKS3_l
 2028      00
 2029 07d4 31DB     		xorl	%ebx, %ebx
 2030 07d6 662E0F1F 		.p2align 4,,10
 2030      84000000 
 2030      0000
 2031              		.p2align 3
 2032              	.L159:
 2033 07e0 660FEFC0 		pxor	%xmm0, %xmm0
 2034 07e4 488D7C24 		leaq	32(%rsp), %rdi
 2034      20
 2035 07e9 F3410F5A 		cvtss2sd	(%r12,%rbx), %xmm0
 2035      041C
 2036 07ef E8000000 		call	_ZNSo9_M_insertIdEERSoT_
 2036      00
 2037 07f4 BA010000 		movl	$1, %edx
 2037      00
 2038 07f9 BE000000 		movl	$.LC65, %esi
 2038      00
 2039 07fe 4889C7   		movq	%rax, %rdi
 2040 0801 E8000000 		call	_ZSt16__ostream_insertIcSt11char_traitsIcEERSt13basic_ostreamIT_T0_ES6_PKS3_l
 2040      00
 2041 0806 4883C304 		addq	$4, %rbx
 2042 080a 4883FB0C 		cmpq	$12, %rbx
 2043 080e 75D0     		jne	.L159
 2044 0810 488D7C24 		leaq	32(%rsp), %rdi
 2044      20
 2045 0815 BA020000 		movl	$2, %edx
 2045      00
 2046 081a BE000000 		movl	$.LC66, %esi
 2046      00
 2047 081f E8000000 		call	_ZSt16__ostream_insertIcSt11char_traitsIcEERSt13basic_ostreamIT_T0_ES6_PKS3_l
 2047      00
 2048 0824 4983C40C 		addq	$12, %r12
 2049 0828 4D39EC   		cmpq	%r13, %r12
 2050 082b 7593     		jne	.L160
 2051 082d 488D7C24 		leaq	32(%rsp), %rdi
 2051      20
 2052 0832 F3410F10 		movss	(%r14), %xmm4
 2052      26
 2053 0837 BA060000 		movl	$6, %edx
 2053      00
 2054 083c BE000000 		movl	$.LC67, %esi
 2054      00
 2055 0841 F30F1164 		movss	%xmm4, 4(%rsp)
 2055      2404
 2056 0847 E8000000 		call	_ZSt16__ostream_insertIcSt11char_traitsIcEERSt13basic_ostreamIT_T0_ES6_PKS3_l
 2056      00
 2057 084c 660FEFC0 		pxor	%xmm0, %xmm0
 2058 0850 488D7C24 		leaq	32(%rsp), %rdi
 2058      20
 2059 0855 F30F5A44 		cvtss2sd	4(%rsp), %xmm0
 2059      2404
 2060 085b E8000000 		call	_ZNSo9_M_insertIdEERSoT_
 2060      00
 2061 0860 BA0B0000 		movl	$11, %edx
 2061      00
 2062 0865 BE000000 		movl	$.LC68, %esi
 2062      00
 2063 086a 4889C7   		movq	%rax, %rdi
 2064 086d E8000000 		call	_ZSt16__ostream_insertIcSt11char_traitsIcEERSt13basic_ostreamIT_T0_ES6_PKS3_l
 2064      00
 2065 0872 4C8D6524 		leaq	36(%rbp), %r12
 2066 0876 662E0F1F 		.p2align 4,,10
 2066      84000000 
 2066      0000
 2067              		.p2align 3
 2068              	.L162:
 2069 0880 488D7C24 		leaq	32(%rsp), %rdi
 2069      20
 2070 0885 BA020000 		movl	$2, %edx
 2070      00
 2071 088a BE000000 		movl	$.LC64, %esi
 2071      00
 2072 088f E8000000 		call	_ZSt16__ostream_insertIcSt11char_traitsIcEERSt13basic_ostreamIT_T0_ES6_PKS3_l
 2072      00
 2073 0894 31DB     		xorl	%ebx, %ebx
 2074 0896 662E0F1F 		.p2align 4,,10
 2074      84000000 
 2074      0000
 2075              		.p2align 3
 2076              	.L161:
 2077 08a0 660FEFC0 		pxor	%xmm0, %xmm0
 2078 08a4 488D7C24 		leaq	32(%rsp), %rdi
 2078      20
 2079 08a9 F30F5A44 		cvtss2sd	0(%rbp,%rbx), %xmm0
 2079      1D00
 2080 08af E8000000 		call	_ZNSo9_M_insertIdEERSoT_
 2080      00
 2081 08b4 BA010000 		movl	$1, %edx
 2081      00
 2082 08b9 BE000000 		movl	$.LC65, %esi
 2082      00
 2083 08be 4889C7   		movq	%rax, %rdi
 2084 08c1 E8000000 		call	_ZSt16__ostream_insertIcSt11char_traitsIcEERSt13basic_ostreamIT_T0_ES6_PKS3_l
 2084      00
 2085 08c6 4883C304 		addq	$4, %rbx
 2086 08ca 4883FB0C 		cmpq	$12, %rbx
 2087 08ce 75D0     		jne	.L161
 2088 08d0 488D7C24 		leaq	32(%rsp), %rdi
 2088      20
 2089 08d5 BA020000 		movl	$2, %edx
 2089      00
 2090 08da BE000000 		movl	$.LC66, %esi
 2090      00
 2091 08df E8000000 		call	_ZSt16__ostream_insertIcSt11char_traitsIcEERSt13basic_ostreamIT_T0_ES6_PKS3_l
 2091      00
 2092 08e4 4883C50C 		addq	$12, %rbp
 2093 08e8 4C39E5   		cmpq	%r12, %rbp
 2094 08eb 7593     		jne	.L162
 2095 08ed 488D7C24 		leaq	32(%rsp), %rdi
 2095      20
 2096 08f2 BA010000 		movl	$1, %edx
 2096      00
 2097 08f7 BE000000 		movl	$.LC69, %esi
 2097      00
 2098 08fc E8000000 		call	_ZSt16__ostream_insertIcSt11char_traitsIcEERSt13basic_ostreamIT_T0_ES6_PKS3_l
 2098      00
 2099 0901 488D7C24 		leaq	32(%rsp), %rdi
 2099      20
 2100 0906 E8000000 		call	_ZNK8UnitTest15MemoryOutStream7GetTextEv
 2100      00
 2101 090b 488B7C24 		movq	8(%rsp), %rdi
 2101      08
 2102 0910 4889C2   		movq	%rax, %rdx
 2103 0913 4C89FE   		movq	%r15, %rsi
 2104 0916 E8000000 		call	_ZN8UnitTest11TestResults13OnTestFailureERKNS_11TestDetailsEPKc
 2104      00
 2105              	.LEHE2:
 2106 091b 488B5424 		movq	120(%rsp), %rdx
 2106      78
 2107 0920 48C74424 		movq	$_ZTVN8UnitTest15MemoryOutStreamE+24, 32(%rsp)
 2107      20000000 
 2107      00
 2108 0929 48C78424 		movq	$_ZTVN8UnitTest15MemoryOutStreamE+64, 128(%rsp)
 2108      80000000 
 2108      00000000 
 2109 0935 488D7AE8 		leaq	-24(%rdx), %rdi
 2110 0939 4881FF00 		cmpq	$_ZNSs4_Rep20_S_empty_rep_storageE, %rdi
 2110      000000
 2111 0940 0F85CD00 		jne	.L219
 2111      0000
 2112              	.L164:
 2113 0946 488B5424 		movq	112(%rsp), %rdx
 2113      70
 2114 094b 48C74424 		movq	$_ZTCN8UnitTest15MemoryOutStreamE0_St19basic_ostringstreamIcSt11char_traitsIcESaIcEE+24, 32(%
 2114      20000000 
 2114      00
 2115 0954 48C78424 		movq	$_ZTCN8UnitTest15MemoryOutStreamE0_St19basic_ostringstreamIcSt11char_traitsIcESaIcEE+64, 128(
 2115      80000000 
 2115      00000000 
 2116 0960 48C74424 		movq	$_ZTVSt15basic_stringbufIcSt11char_traitsIcESaIcEE+16, 40(%rsp)
 2116      28000000 
 2116      00
 2117 0969 488D7AE8 		leaq	-24(%rdx), %rdi
 2118 096d 4881FF00 		cmpq	$_ZNSs4_Rep20_S_empty_rep_storageE, %rdi
 2118      000000
 2119 0974 0F85CE00 		jne	.L220
 2119      0000
 2120              	.L169:
 2121 097a 488D7C24 		leaq	96(%rsp), %rdi
 2121      60
 2122 097f 48C74424 		movq	$_ZTVSt15basic_streambufIcSt11char_traitsIcEE+16, 40(%rsp)
 2122      28000000 
 2122      00
 2123 0988 E8000000 		call	_ZNSt6localeD1Ev
 2123      00
 2124 098d 488DBC24 		leaq	128(%rsp), %rdi
 2124      80000000 
 2125 0995 48C78424 		movq	$_ZTVSt9basic_iosIcSt11char_traitsIcEE+16, 128(%rsp)
 2125      80000000 
 2125      00000000 
 2126              	.LEHB3:
 2127 09a1 E8000000 		call	_ZNSt8ios_baseD2Ev
 2127      00
 2128              	.LEHE3:
 2129              	.L132:
 2130 09a6 488B8424 		movq	392(%rsp), %rax
 2130      88010000 
 2131 09ae 64483304 		xorq	%fs:40, %rax
 2131      25280000 
 2131      00
 2132 09b7 0F850901 		jne	.L221
 2132      0000
 2133 09bd 4881C498 		addq	$408, %rsp
 2133      010000
 2134              		.cfi_remember_state
 2135              		.cfi_def_cfa_offset 56
 2136 09c4 5B       		popq	%rbx
 2137              		.cfi_def_cfa_offset 48
 2138 09c5 5D       		popq	%rbp
 2139              		.cfi_def_cfa_offset 40
 2140 09c6 415C     		popq	%r12
 2141              		.cfi_def_cfa_offset 32
 2142 09c8 415D     		popq	%r13
 2143              		.cfi_def_cfa_offset 24
 2144 09ca 415E     		popq	%r14
 2145              		.cfi_def_cfa_offset 16
 2146 09cc 415F     		popq	%r15
 2147              		.cfi_def_cfa_offset 8
 2148 09ce C3       		ret
 2149              	.L218:
 2150              		.cfi_restore_state
 2151 09cf F30F58C2 		addss	%xmm2, %xmm0
 2152 09d3 0F2EC1   		ucomiss	%xmm1, %xmm0
 2153 09d6 0F829AFC 		jb	.L150
 2153      FFFF
 2154 09dc 84D2     		testb	%dl, %dl
 2155 09de 0F8492FC 		je	.L150
 2155      FFFF
 2156 09e4 84C0     		testb	%al, %al
 2157 09e6 75BE     		jne	.L132
 2158 09e8 E989FCFF 		jmp	.L150
 2158      FF
 2159 09ed 0F1F00   		.p2align 4,,10
 2160              		.p2align 3
 2161              	.L212:
 2162 09f0 31D2     		xorl	%edx, %edx
 2163 09f2 E963FCFF 		jmp	.L148
 2163      FF
 2164              	.L210:
 2165 09f7 31C0     		xorl	%eax, %eax
 2166 09f9 E90DFCFF 		jmp	.L143
 2166      FF
 2167              	.L209:
 2168 09fe 31D2     		xorl	%edx, %edx
 2169 0a00 E9D9FBFF 		jmp	.L141
 2169      FF
 2170              	.L207:
 2171 0a05 31C0     		xorl	%eax, %eax
 2172 0a07 E983FBFF 		jmp	.L137
 2172      FF
 2173              	.L206:
 2174 0a0c 31C0     		xorl	%eax, %eax
 2175 0a0e E951FBFF 		jmp	.L135
 2175      FF
 2176              	.L219:
 2177 0a13 B8000000 		movl	$_ZL28__gthrw___pthread_key_createPjPFvPvE, %eax
 2177      00
 2178 0a18 4885C0   		testq	%rax, %rax
 2179 0a1b 0F84AA00 		je	.L165
 2179      0000
 2180 0a21 B8FFFFFF 		movl	$-1, %eax
 2180      FF
 2181 0a26 F00FC142 		lock xaddl	%eax, -8(%rdx)
 2181      F8
 2182              	.L166:
 2183 0a2b 85C0     		testl	%eax, %eax
 2184 0a2d 0F8F13FF 		jg	.L164
 2184      FFFF
 2185 0a33 488D7424 		leaq	31(%rsp), %rsi
 2185      1F
 2186 0a38 E8000000 		call	_ZNSs4_Rep10_M_destroyERKSaIcE
 2186      00
 2187 0a3d E904FFFF 		jmp	.L164
 2187      FF
 2188              		.p2align 4,,10
 2189 0a42 660F1F44 		.p2align 3
 2189      0000
 2190              	.L220:
 2191 0a48 B8000000 		movl	$_ZL28__gthrw___pthread_key_createPjPFvPvE, %eax
 2191      00
 2192 0a4d 4885C0   		testq	%rax, %rax
 2193 0a50 744F     		je	.L170
 2194 0a52 B8FFFFFF 		movl	$-1, %eax
 2194      FF
 2195 0a57 F00FC142 		lock xaddl	%eax, -8(%rdx)
 2195      F8
 2196              	.L171:
 2197 0a5c 85C0     		testl	%eax, %eax
 2198 0a5e 0F8F16FF 		jg	.L169
 2198      FFFF
 2199 0a64 488D7424 		leaq	31(%rsp), %rsi
 2199      1F
 2200 0a69 E8000000 		call	_ZNSs4_Rep10_M_destroyERKSaIcE
 2200      00
 2201 0a6e E907FFFF 		jmp	.L169
 2201      FF
 2202              	.L186:
 2203 0a73 488D7C24 		leaq	40(%rsp), %rdi
 2203      28
 2204 0a78 4889C3   		movq	%rax, %rbx
 2205 0a7b E8000000 		call	_ZNSt15basic_stringbufIcSt11char_traitsIcESaIcEED1Ev
 2205      00
 2206              	.L157:
 2207 0a80 488DBC24 		leaq	128(%rsp), %rdi
 2207      80000000 
 2208 0a88 48C78424 		movq	$_ZTVSt9basic_iosIcSt11char_traitsIcEE+16, 128(%rsp)
 2208      80000000 
 2208      00000000 
 2209 0a94 E8000000 		call	_ZNSt8ios_baseD2Ev
 2209      00
 2210 0a99 4889DF   		movq	%rbx, %rdi
 2211              	.LEHB4:
 2212 0a9c E8000000 		call	_Unwind_Resume
 2212      00
 2213              	.LEHE4:
 2214              	.L170:
 2215 0aa1 8B42F8   		movl	-8(%rdx), %eax
 2216 0aa4 8D48FF   		leal	-1(%rax), %ecx
 2217 0aa7 894AF8   		movl	%ecx, -8(%rdx)
 2218 0aaa EBB0     		jmp	.L171
 2219              	.L184:
 2220 0aac 488D7C24 		leaq	32(%rsp), %rdi
 2220      20
 2221 0ab1 4889C3   		movq	%rax, %rbx
 2222 0ab4 E8000000 		call	_ZN8UnitTest15MemoryOutStreamD1Ev
 2222      00
 2223 0ab9 4889DF   		movq	%rbx, %rdi
 2224              	.LEHB5:
 2225 0abc E8000000 		call	_Unwind_Resume
 2225      00
 2226              	.LEHE5:
 2227              	.L185:
 2228 0ac1 4889C3   		movq	%rax, %rbx
 2229 0ac4 EBBA     		jmp	.L157
 2230              	.L221:
 2231 0ac6 E8000000 		call	__stack_chk_fail
 2231      00
 2232              	.L165:
 2233 0acb 8B42F8   		movl	-8(%rdx), %eax
 2234 0ace 8D48FF   		leal	-1(%rax), %ecx
 2235 0ad1 894AF8   		movl	%ecx, -8(%rdx)
 2236 0ad4 E952FFFF 		jmp	.L166
 2236      FF
 2237              		.cfi_endproc
 2238              	.LFE1455:
 2239              		.globl	__gxx_personality_v0
 2240              		.section	.gcc_except_table,"a",@progbits
 2241              	.LLSDA1455:
 2242 0000 FF       		.byte	0xff
 2243 0001 FF       		.byte	0xff
 2244 0002 01       		.byte	0x1
 2245 0003 22       		.uleb128 .LLSDACSE1455-.LLSDACSB1455
 2246              	.LLSDACSB1455:
 2247 0004 8C04     		.uleb128 .LEHB0-.LFB1455
 2248 0006 05       		.uleb128 .LEHE0-.LEHB0
 2249 0007 E10B     		.uleb128 .L185-.LFB1455
 2250 0009 00       		.uleb128 0
 2251 000a 9C05     		.uleb128 .LEHB1-.LFB1455
 2252 000c 05       		.uleb128 .LEHE1-.LEHB1
 2253 000d 930B     		.uleb128 .L186-.LFB1455
 2254 000f 00       		.uleb128 0
 2255 0010 CE05     		.uleb128 .LEHB2-.LFB1455
 2256 0012 ED02     		.uleb128 .LEHE2-.LEHB2
 2257 0014 CC0B     		.uleb128 .L184-.LFB1455
 2258 0016 00       		.uleb128 0
 2259 0017 C109     		.uleb128 .LEHB3-.LFB1455
 2260 0019 05       		.uleb128 .LEHE3-.LEHB3
 2261 001a 00       		.uleb128 0
 2262 001b 00       		.uleb128 0
 2263 001c BC0B     		.uleb128 .LEHB4-.LFB1455
 2264 001e 05       		.uleb128 .LEHE4-.LEHB4
 2265 001f 00       		.uleb128 0
 2266 0020 00       		.uleb128 0
 2267 0021 DC0B     		.uleb128 .LEHB5-.LFB1455
 2268 0023 05       		.uleb128 .LEHE5-.LEHB5
 2269 0024 00       		.uleb128 0
 2270 0025 00       		.uleb128 0
 2271              	.LLSDACSE1455:
 2272              		.text
 2274              		.section	.text.unlikely
 2275              	.LCOLDE70:
 2276              		.text
 2277              	.LHOTE70:
 2278              		.section	.rodata.str1.1
 2279              	.LC72:
 2280 0029 00       		.string	""
 2281              	.LC73:
 2282 002a 45787065 		.string	"Expected "
 2282      63746564 
 2282      2000
 2283              	.LC75:
 2284 0034 202B2F2D 		.string	" +/- "
 2284      2000
 2285              	.LC77:
 2286 003a 20627574 		.string	" but was "
 2286      20776173 
 2286      2000
 2287              	.LC79:
 2288 0044 78706563 		.string	"xpected 0.9"
 2288      74656420 
 2288      302E3900 
 2289              		.section	.rodata.str1.8,"aMS",@progbits,1
 2290              		.align 8
 2291              	.LC80:
 2292 0000 73747273 		.string	"strstr(reporter.lastFailedMessage, \"xpected 0.9\")"
 2292      74722872 
 2292      65706F72 
 2292      7465722E 
 2292      6C617374 
 2293              		.section	.rodata.str1.1
 2294              	.LC81:
 2295 0050 77617320 		.string	"was 1.1"
 2295      312E3100 
 2296              		.section	.rodata.str1.8
 2297 0032 00000000 		.align 8
 2297      0000
 2298              	.LC82:
 2299 0038 73747273 		.string	"strstr(reporter.lastFailedMessage, \"was 1.1\")"
 2299      74722872 
 2299      65706F72 
 2299      7465722E 
 2299      6C617374 
 2300 0066 0000     		.align 8
 2301              	.LC83:
 2302 0068 556E6861 		.string	"Unhandled exception in CHECK(strstr(reporter.lastFailedMessage, \"xpected 0.9\"))"
 2302      6E646C65 
 2302      64206578 
 2302      63657074 
 2302      696F6E20 
 2303              		.align 8
 2304              	.LC84:
 2305 00b8 556E6861 		.string	"Unhandled exception in CHECK(strstr(reporter.lastFailedMessage, \"was 1.1\"))"
 2305      6E646C65 
 2305      64206578 
 2305      63657074 
 2305      696F6E20 
 2306              		.section	.text.unlikely
 2307              		.align 2
 2308              	.LCOLDB85:
 2309              		.text
 2310              	.LHOTB85:
 2311 0ad9 90       		.align 2
 2312 0ada 660F1F44 		.p2align 4,,15
 2312      0000
 2314              	_ZNK12_GLOBAL__N_151TestCheckCloseFailureIncludesCheckExpectedAndActual7RunImplEv:
 2315              	.LFB1190:
 2316              		.cfi_startproc
 2317              		.cfi_personality 0x3,__gxx_personality_v0
 2318              		.cfi_lsda 0x3,.LLSDA1190
 2319 0ae0 53       		pushq	%rbx
 2320              		.cfi_def_cfa_offset 16
 2321              		.cfi_offset 3, -16
 2322 0ae1 4881EC00 		subq	$2560, %rsp
 2322      0A0000
 2323              		.cfi_def_cfa_offset 2576
 2324 0ae8 488DB424 		leaq	448(%rsp), %rsi
 2324      C0010000 
 2325 0af0 488D7C24 		leaq	16(%rsp), %rdi
 2325      10
 2326 0af5 48C78424 		movq	$_ZTV17RecordingReporter+16, 448(%rsp)
 2326      C0010000 
 2326      00000000 
 2327 0b01 64488B04 		movq	%fs:40, %rax
 2327      25280000 
 2327      00
 2328 0b0a 48898424 		movq	%rax, 2552(%rsp)
 2328      F8090000 
 2329 0b12 31C0     		xorl	%eax, %eax
 2330 0b14 C78424C8 		movl	$0, 456(%rsp)
 2330      01000000 
 2330      000000
 2331 0b1f C78424CC 		movl	$0, 972(%rsp)
 2331      03000000 
 2331      000000
 2332 0b2a C78424D0 		movl	$0, 1232(%rsp)
 2332      04000000 
 2332      000000
 2333 0b35 C78424D4 		movl	$0, 2004(%rsp)
 2333      07000000 
 2333      000000
 2334 0b40 C78424D8 		movl	$0x00000000, 2520(%rsp)
 2334      09000000 
 2334      000000
 2335 0b4b C78424DC 		movl	$0, 2524(%rsp)
 2335      09000000 
 2335      000000
 2336 0b56 C78424E0 		movl	$0, 2528(%rsp)
 2336      09000000 
 2336      000000
 2337 0b61 C78424E4 		movl	$0, 2532(%rsp)
 2337      09000000 
 2337      000000
 2338 0b6c C78424E8 		movl	$0x00000000, 2536(%rsp)
 2338      09000000 
 2338      000000
 2339 0b77 C68424CC 		movb	$0, 460(%rsp)
 2339      01000000 
 2340 0b7f C68424CC 		movb	$0, 716(%rsp)
 2340      02000000 
 2341 0b87 C68424D0 		movb	$0, 976(%rsp)
 2341      03000000 
 2342 0b8f C68424D4 		movb	$0, 1236(%rsp)
 2342      04000000 
 2343 0b97 C68424D4 		movb	$0, 1492(%rsp)
 2343      05000000 
 2344 0b9f C68424D4 		movb	$0, 1748(%rsp)
 2344      06000000 
 2345 0ba7 C68424D8 		movb	$0, 2008(%rsp)
 2345      07000000 
 2346 0baf C68424D8 		movb	$0, 2264(%rsp)
 2346      08000000 
 2347              	.LEHB6:
 2348 0bb7 E8000000 		call	_ZN8UnitTest11TestResultsC1EPNS_12TestReporterE
 2348      00
 2349 0bbc B9000000 		movl	$.LC72, %ecx
 2349      00
 2350 0bc1 488D7C24 		leaq	48(%rsp), %rdi
 2350      30
 2351 0bc6 4531C0   		xorl	%r8d, %r8d
 2352 0bc9 4889CA   		movq	%rcx, %rdx
 2353 0bcc 4889CE   		movq	%rcx, %rsi
 2354 0bcf E8000000 		call	_ZN8UnitTest11TestDetailsC1EPKcS2_S2_i
 2354      00
 2355              	.LEHE6:
 2356 0bd4 488D9C24 		leaq	176(%rsp), %rbx
 2356      B0000000 
 2357 0bdc 4889DF   		movq	%rbx, %rdi
 2358 0bdf E8000000 		call	_ZNSt8ios_baseC2Ev
 2358      00
 2359 0be4 31F6     		xorl	%esi, %esi
 2360 0be6 4889DF   		movq	%rbx, %rdi
 2361 0be9 48C78424 		movq	$0, 392(%rsp)
 2361      88010000 
 2361      00000000 
 2362 0bf5 C6842490 		movb	$0, 400(%rsp)
 2362      01000000 
 2363 0bfd C6842491 		movb	$0, 401(%rsp)
 2363      01000000 
 2364 0c05 48C78424 		movq	$0, 408(%rsp)
 2364      98010000 
 2364      00000000 
 2365 0c11 48C78424 		movq	$0, 416(%rsp)
 2365      A0010000 
 2365      00000000 
 2366 0c1d 48C78424 		movq	$0, 424(%rsp)
 2366      A8010000 
 2366      00000000 
 2367 0c29 48C78424 		movq	$0, 432(%rsp)
 2367      B0010000 
 2367      00000000 
 2368 0c35 48C74424 		movq	$_ZTCN8UnitTest15MemoryOutStreamE0_So+24, 80(%rsp)
 2368      50000000 
 2368      00
 2369 0c3e 48C78424 		movq	$_ZTCN8UnitTest15MemoryOutStreamE0_So+64, 176(%rsp)
 2369      B0000000 
 2369      00000000 
 2370              	.LEHB7:
 2371 0c4a E8000000 		call	_ZNSt9basic_iosIcSt11char_traitsIcEE4initEPSt15basic_streambufIcS1_E
 2371      00
 2372              	.LEHE7:
 2373 0c4f 488DBC24 		leaq	144(%rsp), %rdi
 2373      90000000 
 2374 0c57 48C74424 		movq	$_ZTCN8UnitTest15MemoryOutStreamE0_St19basic_ostringstreamIcSt11char_traitsIcESaIcEE+24, 80(%
 2374      50000000 
 2374      00
 2375 0c60 48C78424 		movq	$_ZTCN8UnitTest15MemoryOutStreamE0_St19basic_ostringstreamIcSt11char_traitsIcESaIcEE+64, 176(
 2375      B0000000 
 2375      00000000 
 2376 0c6c 48C74424 		movq	$_ZTVSt15basic_streambufIcSt11char_traitsIcEE+16, 88(%rsp)
 2376      58000000 
 2376      00
 2377 0c75 48C74424 		movq	$0, 96(%rsp)
 2377      60000000 
 2377      00
 2378 0c7e 48C74424 		movq	$0, 104(%rsp)
 2378      68000000 
 2378      00
 2379 0c87 48C74424 		movq	$0, 112(%rsp)
 2379      70000000 
 2379      00
 2380 0c90 48C74424 		movq	$0, 120(%rsp)
 2380      78000000 
 2380      00
 2381 0c99 48C78424 		movq	$0, 128(%rsp)
 2381      80000000 
 2381      00000000 
 2382 0ca5 48C78424 		movq	$0, 136(%rsp)
 2382      88000000 
 2382      00000000 
 2383 0cb1 E8000000 		call	_ZNSt6localeC1Ev
 2383      00
 2384 0cb6 488B4424 		movq	80(%rsp), %rax
 2384      50
 2385 0cbb 488D7C24 		leaq	80(%rsp), %rdi
 2385      50
 2386 0cc0 488D7424 		leaq	88(%rsp), %rsi
 2386      58
 2387 0cc5 48C74424 		movq	$_ZTVSt15basic_stringbufIcSt11char_traitsIcESaIcEE+16, 88(%rsp)
 2387      58000000 
 2387      00
 2388 0cce C7842498 		movl	$16, 152(%rsp)
 2388      00000010 
 2388      000000
 2389 0cd9 48C78424 		movq	$_ZNSs4_Rep20_S_empty_rep_storageE+24, 160(%rsp)
 2389      A0000000 
 2389      00000000 
 2390 0ce5 480378E8 		addq	-24(%rax), %rdi
 2391              	.LEHB8:
 2392 0ce9 E8000000 		call	_ZNSt9basic_iosIcSt11char_traitsIcEE4initEPSt15basic_streambufIcS1_E
 2392      00
 2393              	.LEHE8:
 2394 0cee 488D7C24 		leaq	80(%rsp), %rdi
 2394      50
 2395 0cf3 BA090000 		movl	$9, %edx
 2395      00
 2396 0cf8 BE000000 		movl	$.LC73, %esi
 2396      00
 2397 0cfd 48C74424 		movq	$_ZTVN8UnitTest15MemoryOutStreamE+24, 80(%rsp)
 2397      50000000 
 2397      00
 2398 0d06 48C78424 		movq	$_ZTVN8UnitTest15MemoryOutStreamE+64, 176(%rsp)
 2398      B0000000 
 2398      00000000 
 2399 0d12 48C78424 		movq	$_ZNSs4_Rep20_S_empty_rep_storageE+24, 168(%rsp)
 2399      A8000000 
 2399      00000000 
 2400              	.LEHB9:
 2401 0d1e E8000000 		call	_ZSt16__ostream_insertIcSt11char_traitsIcEERSt13basic_ostreamIT_T0_ES6_PKS3_l
 2401      00
 2402 0d23 F20F1005 		movsd	.LC74(%rip), %xmm0
 2402      00000000 
 2403 0d2b 488D7C24 		leaq	80(%rsp), %rdi
 2403      50
 2404 0d30 E8000000 		call	_ZNSo9_M_insertIdEERSoT_
 2404      00
 2405 0d35 BA050000 		movl	$5, %edx
 2405      00
 2406 0d3a BE000000 		movl	$.LC75, %esi
 2406      00
 2407 0d3f 4889C7   		movq	%rax, %rdi
 2408 0d42 4889C3   		movq	%rax, %rbx
 2409 0d45 E8000000 		call	_ZSt16__ostream_insertIcSt11char_traitsIcEERSt13basic_ostreamIT_T0_ES6_PKS3_l
 2409      00
 2410 0d4a F20F1005 		movsd	.LC76(%rip), %xmm0
 2410      00000000 
 2411 0d52 4889DF   		movq	%rbx, %rdi
 2412 0d55 E8000000 		call	_ZNSo9_M_insertIdEERSoT_
 2412      00
 2413 0d5a BA090000 		movl	$9, %edx
 2413      00
 2414 0d5f BE000000 		movl	$.LC77, %esi
 2414      00
 2415 0d64 4889C7   		movq	%rax, %rdi
 2416 0d67 4889C3   		movq	%rax, %rbx
 2417 0d6a E8000000 		call	_ZSt16__ostream_insertIcSt11char_traitsIcEERSt13basic_ostreamIT_T0_ES6_PKS3_l
 2417      00
 2418 0d6f F20F1005 		movsd	.LC78(%rip), %xmm0
 2418      00000000 
 2419 0d77 4889DF   		movq	%rbx, %rdi
 2420 0d7a E8000000 		call	_ZNSo9_M_insertIdEERSoT_
 2420      00
 2421 0d7f 488D7C24 		leaq	80(%rsp), %rdi
 2421      50
 2422 0d84 E8000000 		call	_ZNK8UnitTest15MemoryOutStream7GetTextEv
 2422      00
 2423 0d89 488D7424 		leaq	48(%rsp), %rsi
 2423      30
 2424 0d8e 488D7C24 		leaq	16(%rsp), %rdi
 2424      10
 2425 0d93 4889C2   		movq	%rax, %rdx
 2426 0d96 E8000000 		call	_ZN8UnitTest11TestResults13OnTestFailureERKNS_11TestDetailsEPKc
 2426      00
 2427              	.LEHE9:
 2428 0d9b 488B8424 		movq	168(%rsp), %rax
 2428      A8000000 
 2429 0da3 48C74424 		movq	$_ZTVN8UnitTest15MemoryOutStreamE+24, 80(%rsp)
 2429      50000000 
 2429      00
 2430 0dac 48C78424 		movq	$_ZTVN8UnitTest15MemoryOutStreamE+64, 176(%rsp)
 2430      B0000000 
 2430      00000000 
 2431 0db8 488D78E8 		leaq	-24(%rax), %rdi
 2432 0dbc 4881FF00 		cmpq	$_ZNSs4_Rep20_S_empty_rep_storageE, %rdi
 2432      000000
 2433 0dc3 0F853F01 		jne	.L266
 2433      0000
 2434              	.L229:
 2435 0dc9 488B8424 		movq	160(%rsp), %rax
 2435      A0000000 
 2436 0dd1 48C74424 		movq	$_ZTCN8UnitTest15MemoryOutStreamE0_St19basic_ostringstreamIcSt11char_traitsIcESaIcEE+24, 80(%
 2436      50000000 
 2436      00
 2437 0dda 48C78424 		movq	$_ZTCN8UnitTest15MemoryOutStreamE0_St19basic_ostringstreamIcSt11char_traitsIcESaIcEE+64, 176(
 2437      B0000000 
 2437      00000000 
 2438 0de6 48C74424 		movq	$_ZTVSt15basic_stringbufIcSt11char_traitsIcESaIcEE+16, 88(%rsp)
 2438      58000000 
 2438      00
 2439 0def 488D78E8 		leaq	-24(%rax), %rdi
 2440 0df3 4881FF00 		cmpq	$_ZNSs4_Rep20_S_empty_rep_storageE, %rdi
 2440      000000
 2441 0dfa 0F853801 		jne	.L267
 2441      0000
 2442              	.L234:
 2443 0e00 488DBC24 		leaq	144(%rsp), %rdi
 2443      90000000 
 2444 0e08 48C74424 		movq	$_ZTVSt15basic_streambufIcSt11char_traitsIcEE+16, 88(%rsp)
 2444      58000000 
 2444      00
 2445 0e11 E8000000 		call	_ZNSt6localeD1Ev
 2445      00
 2446 0e16 488D4424 		leaq	80(%rsp), %rax
 2446      50
 2447 0e1b 48C78424 		movq	$_ZTVSt9basic_iosIcSt11char_traitsIcEE+16, 176(%rsp)
 2447      B0000000 
 2447      00000000 
 2448 0e27 488D7860 		leaq	96(%rax), %rdi
 2449              	.LEHB10:
 2450 0e2b E8000000 		call	_ZNSt8ios_baseD2Ev
 2450      00
 2451              	.LEHE10:
 2452 0e30 488DBC24 		leaq	1748(%rsp), %rdi
 2452      D4060000 
 2453 0e38 BE000000 		movl	$.LC79, %esi
 2453      00
 2454 0e3d E8000000 		call	strstr
 2454      00
 2455 0e42 4885C0   		testq	%rax, %rax
 2456 0e45 0F848500 		je	.L268
 2456      0000
 2457              	.L239:
 2458 0e4b 488DBC24 		leaq	1748(%rsp), %rdi
 2458      D4060000 
 2459 0e53 BE000000 		movl	$.LC81, %esi
 2459      00
 2460 0e58 E8000000 		call	strstr
 2460      00
 2461 0e5d 4885C0   		testq	%rax, %rax
 2462 0e60 743E     		je	.L269
 2463              	.L242:
 2464 0e62 488DBC24 		leaq	448(%rsp), %rdi
 2464      C0010000 
 2465 0e6a 48C78424 		movq	$_ZTV17RecordingReporter+16, 448(%rsp)
 2465      C0010000 
 2465      00000000 
 2466              	.LEHB11:
 2467 0e76 E8000000 		call	_ZN8UnitTest12TestReporterD2Ev
 2467      00
 2468              	.LEHE11:
 2469 0e7b 488B8424 		movq	2552(%rsp), %rax
 2469      F8090000 
 2470 0e83 64483304 		xorq	%fs:40, %rax
 2470      25280000 
 2470      00
 2471 0e8c 0F85F300 		jne	.L270
 2471      0000
 2472 0e92 4881C400 		addq	$2560, %rsp
 2472      0A0000
 2473              		.cfi_remember_state
 2474              		.cfi_def_cfa_offset 16
 2475 0e99 5B       		popq	%rbx
 2476              		.cfi_def_cfa_offset 8
 2477 0e9a C3       		ret
 2478 0e9b 0F1F4400 		.p2align 4,,10
 2478      00
 2479              		.p2align 3
 2480              	.L269:
 2481              		.cfi_restore_state
 2482              	.LEHB12:
 2483 0ea0 E8000000 		call	_ZN8UnitTest11CurrentTest7DetailsEv
 2483      00
 2484 0ea5 488B30   		movq	(%rax), %rsi
 2485 0ea8 488D7C24 		leaq	48(%rsp), %rdi
 2485      30
 2486 0ead BA9C0000 		movl	$156, %edx
 2486      00
 2487 0eb2 E8000000 		call	_ZN8UnitTest11TestDetailsC1ERKS0_i
 2487      00
 2488 0eb7 E8000000 		call	_ZN8UnitTest11CurrentTest7ResultsEv
 2488      00
 2489 0ebc 488B38   		movq	(%rax), %rdi
 2490 0ebf 488D7424 		leaq	48(%rsp), %rsi
 2490      30
 2491 0ec4 BA000000 		movl	$.LC82, %edx
 2491      00
 2492 0ec9 E8000000 		call	_ZN8UnitTest11TestResults13OnTestFailureERKNS_11TestDetailsEPKc
 2492      00
 2493              	.LEHE12:
 2494 0ece EB92     		jmp	.L242
 2495              		.p2align 4,,10
 2496              		.p2align 3
 2497              	.L268:
 2498              	.LEHB13:
 2499 0ed0 E8000000 		call	_ZN8UnitTest11CurrentTest7DetailsEv
 2499      00
 2500 0ed5 488B30   		movq	(%rax), %rsi
 2501 0ed8 488D7C24 		leaq	48(%rsp), %rdi
 2501      30
 2502 0edd BA9B0000 		movl	$155, %edx
 2502      00
 2503 0ee2 E8000000 		call	_ZN8UnitTest11TestDetailsC1ERKS0_i
 2503      00
 2504 0ee7 E8000000 		call	_ZN8UnitTest11CurrentTest7ResultsEv
 2504      00
 2505 0eec 488B38   		movq	(%rax), %rdi
 2506 0eef 488D7424 		leaq	48(%rsp), %rsi
 2506      30
 2507 0ef4 BA000000 		movl	$.LC80, %edx
 2507      00
 2508 0ef9 E8000000 		call	_ZN8UnitTest11TestResults13OnTestFailureERKNS_11TestDetailsEPKc
 2508      00
 2509              	.LEHE13:
 2510 0efe E948FFFF 		jmp	.L239
 2510      FF
 2511              		.p2align 4,,10
 2512 0f03 0F1F4400 		.p2align 3
 2512      00
 2513              	.L266:
 2514 0f08 BA000000 		movl	$_ZL28__gthrw___pthread_key_createPjPFvPvE, %edx
 2514      00
 2515 0f0d 4885D2   		testq	%rdx, %rdx
 2516 0f10 7456     		je	.L230
 2517 0f12 BAFFFFFF 		movl	$-1, %edx
 2517      FF
 2518 0f17 F00FC150 		lock xaddl	%edx, -8(%rax)
 2518      F8
 2519 0f1c 89D0     		movl	%edx, %eax
 2520              	.L231:
 2521 0f1e 85C0     		testl	%eax, %eax
 2522 0f20 0F8FA3FE 		jg	.L229
 2522      FFFF
 2523 0f26 488D7424 		leaq	15(%rsp), %rsi
 2523      0F
 2524 0f2b E8000000 		call	_ZNSs4_Rep10_M_destroyERKSaIcE
 2524      00
 2525 0f30 E994FEFF 		jmp	.L229
 2525      FF
 2526              		.p2align 4,,10
 2527 0f35 0F1F00   		.p2align 3
 2528              	.L267:
 2529 0f38 BA000000 		movl	$_ZL28__gthrw___pthread_key_createPjPFvPvE, %edx
 2529      00
 2530 0f3d 4885D2   		testq	%rdx, %rdx
 2531 0f40 7436     		je	.L235
 2532 0f42 BAFFFFFF 		movl	$-1, %edx
 2532      FF
 2533 0f47 F00FC150 		lock xaddl	%edx, -8(%rax)
 2533      F8
 2534 0f4c 89D0     		movl	%edx, %eax
 2535              	.L236:
 2536 0f4e 85C0     		testl	%eax, %eax
 2537 0f50 0F8FAAFE 		jg	.L234
 2537      FFFF
 2538 0f56 488D7424 		leaq	15(%rsp), %rsi
 2538      0F
 2539 0f5b E8000000 		call	_ZNSs4_Rep10_M_destroyERKSaIcE
 2539      00
 2540 0f60 E99BFEFF 		jmp	.L234
 2540      FF
 2541              		.p2align 4,,10
 2542 0f65 0F1F00   		.p2align 3
 2543              	.L230:
 2544 0f68 8B50F8   		movl	-8(%rax), %edx
 2545 0f6b 8D4AFF   		leal	-1(%rdx), %ecx
 2546 0f6e 8948F8   		movl	%ecx, -8(%rax)
 2547 0f71 89D0     		movl	%edx, %eax
 2548 0f73 EBA9     		jmp	.L231
 2549              		.p2align 4,,10
 2550 0f75 0F1F00   		.p2align 3
 2551              	.L235:
 2552 0f78 8B50F8   		movl	-8(%rax), %edx
 2553 0f7b 8D4AFF   		leal	-1(%rdx), %ecx
 2554 0f7e 8948F8   		movl	%ecx, -8(%rax)
 2555 0f81 89D0     		movl	%edx, %eax
 2556 0f83 EBC9     		jmp	.L236
 2557              	.L270:
 2558 0f85 E8000000 		call	__stack_chk_fail
 2558      00
 2559              	.L251:
 2560 0f8a 4889C7   		movq	%rax, %rdi
 2561 0f8d E8000000 		call	__cxa_begin_catch
 2561      00
 2562              	.LEHB14:
 2563 0f92 E8000000 		call	_ZN8UnitTest11CurrentTest7DetailsEv
 2563      00
 2564 0f97 488B30   		movq	(%rax), %rsi
 2565 0f9a 488D7C24 		leaq	48(%rsp), %rdi
 2565      30
 2566 0f9f BA9B0000 		movl	$155, %edx
 2566      00
 2567 0fa4 E8000000 		call	_ZN8UnitTest11TestDetailsC1ERKS0_i
 2567      00
 2568 0fa9 E8000000 		call	_ZN8UnitTest11CurrentTest7ResultsEv
 2568      00
 2569 0fae 488B38   		movq	(%rax), %rdi
 2570 0fb1 488D7424 		leaq	48(%rsp), %rsi
 2570      30
 2571 0fb6 BA000000 		movl	$.LC83, %edx
 2571      00
 2572 0fbb E8000000 		call	_ZN8UnitTest11TestResults13OnTestFailureERKNS_11TestDetailsEPKc
 2572      00
 2573              	.LEHE14:
 2574              	.LEHB15:
 2575 0fc0 E8000000 		call	__cxa_end_catch
 2575      00
 2576              	.LEHE15:
 2577 0fc5 E981FEFF 		jmp	.L239
 2577      FF
 2578              	.L250:
 2579 0fca 4889C3   		movq	%rax, %rbx
 2580              	.L227:
 2581 0fcd 488DBC24 		leaq	448(%rsp), %rdi
 2581      C0010000 
 2582 0fd5 48C78424 		movq	$_ZTV17RecordingReporter+16, 448(%rsp)
 2582      C0010000 
 2582      00000000 
 2583 0fe1 E8000000 		call	_ZN8UnitTest12TestReporterD2Ev
 2583      00
 2584 0fe6 4889DF   		movq	%rbx, %rdi
 2585              	.LEHB16:
 2586 0fe9 E8000000 		call	_Unwind_Resume
 2586      00
 2587              	.LEHE16:
 2588              	.L252:
 2589 0fee 4889C3   		movq	%rax, %rbx
 2590 0ff1 E8000000 		call	__cxa_end_catch
 2590      00
 2591 0ff6 EBD5     		jmp	.L227
 2592              	.L253:
 2593 0ff8 4889C7   		movq	%rax, %rdi
 2594 0ffb E8000000 		call	__cxa_begin_catch
 2594      00
 2595              	.LEHB17:
 2596 1000 E8000000 		call	_ZN8UnitTest11CurrentTest7DetailsEv
 2596      00
 2597 1005 488B30   		movq	(%rax), %rsi
 2598 1008 488D7C24 		leaq	48(%rsp), %rdi
 2598      30
 2599 100d BA9C0000 		movl	$156, %edx
 2599      00
 2600 1012 E8000000 		call	_ZN8UnitTest11TestDetailsC1ERKS0_i
 2600      00
 2601 1017 E8000000 		call	_ZN8UnitTest11CurrentTest7ResultsEv
 2601      00
 2602 101c 488B38   		movq	(%rax), %rdi
 2603 101f 488D7424 		leaq	48(%rsp), %rsi
 2603      30
 2604 1024 BA000000 		movl	$.LC84, %edx
 2604      00
 2605 1029 E8000000 		call	_ZN8UnitTest11TestResults13OnTestFailureERKNS_11TestDetailsEPKc
 2605      00
 2606              	.LEHE17:
 2607              	.LEHB18:
 2608 102e E8000000 		call	__cxa_end_catch
 2608      00
 2609              	.LEHE18:
 2610 1033 E92AFEFF 		jmp	.L242
 2610      FF
 2611              	.L255:
 2612 1038 488D7C24 		leaq	80(%rsp), %rdi
 2612      50
 2613 103d 4889C3   		movq	%rax, %rbx
 2614 1040 E8000000 		call	_ZN8UnitTest15MemoryOutStreamD1Ev
 2614      00
 2615 1045 EB86     		jmp	.L227
 2616              	.L254:
 2617 1047 4889C3   		movq	%rax, %rbx
 2618 104a E8000000 		call	__cxa_end_catch
 2618      00
 2619 104f E979FFFF 		jmp	.L227
 2619      FF
 2620              	.L257:
 2621 1054 488D7C24 		leaq	88(%rsp), %rdi
 2621      58
 2622 1059 4889C3   		movq	%rax, %rbx
 2623 105c E8000000 		call	_ZNSt15basic_stringbufIcSt11char_traitsIcESaIcEED1Ev
 2623      00
 2624              	.L225:
 2625 1061 488DBC24 		leaq	176(%rsp), %rdi
 2625      B0000000 
 2626 1069 48C78424 		movq	$_ZTVSt9basic_iosIcSt11char_traitsIcEE+16, 176(%rsp)
 2626      B0000000 
 2626      00000000 
 2627 1075 E8000000 		call	_ZNSt8ios_baseD2Ev
 2627      00
 2628 107a E94EFFFF 		jmp	.L227
 2628      FF
 2629              	.L256:
 2630 107f 4889C3   		movq	%rax, %rbx
 2631 1082 EBDD     		jmp	.L225
 2632              		.cfi_endproc
 2633              	.LFE1190:
 2634              		.section	.gcc_except_table
 2635 0026 0000     		.align 4
 2636              	.LLSDA1190:
 2637 0028 FF       		.byte	0xff
 2638 0029 03       		.byte	0x3
 2639 002a 55       		.uleb128 .LLSDATT1190-.LLSDATTD1190
 2640              	.LLSDATTD1190:
 2641 002b 01       		.byte	0x1
 2642 002c 4C       		.uleb128 .LLSDACSE1190-.LLSDACSB1190
 2643              	.LLSDACSB1190:
 2644 002d D701     		.uleb128 .LEHB6-.LFB1190
 2645 002f 1D       		.uleb128 .LEHE6-.LEHB6
 2646 0030 EA09     		.uleb128 .L250-.LFB1190
 2647 0032 00       		.uleb128 0
 2648 0033 EA02     		.uleb128 .LEHB7-.LFB1190
 2649 0035 05       		.uleb128 .LEHE7-.LEHB7
 2650 0036 9F0B     		.uleb128 .L256-.LFB1190
 2651 0038 00       		.uleb128 0
 2652 0039 8904     		.uleb128 .LEHB8-.LFB1190
 2653 003b 05       		.uleb128 .LEHE8-.LEHB8
 2654 003c F40A     		.uleb128 .L257-.LFB1190
 2655 003e 00       		.uleb128 0
 2656 003f BE04     		.uleb128 .LEHB9-.LFB1190
 2657 0041 7D       		.uleb128 .LEHE9-.LEHB9
 2658 0042 D80A     		.uleb128 .L255-.LFB1190
 2659 0044 00       		.uleb128 0
 2660 0045 CB06     		.uleb128 .LEHB10-.LFB1190
 2661 0047 05       		.uleb128 .LEHE10-.LEHB10
 2662 0048 EA09     		.uleb128 .L250-.LFB1190
 2663 004a 00       		.uleb128 0
 2664 004b 9607     		.uleb128 .LEHB11-.LFB1190
 2665 004d 05       		.uleb128 .LEHE11-.LEHB11
 2666 004e 00       		.uleb128 0
 2667 004f 00       		.uleb128 0
 2668 0050 C007     		.uleb128 .LEHB12-.LFB1190
 2669 0052 2E       		.uleb128 .LEHE12-.LEHB12
 2670 0053 980A     		.uleb128 .L253-.LFB1190
 2671 0055 01       		.uleb128 0x1
 2672 0056 F007     		.uleb128 .LEHB13-.LFB1190
 2673 0058 2E       		.uleb128 .LEHE13-.LEHB13
 2674 0059 AA09     		.uleb128 .L251-.LFB1190
 2675 005b 01       		.uleb128 0x1
 2676 005c B209     		.uleb128 .LEHB14-.LFB1190
 2677 005e 2E       		.uleb128 .LEHE14-.LEHB14
 2678 005f 8E0A     		.uleb128 .L252-.LFB1190
 2679 0061 00       		.uleb128 0
 2680 0062 E009     		.uleb128 .LEHB15-.LFB1190
 2681 0064 05       		.uleb128 .LEHE15-.LEHB15
 2682 0065 EA09     		.uleb128 .L250-.LFB1190
 2683 0067 00       		.uleb128 0
 2684 0068 890A     		.uleb128 .LEHB16-.LFB1190
 2685 006a 05       		.uleb128 .LEHE16-.LEHB16
 2686 006b 00       		.uleb128 0
 2687 006c 00       		.uleb128 0
 2688 006d A00A     		.uleb128 .LEHB17-.LFB1190
 2689 006f 2E       		.uleb128 .LEHE17-.LEHB17
 2690 0070 E70A     		.uleb128 .L254-.LFB1190
 2691 0072 00       		.uleb128 0
 2692 0073 CE0A     		.uleb128 .LEHB18-.LFB1190
 2693 0075 05       		.uleb128 .LEHE18-.LEHB18
 2694 0076 EA09     		.uleb128 .L250-.LFB1190
 2695 0078 00       		.uleb128 0
 2696              	.LLSDACSE1190:
 2697 0079 01       		.byte	0x1
 2698 007a 00       		.byte	0
 2699 007b 00       		.align 4
 2700 007c 00000000 		.long	0
 2701              	
 2702              	.LLSDATT1190:
 2703              		.text
 2705              		.section	.text.unlikely
 2706              	.LCOLDE85:
 2707              		.text
 2708              	.LHOTE85:
 2709              		.section	.rodata.str1.8
 2710 0104 00000000 		.align 8
 2711              	.LC86:
 2712 0108 556E6861 		.string	"Unhandled exception in CHECK_EQUAL(something, something)"
 2712      6E646C65 
 2712      64206578 
 2712      63657074 
 2712      696F6E20 
 2713              		.section	.text.unlikely
 2714              		.align 2
 2715              	.LCOLDB87:
 2716              		.text
 2717              	.LHOTB87:
 2718              		.align 2
 2719 1084 6690662E 		.p2align 4,,15
 2719      0F1F8400 
 2719      00000000 
 2721              	_ZNK12_GLOBAL__N_130TestCheckEqualWithUnsignedLong7RunImplEv:
 2722              	.LFB1134:
 2723              		.cfi_startproc
 2724              		.cfi_personality 0x3,__gxx_personality_v0
 2725              		.cfi_lsda 0x3,.LLSDA1134
 2726 1090 53       		pushq	%rbx
 2727              		.cfi_def_cfa_offset 16
 2728              		.cfi_offset 3, -16
 2729 1091 31F6     		xorl	%esi, %esi
 2730 1093 4883EC50 		subq	$80, %rsp
 2731              		.cfi_def_cfa_offset 96
 2732 1097 4889E7   		movq	%rsp, %rdi
 2733 109a 64488B04 		movq	%fs:40, %rax
 2733      25280000 
 2733      00
 2734 10a3 48894424 		movq	%rax, 72(%rsp)
 2734      48
 2735 10a8 31C0     		xorl	%eax, %eax
 2736              	.LEHB19:
 2737 10aa E8000000 		call	_ZN8UnitTest11TestResultsC1EPNS_12TestReporterE
 2737      00
 2738              	.LEHE19:
 2739              	.LEHB20:
 2740 10af E8000000 		call	_ZN8UnitTest11CurrentTest7DetailsEv
 2740      00
 2741 10b4 488B30   		movq	(%rax), %rsi
 2742 10b7 488D7C24 		leaq	32(%rsp), %rdi
 2742      20
 2743 10bc BA0E0000 		movl	$14, %edx
 2743      00
 2744 10c1 E8000000 		call	_ZN8UnitTest11TestDetailsC1ERKS0_i
 2744      00
 2745 10c6 E8000000 		call	_ZN8UnitTest11CurrentTest7ResultsEv
 2745      00
 2746              	.LEHE20:
 2747              	.L271:
 2748 10cb 488B4424 		movq	72(%rsp), %rax
 2748      48
 2749 10d0 64483304 		xorq	%fs:40, %rax
 2749      25280000 
 2749      00
 2750 10d9 7506     		jne	.L279
 2751 10db 4883C450 		addq	$80, %rsp
 2752              		.cfi_remember_state
 2753              		.cfi_def_cfa_offset 16
 2754 10df 5B       		popq	%rbx
 2755              		.cfi_def_cfa_offset 8
 2756 10e0 C3       		ret
 2757              	.L279:
 2758              		.cfi_restore_state
 2759 10e1 E8000000 		call	__stack_chk_fail
 2759      00
 2760              	.L276:
 2761 10e6 4889C7   		movq	%rax, %rdi
 2762 10e9 E8000000 		call	__cxa_begin_catch
 2762      00
 2763              	.LEHB21:
 2764 10ee E8000000 		call	_ZN8UnitTest11CurrentTest7DetailsEv
 2764      00
 2765 10f3 488B30   		movq	(%rax), %rsi
 2766 10f6 488D7C24 		leaq	32(%rsp), %rdi
 2766      20
 2767 10fb BA0E0000 		movl	$14, %edx
 2767      00
 2768 1100 E8000000 		call	_ZN8UnitTest11TestDetailsC1ERKS0_i
 2768      00
 2769 1105 E8000000 		call	_ZN8UnitTest11CurrentTest7ResultsEv
 2769      00
 2770 110a 488B38   		movq	(%rax), %rdi
 2771 110d 488D7424 		leaq	32(%rsp), %rsi
 2771      20
 2772 1112 BA000000 		movl	$.LC86, %edx
 2772      00
 2773 1117 E8000000 		call	_ZN8UnitTest11TestResults13OnTestFailureERKNS_11TestDetailsEPKc
 2773      00
 2774              	.LEHE21:
 2775              	.LEHB22:
 2776 111c E8000000 		call	__cxa_end_catch
 2776      00
 2777              	.LEHE22:
 2778 1121 EBA8     		jmp	.L271
 2779              	.L277:
 2780 1123 4889C3   		movq	%rax, %rbx
 2781 1126 E8000000 		call	__cxa_end_catch
 2781      00
 2782 112b 4889DF   		movq	%rbx, %rdi
 2783              	.LEHB23:
 2784 112e E8000000 		call	_Unwind_Resume
 2784      00
 2785              	.LEHE23:
 2786              		.cfi_endproc
 2787              	.LFE1134:
 2788              		.section	.gcc_except_table
 2789              		.align 4
 2790              	.LLSDA1134:
 2791 0080 FF       		.byte	0xff
 2792 0081 03       		.byte	0x3
 2793 0082 21       		.uleb128 .LLSDATT1134-.LLSDATTD1134
 2794              	.LLSDATTD1134:
 2795 0083 01       		.byte	0x1
 2796 0084 17       		.uleb128 .LLSDACSE1134-.LLSDACSB1134
 2797              	.LLSDACSB1134:
 2798 0085 1A       		.uleb128 .LEHB19-.LFB1134
 2799 0086 05       		.uleb128 .LEHE19-.LEHB19
 2800 0087 00       		.uleb128 0
 2801 0088 00       		.uleb128 0
 2802 0089 1F       		.uleb128 .LEHB20-.LFB1134
 2803 008a 1C       		.uleb128 .LEHE20-.LEHB20
 2804 008b 56       		.uleb128 .L276-.LFB1134
 2805 008c 01       		.uleb128 0x1
 2806 008d 5E       		.uleb128 .LEHB21-.LFB1134
 2807 008e 2E       		.uleb128 .LEHE21-.LEHB21
 2808 008f 9301     		.uleb128 .L277-.LFB1134
 2809 0091 00       		.uleb128 0
 2810 0092 8C01     		.uleb128 .LEHB22-.LFB1134
 2811 0094 05       		.uleb128 .LEHE22-.LEHB22
 2812 0095 00       		.uleb128 0
 2813 0096 00       		.uleb128 0
 2814 0097 9E01     		.uleb128 .LEHB23-.LFB1134
 2815 0099 05       		.uleb128 .LEHE23-.LEHB23
 2816 009a 00       		.uleb128 0
 2817 009b 00       		.uleb128 0
 2818              	.LLSDACSE1134:
 2819 009c 01       		.byte	0x1
 2820 009d 00       		.byte	0
 2821 009e 0000     		.align 4
 2822 00a0 00000000 		.long	0
 2823              	
 2824              	.LLSDATT1134:
 2825              		.text
 2827              		.section	.text.unlikely
 2828              	.LCOLDE87:
 2829              		.text
 2830              	.LHOTE87:
 2831              		.section	.rodata.str1.8
 2832 0141 00000000 		.align 8
 2832      000000
 2833              	.LC88:
 2834 0148 556E6861 		.string	"Unhandled exception in CHECK_CLOSE(0.5, 0.5)"
 2834      6E646C65 
 2834      64206578 
 2834      63657074 
 2834      696F6E20 
 2835              		.section	.text.unlikely
 2836              		.align 2
 2837              	.LCOLDB89:
 2838              		.text
 2839              	.LHOTB89:
 2840 1133 90       		.align 2
 2841 1134 6690662E 		.p2align 4,,15
 2841      0F1F8400 
 2841      00000000 
 2843              	_ZNK12_GLOBAL__N_133TestCheckCloseWithDoublesSucceeds7RunImplEv:
 2844              	.LFB1230:
 2845              		.cfi_startproc
 2846              		.cfi_personality 0x3,__gxx_personality_v0
 2847              		.cfi_lsda 0x3,.LLSDA1230
 2848 1140 53       		pushq	%rbx
 2849              		.cfi_def_cfa_offset 16
 2850              		.cfi_offset 3, -16
 2851 1141 4883EC30 		subq	$48, %rsp
 2852              		.cfi_def_cfa_offset 64
 2853 1145 64488B04 		movq	%fs:40, %rax
 2853      25280000 
 2853      00
 2854 114e 48894424 		movq	%rax, 40(%rsp)
 2854      28
 2855 1153 31C0     		xorl	%eax, %eax
 2856              	.LEHB24:
 2857 1155 E8000000 		call	_ZN8UnitTest11CurrentTest7DetailsEv
 2857      00
 2858 115a 488B30   		movq	(%rax), %rsi
 2859 115d BA0E0100 		movl	$270, %edx
 2859      00
 2860 1162 4889E7   		movq	%rsp, %rdi
 2861 1165 E8000000 		call	_ZN8UnitTest11TestDetailsC1ERKS0_i
 2861      00
 2862 116a E8000000 		call	_ZN8UnitTest11CurrentTest7ResultsEv
 2862      00
 2863              	.LEHE24:
 2864              	.L280:
 2865 116f 488B4424 		movq	40(%rsp), %rax
 2865      28
 2866 1174 64483304 		xorq	%fs:40, %rax
 2866      25280000 
 2866      00
 2867 117d 7506     		jne	.L288
 2868 117f 4883C430 		addq	$48, %rsp
 2869              		.cfi_remember_state
 2870              		.cfi_def_cfa_offset 16
 2871 1183 5B       		popq	%rbx
 2872              		.cfi_def_cfa_offset 8
 2873 1184 C3       		ret
 2874              	.L288:
 2875              		.cfi_restore_state
 2876 1185 E8000000 		call	__stack_chk_fail
 2876      00
 2877              	.L285:
 2878 118a 4889C7   		movq	%rax, %rdi
 2879 118d E8000000 		call	__cxa_begin_catch
 2879      00
 2880              	.LEHB25:
 2881 1192 E8000000 		call	_ZN8UnitTest11CurrentTest7DetailsEv
 2881      00
 2882 1197 488B30   		movq	(%rax), %rsi
 2883 119a BA0E0100 		movl	$270, %edx
 2883      00
 2884 119f 4889E7   		movq	%rsp, %rdi
 2885 11a2 E8000000 		call	_ZN8UnitTest11TestDetailsC1ERKS0_i
 2885      00
 2886 11a7 E8000000 		call	_ZN8UnitTest11CurrentTest7ResultsEv
 2886      00
 2887 11ac 488B38   		movq	(%rax), %rdi
 2888 11af BA000000 		movl	$.LC88, %edx
 2888      00
 2889 11b4 4889E6   		movq	%rsp, %rsi
 2890 11b7 E8000000 		call	_ZN8UnitTest11TestResults13OnTestFailureERKNS_11TestDetailsEPKc
 2890      00
 2891              	.LEHE25:
 2892              	.LEHB26:
 2893 11bc E8000000 		call	__cxa_end_catch
 2893      00
 2894              	.LEHE26:
 2895 11c1 EBAC     		jmp	.L280
 2896              	.L286:
 2897 11c3 4889C3   		movq	%rax, %rbx
 2898 11c6 E8000000 		call	__cxa_end_catch
 2898      00
 2899 11cb 4889DF   		movq	%rbx, %rdi
 2900              	.LEHB27:
 2901 11ce E8000000 		call	_Unwind_Resume
 2901      00
 2902              	.LEHE27:
 2903              		.cfi_endproc
 2904              	.LFE1230:
 2905              		.section	.gcc_except_table
 2906              		.align 4
 2907              	.LLSDA1230:
 2908 00a4 FF       		.byte	0xff
 2909 00a5 03       		.byte	0x3
 2910 00a6 1D       		.uleb128 .LLSDATT1230-.LLSDATTD1230
 2911              	.LLSDATTD1230:
 2912 00a7 01       		.byte	0x1
 2913 00a8 12       		.uleb128 .LLSDACSE1230-.LLSDACSB1230
 2914              	.LLSDACSB1230:
 2915 00a9 15       		.uleb128 .LEHB24-.LFB1230
 2916 00aa 1A       		.uleb128 .LEHE24-.LEHB24
 2917 00ab 4A       		.uleb128 .L285-.LFB1230
 2918 00ac 01       		.uleb128 0x1
 2919 00ad 52       		.uleb128 .LEHB25-.LFB1230
 2920 00ae 2A       		.uleb128 .LEHE25-.LEHB25
 2921 00af 8301     		.uleb128 .L286-.LFB1230
 2922 00b1 00       		.uleb128 0
 2923 00b2 7C       		.uleb128 .LEHB26-.LFB1230
 2924 00b3 05       		.uleb128 .LEHE26-.LEHB26
 2925 00b4 00       		.uleb128 0
 2926 00b5 00       		.uleb128 0
 2927 00b6 8E01     		.uleb128 .LEHB27-.LFB1230
 2928 00b8 05       		.uleb128 .LEHE27-.LEHB27
 2929 00b9 00       		.uleb128 0
 2930 00ba 00       		.uleb128 0
 2931              	.LLSDACSE1230:
 2932 00bb 01       		.byte	0x1
 2933 00bc 00       		.byte	0
 2934 00bd 000000   		.align 4
 2935 00c0 00000000 		.long	0
 2936              	
 2937              	.LLSDATT1230:
 2938              		.text
 2940              		.section	.text.unlikely
 2941              	.LCOLDE89:
 2942              		.text
 2943              	.LHOTE89:
 2944              		.section	.rodata.str1.1
 2945              	.LC90:
 2946 0058 302E3031 		.string	"0.01"
 2946      00
 2947              		.section	.rodata.str1.8
 2948 0175 000000   		.align 8
 2949              	.LC91:
 2950 0178 73747273 		.string	"strstr(reporter.lastFailedMessage, \"0.01\")"
 2950      74722872 
 2950      65706F72 
 2950      7465722E 
 2950      6C617374 
 2951 01a3 00000000 		.align 8
 2951      00
 2952              	.LC92:
 2953 01a8 556E6861 		.string	"Unhandled exception in CHECK(strstr(reporter.lastFailedMessage, \"0.01\"))"
 2953      6E646C65 
 2953      64206578 
 2953      63657074 
 2953      696F6E20 
 2954              		.section	.text.unlikely
 2955              		.align 2
 2956              	.LCOLDB93:
 2957              		.text
 2958              	.LHOTB93:
 2959 11d3 90       		.align 2
 2960 11d4 6690662E 		.p2align 4,,15
 2960      0F1F8400 
 2960      00000000 
 2962              	_ZNK12_GLOBAL__N_138TestCheckCloseFailureIncludesTolerance7RunImplEv:
 2963              	.LFB1194:
 2964              		.cfi_startproc
 2965              		.cfi_personality 0x3,__gxx_personality_v0
 2966              		.cfi_lsda 0x3,.LLSDA1194
 2967 11e0 53       		pushq	%rbx
 2968              		.cfi_def_cfa_offset 16
 2969              		.cfi_offset 3, -16
 2970 11e1 4881EC00 		subq	$2560, %rsp
 2970      0A0000
 2971              		.cfi_def_cfa_offset 2576
 2972 11e8 488DB424 		leaq	448(%rsp), %rsi
 2972      C0010000 
 2973 11f0 488D7C24 		leaq	16(%rsp), %rdi
 2973      10
 2974 11f5 48C78424 		movq	$_ZTV17RecordingReporter+16, 448(%rsp)
 2974      C0010000 
 2974      00000000 
 2975 1201 64488B04 		movq	%fs:40, %rax
 2975      25280000 
 2975      00
 2976 120a 48898424 		movq	%rax, 2552(%rsp)
 2976      F8090000 
 2977 1212 31C0     		xorl	%eax, %eax
 2978 1214 C78424C8 		movl	$0, 456(%rsp)
 2978      01000000 
 2978      000000
 2979 121f C78424CC 		movl	$0, 972(%rsp)
 2979      03000000 
 2979      000000
 2980 122a C78424D0 		movl	$0, 1232(%rsp)
 2980      04000000 
 2980      000000
 2981 1235 C78424D4 		movl	$0, 2004(%rsp)
 2981      07000000 
 2981      000000
 2982 1240 C78424D8 		movl	$0x00000000, 2520(%rsp)
 2982      09000000 
 2982      000000
 2983 124b C78424DC 		movl	$0, 2524(%rsp)
 2983      09000000 
 2983      000000
 2984 1256 C78424E0 		movl	$0, 2528(%rsp)
 2984      09000000 
 2984      000000
 2985 1261 C78424E4 		movl	$0, 2532(%rsp)
 2985      09000000 
 2985      000000
 2986 126c C78424E8 		movl	$0x00000000, 2536(%rsp)
 2986      09000000 
 2986      000000
 2987 1277 C68424CC 		movb	$0, 460(%rsp)
 2987      01000000 
 2988 127f C68424CC 		movb	$0, 716(%rsp)
 2988      02000000 
 2989 1287 C68424D0 		movb	$0, 976(%rsp)
 2989      03000000 
 2990 128f C68424D4 		movb	$0, 1236(%rsp)
 2990      04000000 
 2991 1297 C68424D4 		movb	$0, 1492(%rsp)
 2991      05000000 
 2992 129f C68424D4 		movb	$0, 1748(%rsp)
 2992      06000000 
 2993 12a7 C68424D8 		movb	$0, 2008(%rsp)
 2993      07000000 
 2994 12af C68424D8 		movb	$0, 2264(%rsp)
 2994      08000000 
 2995              	.LEHB28:
 2996 12b7 E8000000 		call	_ZN8UnitTest11TestResultsC1EPNS_12TestReporterE
 2996      00
 2997 12bc B9000000 		movl	$.LC72, %ecx
 2997      00
 2998 12c1 488D7C24 		leaq	48(%rsp), %rdi
 2998      30
 2999 12c6 4531C0   		xorl	%r8d, %r8d
 3000 12c9 4889CA   		movq	%rcx, %rdx
 3001 12cc 4889CE   		movq	%rcx, %rsi
 3002 12cf E8000000 		call	_ZN8UnitTest11TestDetailsC1EPKcS2_S2_i
 3002      00
 3003              	.LEHE28:
 3004 12d4 488D9C24 		leaq	176(%rsp), %rbx
 3004      B0000000 
 3005 12dc 4889DF   		movq	%rbx, %rdi
 3006 12df E8000000 		call	_ZNSt8ios_baseC2Ev
 3006      00
 3007 12e4 31F6     		xorl	%esi, %esi
 3008 12e6 4889DF   		movq	%rbx, %rdi
 3009 12e9 48C78424 		movq	$0, 392(%rsp)
 3009      88010000 
 3009      00000000 
 3010 12f5 C6842490 		movb	$0, 400(%rsp)
 3010      01000000 
 3011 12fd C6842491 		movb	$0, 401(%rsp)
 3011      01000000 
 3012 1305 48C78424 		movq	$0, 408(%rsp)
 3012      98010000 
 3012      00000000 
 3013 1311 48C78424 		movq	$0, 416(%rsp)
 3013      A0010000 
 3013      00000000 
 3014 131d 48C78424 		movq	$0, 424(%rsp)
 3014      A8010000 
 3014      00000000 
 3015 1329 48C78424 		movq	$0, 432(%rsp)
 3015      B0010000 
 3015      00000000 
 3016 1335 48C74424 		movq	$_ZTCN8UnitTest15MemoryOutStreamE0_So+24, 80(%rsp)
 3016      50000000 
 3016      00
 3017 133e 48C78424 		movq	$_ZTCN8UnitTest15MemoryOutStreamE0_So+64, 176(%rsp)
 3017      B0000000 
 3017      00000000 
 3018              	.LEHB29:
 3019 134a E8000000 		call	_ZNSt9basic_iosIcSt11char_traitsIcEE4initEPSt15basic_streambufIcS1_E
 3019      00
 3020              	.LEHE29:
 3021 134f 488DBC24 		leaq	144(%rsp), %rdi
 3021      90000000 
 3022 1357 48C74424 		movq	$_ZTCN8UnitTest15MemoryOutStreamE0_St19basic_ostringstreamIcSt11char_traitsIcESaIcEE+24, 80(%
 3022      50000000 
 3022      00
 3023 1360 48C78424 		movq	$_ZTCN8UnitTest15MemoryOutStreamE0_St19basic_ostringstreamIcSt11char_traitsIcESaIcEE+64, 176(
 3023      B0000000 
 3023      00000000 
 3024 136c 48C74424 		movq	$_ZTVSt15basic_streambufIcSt11char_traitsIcEE+16, 88(%rsp)
 3024      58000000 
 3024      00
 3025 1375 48C74424 		movq	$0, 96(%rsp)
 3025      60000000 
 3025      00
 3026 137e 48C74424 		movq	$0, 104(%rsp)
 3026      68000000 
 3026      00
 3027 1387 48C74424 		movq	$0, 112(%rsp)
 3027      70000000 
 3027      00
 3028 1390 48C74424 		movq	$0, 120(%rsp)
 3028      78000000 
 3028      00
 3029 1399 48C78424 		movq	$0, 128(%rsp)
 3029      80000000 
 3029      00000000 
 3030 13a5 48C78424 		movq	$0, 136(%rsp)
 3030      88000000 
 3030      00000000 
 3031 13b1 E8000000 		call	_ZNSt6localeC1Ev
 3031      00
 3032 13b6 488B4424 		movq	80(%rsp), %rax
 3032      50
 3033 13bb 488D7C24 		leaq	80(%rsp), %rdi
 3033      50
 3034 13c0 488D7424 		leaq	88(%rsp), %rsi
 3034      58
 3035 13c5 48C74424 		movq	$_ZTVSt15basic_stringbufIcSt11char_traitsIcESaIcEE+16, 88(%rsp)
 3035      58000000 
 3035      00
 3036 13ce C7842498 		movl	$16, 152(%rsp)
 3036      00000010 
 3036      000000
 3037 13d9 48C78424 		movq	$_ZNSs4_Rep20_S_empty_rep_storageE+24, 160(%rsp)
 3037      A0000000 
 3037      00000000 
 3038 13e5 480378E8 		addq	-24(%rax), %rdi
 3039              	.LEHB30:
 3040 13e9 E8000000 		call	_ZNSt9basic_iosIcSt11char_traitsIcEE4initEPSt15basic_streambufIcS1_E
 3040      00
 3041              	.LEHE30:
 3042 13ee 488D7C24 		leaq	80(%rsp), %rdi
 3042      50
 3043 13f3 BA090000 		movl	$9, %edx
 3043      00
 3044 13f8 BE000000 		movl	$.LC73, %esi
 3044      00
 3045 13fd 48C74424 		movq	$_ZTVN8UnitTest15MemoryOutStreamE+24, 80(%rsp)
 3045      50000000 
 3045      00
 3046 1406 48C78424 		movq	$_ZTVN8UnitTest15MemoryOutStreamE+64, 176(%rsp)
 3046      B0000000 
 3046      00000000 
 3047 1412 48C78424 		movq	$_ZNSs4_Rep20_S_empty_rep_storageE+24, 168(%rsp)
 3047      A8000000 
 3047      00000000 
 3048              	.LEHB31:
 3049 141e E8000000 		call	_ZSt16__ostream_insertIcSt11char_traitsIcEERSt13basic_ostreamIT_T0_ES6_PKS3_l
 3049      00
 3050 1423 488D7C24 		leaq	80(%rsp), %rdi
 3050      50
 3051 1428 BE020000 		movl	$2, %esi
 3051      00
 3052 142d E8000000 		call	_ZNSolsEi
 3052      00
 3053 1432 BA050000 		movl	$5, %edx
 3053      00
 3054 1437 BE000000 		movl	$.LC75, %esi
 3054      00
 3055 143c 4889C7   		movq	%rax, %rdi
 3056 143f 4889C3   		movq	%rax, %rbx
 3057 1442 E8000000 		call	_ZSt16__ostream_insertIcSt11char_traitsIcEERSt13basic_ostreamIT_T0_ES6_PKS3_l
 3057      00
 3058 1447 F20F1005 		movsd	.LC76(%rip), %xmm0
 3058      00000000 
 3059 144f 4889DF   		movq	%rbx, %rdi
 3060 1452 E8000000 		call	_ZNSo9_M_insertIdEERSoT_
 3060      00
 3061 1457 BA090000 		movl	$9, %edx
 3061      00
 3062 145c BE000000 		movl	$.LC77, %esi
 3062      00
 3063 1461 4889C7   		movq	%rax, %rdi
 3064 1464 4889C3   		movq	%rax, %rbx
 3065 1467 E8000000 		call	_ZSt16__ostream_insertIcSt11char_traitsIcEERSt13basic_ostreamIT_T0_ES6_PKS3_l
 3065      00
 3066 146c BE030000 		movl	$3, %esi
 3066      00
 3067 1471 4889DF   		movq	%rbx, %rdi
 3068 1474 E8000000 		call	_ZNSolsEi
 3068      00
 3069 1479 488D7C24 		leaq	80(%rsp), %rdi
 3069      50
 3070 147e E8000000 		call	_ZNK8UnitTest15MemoryOutStream7GetTextEv
 3070      00
 3071 1483 488D7424 		leaq	48(%rsp), %rsi
 3071      30
 3072 1488 488D7C24 		leaq	16(%rsp), %rdi
 3072      10
 3073 148d 4889C2   		movq	%rax, %rdx
 3074 1490 E8000000 		call	_ZN8UnitTest11TestResults13OnTestFailureERKNS_11TestDetailsEPKc
 3074      00
 3075              	.LEHE31:
 3076 1495 488B8424 		movq	168(%rsp), %rax
 3076      A8000000 
 3077 149d 48C74424 		movq	$_ZTVN8UnitTest15MemoryOutStreamE+24, 80(%rsp)
 3077      50000000 
 3077      00
 3078 14a6 48C78424 		movq	$_ZTVN8UnitTest15MemoryOutStreamE+64, 176(%rsp)
 3078      B0000000 
 3078      00000000 
 3079 14b2 488D78E8 		leaq	-24(%rax), %rdi
 3080 14b6 4881FF00 		cmpq	$_ZNSs4_Rep20_S_empty_rep_storageE, %rdi
 3080      000000
 3081 14bd 0F85ED00 		jne	.L326
 3081      0000
 3082              	.L296:
 3083 14c3 488B8424 		movq	160(%rsp), %rax
 3083      A0000000 
 3084 14cb 48C74424 		movq	$_ZTCN8UnitTest15MemoryOutStreamE0_St19basic_ostringstreamIcSt11char_traitsIcESaIcEE+24, 80(%
 3084      50000000 
 3084      00
 3085 14d4 48C78424 		movq	$_ZTCN8UnitTest15MemoryOutStreamE0_St19basic_ostringstreamIcSt11char_traitsIcESaIcEE+64, 176(
 3085      B0000000 
 3085      00000000 
 3086 14e0 48C74424 		movq	$_ZTVSt15basic_stringbufIcSt11char_traitsIcESaIcEE+16, 88(%rsp)
 3086      58000000 
 3086      00
 3087 14e9 488D78E8 		leaq	-24(%rax), %rdi
 3088 14ed 4881FF00 		cmpq	$_ZNSs4_Rep20_S_empty_rep_storageE, %rdi
 3088      000000
 3089 14f4 0F85E600 		jne	.L327
 3089      0000
 3090              	.L301:
 3091 14fa 488DBC24 		leaq	144(%rsp), %rdi
 3091      90000000 
 3092 1502 48C74424 		movq	$_ZTVSt15basic_streambufIcSt11char_traitsIcEE+16, 88(%rsp)
 3092      58000000 
 3092      00
 3093 150b E8000000 		call	_ZNSt6localeD1Ev
 3093      00
 3094 1510 488D4424 		leaq	80(%rsp), %rax
 3094      50
 3095 1515 48C78424 		movq	$_ZTVSt9basic_iosIcSt11char_traitsIcEE+16, 176(%rsp)
 3095      B0000000 
 3095      00000000 
 3096 1521 488D7860 		leaq	96(%rax), %rdi
 3097              	.LEHB32:
 3098 1525 E8000000 		call	_ZNSt8ios_baseD2Ev
 3098      00
 3099              	.LEHE32:
 3100 152a 488DBC24 		leaq	1748(%rsp), %rdi
 3100      D4060000 
 3101 1532 BE000000 		movl	$.LC90, %esi
 3101      00
 3102 1537 E8000000 		call	strstr
 3102      00
 3103 153c 4885C0   		testq	%rax, %rax
 3104 153f 743F     		je	.L328
 3105              	.L306:
 3106 1541 488DBC24 		leaq	448(%rsp), %rdi
 3106      C0010000 
 3107 1549 48C78424 		movq	$_ZTV17RecordingReporter+16, 448(%rsp)
 3107      C0010000 
 3107      00000000 
 3108              	.LEHB33:
 3109 1555 E8000000 		call	_ZN8UnitTest12TestReporterD2Ev
 3109      00
 3110              	.LEHE33:
 3111 155a 488B8424 		movq	2552(%rsp), %rax
 3111      F8090000 
 3112 1562 64483304 		xorq	%fs:40, %rax
 3112      25280000 
 3112      00
 3113 156b 0F85BC00 		jne	.L329
 3113      0000
 3114 1571 4881C400 		addq	$2560, %rsp
 3114      0A0000
 3115              		.cfi_remember_state
 3116              		.cfi_def_cfa_offset 16
 3117 1578 5B       		popq	%rbx
 3118              		.cfi_def_cfa_offset 8
 3119 1579 C3       		ret
 3120 157a 660F1F44 		.p2align 4,,10
 3120      0000
 3121              		.p2align 3
 3122              	.L328:
 3123              		.cfi_restore_state
 3124              	.LEHB34:
 3125 1580 E8000000 		call	_ZN8UnitTest11CurrentTest7DetailsEv
 3125      00
 3126 1585 488B30   		movq	(%rax), %rsi
 3127 1588 488D7C24 		leaq	48(%rsp), %rdi
 3127      30
 3128 158d BAA60000 		movl	$166, %edx
 3128      00
 3129 1592 E8000000 		call	_ZN8UnitTest11TestDetailsC1ERKS0_i
 3129      00
 3130 1597 E8000000 		call	_ZN8UnitTest11CurrentTest7ResultsEv
 3130      00
 3131 159c 488B38   		movq	(%rax), %rdi
 3132 159f 488D7424 		leaq	48(%rsp), %rsi
 3132      30
 3133 15a4 BA000000 		movl	$.LC91, %edx
 3133      00
 3134 15a9 E8000000 		call	_ZN8UnitTest11TestResults13OnTestFailureERKNS_11TestDetailsEPKc
 3134      00
 3135              	.LEHE34:
 3136 15ae EB91     		jmp	.L306
 3137              		.p2align 4,,10
 3138              		.p2align 3
 3139              	.L326:
 3140 15b0 BA000000 		movl	$_ZL28__gthrw___pthread_key_createPjPFvPvE, %edx
 3140      00
 3141 15b5 4885D2   		testq	%rdx, %rdx
 3142 15b8 7456     		je	.L297
 3143 15ba BAFFFFFF 		movl	$-1, %edx
 3143      FF
 3144 15bf F00FC150 		lock xaddl	%edx, -8(%rax)
 3144      F8
 3145 15c4 89D0     		movl	%edx, %eax
 3146              	.L298:
 3147 15c6 85C0     		testl	%eax, %eax
 3148 15c8 0F8FF5FE 		jg	.L296
 3148      FFFF
 3149 15ce 488D7424 		leaq	15(%rsp), %rsi
 3149      0F
 3150 15d3 E8000000 		call	_ZNSs4_Rep10_M_destroyERKSaIcE
 3150      00
 3151 15d8 E9E6FEFF 		jmp	.L296
 3151      FF
 3152 15dd 0F1F00   		.p2align 4,,10
 3153              		.p2align 3
 3154              	.L327:
 3155 15e0 BA000000 		movl	$_ZL28__gthrw___pthread_key_createPjPFvPvE, %edx
 3155      00
 3156 15e5 4885D2   		testq	%rdx, %rdx
 3157 15e8 7436     		je	.L302
 3158 15ea BAFFFFFF 		movl	$-1, %edx
 3158      FF
 3159 15ef F00FC150 		lock xaddl	%edx, -8(%rax)
 3159      F8
 3160 15f4 89D0     		movl	%edx, %eax
 3161              	.L303:
 3162 15f6 85C0     		testl	%eax, %eax
 3163 15f8 0F8FFCFE 		jg	.L301
 3163      FFFF
 3164 15fe 488D7424 		leaq	15(%rsp), %rsi
 3164      0F
 3165 1603 E8000000 		call	_ZNSs4_Rep10_M_destroyERKSaIcE
 3165      00
 3166 1608 E9EDFEFF 		jmp	.L301
 3166      FF
 3167 160d 0F1F00   		.p2align 4,,10
 3168              		.p2align 3
 3169              	.L297:
 3170 1610 8B50F8   		movl	-8(%rax), %edx
 3171 1613 8D4AFF   		leal	-1(%rdx), %ecx
 3172 1616 8948F8   		movl	%ecx, -8(%rax)
 3173 1619 89D0     		movl	%edx, %eax
 3174 161b EBA9     		jmp	.L298
 3175 161d 0F1F00   		.p2align 4,,10
 3176              		.p2align 3
 3177              	.L302:
 3178 1620 8B50F8   		movl	-8(%rax), %edx
 3179 1623 8D4AFF   		leal	-1(%rdx), %ecx
 3180 1626 8948F8   		movl	%ecx, -8(%rax)
 3181 1629 89D0     		movl	%edx, %eax
 3182 162b EBC9     		jmp	.L303
 3183              	.L329:
 3184 162d E8000000 		call	__stack_chk_fail
 3184      00
 3185              	.L313:
 3186 1632 4889C7   		movq	%rax, %rdi
 3187 1635 E8000000 		call	__cxa_begin_catch
 3187      00
 3188              	.LEHB35:
 3189 163a E8000000 		call	_ZN8UnitTest11CurrentTest7DetailsEv
 3189      00
 3190 163f 488B30   		movq	(%rax), %rsi
 3191 1642 488D7C24 		leaq	48(%rsp), %rdi
 3191      30
 3192 1647 BAA60000 		movl	$166, %edx
 3192      00
 3193 164c E8000000 		call	_ZN8UnitTest11TestDetailsC1ERKS0_i
 3193      00
 3194 1651 E8000000 		call	_ZN8UnitTest11CurrentTest7ResultsEv
 3194      00
 3195 1656 488B38   		movq	(%rax), %rdi
 3196 1659 488D7424 		leaq	48(%rsp), %rsi
 3196      30
 3197 165e BA000000 		movl	$.LC92, %edx
 3197      00
 3198 1663 E8000000 		call	_ZN8UnitTest11TestResults13OnTestFailureERKNS_11TestDetailsEPKc
 3198      00
 3199              	.LEHE35:
 3200              	.LEHB36:
 3201 1668 E8000000 		call	__cxa_end_catch
 3201      00
 3202              	.LEHE36:
 3203 166d E9CFFEFF 		jmp	.L306
 3203      FF
 3204              	.L315:
 3205 1672 488D7C24 		leaq	80(%rsp), %rdi
 3205      50
 3206 1677 4889C3   		movq	%rax, %rbx
 3207 167a E8000000 		call	_ZN8UnitTest15MemoryOutStreamD1Ev
 3207      00
 3208              	.L294:
 3209 167f 488DBC24 		leaq	448(%rsp), %rdi
 3209      C0010000 
 3210 1687 48C78424 		movq	$_ZTV17RecordingReporter+16, 448(%rsp)
 3210      C0010000 
 3210      00000000 
 3211 1693 E8000000 		call	_ZN8UnitTest12TestReporterD2Ev
 3211      00
 3212 1698 4889DF   		movq	%rbx, %rdi
 3213              	.LEHB37:
 3214 169b E8000000 		call	_Unwind_Resume
 3214      00
 3215              	.LEHE37:
 3216              	.L316:
 3217 16a0 4889C3   		movq	%rax, %rbx
 3218              	.L292:
 3219 16a3 488DBC24 		leaq	176(%rsp), %rdi
 3219      B0000000 
 3220 16ab 48C78424 		movq	$_ZTVSt9basic_iosIcSt11char_traitsIcEE+16, 176(%rsp)
 3220      B0000000 
 3220      00000000 
 3221 16b7 E8000000 		call	_ZNSt8ios_baseD2Ev
 3221      00
 3222 16bc EBC1     		jmp	.L294
 3223              	.L312:
 3224 16be 4889C3   		movq	%rax, %rbx
 3225 16c1 EBBC     		jmp	.L294
 3226              	.L317:
 3227 16c3 488D7C24 		leaq	88(%rsp), %rdi
 3227      58
 3228 16c8 4889C3   		movq	%rax, %rbx
 3229 16cb E8000000 		call	_ZNSt15basic_stringbufIcSt11char_traitsIcESaIcEED1Ev
 3229      00
 3230 16d0 EBD1     		jmp	.L292
 3231              	.L314:
 3232 16d2 4889C3   		movq	%rax, %rbx
 3233 16d5 E8000000 		call	__cxa_end_catch
 3233      00
 3234 16da EBA3     		jmp	.L294
 3235              		.cfi_endproc
 3236              	.LFE1194:
 3237              		.section	.gcc_except_table
 3238              		.align 4
 3239              	.LLSDA1194:
 3240 00c4 FF       		.byte	0xff
 3241 00c5 03       		.byte	0x3
 3242 00c6 45       		.uleb128 .LLSDATT1194-.LLSDATTD1194
 3243              	.LLSDATTD1194:
 3244 00c7 01       		.byte	0x1
 3245 00c8 3A       		.uleb128 .LLSDACSE1194-.LLSDACSB1194
 3246              	.LLSDACSB1194:
 3247 00c9 D701     		.uleb128 .LEHB28-.LFB1194
 3248 00cb 1D       		.uleb128 .LEHE28-.LEHB28
 3249 00cc DE09     		.uleb128 .L312-.LFB1194
 3250 00ce 00       		.uleb128 0
 3251 00cf EA02     		.uleb128 .LEHB29-.LFB1194
 3252 00d1 05       		.uleb128 .LEHE29-.LEHB29
 3253 00d2 C009     		.uleb128 .L316-.LFB1194
 3254 00d4 00       		.uleb128 0
 3255 00d5 8904     		.uleb128 .LEHB30-.LFB1194
 3256 00d7 05       		.uleb128 .LEHE30-.LEHB30
 3257 00d8 E309     		.uleb128 .L317-.LFB1194
 3258 00da 00       		.uleb128 0
 3259 00db BE04     		.uleb128 .LEHB31-.LFB1194
 3260 00dd 77       		.uleb128 .LEHE31-.LEHB31
 3261 00de 9209     		.uleb128 .L315-.LFB1194
 3262 00e0 00       		.uleb128 0
 3263 00e1 C506     		.uleb128 .LEHB32-.LFB1194
 3264 00e3 05       		.uleb128 .LEHE32-.LEHB32
 3265 00e4 DE09     		.uleb128 .L312-.LFB1194
 3266 00e6 00       		.uleb128 0
 3267 00e7 F506     		.uleb128 .LEHB33-.LFB1194
 3268 00e9 05       		.uleb128 .LEHE33-.LEHB33
 3269 00ea 00       		.uleb128 0
 3270 00eb 00       		.uleb128 0
 3271 00ec A007     		.uleb128 .LEHB34-.LFB1194
 3272 00ee 2E       		.uleb128 .LEHE34-.LEHB34
 3273 00ef D208     		.uleb128 .L313-.LFB1194
 3274 00f1 01       		.uleb128 0x1
 3275 00f2 DA08     		.uleb128 .LEHB35-.LFB1194
 3276 00f4 2E       		.uleb128 .LEHE35-.LEHB35
 3277 00f5 F209     		.uleb128 .L314-.LFB1194
 3278 00f7 00       		.uleb128 0
 3279 00f8 8809     		.uleb128 .LEHB36-.LFB1194
 3280 00fa 05       		.uleb128 .LEHE36-.LEHB36
 3281 00fb DE09     		.uleb128 .L312-.LFB1194
 3282 00fd 00       		.uleb128 0
 3283 00fe BB09     		.uleb128 .LEHB37-.LFB1194
 3284 0100 05       		.uleb128 .LEHE37-.LEHB37
 3285 0101 00       		.uleb128 0
 3286 0102 00       		.uleb128 0
 3287              	.LLSDACSE1194:
 3288 0103 01       		.byte	0x1
 3289 0104 00       		.byte	0
 3290 0105 000000   		.align 4
 3291 0108 00000000 		.long	0
 3292              	
 3293              	.LLSDATT1194:
 3294              		.text
 3296              		.section	.text.unlikely
 3297              	.LCOLDE93:
 3298              		.text
 3299              	.LHOTE93:
 3300              		.section	.rodata.str1.1
 3301              	.LC94:
 3302 005d 5D206275 		.string	"] but was [ "
 3302      74207761 
 3302      73205B20 
 3302      00
 3303              		.section	.text.unlikely
 3304              	.LCOLDB95:
 3305              		.text
 3306              	.LHOTB95:
 3307 16dc 0F1F4000 		.p2align 4,,15
 3309              	_ZN8UnitTest15CheckArrayEqualIA3_iS1_EEvRNS_11TestResultsERKT_RKT0_iRKNS_11TestDetailsE.constprop.1
 3310              	.LFB1453:
 3311              		.cfi_startproc
 3312              		.cfi_personality 0x3,__gxx_personality_v0
 3313              		.cfi_lsda 0x3,.LLSDA1453
 3314 16e0 4156     		pushq	%r14
 3315              		.cfi_def_cfa_offset 16
 3316              		.cfi_offset 14, -16
 3317 16e2 4155     		pushq	%r13
 3318              		.cfi_def_cfa_offset 24
 3319              		.cfi_offset 13, -24
 3320 16e4 4989CD   		movq	%rcx, %r13
 3321 16e7 4154     		pushq	%r12
 3322              		.cfi_def_cfa_offset 32
 3323              		.cfi_offset 12, -32
 3324 16e9 55       		pushq	%rbp
 3325              		.cfi_def_cfa_offset 40
 3326              		.cfi_offset 6, -40
 3327 16ea 4989FC   		movq	%rdi, %r12
 3328 16ed 53       		pushq	%rbx
 3329              		.cfi_def_cfa_offset 48
 3330              		.cfi_offset 3, -48
 3331 16ee 4889D3   		movq	%rdx, %rbx
 3332 16f1 4889F5   		movq	%rsi, %rbp
 3333 16f4 4881EC80 		subq	$384, %rsp
 3333      010000
 3334              		.cfi_def_cfa_offset 432
 3335 16fb 64488B04 		movq	%fs:40, %rax
 3335      25280000 
 3335      00
 3336 1704 48898424 		movq	%rax, 376(%rsp)
 3336      78010000 
 3337 170c 31C0     		xorl	%eax, %eax
 3338 170e 8B4204   		movl	4(%rdx), %eax
 3339 1711 394604   		cmpl	%eax, 4(%rsi)
 3340 1714 8B03     		movl	(%rbx), %eax
 3341 1716 0F94C2   		sete	%dl
 3342 1719 3906     		cmpl	%eax, (%rsi)
 3343 171b 0F94C0   		sete	%al
 3344 171e 84C2     		testb	%al, %dl
 3345 1720 7436     		je	.L354
 3346 1722 8B4308   		movl	8(%rbx), %eax
 3347 1725 394608   		cmpl	%eax, 8(%rsi)
 3348 1728 752E     		jne	.L354
 3349              	.L330:
 3350 172a 488B8424 		movq	376(%rsp), %rax
 3350      78010000 
 3351 1732 64483304 		xorq	%fs:40, %rax
 3351      25280000 
 3351      00
 3352 173b 0F850603 		jne	.L365
 3352      0000
 3353 1741 4881C480 		addq	$384, %rsp
 3353      010000
 3354              		.cfi_remember_state
 3355              		.cfi_def_cfa_offset 48
 3356 1748 5B       		popq	%rbx
 3357              		.cfi_def_cfa_offset 40
 3358 1749 5D       		popq	%rbp
 3359              		.cfi_def_cfa_offset 32
 3360 174a 415C     		popq	%r12
 3361              		.cfi_def_cfa_offset 24
 3362 174c 415D     		popq	%r13
 3363              		.cfi_def_cfa_offset 16
 3364 174e 415E     		popq	%r14
 3365              		.cfi_def_cfa_offset 8
 3366 1750 C3       		ret
 3367              		.p2align 4,,10
 3368 1751 0F1F8000 		.p2align 3
 3368      000000
 3369              	.L354:
 3370              		.cfi_restore_state
 3371 1758 4C8D7424 		leaq	112(%rsp), %r14
 3371      70
 3372 175d 4C89F7   		movq	%r14, %rdi
 3373 1760 E8000000 		call	_ZNSt8ios_baseC2Ev
 3373      00
 3374 1765 31F6     		xorl	%esi, %esi
 3375 1767 4C89F7   		movq	%r14, %rdi
 3376 176a 48C78424 		movq	$0, 328(%rsp)
 3376      48010000 
 3376      00000000 
 3377 1776 C6842450 		movb	$0, 336(%rsp)
 3377      01000000 
 3378 177e C6842451 		movb	$0, 337(%rsp)
 3378      01000000 
 3379 1786 48C78424 		movq	$0, 344(%rsp)
 3379      58010000 
 3379      00000000 
 3380 1792 48C78424 		movq	$0, 352(%rsp)
 3380      60010000 
 3380      00000000 
 3381 179e 48C78424 		movq	$0, 360(%rsp)
 3381      68010000 
 3381      00000000 
 3382 17aa 48C78424 		movq	$0, 368(%rsp)
 3382      70010000 
 3382      00000000 
 3383 17b6 48C74424 		movq	$_ZTCN8UnitTest15MemoryOutStreamE0_So+24, 16(%rsp)
 3383      10000000 
 3383      00
 3384 17bf 48C74424 		movq	$_ZTCN8UnitTest15MemoryOutStreamE0_So+64, 112(%rsp)
 3384      70000000 
 3384      00
 3385              	.LEHB38:
 3386 17c8 E8000000 		call	_ZNSt9basic_iosIcSt11char_traitsIcEE4initEPSt15basic_streambufIcS1_E
 3386      00
 3387              	.LEHE38:
 3388 17cd 488D7C24 		leaq	80(%rsp), %rdi
 3388      50
 3389 17d2 48C74424 		movq	$_ZTCN8UnitTest15MemoryOutStreamE0_St19basic_ostringstreamIcSt11char_traitsIcESaIcEE+24, 16(%
 3389      10000000 
 3389      00
 3390 17db 48C74424 		movq	$_ZTCN8UnitTest15MemoryOutStreamE0_St19basic_ostringstreamIcSt11char_traitsIcESaIcEE+64, 112(
 3390      70000000 
 3390      00
 3391 17e4 48C74424 		movq	$_ZTVSt15basic_streambufIcSt11char_traitsIcEE+16, 24(%rsp)
 3391      18000000 
 3391      00
 3392 17ed 48C74424 		movq	$0, 32(%rsp)
 3392      20000000 
 3392      00
 3393 17f6 48C74424 		movq	$0, 40(%rsp)
 3393      28000000 
 3393      00
 3394 17ff 48C74424 		movq	$0, 48(%rsp)
 3394      30000000 
 3394      00
 3395 1808 48C74424 		movq	$0, 56(%rsp)
 3395      38000000 
 3395      00
 3396 1811 48C74424 		movq	$0, 64(%rsp)
 3396      40000000 
 3396      00
 3397 181a 48C74424 		movq	$0, 72(%rsp)
 3397      48000000 
 3397      00
 3398 1823 E8000000 		call	_ZNSt6localeC1Ev
 3398      00
 3399 1828 488B4424 		movq	16(%rsp), %rax
 3399      10
 3400 182d 488D7C24 		leaq	16(%rsp), %rdi
 3400      10
 3401 1832 488D7424 		leaq	24(%rsp), %rsi
 3401      18
 3402 1837 48C74424 		movq	$_ZTVSt15basic_stringbufIcSt11char_traitsIcESaIcEE+16, 24(%rsp)
 3402      18000000 
 3402      00
 3403 1840 C7442458 		movl	$16, 88(%rsp)
 3403      10000000 
 3404 1848 48C74424 		movq	$_ZNSs4_Rep20_S_empty_rep_storageE+24, 96(%rsp)
 3404      60000000 
 3404      00
 3405 1851 480378E8 		addq	-24(%rax), %rdi
 3406              	.LEHB39:
 3407 1855 E8000000 		call	_ZNSt9basic_iosIcSt11char_traitsIcEE4initEPSt15basic_streambufIcS1_E
 3407      00
 3408              	.LEHE39:
 3409 185a 488D7C24 		leaq	16(%rsp), %rdi
 3409      10
 3410 185f BA0B0000 		movl	$11, %edx
 3410      00
 3411 1864 BE000000 		movl	$.LC63, %esi
 3411      00
 3412 1869 48C74424 		movq	$_ZTVN8UnitTest15MemoryOutStreamE+24, 16(%rsp)
 3412      10000000 
 3412      00
 3413 1872 48C74424 		movq	$_ZTVN8UnitTest15MemoryOutStreamE+64, 112(%rsp)
 3413      70000000 
 3413      00
 3414 187b 48C74424 		movq	$_ZNSs4_Rep20_S_empty_rep_storageE+24, 104(%rsp)
 3414      68000000 
 3414      00
 3415              	.LEHB40:
 3416 1884 E8000000 		call	_ZSt16__ostream_insertIcSt11char_traitsIcEERSt13basic_ostreamIT_T0_ES6_PKS3_l
 3416      00
 3417 1889 4C8D750C 		leaq	12(%rbp), %r14
 3418 188d 0F1F00   		.p2align 4,,10
 3419              		.p2align 3
 3420              	.L337:
 3421 1890 8B7500   		movl	0(%rbp), %esi
 3422 1893 488D7C24 		leaq	16(%rsp), %rdi
 3422      10
 3423 1898 E8000000 		call	_ZNSolsEi
 3423      00
 3424 189d BA010000 		movl	$1, %edx
 3424      00
 3425 18a2 BE000000 		movl	$.LC65, %esi
 3425      00
 3426 18a7 4889C7   		movq	%rax, %rdi
 3427 18aa E8000000 		call	_ZSt16__ostream_insertIcSt11char_traitsIcEERSt13basic_ostreamIT_T0_ES6_PKS3_l
 3427      00
 3428 18af 4883C504 		addq	$4, %rbp
 3429 18b3 4C39F5   		cmpq	%r14, %rbp
 3430 18b6 75D8     		jne	.L337
 3431 18b8 488D7C24 		leaq	16(%rsp), %rdi
 3431      10
 3432 18bd BA0C0000 		movl	$12, %edx
 3432      00
 3433 18c2 BE000000 		movl	$.LC94, %esi
 3433      00
 3434 18c7 E8000000 		call	_ZSt16__ostream_insertIcSt11char_traitsIcEERSt13basic_ostreamIT_T0_ES6_PKS3_l
 3434      00
 3435 18cc 488D6B0C 		leaq	12(%rbx), %rbp
 3436              		.p2align 4,,10
 3437              		.p2align 3
 3438              	.L338:
 3439 18d0 8B33     		movl	(%rbx), %esi
 3440 18d2 488D7C24 		leaq	16(%rsp), %rdi
 3440      10
 3441 18d7 E8000000 		call	_ZNSolsEi
 3441      00
 3442 18dc BA010000 		movl	$1, %edx
 3442      00
 3443 18e1 BE000000 		movl	$.LC65, %esi
 3443      00
 3444 18e6 4889C7   		movq	%rax, %rdi
 3445 18e9 E8000000 		call	_ZSt16__ostream_insertIcSt11char_traitsIcEERSt13basic_ostreamIT_T0_ES6_PKS3_l
 3445      00
 3446 18ee 4883C304 		addq	$4, %rbx
 3447 18f2 4839EB   		cmpq	%rbp, %rbx
 3448 18f5 75D9     		jne	.L338
 3449 18f7 488D7C24 		leaq	16(%rsp), %rdi
 3449      10
 3450 18fc BA010000 		movl	$1, %edx
 3450      00
 3451 1901 BE000000 		movl	$.LC69, %esi
 3451      00
 3452 1906 E8000000 		call	_ZSt16__ostream_insertIcSt11char_traitsIcEERSt13basic_ostreamIT_T0_ES6_PKS3_l
 3452      00
 3453 190b 488D7C24 		leaq	16(%rsp), %rdi
 3453      10
 3454 1910 E8000000 		call	_ZNK8UnitTest15MemoryOutStream7GetTextEv
 3454      00
 3455 1915 4889C2   		movq	%rax, %rdx
 3456 1918 4C89EE   		movq	%r13, %rsi
 3457 191b 4C89E7   		movq	%r12, %rdi
 3458 191e E8000000 		call	_ZN8UnitTest11TestResults13OnTestFailureERKNS_11TestDetailsEPKc
 3458      00
 3459              	.LEHE40:
 3460 1923 488B4424 		movq	104(%rsp), %rax
 3460      68
 3461 1928 48C74424 		movq	$_ZTVN8UnitTest15MemoryOutStreamE+24, 16(%rsp)
 3461      10000000 
 3461      00
 3462 1931 48C74424 		movq	$_ZTVN8UnitTest15MemoryOutStreamE+64, 112(%rsp)
 3462      70000000 
 3462      00
 3463 193a 488D78E8 		leaq	-24(%rax), %rdi
 3464 193e 4881FF00 		cmpq	$_ZNSs4_Rep20_S_empty_rep_storageE, %rdi
 3464      000000
 3465 1945 7558     		jne	.L366
 3466              	.L340:
 3467 1947 488B4424 		movq	96(%rsp), %rax
 3467      60
 3468 194c 48C74424 		movq	$_ZTCN8UnitTest15MemoryOutStreamE0_St19basic_ostringstreamIcSt11char_traitsIcESaIcEE+24, 16(%
 3468      10000000 
 3468      00
 3469 1955 48C74424 		movq	$_ZTCN8UnitTest15MemoryOutStreamE0_St19basic_ostringstreamIcSt11char_traitsIcESaIcEE+64, 112(
 3469      70000000 
 3469      00
 3470 195e 48C74424 		movq	$_ZTVSt15basic_stringbufIcSt11char_traitsIcESaIcEE+16, 24(%rsp)
 3470      18000000 
 3470      00
 3471 1967 488D78E8 		leaq	-24(%rax), %rdi
 3472 196b 4881FF00 		cmpq	$_ZNSs4_Rep20_S_empty_rep_storageE, %rdi
 3472      000000
 3473 1972 7551     		jne	.L367
 3474              	.L345:
 3475 1974 488D7C24 		leaq	80(%rsp), %rdi
 3475      50
 3476 1979 48C74424 		movq	$_ZTVSt15basic_streambufIcSt11char_traitsIcEE+16, 24(%rsp)
 3476      18000000 
 3476      00
 3477 1982 E8000000 		call	_ZNSt6localeD1Ev
 3477      00
 3478 1987 488D7C24 		leaq	112(%rsp), %rdi
 3478      70
 3479 198c 48C74424 		movq	$_ZTVSt9basic_iosIcSt11char_traitsIcEE+16, 112(%rsp)
 3479      70000000 
 3479      00
 3480              	.LEHB41:
 3481 1995 E8000000 		call	_ZNSt8ios_baseD2Ev
 3481      00
 3482              	.LEHE41:
 3483 199a E98BFDFF 		jmp	.L330
 3483      FF
 3484              	.L366:
 3485 199f BA000000 		movl	$_ZL28__gthrw___pthread_key_createPjPFvPvE, %edx
 3485      00
 3486 19a4 4885D2   		testq	%rdx, %rdx
 3487 19a7 7442     		je	.L341
 3488 19a9 BAFFFFFF 		movl	$-1, %edx
 3488      FF
 3489 19ae F00FC150 		lock xaddl	%edx, -8(%rax)
 3489      F8
 3490 19b3 89D0     		movl	%edx, %eax
 3491              	.L342:
 3492 19b5 85C0     		testl	%eax, %eax
 3493 19b7 7F8E     		jg	.L340
 3494 19b9 488D7424 		leaq	15(%rsp), %rsi
 3494      0F
 3495 19be E8000000 		call	_ZNSs4_Rep10_M_destroyERKSaIcE
 3495      00
 3496 19c3 EB82     		jmp	.L340
 3497              	.L367:
 3498 19c5 BA000000 		movl	$_ZL28__gthrw___pthread_key_createPjPFvPvE, %edx
 3498      00
 3499 19ca 4885D2   		testq	%rdx, %rdx
 3500 19cd 7429     		je	.L346
 3501 19cf BAFFFFFF 		movl	$-1, %edx
 3501      FF
 3502 19d4 F00FC150 		lock xaddl	%edx, -8(%rax)
 3502      F8
 3503 19d9 89D0     		movl	%edx, %eax
 3504              	.L347:
 3505 19db 85C0     		testl	%eax, %eax
 3506 19dd 7F95     		jg	.L345
 3507 19df 488D7424 		leaq	15(%rsp), %rsi
 3507      0F
 3508 19e4 E8000000 		call	_ZNSs4_Rep10_M_destroyERKSaIcE
 3508      00
 3509 19e9 EB89     		jmp	.L345
 3510              	.L341:
 3511 19eb 8B50F8   		movl	-8(%rax), %edx
 3512 19ee 8D4AFF   		leal	-1(%rdx), %ecx
 3513 19f1 8948F8   		movl	%ecx, -8(%rax)
 3514 19f4 89D0     		movl	%edx, %eax
 3515 19f6 EBBD     		jmp	.L342
 3516              	.L346:
 3517 19f8 8B50F8   		movl	-8(%rax), %edx
 3518 19fb 8D4AFF   		leal	-1(%rdx), %ecx
 3519 19fe 8948F8   		movl	%ecx, -8(%rax)
 3520 1a01 89D0     		movl	%edx, %eax
 3521 1a03 EBD6     		jmp	.L347
 3522              	.L352:
 3523 1a05 4889C3   		movq	%rax, %rbx
 3524              	.L335:
 3525 1a08 488D7C24 		leaq	112(%rsp), %rdi
 3525      70
 3526 1a0d 48C74424 		movq	$_ZTVSt9basic_iosIcSt11char_traitsIcEE+16, 112(%rsp)
 3526      70000000 
 3526      00
 3527 1a16 E8000000 		call	_ZNSt8ios_baseD2Ev
 3527      00
 3528 1a1b 4889DF   		movq	%rbx, %rdi
 3529              	.LEHB42:
 3530 1a1e E8000000 		call	_Unwind_Resume
 3530      00
 3531              	.LEHE42:
 3532              	.L351:
 3533 1a23 488D7C24 		leaq	16(%rsp), %rdi
 3533      10
 3534 1a28 4889C3   		movq	%rax, %rbx
 3535 1a2b E8000000 		call	_ZN8UnitTest15MemoryOutStreamD1Ev
 3535      00
 3536 1a30 4889DF   		movq	%rbx, %rdi
 3537              	.LEHB43:
 3538 1a33 E8000000 		call	_Unwind_Resume
 3538      00
 3539              	.LEHE43:
 3540              	.L353:
 3541 1a38 488D7C24 		leaq	24(%rsp), %rdi
 3541      18
 3542 1a3d 4889C3   		movq	%rax, %rbx
 3543 1a40 E8000000 		call	_ZNSt15basic_stringbufIcSt11char_traitsIcESaIcEED1Ev
 3543      00
 3544 1a45 EBC1     		jmp	.L335
 3545              	.L365:
 3546 1a47 E8000000 		call	__stack_chk_fail
 3546      00
 3547              		.cfi_endproc
 3548              	.LFE1453:
 3549              		.section	.gcc_except_table
 3550              	.LLSDA1453:
 3551 010c FF       		.byte	0xff
 3552 010d FF       		.byte	0xff
 3553 010e 01       		.byte	0x1
 3554 010f 22       		.uleb128 .LLSDACSE1453-.LLSDACSB1453
 3555              	.LLSDACSB1453:
 3556 0110 E801     		.uleb128 .LEHB38-.LFB1453
 3557 0112 05       		.uleb128 .LEHE38-.LEHB38
 3558 0113 A506     		.uleb128 .L352-.LFB1453
 3559 0115 00       		.uleb128 0
 3560 0116 F502     		.uleb128 .LEHB39-.LFB1453
 3561 0118 05       		.uleb128 .LEHE39-.LEHB39
 3562 0119 D806     		.uleb128 .L353-.LFB1453
 3563 011b 00       		.uleb128 0
 3564 011c A403     		.uleb128 .LEHB40-.LFB1453
 3565 011e 9F01     		.uleb128 .LEHE40-.LEHB40
 3566 0120 C306     		.uleb128 .L351-.LFB1453
 3567 0122 00       		.uleb128 0
 3568 0123 B505     		.uleb128 .LEHB41-.LFB1453
 3569 0125 05       		.uleb128 .LEHE41-.LEHB41
 3570 0126 00       		.uleb128 0
 3571 0127 00       		.uleb128 0
 3572 0128 BE06     		.uleb128 .LEHB42-.LFB1453
 3573 012a 05       		.uleb128 .LEHE42-.LEHB42
 3574 012b 00       		.uleb128 0
 3575 012c 00       		.uleb128 0
 3576 012d D306     		.uleb128 .LEHB43-.LFB1453
 3577 012f 05       		.uleb128 .LEHE43-.LEHB43
 3578 0130 00       		.uleb128 0
 3579 0131 00       		.uleb128 0
 3580              	.LLSDACSE1453:
 3581              		.text
 3583              		.section	.text.unlikely
 3584              	.LCOLDE95:
 3585              		.text
 3586              	.LHOTE95:
 3587              		.section	.text.unlikely
 3588              	.LCOLDB96:
 3589              		.text
 3590              	.LHOTB96:
 3591 1a4c 0F1F4000 		.p2align 4,,15
 3593              	_ZN8UnitTest15CheckArrayCloseIA3_fS1_fEEvRNS_11TestResultsERKT_RKT0_iRKT1_RKNS_11TestDetailsE.const
 3594              	.LFB1454:
 3595              		.cfi_startproc
 3596              		.cfi_personality 0x3,__gxx_personality_v0
 3597              		.cfi_lsda 0x3,.LLSDA1454
 3598 1a50 4157     		pushq	%r15
 3599              		.cfi_def_cfa_offset 16
 3600              		.cfi_offset 15, -16
 3601 1a52 4156     		pushq	%r14
 3602              		.cfi_def_cfa_offset 24
 3603              		.cfi_offset 14, -24
 3604 1a54 4989CF   		movq	%rcx, %r15
 3605 1a57 4155     		pushq	%r13
 3606              		.cfi_def_cfa_offset 32
 3607              		.cfi_offset 13, -32
 3608 1a59 4154     		pushq	%r12
 3609              		.cfi_def_cfa_offset 40
 3610              		.cfi_offset 12, -40
 3611 1a5b 4D89C5   		movq	%r8, %r13
 3612 1a5e 55       		pushq	%rbp
 3613              		.cfi_def_cfa_offset 48
 3614              		.cfi_offset 6, -48
 3615 1a5f 53       		pushq	%rbx
 3616              		.cfi_def_cfa_offset 56
 3617              		.cfi_offset 3, -56
 3618 1a60 4989FC   		movq	%rdi, %r12
 3619 1a63 4889F5   		movq	%rsi, %rbp
 3620 1a66 4889D3   		movq	%rdx, %rbx
 3621 1a69 4881EC98 		subq	$408, %rsp
 3621      010000
 3622              		.cfi_def_cfa_offset 464
 3623 1a70 F30F100E 		movss	(%rsi), %xmm1
 3624 1a74 0F28D9   		movaps	%xmm1, %xmm3
 3625 1a77 F30F1001 		movss	(%rcx), %xmm0
 3626 1a7b F30F1012 		movss	(%rdx), %xmm2
 3627 1a7f F30F5CD8 		subss	%xmm0, %xmm3
 3628 1a83 64488B04 		movq	%fs:40, %rax
 3628      25280000 
 3628      00
 3629 1a8c 48898424 		movq	%rax, 392(%rsp)
 3629      88010000 
 3630 1a94 31C0     		xorl	%eax, %eax
 3631 1a96 31C0     		xorl	%eax, %eax
 3632 1a98 0F2ED3   		ucomiss	%xmm3, %xmm2
 3633 1a9b 720A     		jb	.L369
 3634 1a9d F30F58C8 		addss	%xmm0, %xmm1
 3635 1aa1 0F2ECA   		ucomiss	%xmm2, %xmm1
 3636 1aa4 0F93C0   		setnb	%al
 3637              	.L369:
 3638 1aa7 F30F104D 		movss	4(%rbp), %xmm1
 3638      04
 3639 1aac 0F28D9   		movaps	%xmm1, %xmm3
 3640 1aaf F30F1053 		movss	4(%rbx), %xmm2
 3640      04
 3641 1ab4 F30F5CD8 		subss	%xmm0, %xmm3
 3642 1ab8 0F2ED3   		ucomiss	%xmm3, %xmm2
 3643 1abb 0F82FF02 		jb	.L407
 3643      0000
 3644 1ac1 F30F58C8 		addss	%xmm0, %xmm1
 3645 1ac5 BA000000 		movl	$0, %edx
 3645      00
 3646 1aca 0F2ECA   		ucomiss	%xmm2, %xmm1
 3647 1acd 0F42C2   		cmovb	%edx, %eax
 3648              	.L371:
 3649 1ad0 F30F1055 		movss	8(%rbp), %xmm2
 3649      08
 3650 1ad5 0F28DA   		movaps	%xmm2, %xmm3
 3651 1ad8 F30F104B 		movss	8(%rbx), %xmm1
 3651      08
 3652 1add F30F5CD8 		subss	%xmm0, %xmm3
 3653 1ae1 0F2ECB   		ucomiss	%xmm3, %xmm1
 3654 1ae4 0F83E602 		jnb	.L413
 3654      0000
 3655              	.L373:
 3656 1aea 4C8DB424 		leaq	128(%rsp), %r14
 3656      80000000 
 3657 1af2 4C89F7   		movq	%r14, %rdi
 3658 1af5 E8000000 		call	_ZNSt8ios_baseC2Ev
 3658      00
 3659 1afa 31F6     		xorl	%esi, %esi
 3660 1afc 4C89F7   		movq	%r14, %rdi
 3661 1aff 48C78424 		movq	$0, 344(%rsp)
 3661      58010000 
 3661      00000000 
 3662 1b0b C6842460 		movb	$0, 352(%rsp)
 3662      01000000 
 3663 1b13 C6842461 		movb	$0, 353(%rsp)
 3663      01000000 
 3664 1b1b 48C78424 		movq	$0, 360(%rsp)
 3664      68010000 
 3664      00000000 
 3665 1b27 48C78424 		movq	$0, 368(%rsp)
 3665      70010000 
 3665      00000000 
 3666 1b33 48C78424 		movq	$0, 376(%rsp)
 3666      78010000 
 3666      00000000 
 3667 1b3f 48C78424 		movq	$0, 384(%rsp)
 3667      80010000 
 3667      00000000 
 3668 1b4b 48C74424 		movq	$_ZTCN8UnitTest15MemoryOutStreamE0_So+24, 32(%rsp)
 3668      20000000 
 3668      00
 3669 1b54 48C78424 		movq	$_ZTCN8UnitTest15MemoryOutStreamE0_So+64, 128(%rsp)
 3669      80000000 
 3669      00000000 
 3670              	.LEHB44:
 3671 1b60 E8000000 		call	_ZNSt9basic_iosIcSt11char_traitsIcEE4initEPSt15basic_streambufIcS1_E
 3671      00
 3672              	.LEHE44:
 3673 1b65 488D7C24 		leaq	96(%rsp), %rdi
 3673      60
 3674 1b6a 48C74424 		movq	$_ZTCN8UnitTest15MemoryOutStreamE0_St19basic_ostringstreamIcSt11char_traitsIcESaIcEE+24, 32(%
 3674      20000000 
 3674      00
 3675 1b73 48C78424 		movq	$_ZTCN8UnitTest15MemoryOutStreamE0_St19basic_ostringstreamIcSt11char_traitsIcESaIcEE+64, 128(
 3675      80000000 
 3675      00000000 
 3676 1b7f 48C74424 		movq	$_ZTVSt15basic_streambufIcSt11char_traitsIcEE+16, 40(%rsp)
 3676      28000000 
 3676      00
 3677 1b88 48C74424 		movq	$0, 48(%rsp)
 3677      30000000 
 3677      00
 3678 1b91 48C74424 		movq	$0, 56(%rsp)
 3678      38000000 
 3678      00
 3679 1b9a 48C74424 		movq	$0, 64(%rsp)
 3679      40000000 
 3679      00
 3680 1ba3 48C74424 		movq	$0, 72(%rsp)
 3680      48000000 
 3680      00
 3681 1bac 48C74424 		movq	$0, 80(%rsp)
 3681      50000000 
 3681      00
 3682 1bb5 48C74424 		movq	$0, 88(%rsp)
 3682      58000000 
 3682      00
 3683 1bbe E8000000 		call	_ZNSt6localeC1Ev
 3683      00
 3684 1bc3 488B4424 		movq	32(%rsp), %rax
 3684      20
 3685 1bc8 488D7C24 		leaq	32(%rsp), %rdi
 3685      20
 3686 1bcd 488D7424 		leaq	40(%rsp), %rsi
 3686      28
 3687 1bd2 48C74424 		movq	$_ZTVSt15basic_stringbufIcSt11char_traitsIcESaIcEE+16, 40(%rsp)
 3687      28000000 
 3687      00
 3688 1bdb C7442468 		movl	$16, 104(%rsp)
 3688      10000000 
 3689 1be3 48C74424 		movq	$_ZNSs4_Rep20_S_empty_rep_storageE+24, 112(%rsp)
 3689      70000000 
 3689      00
 3690 1bec 480378E8 		addq	-24(%rax), %rdi
 3691              	.LEHB45:
 3692 1bf0 E8000000 		call	_ZNSt9basic_iosIcSt11char_traitsIcEE4initEPSt15basic_streambufIcS1_E
 3692      00
 3693              	.LEHE45:
 3694 1bf5 488D7C24 		leaq	32(%rsp), %rdi
 3694      20
 3695 1bfa BA0B0000 		movl	$11, %edx
 3695      00
 3696 1bff BE000000 		movl	$.LC63, %esi
 3696      00
 3697 1c04 48C74424 		movq	$_ZTVN8UnitTest15MemoryOutStreamE+24, 32(%rsp)
 3697      20000000 
 3697      00
 3698 1c0d 48C78424 		movq	$_ZTVN8UnitTest15MemoryOutStreamE+64, 128(%rsp)
 3698      80000000 
 3698      00000000 
 3699 1c19 48C74424 		movq	$_ZNSs4_Rep20_S_empty_rep_storageE+24, 120(%rsp)
 3699      78000000 
 3699      00
 3700              	.LEHB46:
 3701 1c22 E8000000 		call	_ZSt16__ostream_insertIcSt11char_traitsIcEERSt13basic_ostreamIT_T0_ES6_PKS3_l
 3701      00
 3702 1c27 4C8D750C 		leaq	12(%rbp), %r14
 3703 1c2b 0F1F4400 		.p2align 4,,10
 3703      00
 3704              		.p2align 3
 3705              	.L381:
 3706 1c30 660FEFC0 		pxor	%xmm0, %xmm0
 3707 1c34 488D7C24 		leaq	32(%rsp), %rdi
 3707      20
 3708 1c39 F30F5A45 		cvtss2sd	0(%rbp), %xmm0
 3708      00
 3709 1c3e E8000000 		call	_ZNSo9_M_insertIdEERSoT_
 3709      00
 3710 1c43 BA010000 		movl	$1, %edx
 3710      00
 3711 1c48 BE000000 		movl	$.LC65, %esi
 3711      00
 3712 1c4d 4889C7   		movq	%rax, %rdi
 3713 1c50 E8000000 		call	_ZSt16__ostream_insertIcSt11char_traitsIcEERSt13basic_ostreamIT_T0_ES6_PKS3_l
 3713      00
 3714 1c55 4883C504 		addq	$4, %rbp
 3715 1c59 4C39F5   		cmpq	%r14, %rbp
 3716 1c5c 75D2     		jne	.L381
 3717 1c5e 488D7C24 		leaq	32(%rsp), %rdi
 3717      20
 3718 1c63 F3410F10 		movss	(%r15), %xmm4
 3718      27
 3719 1c68 BA060000 		movl	$6, %edx
 3719      00
 3720 1c6d BE000000 		movl	$.LC67, %esi
 3720      00
 3721 1c72 F30F1164 		movss	%xmm4, 12(%rsp)
 3721      240C
 3722 1c78 E8000000 		call	_ZSt16__ostream_insertIcSt11char_traitsIcEERSt13basic_ostreamIT_T0_ES6_PKS3_l
 3722      00
 3723 1c7d 660FEFC0 		pxor	%xmm0, %xmm0
 3724 1c81 488D7C24 		leaq	32(%rsp), %rdi
 3724      20
 3725 1c86 F30F5A44 		cvtss2sd	12(%rsp), %xmm0
 3725      240C
 3726 1c8c E8000000 		call	_ZNSo9_M_insertIdEERSoT_
 3726      00
 3727 1c91 BA0B0000 		movl	$11, %edx
 3727      00
 3728 1c96 BE000000 		movl	$.LC68, %esi
 3728      00
 3729 1c9b 4889C7   		movq	%rax, %rdi
 3730 1c9e E8000000 		call	_ZSt16__ostream_insertIcSt11char_traitsIcEERSt13basic_ostreamIT_T0_ES6_PKS3_l
 3730      00
 3731 1ca3 488D6B0C 		leaq	12(%rbx), %rbp
 3732 1ca7 660F1F84 		.p2align 4,,10
 3732      00000000 
 3732      00
 3733              		.p2align 3
 3734              	.L382:
 3735 1cb0 660FEFC0 		pxor	%xmm0, %xmm0
 3736 1cb4 488D7C24 		leaq	32(%rsp), %rdi
 3736      20
 3737 1cb9 F30F5A03 		cvtss2sd	(%rbx), %xmm0
 3738 1cbd E8000000 		call	_ZNSo9_M_insertIdEERSoT_
 3738      00
 3739 1cc2 BA010000 		movl	$1, %edx
 3739      00
 3740 1cc7 BE000000 		movl	$.LC65, %esi
 3740      00
 3741 1ccc 4889C7   		movq	%rax, %rdi
 3742 1ccf E8000000 		call	_ZSt16__ostream_insertIcSt11char_traitsIcEERSt13basic_ostreamIT_T0_ES6_PKS3_l
 3742      00
 3743 1cd4 4883C304 		addq	$4, %rbx
 3744 1cd8 4839EB   		cmpq	%rbp, %rbx
 3745 1cdb 75D3     		jne	.L382
 3746 1cdd 488D7C24 		leaq	32(%rsp), %rdi
 3746      20
 3747 1ce2 BA010000 		movl	$1, %edx
 3747      00
 3748 1ce7 BE000000 		movl	$.LC69, %esi
 3748      00
 3749 1cec E8000000 		call	_ZSt16__ostream_insertIcSt11char_traitsIcEERSt13basic_ostreamIT_T0_ES6_PKS3_l
 3749      00
 3750 1cf1 488D7C24 		leaq	32(%rsp), %rdi
 3750      20
 3751 1cf6 E8000000 		call	_ZNK8UnitTest15MemoryOutStream7GetTextEv
 3751      00
 3752 1cfb 4889C2   		movq	%rax, %rdx
 3753 1cfe 4C89EE   		movq	%r13, %rsi
 3754 1d01 4C89E7   		movq	%r12, %rdi
 3755 1d04 E8000000 		call	_ZN8UnitTest11TestResults13OnTestFailureERKNS_11TestDetailsEPKc
 3755      00
 3756              	.LEHE46:
 3757 1d09 488B4424 		movq	120(%rsp), %rax
 3757      78
 3758 1d0e 48C74424 		movq	$_ZTVN8UnitTest15MemoryOutStreamE+24, 32(%rsp)
 3758      20000000 
 3758      00
 3759 1d17 48C78424 		movq	$_ZTVN8UnitTest15MemoryOutStreamE+64, 128(%rsp)
 3759      80000000 
 3759      00000000 
 3760 1d23 488D78E8 		leaq	-24(%rax), %rdi
 3761 1d27 4881FF00 		cmpq	$_ZNSs4_Rep20_S_empty_rep_storageE, %rdi
 3761      000000
 3762 1d2e 0F85BC00 		jne	.L414
 3762      0000
 3763              	.L384:
 3764 1d34 488B4424 		movq	112(%rsp), %rax
 3764      70
 3765 1d39 48C74424 		movq	$_ZTCN8UnitTest15MemoryOutStreamE0_St19basic_ostringstreamIcSt11char_traitsIcESaIcEE+24, 32(%
 3765      20000000 
 3765      00
 3766 1d42 48C78424 		movq	$_ZTCN8UnitTest15MemoryOutStreamE0_St19basic_ostringstreamIcSt11char_traitsIcESaIcEE+64, 128(
 3766      80000000 
 3766      00000000 
 3767 1d4e 48C74424 		movq	$_ZTVSt15basic_stringbufIcSt11char_traitsIcESaIcEE+16, 40(%rsp)
 3767      28000000 
 3767      00
 3768 1d57 488D78E8 		leaq	-24(%rax), %rdi
 3769 1d5b 4881FF00 		cmpq	$_ZNSs4_Rep20_S_empty_rep_storageE, %rdi
 3769      000000
 3770 1d62 0F85B500 		jne	.L415
 3770      0000
 3771              	.L389:
 3772 1d68 488D7C24 		leaq	96(%rsp), %rdi
 3772      60
 3773 1d6d 48C74424 		movq	$_ZTVSt15basic_streambufIcSt11char_traitsIcEE+16, 40(%rsp)
 3773      28000000 
 3773      00
 3774 1d76 E8000000 		call	_ZNSt6localeD1Ev
 3774      00
 3775 1d7b 488DBC24 		leaq	128(%rsp), %rdi
 3775      80000000 
 3776 1d83 48C78424 		movq	$_ZTVSt9basic_iosIcSt11char_traitsIcEE+16, 128(%rsp)
 3776      80000000 
 3776      00000000 
 3777              	.LEHB47:
 3778 1d8f E8000000 		call	_ZNSt8ios_baseD2Ev
 3778      00
 3779              	.LEHE47:
 3780              	.L368:
 3781 1d94 488B8424 		movq	392(%rsp), %rax
 3781      88010000 
 3782 1d9c 64483304 		xorq	%fs:40, %rax
 3782      25280000 
 3782      00
 3783 1da5 0F850101 		jne	.L416
 3783      0000
 3784 1dab 4881C498 		addq	$408, %rsp
 3784      010000
 3785              		.cfi_remember_state
 3786              		.cfi_def_cfa_offset 56
 3787 1db2 5B       		popq	%rbx
 3788              		.cfi_def_cfa_offset 48
 3789 1db3 5D       		popq	%rbp
 3790              		.cfi_def_cfa_offset 40
 3791 1db4 415C     		popq	%r12
 3792              		.cfi_def_cfa_offset 32
 3793 1db6 415D     		popq	%r13
 3794              		.cfi_def_cfa_offset 24
 3795 1db8 415E     		popq	%r14
 3796              		.cfi_def_cfa_offset 16
 3797 1dba 415F     		popq	%r15
 3798              		.cfi_def_cfa_offset 8
 3799 1dbc C3       		ret
 3800 1dbd 0F1F00   		.p2align 4,,10
 3801              		.p2align 3
 3802              	.L407:
 3803              		.cfi_restore_state
 3804 1dc0 31C0     		xorl	%eax, %eax
 3805 1dc2 E909FDFF 		jmp	.L371
 3805      FF
 3806 1dc7 660F1F84 		.p2align 4,,10
 3806      00000000 
 3806      00
 3807              		.p2align 3
 3808              	.L413:
 3809 1dd0 F30F58C2 		addss	%xmm2, %xmm0
 3810 1dd4 0F2EC1   		ucomiss	%xmm1, %xmm0
 3811 1dd7 0F820DFD 		jb	.L373
 3811      FFFF
 3812 1ddd 84C0     		testb	%al, %al
 3813 1ddf 75B3     		jne	.L368
 3814 1de1 E904FDFF 		jmp	.L373
 3814      FF
 3815 1de6 662E0F1F 		.p2align 4,,10
 3815      84000000 
 3815      0000
 3816              		.p2align 3
 3817              	.L414:
 3818 1df0 BA000000 		movl	$_ZL28__gthrw___pthread_key_createPjPFvPvE, %edx
 3818      00
 3819 1df5 4885D2   		testq	%rdx, %rdx
 3820 1df8 7450     		je	.L385
 3821 1dfa BAFFFFFF 		movl	$-1, %edx
 3821      FF
 3822 1dff F00FC150 		lock xaddl	%edx, -8(%rax)
 3822      F8
 3823 1e04 89D0     		movl	%edx, %eax
 3824              	.L386:
 3825 1e06 85C0     		testl	%eax, %eax
 3826 1e08 0F8F26FF 		jg	.L384
 3826      FFFF
 3827 1e0e 488D7424 		leaq	31(%rsp), %rsi
 3827      1F
 3828 1e13 E8000000 		call	_ZNSs4_Rep10_M_destroyERKSaIcE
 3828      00
 3829 1e18 E917FFFF 		jmp	.L384
 3829      FF
 3830              	.L415:
 3831 1e1d BA000000 		movl	$_ZL28__gthrw___pthread_key_createPjPFvPvE, %edx
 3831      00
 3832 1e22 4885D2   		testq	%rdx, %rdx
 3833 1e25 7430     		je	.L390
 3834 1e27 BAFFFFFF 		movl	$-1, %edx
 3834      FF
 3835 1e2c F00FC150 		lock xaddl	%edx, -8(%rax)
 3835      F8
 3836 1e31 89D0     		movl	%edx, %eax
 3837              	.L391:
 3838 1e33 85C0     		testl	%eax, %eax
 3839 1e35 0F8F2DFF 		jg	.L389
 3839      FFFF
 3840 1e3b 488D7424 		leaq	31(%rsp), %rsi
 3840      1F
 3841 1e40 E8000000 		call	_ZNSs4_Rep10_M_destroyERKSaIcE
 3841      00
 3842 1e45 E91EFFFF 		jmp	.L389
 3842      FF
 3843              	.L385:
 3844 1e4a 8B50F8   		movl	-8(%rax), %edx
 3845 1e4d 8D4AFF   		leal	-1(%rdx), %ecx
 3846 1e50 8948F8   		movl	%ecx, -8(%rax)
 3847 1e53 89D0     		movl	%edx, %eax
 3848 1e55 EBAF     		jmp	.L386
 3849              	.L390:
 3850 1e57 8B50F8   		movl	-8(%rax), %edx
 3851 1e5a 8D4AFF   		leal	-1(%rdx), %ecx
 3852 1e5d 8948F8   		movl	%ecx, -8(%rax)
 3853 1e60 89D0     		movl	%edx, %eax
 3854 1e62 EBCF     		jmp	.L391
 3855              	.L398:
 3856 1e64 4889C3   		movq	%rax, %rbx
 3857              	.L379:
 3858 1e67 488DBC24 		leaq	128(%rsp), %rdi
 3858      80000000 
 3859 1e6f 48C78424 		movq	$_ZTVSt9basic_iosIcSt11char_traitsIcEE+16, 128(%rsp)
 3859      80000000 
 3859      00000000 
 3860 1e7b E8000000 		call	_ZNSt8ios_baseD2Ev
 3860      00
 3861 1e80 4889DF   		movq	%rbx, %rdi
 3862              	.LEHB48:
 3863 1e83 E8000000 		call	_Unwind_Resume
 3863      00
 3864              	.LEHE48:
 3865              	.L399:
 3866 1e88 488D7C24 		leaq	40(%rsp), %rdi
 3866      28
 3867 1e8d 4889C3   		movq	%rax, %rbx
 3868 1e90 E8000000 		call	_ZNSt15basic_stringbufIcSt11char_traitsIcESaIcEED1Ev
 3868      00
 3869 1e95 EBD0     		jmp	.L379
 3870              	.L397:
 3871 1e97 488D7C24 		leaq	32(%rsp), %rdi
 3871      20
 3872 1e9c 4889C3   		movq	%rax, %rbx
 3873 1e9f E8000000 		call	_ZN8UnitTest15MemoryOutStreamD1Ev
 3873      00
 3874 1ea4 4889DF   		movq	%rbx, %rdi
 3875              	.LEHB49:
 3876 1ea7 E8000000 		call	_Unwind_Resume
 3876      00
 3877              	.LEHE49:
 3878              	.L416:
 3879 1eac E8000000 		call	__stack_chk_fail
 3879      00
 3880              		.cfi_endproc
 3881              	.LFE1454:
 3882              		.section	.gcc_except_table
 3883              	.LLSDA1454:
 3884 0132 FF       		.byte	0xff
 3885 0133 FF       		.byte	0xff
 3886 0134 01       		.byte	0x1
 3887 0135 22       		.uleb128 .LLSDACSE1454-.LLSDACSB1454
 3888              	.LLSDACSB1454:
 3889 0136 9002     		.uleb128 .LEHB44-.LFB1454
 3890 0138 05       		.uleb128 .LEHE44-.LEHB44
 3891 0139 9408     		.uleb128 .L398-.LFB1454
 3892 013b 00       		.uleb128 0
 3893 013c A003     		.uleb128 .LEHB45-.LFB1454
 3894 013e 05       		.uleb128 .LEHE45-.LEHB45
 3895 013f B808     		.uleb128 .L399-.LFB1454
 3896 0141 00       		.uleb128 0
 3897 0142 D203     		.uleb128 .LEHB46-.LFB1454
 3898 0144 E701     		.uleb128 .LEHE46-.LEHB46
 3899 0146 C708     		.uleb128 .L397-.LFB1454
 3900 0148 00       		.uleb128 0
 3901 0149 BF06     		.uleb128 .LEHB47-.LFB1454
 3902 014b 05       		.uleb128 .LEHE47-.LEHB47
 3903 014c 00       		.uleb128 0
 3904 014d 00       		.uleb128 0
 3905 014e B308     		.uleb128 .LEHB48-.LFB1454
 3906 0150 05       		.uleb128 .LEHE48-.LEHB48
 3907 0151 00       		.uleb128 0
 3908 0152 00       		.uleb128 0
 3909 0153 D708     		.uleb128 .LEHB49-.LFB1454
 3910 0155 05       		.uleb128 .LEHE49-.LEHB49
 3911 0156 00       		.uleb128 0
 3912 0157 00       		.uleb128 0
 3913              	.LLSDACSE1454:
 3914              		.text
 3916              		.section	.text.unlikely
 3917              	.LCOLDE96:
 3918              		.text
 3919              	.LHOTE96:
 3920              		.section	.text.unlikely._ZNSt15basic_stringbufIcSt11char_traitsIcESaIcEED0Ev,"axG",@progbits,_ZNSt
 3921              		.align 2
 3922              	.LCOLDB97:
 3923              		.section	.text._ZNSt15basic_stringbufIcSt11char_traitsIcESaIcEED0Ev,"axG",@progbits,_ZNSt15basic_s
 3924              	.LHOTB97:
 3925              		.align 2
 3926              		.p2align 4,,15
 3927              		.weak	_ZNSt15basic_stringbufIcSt11char_traitsIcESaIcEED0Ev
 3929              	_ZNSt15basic_stringbufIcSt11char_traitsIcESaIcEED0Ev:
 3930              	.LFB1246:
 3931              		.cfi_startproc
 3932 0000 53       		pushq	%rbx
 3933              		.cfi_def_cfa_offset 16
 3934              		.cfi_offset 3, -16
 3935 0001 4889FB   		movq	%rdi, %rbx
 3936 0004 4883EC10 		subq	$16, %rsp
 3937              		.cfi_def_cfa_offset 32
 3938 0008 48C70700 		movq	$_ZTVSt15basic_stringbufIcSt11char_traitsIcESaIcEE+16, (%rdi)
 3938      000000
 3939 000f 64488B04 		movq	%fs:40, %rax
 3939      25280000 
 3939      00
 3940 0018 48894424 		movq	%rax, 8(%rsp)
 3940      08
 3941 001d 31C0     		xorl	%eax, %eax
 3942 001f 488B4748 		movq	72(%rdi), %rax
 3943 0023 488D78E8 		leaq	-24(%rax), %rdi
 3944 0027 4881FF00 		cmpq	$_ZNSs4_Rep20_S_empty_rep_storageE, %rdi
 3944      000000
 3945 002e 7530     		jne	.L425
 3946              	.L419:
 3947 0030 488D7B38 		leaq	56(%rbx), %rdi
 3948 0034 48C70300 		movq	$_ZTVSt15basic_streambufIcSt11char_traitsIcEE+16, (%rbx)
 3948      000000
 3949 003b E8000000 		call	_ZNSt6localeD1Ev
 3949      00
 3950 0040 4889DF   		movq	%rbx, %rdi
 3951 0043 E8000000 		call	_ZdlPv
 3951      00
 3952 0048 488B4424 		movq	8(%rsp), %rax
 3952      08
 3953 004d 64483304 		xorq	%fs:40, %rax
 3953      25280000 
 3953      00
 3954 0056 7545     		jne	.L426
 3955 0058 4883C410 		addq	$16, %rsp
 3956              		.cfi_remember_state
 3957              		.cfi_def_cfa_offset 16
 3958 005c 5B       		popq	%rbx
 3959              		.cfi_def_cfa_offset 8
 3960 005d C3       		ret
 3961 005e 6690     		.p2align 4,,10
 3962              		.p2align 3
 3963              	.L425:
 3964              		.cfi_restore_state
 3965 0060 BA000000 		movl	$_ZL28__gthrw___pthread_key_createPjPFvPvE, %edx
 3965      00
 3966 0065 4885D2   		testq	%rdx, %rdx
 3967 0068 7426     		je	.L420
 3968 006a BAFFFFFF 		movl	$-1, %edx
 3968      FF
 3969 006f F00FC150 		lock xaddl	%edx, -8(%rax)
 3969      F8
 3970 0074 89D0     		movl	%edx, %eax
 3971              	.L421:
 3972 0076 85C0     		testl	%eax, %eax
 3973 0078 7FB6     		jg	.L419
 3974 007a 488D7424 		leaq	7(%rsp), %rsi
 3974      07
 3975 007f E8000000 		call	_ZNSs4_Rep10_M_destroyERKSaIcE
 3975      00
 3976 0084 EBAA     		jmp	.L419
 3977 0086 662E0F1F 		.p2align 4,,10
 3977      84000000 
 3977      0000
 3978              		.p2align 3
 3979              	.L420:
 3980 0090 8B50F8   		movl	-8(%rax), %edx
 3981 0093 8D4AFF   		leal	-1(%rdx), %ecx
 3982 0096 8948F8   		movl	%ecx, -8(%rax)
 3983 0099 89D0     		movl	%edx, %eax
 3984 009b EBD9     		jmp	.L421
 3985              	.L426:
 3986 009d E8000000 		call	__stack_chk_fail
 3986      00
 3987              		.cfi_endproc
 3988              	.LFE1246:
 3990              		.section	.text.unlikely._ZNSt15basic_stringbufIcSt11char_traitsIcESaIcEED0Ev,"axG",@progbits,_ZNSt
 3991              	.LCOLDE97:
 3992              		.section	.text._ZNSt15basic_stringbufIcSt11char_traitsIcESaIcEED0Ev,"axG",@progbits,_ZNSt15basic_s
 3993              	.LHOTE97:
 3994              		.section	.text.unlikely._ZN8UnitTest10CheckEqualIiiEEvRNS_11TestResultsERKT_RKT0_RKNS_11TestDetail
 3995              	.LCOLDB98:
 3996              		.section	.text._ZN8UnitTest10CheckEqualIiiEEvRNS_11TestResultsERKT_RKT0_RKNS_11TestDetailsE,"axG",
 3997              	.LHOTB98:
 3998              		.p2align 4,,15
 3999              		.weak	_ZN8UnitTest10CheckEqualIiiEEvRNS_11TestResultsERKT_RKT0_RKNS_11TestDetailsE
 4001              	_ZN8UnitTest10CheckEqualIiiEEvRNS_11TestResultsERKT_RKT0_RKNS_11TestDetailsE:
 4002              	.LFB1267:
 4003              		.cfi_startproc
 4004              		.cfi_personality 0x3,__gxx_personality_v0
 4005              		.cfi_lsda 0x3,.LLSDA1267
 4006 0000 4156     		pushq	%r14
 4007              		.cfi_def_cfa_offset 16
 4008              		.cfi_offset 14, -16
 4009 0002 4155     		pushq	%r13
 4010              		.cfi_def_cfa_offset 24
 4011              		.cfi_offset 13, -24
 4012 0004 4154     		pushq	%r12
 4013              		.cfi_def_cfa_offset 32
 4014              		.cfi_offset 12, -32
 4015 0006 55       		pushq	%rbp
 4016              		.cfi_def_cfa_offset 40
 4017              		.cfi_offset 6, -40
 4018 0007 4889D5   		movq	%rdx, %rbp
 4019 000a 53       		pushq	%rbx
 4020              		.cfi_def_cfa_offset 48
 4021              		.cfi_offset 3, -48
 4022 000b 4889F3   		movq	%rsi, %rbx
 4023 000e 4881EC80 		subq	$384, %rsp
 4023      010000
 4024              		.cfi_def_cfa_offset 432
 4025 0015 64488B04 		movq	%fs:40, %rax
 4025      25280000 
 4025      00
 4026 001e 48898424 		movq	%rax, 376(%rsp)
 4026      78010000 
 4027 0026 31C0     		xorl	%eax, %eax
 4028 0028 8B02     		movl	(%rdx), %eax
 4029 002a 3906     		cmpl	%eax, (%rsi)
 4030 002c 0F84F601 		je	.L427
 4030      0000
 4031 0032 4C8D6424 		leaq	112(%rsp), %r12
 4031      70
 4032 0037 4989FD   		movq	%rdi, %r13
 4033 003a 4989CE   		movq	%rcx, %r14
 4034 003d 4C89E7   		movq	%r12, %rdi
 4035 0040 E8000000 		call	_ZNSt8ios_baseC2Ev
 4035      00
 4036 0045 31F6     		xorl	%esi, %esi
 4037 0047 4C89E7   		movq	%r12, %rdi
 4038 004a 48C78424 		movq	$0, 328(%rsp)
 4038      48010000 
 4038      00000000 
 4039 0056 C6842450 		movb	$0, 336(%rsp)
 4039      01000000 
 4040 005e C6842451 		movb	$0, 337(%rsp)
 4040      01000000 
 4041 0066 48C78424 		movq	$0, 344(%rsp)
 4041      58010000 
 4041      00000000 
 4042 0072 48C78424 		movq	$0, 352(%rsp)
 4042      60010000 
 4042      00000000 
 4043 007e 48C78424 		movq	$0, 360(%rsp)
 4043      68010000 
 4043      00000000 
 4044 008a 48C78424 		movq	$0, 368(%rsp)
 4044      70010000 
 4044      00000000 
 4045 0096 48C74424 		movq	$_ZTCN8UnitTest15MemoryOutStreamE0_So+24, 16(%rsp)
 4045      10000000 
 4045      00
 4046 009f 48C74424 		movq	$_ZTCN8UnitTest15MemoryOutStreamE0_So+64, 112(%rsp)
 4046      70000000 
 4046      00
 4047              	.LEHB50:
 4048 00a8 E8000000 		call	_ZNSt9basic_iosIcSt11char_traitsIcEE4initEPSt15basic_streambufIcS1_E
 4048      00
 4049              	.LEHE50:
 4050 00ad 488D7C24 		leaq	80(%rsp), %rdi
 4050      50
 4051 00b2 48C74424 		movq	$_ZTCN8UnitTest15MemoryOutStreamE0_St19basic_ostringstreamIcSt11char_traitsIcESaIcEE+24, 16(%
 4051      10000000 
 4051      00
 4052 00bb 48C74424 		movq	$_ZTCN8UnitTest15MemoryOutStreamE0_St19basic_ostringstreamIcSt11char_traitsIcESaIcEE+64, 112(
 4052      70000000 
 4052      00
 4053 00c4 48C74424 		movq	$_ZTVSt15basic_streambufIcSt11char_traitsIcEE+16, 24(%rsp)
 4053      18000000 
 4053      00
 4054 00cd 48C74424 		movq	$0, 32(%rsp)
 4054      20000000 
 4054      00
 4055 00d6 48C74424 		movq	$0, 40(%rsp)
 4055      28000000 
 4055      00
 4056 00df 48C74424 		movq	$0, 48(%rsp)
 4056      30000000 
 4056      00
 4057 00e8 48C74424 		movq	$0, 56(%rsp)
 4057      38000000 
 4057      00
 4058 00f1 48C74424 		movq	$0, 64(%rsp)
 4058      40000000 
 4058      00
 4059 00fa 48C74424 		movq	$0, 72(%rsp)
 4059      48000000 
 4059      00
 4060 0103 E8000000 		call	_ZNSt6localeC1Ev
 4060      00
 4061 0108 488B4424 		movq	16(%rsp), %rax
 4061      10
 4062 010d 488D7C24 		leaq	16(%rsp), %rdi
 4062      10
 4063 0112 488D7424 		leaq	24(%rsp), %rsi
 4063      18
 4064 0117 48C74424 		movq	$_ZTVSt15basic_stringbufIcSt11char_traitsIcESaIcEE+16, 24(%rsp)
 4064      18000000 
 4064      00
 4065 0120 C7442458 		movl	$16, 88(%rsp)
 4065      10000000 
 4066 0128 48C74424 		movq	$_ZNSs4_Rep20_S_empty_rep_storageE+24, 96(%rsp)
 4066      60000000 
 4066      00
 4067 0131 480378E8 		addq	-24(%rax), %rdi
 4068              	.LEHB51:
 4069 0135 E8000000 		call	_ZNSt9basic_iosIcSt11char_traitsIcEE4initEPSt15basic_streambufIcS1_E
 4069      00
 4070              	.LEHE51:
 4071 013a 488D7C24 		leaq	16(%rsp), %rdi
 4071      10
 4072 013f BA090000 		movl	$9, %edx
 4072      00
 4073 0144 BE000000 		movl	$.LC73, %esi
 4073      00
 4074 0149 48C74424 		movq	$_ZTVN8UnitTest15MemoryOutStreamE+24, 16(%rsp)
 4074      10000000 
 4074      00
 4075 0152 48C74424 		movq	$_ZTVN8UnitTest15MemoryOutStreamE+64, 112(%rsp)
 4075      70000000 
 4075      00
 4076 015b 48C74424 		movq	$_ZNSs4_Rep20_S_empty_rep_storageE+24, 104(%rsp)
 4076      68000000 
 4076      00
 4077 0164 8B6D00   		movl	0(%rbp), %ebp
 4078 0167 8B1B     		movl	(%rbx), %ebx
 4079              	.LEHB52:
 4080 0169 E8000000 		call	_ZSt16__ostream_insertIcSt11char_traitsIcEERSt13basic_ostreamIT_T0_ES6_PKS3_l
 4080      00
 4081 016e 488D7C24 		leaq	16(%rsp), %rdi
 4081      10
 4082 0173 89DE     		movl	%ebx, %esi
 4083 0175 E8000000 		call	_ZNSolsEi
 4083      00
 4084 017a BA090000 		movl	$9, %edx
 4084      00
 4085 017f BE000000 		movl	$.LC77, %esi
 4085      00
 4086 0184 4889C7   		movq	%rax, %rdi
 4087 0187 4889C3   		movq	%rax, %rbx
 4088 018a E8000000 		call	_ZSt16__ostream_insertIcSt11char_traitsIcEERSt13basic_ostreamIT_T0_ES6_PKS3_l
 4088      00
 4089 018f 89EE     		movl	%ebp, %esi
 4090 0191 4889DF   		movq	%rbx, %rdi
 4091 0194 E8000000 		call	_ZNSolsEi
 4091      00
 4092 0199 488D7C24 		leaq	16(%rsp), %rdi
 4092      10
 4093 019e E8000000 		call	_ZNK8UnitTest15MemoryOutStream7GetTextEv
 4093      00
 4094 01a3 4889C2   		movq	%rax, %rdx
 4095 01a6 4C89F6   		movq	%r14, %rsi
 4096 01a9 4C89EF   		movq	%r13, %rdi
 4097 01ac E8000000 		call	_ZN8UnitTest11TestResults13OnTestFailureERKNS_11TestDetailsEPKc
 4097      00
 4098              	.LEHE52:
 4099 01b1 488B4424 		movq	104(%rsp), %rax
 4099      68
 4100 01b6 48C74424 		movq	$_ZTVN8UnitTest15MemoryOutStreamE+24, 16(%rsp)
 4100      10000000 
 4100      00
 4101 01bf 48C74424 		movq	$_ZTVN8UnitTest15MemoryOutStreamE+64, 112(%rsp)
 4101      70000000 
 4101      00
 4102 01c8 488D78E8 		leaq	-24(%rax), %rdi
 4103 01cc 4881FF00 		cmpq	$_ZNSs4_Rep20_S_empty_rep_storageE, %rdi
 4103      000000
 4104 01d3 757B     		jne	.L453
 4105              	.L434:
 4106 01d5 488B4424 		movq	96(%rsp), %rax
 4106      60
 4107 01da 48C74424 		movq	$_ZTCN8UnitTest15MemoryOutStreamE0_St19basic_ostringstreamIcSt11char_traitsIcESaIcEE+24, 16(%
 4107      10000000 
 4107      00
 4108 01e3 48C74424 		movq	$_ZTCN8UnitTest15MemoryOutStreamE0_St19basic_ostringstreamIcSt11char_traitsIcESaIcEE+64, 112(
 4108      70000000 
 4108      00
 4109 01ec 48C74424 		movq	$_ZTVSt15basic_stringbufIcSt11char_traitsIcESaIcEE+16, 24(%rsp)
 4109      18000000 
 4109      00
 4110 01f5 488D78E8 		leaq	-24(%rax), %rdi
 4111 01f9 4881FF00 		cmpq	$_ZNSs4_Rep20_S_empty_rep_storageE, %rdi
 4111      000000
 4112 0200 757E     		jne	.L454
 4113              	.L439:
 4114 0202 488D7C24 		leaq	80(%rsp), %rdi
 4114      50
 4115 0207 48C74424 		movq	$_ZTVSt15basic_streambufIcSt11char_traitsIcEE+16, 24(%rsp)
 4115      18000000 
 4115      00
 4116 0210 E8000000 		call	_ZNSt6localeD1Ev
 4116      00
 4117 0215 488D7C24 		leaq	112(%rsp), %rdi
 4117      70
 4118 021a 48C74424 		movq	$_ZTVSt9basic_iosIcSt11char_traitsIcEE+16, 112(%rsp)
 4118      70000000 
 4118      00
 4119              	.LEHB53:
 4120 0223 E8000000 		call	_ZNSt8ios_baseD2Ev
 4120      00
 4121              	.LEHE53:
 4122              	.L427:
 4123 0228 488B8424 		movq	376(%rsp), %rax
 4123      78010000 
 4124 0230 64483304 		xorq	%fs:40, %rax
 4124      25280000 
 4124      00
 4125 0239 0F858E00 		jne	.L455
 4125      0000
 4126 023f 4881C480 		addq	$384, %rsp
 4126      010000
 4127              		.cfi_remember_state
 4128              		.cfi_def_cfa_offset 48
 4129 0246 5B       		popq	%rbx
 4130              		.cfi_def_cfa_offset 40
 4131 0247 5D       		popq	%rbp
 4132              		.cfi_def_cfa_offset 32
 4133 0248 415C     		popq	%r12
 4134              		.cfi_def_cfa_offset 24
 4135 024a 415D     		popq	%r13
 4136              		.cfi_def_cfa_offset 16
 4137 024c 415E     		popq	%r14
 4138              		.cfi_def_cfa_offset 8
 4139 024e C3       		ret
 4140 024f 90       		.p2align 4,,10
 4141              		.p2align 3
 4142              	.L453:
 4143              		.cfi_restore_state
 4144 0250 BA000000 		movl	$_ZL28__gthrw___pthread_key_createPjPFvPvE, %edx
 4144      00
 4145 0255 4885D2   		testq	%rdx, %rdx
 4146 0258 7456     		je	.L435
 4147 025a BAFFFFFF 		movl	$-1, %edx
 4147      FF
 4148 025f F00FC150 		lock xaddl	%edx, -8(%rax)
 4148      F8
 4149 0264 89D0     		movl	%edx, %eax
 4150              	.L436:
 4151 0266 85C0     		testl	%eax, %eax
 4152 0268 0F8F67FF 		jg	.L434
 4152      FFFF
 4153 026e 488D7424 		leaq	15(%rsp), %rsi
 4153      0F
 4154 0273 E8000000 		call	_ZNSs4_Rep10_M_destroyERKSaIcE
 4154      00
 4155 0278 E958FFFF 		jmp	.L434
 4155      FF
 4156 027d 0F1F00   		.p2align 4,,10
 4157              		.p2align 3
 4158              	.L454:
 4159 0280 BA000000 		movl	$_ZL28__gthrw___pthread_key_createPjPFvPvE, %edx
 4159      00
 4160 0285 4885D2   		testq	%rdx, %rdx
 4161 0288 7436     		je	.L440
 4162 028a BAFFFFFF 		movl	$-1, %edx
 4162      FF
 4163 028f F00FC150 		lock xaddl	%edx, -8(%rax)
 4163      F8
 4164 0294 89D0     		movl	%edx, %eax
 4165              	.L441:
 4166 0296 85C0     		testl	%eax, %eax
 4167 0298 0F8F64FF 		jg	.L439
 4167      FFFF
 4168 029e 488D7424 		leaq	15(%rsp), %rsi
 4168      0F
 4169 02a3 E8000000 		call	_ZNSs4_Rep10_M_destroyERKSaIcE
 4169      00
 4170 02a8 E955FFFF 		jmp	.L439
 4170      FF
 4171 02ad 0F1F00   		.p2align 4,,10
 4172              		.p2align 3
 4173              	.L435:
 4174 02b0 8B50F8   		movl	-8(%rax), %edx
 4175 02b3 8D4AFF   		leal	-1(%rdx), %ecx
 4176 02b6 8948F8   		movl	%ecx, -8(%rax)
 4177 02b9 89D0     		movl	%edx, %eax
 4178 02bb EBA9     		jmp	.L436
 4179 02bd 0F1F00   		.p2align 4,,10
 4180              		.p2align 3
 4181              	.L440:
 4182 02c0 8B50F8   		movl	-8(%rax), %edx
 4183 02c3 8D4AFF   		leal	-1(%rdx), %ecx
 4184 02c6 8948F8   		movl	%ecx, -8(%rax)
 4185 02c9 89D0     		movl	%edx, %eax
 4186 02cb EBC9     		jmp	.L441
 4187              	.L455:
 4188 02cd E8000000 		call	__stack_chk_fail
 4188      00
 4189              	.L445:
 4190 02d2 4889C3   		movq	%rax, %rbx
 4191 02d5 EB0A     		jmp	.L443
 4192              	.L447:
 4193 02d7 4889C3   		movq	%rax, %rbx
 4194 02da EB17     		jmp	.L430
 4195              	.L446:
 4196 02dc 4889C3   		movq	%rax, %rbx
 4197 02df EB1C     		jmp	.L431
 4198              	.L443:
 4199 02e1 488D7C24 		leaq	16(%rsp), %rdi
 4199      10
 4200 02e6 E8000000 		call	_ZN8UnitTest15MemoryOutStreamD1Ev
 4200      00
 4201 02eb 4889DF   		movq	%rbx, %rdi
 4202              	.LEHB54:
 4203 02ee E8000000 		call	_Unwind_Resume
 4203      00
 4204              	.LEHE54:
 4205              	.L430:
 4206 02f3 488D7C24 		leaq	24(%rsp), %rdi
 4206      18
 4207 02f8 E8000000 		call	_ZNSt15basic_stringbufIcSt11char_traitsIcESaIcEED1Ev
 4207      00
 4208              	.L431:
 4209 02fd 488D7C24 		leaq	112(%rsp), %rdi
 4209      70
 4210 0302 48C74424 		movq	$_ZTVSt9basic_iosIcSt11char_traitsIcEE+16, 112(%rsp)
 4210      70000000 
 4210      00
 4211 030b E8000000 		call	_ZNSt8ios_baseD2Ev
 4211      00
 4212 0310 4889DF   		movq	%rbx, %rdi
 4213              	.LEHB55:
 4214 0313 E8000000 		call	_Unwind_Resume
 4214      00
 4215              	.LEHE55:
 4216              		.cfi_endproc
 4217              	.LFE1267:
 4218              		.section	.gcc_except_table
 4219              	.LLSDA1267:
 4220 0158 FF       		.byte	0xff
 4221 0159 FF       		.byte	0xff
 4222 015a 01       		.byte	0x1
 4223 015b 21       		.uleb128 .LLSDACSE1267-.LLSDACSB1267
 4224              	.LLSDACSB1267:
 4225 015c A801     		.uleb128 .LEHB50-.LFB1267
 4226 015e 05       		.uleb128 .LEHE50-.LEHB50
 4227 015f DC05     		.uleb128 .L446-.LFB1267
 4228 0161 00       		.uleb128 0
 4229 0162 B502     		.uleb128 .LEHB51-.LFB1267
 4230 0164 05       		.uleb128 .LEHE51-.LEHB51
 4231 0165 D705     		.uleb128 .L447-.LFB1267
 4232 0167 00       		.uleb128 0
 4233 0168 E902     		.uleb128 .LEHB52-.LFB1267
 4234 016a 48       		.uleb128 .LEHE52-.LEHB52
 4235 016b D205     		.uleb128 .L445-.LFB1267
 4236 016d 00       		.uleb128 0
 4237 016e A304     		.uleb128 .LEHB53-.LFB1267
 4238 0170 05       		.uleb128 .LEHE53-.LEHB53
 4239 0171 00       		.uleb128 0
 4240 0172 00       		.uleb128 0
 4241 0173 EE05     		.uleb128 .LEHB54-.LFB1267
 4242 0175 05       		.uleb128 .LEHE54-.LEHB54
 4243 0176 00       		.uleb128 0
 4244 0177 00       		.uleb128 0
 4245 0178 9306     		.uleb128 .LEHB55-.LFB1267
 4246 017a 05       		.uleb128 .LEHE55-.LEHB55
 4247 017b 00       		.uleb128 0
 4248 017c 00       		.uleb128 0
 4249              	.LLSDACSE1267:
 4250              		.section	.text._ZN8UnitTest10CheckEqualIiiEEvRNS_11TestResultsERKT_RKT0_RKNS_11TestDetailsE,"axG",
 4252              		.section	.text.unlikely._ZN8UnitTest10CheckEqualIiiEEvRNS_11TestResultsERKT_RKT0_RKNS_11TestDetail
 4253              	.LCOLDE98:
 4254              		.section	.text._ZN8UnitTest10CheckEqualIiiEEvRNS_11TestResultsERKT_RKT0_RKNS_11TestDetailsE,"axG",
 4255              	.LHOTE98:
 4256              		.section	.rodata.str1.1
 4257              	.LC99:
 4258 006a 66696C65 		.string	"file"
 4258      00
 4259              	.LC100:
 4260 006f 61727261 		.string	"array2DCloseSuite"
 4260      79324443 
 4260      6C6F7365 
 4260      53756974 
 4260      6500
 4261              	.LC101:
 4262 0081 61727261 		.string	"array2DCloseTest"
 4262      79324443 
 4262      6C6F7365 
 4262      54657374 
 4262      00
 4263              		.section	.rodata.str1.8
 4264 01f1 00000000 		.align 8
 4264      000000
 4265              	.LC117:
 4266 01f8 556E6861 		.string	"Unhandled exception in CHECK_EQUAL(\"array2DCloseTest\", reporter.lastFailedTest)"
 4266      6E646C65 
 4266      64206578 
 4266      63657074 
 4266      696F6E20 
 4267              		.align 8
 4268              	.LC118:
 4269 0248 556E6861 		.string	"Unhandled exception in CHECK_EQUAL(\"array2DCloseSuite\", reporter.lastFailedSuite)"
 4269      6E646C65 
 4269      64206578 
 4269      63657074 
 4269      696F6E20 
 4270 029a 00000000 		.align 8
 4270      0000
 4271              	.LC119:
 4272 02a0 556E6861 		.string	"Unhandled exception in CHECK_EQUAL(\"file\", reporter.lastFailedFile)"
 4272      6E646C65 
 4272      64206578 
 4272      63657074 
 4272      696F6E20 
 4273 02e4 00000000 		.align 8
 4274              	.LC120:
 4275 02e8 556E6861 		.string	"Unhandled exception in CHECK_EQUAL(1234, reporter.lastFailedLine)"
 4275      6E646C65 
 4275      64206578 
 4275      63657074 
 4275      696F6E20 
 4276              		.section	.text.unlikely
 4277              		.align 2
 4278              	.LCOLDB121:
 4279              		.text
 4280              	.LHOTB121:
 4281 1eb1 90       		.align 2
 4282 1eb2 0F1F4000 		.p2align 4,,15
 4282      662E0F1F 
 4282      84000000 
 4282      0000
 4284              	_ZNK12_GLOBAL__N_143TestCheckArray2DCloseFailureIncludesDetails7RunImplEv:
 4285              	.LFB1234:
 4286              		.cfi_startproc
 4287              		.cfi_personality 0x3,__gxx_personality_v0
 4288              		.cfi_lsda 0x3,.LLSDA1234
 4289 1ec0 53       		pushq	%rbx
 4290              		.cfi_def_cfa_offset 16
 4291              		.cfi_offset 3, -16
 4292 1ec1 4881EC10 		subq	$2320, %rsp
 4292      090000
 4293              		.cfi_def_cfa_offset 2336
 4294 1ec8 488DB424 		leaq	208(%rsp), %rsi
 4294      D0000000 
 4295 1ed0 488D7C24 		leaq	16(%rsp), %rdi
 4295      10
 4296 1ed5 48C78424 		movq	$_ZTV17RecordingReporter+16, 208(%rsp)
 4296      D0000000 
 4296      00000000 
 4297 1ee1 64488B04 		movq	%fs:40, %rax
 4297      25280000 
 4297      00
 4298 1eea 48898424 		movq	%rax, 2312(%rsp)
 4298      08090000 
 4299 1ef2 31C0     		xorl	%eax, %eax
 4300 1ef4 C78424D8 		movl	$0, 216(%rsp)
 4300      00000000 
 4300      000000
 4301 1eff C78424DC 		movl	$0, 732(%rsp)
 4301      02000000 
 4301      000000
 4302 1f0a C78424E0 		movl	$0, 992(%rsp)
 4302      03000000 
 4302      000000
 4303 1f15 C78424E4 		movl	$0, 1764(%rsp)
 4303      06000000 
 4303      000000
 4304 1f20 C78424E8 		movl	$0x00000000, 2280(%rsp)
 4304      08000000 
 4304      000000
 4305 1f2b C78424EC 		movl	$0, 2284(%rsp)
 4305      08000000 
 4305      000000
 4306 1f36 C78424F0 		movl	$0, 2288(%rsp)
 4306      08000000 
 4306      000000
 4307 1f41 C78424F4 		movl	$0, 2292(%rsp)
 4307      08000000 
 4307      000000
 4308 1f4c C78424F8 		movl	$0x00000000, 2296(%rsp)
 4308      08000000 
 4308      000000
 4309 1f57 C68424DC 		movb	$0, 220(%rsp)
 4309      00000000 
 4310 1f5f C68424DC 		movb	$0, 476(%rsp)
 4310      01000000 
 4311 1f67 C68424E0 		movb	$0, 736(%rsp)
 4311      02000000 
 4312 1f6f C68424E4 		movb	$0, 996(%rsp)
 4312      03000000 
 4313 1f77 C68424E4 		movb	$0, 1252(%rsp)
 4313      04000000 
 4314 1f7f C68424E4 		movb	$0, 1508(%rsp)
 4314      05000000 
 4315 1f87 C68424E8 		movb	$0, 1768(%rsp)
 4315      06000000 
 4316 1f8f C68424E8 		movb	$0, 2024(%rsp)
 4316      07000000 
 4317              	.LEHB56:
 4318 1f97 E8000000 		call	_ZN8UnitTest11TestResultsC1EPNS_12TestReporterE
 4318      00
 4319 1f9c 488D7C24 		leaq	48(%rsp), %rdi
 4319      30
 4320 1fa1 41B8D204 		movl	$1234, %r8d
 4320      0000
 4321 1fa7 B9000000 		movl	$.LC99, %ecx
 4321      00
 4322 1fac BA000000 		movl	$.LC100, %edx
 4322      00
 4323 1fb1 BE000000 		movl	$.LC101, %esi
 4323      00
 4324 1fb6 E8000000 		call	_ZN8UnitTest11TestDetailsC1EPKcS2_S2_i
 4324      00
 4325 1fbb 4C8D4424 		leaq	48(%rsp), %r8
 4325      30
 4326 1fc0 488D4C24 		leaq	80(%rsp), %rcx
 4326      50
 4327 1fc5 488D9424 		leaq	160(%rsp), %rdx
 4327      A0000000 
 4328 1fcd 488D7424 		leaq	112(%rsp), %rsi
 4328      70
 4329 1fd2 488D7C24 		leaq	16(%rsp), %rdi
 4329      10
 4330 1fd7 C7442470 		movl	$0x3f800000, 112(%rsp)
 4330      0000803F 
 4331 1fdf C7442474 		movl	$0x3fc00000, 116(%rsp)
 4331      0000C03F 
 4332 1fe7 C7442478 		movl	$0x40000000, 120(%rsp)
 4332      00000040 
 4333 1fef C744247C 		movl	$0x40000000, 124(%rsp)
 4333      00000040 
 4334 1ff7 C7842480 		movl	$0x40200000, 128(%rsp)
 4334      00000000 
 4334      002040
 4335 2002 C7842484 		movl	$0x40400000, 132(%rsp)
 4335      00000000 
 4335      004040
 4336 200d C7842488 		movl	$0x40400000, 136(%rsp)
 4336      00000000 
 4336      004040
 4337 2018 C784248C 		movl	$0x40600000, 140(%rsp)
 4337      00000000 
 4337      006040
 4338 2023 C7842490 		movl	$0x40800000, 144(%rsp)
 4338      00000000 
 4338      008040
 4339 202e C78424A0 		movl	$0x3f8147ae, 160(%rsp)
 4339      000000AE 
 4339      47813F
 4340 2039 C78424A4 		movl	$0x3fc147ae, 164(%rsp)
 4340      000000AE 
 4340      47C13F
 4341 2044 C78424A8 		movl	$0x4000a3d7, 168(%rsp)
 4341      000000D7 
 4341      A30040
 4342 204f C78424AC 		movl	$0x4000a3d7, 172(%rsp)
 4342      000000D7 
 4342      A30040
 4343 205a C78424B0 		movl	$0x4020a3d7, 176(%rsp)
 4343      000000D7 
 4343      A32040
 4344 2065 C78424B4 		movl	$0x4040a3d7, 180(%rsp)
 4344      000000D7 
 4344      A34040
 4345 2070 C78424B8 		movl	$0x4040a3d7, 184(%rsp)
 4345      000000D7 
 4345      A34040
 4346 207b C78424BC 		movl	$0x4060a3d7, 188(%rsp)
 4346      000000D7 
 4346      A36040
 4347 2086 C78424C0 		movl	$0x408051ec, 192(%rsp)
 4347      000000EC 
 4347      518040
 4348 2091 C7442450 		movl	$0x3a83126f, 80(%rsp)
 4348      6F12833A 
 4349 2099 E842E4FF 		call	_ZN8UnitTest17CheckArray2DCloseIA3_A3_fS2_fEEvRNS_11TestResultsERKT_RKT0_iiRKT1_RKNS_11TestDe
 4349      FF
 4350              	.LEHE56:
 4351              	.LEHB57:
 4352 209e E8000000 		call	_ZN8UnitTest11CurrentTest7DetailsEv
 4352      00
 4353 20a3 488B30   		movq	(%rax), %rsi
 4354 20a6 488D7C24 		leaq	80(%rsp), %rdi
 4354      50
 4355 20ab BA1F0100 		movl	$287, %edx
 4355      00
 4356 20b0 E8000000 		call	_ZN8UnitTest11TestDetailsC1ERKS0_i
 4356      00
 4357 20b5 E8000000 		call	_ZN8UnitTest11CurrentTest7ResultsEv
 4357      00
 4358 20ba 488D9C24 		leaq	208(%rsp), %rbx
 4358      D0000000 
 4359 20c2 488B38   		movq	(%rax), %rdi
 4360 20c5 488D4C24 		leaq	80(%rsp), %rcx
 4360      50
 4361 20ca BE000000 		movl	$.LC101, %esi
 4361      00
 4362 20cf 488D9314 		leaq	1044(%rbx), %rdx
 4362      040000
 4363 20d6 E8000000 		call	_ZN8UnitTest10CheckEqualERNS_11TestResultsEPKcPcRKNS_11TestDetailsE
 4363      00
 4364              	.LEHE57:
 4365              	.L460:
 4366              	.LEHB58:
 4367 20db E8000000 		call	_ZN8UnitTest11CurrentTest7DetailsEv
 4367      00
 4368 20e0 488B30   		movq	(%rax), %rsi
 4369 20e3 488D7C24 		leaq	80(%rsp), %rdi
 4369      50
 4370 20e8 BA200100 		movl	$288, %edx
 4370      00
 4371 20ed E8000000 		call	_ZN8UnitTest11TestDetailsC1ERKS0_i
 4371      00
 4372 20f2 E8000000 		call	_ZN8UnitTest11CurrentTest7ResultsEv
 4372      00
 4373 20f7 488D9C24 		leaq	208(%rsp), %rbx
 4373      D0000000 
 4374 20ff 488B38   		movq	(%rax), %rdi
 4375 2102 488D4C24 		leaq	80(%rsp), %rcx
 4375      50
 4376 2107 BE000000 		movl	$.LC100, %esi
 4376      00
 4377 210c 488D9314 		leaq	788(%rbx), %rdx
 4377      030000
 4378 2113 E8000000 		call	_ZN8UnitTest10CheckEqualERNS_11TestResultsEPKcPcRKNS_11TestDetailsE
 4378      00
 4379              	.LEHE58:
 4380              	.L463:
 4381              	.LEHB59:
 4382 2118 E8000000 		call	_ZN8UnitTest11CurrentTest7DetailsEv
 4382      00
 4383 211d 488B30   		movq	(%rax), %rsi
 4384 2120 488D7C24 		leaq	80(%rsp), %rdi
 4384      50
 4385 2125 BA210100 		movl	$289, %edx
 4385      00
 4386 212a E8000000 		call	_ZN8UnitTest11TestDetailsC1ERKS0_i
 4386      00
 4387 212f E8000000 		call	_ZN8UnitTest11CurrentTest7ResultsEv
 4387      00
 4388 2134 488D9C24 		leaq	208(%rsp), %rbx
 4388      D0000000 
 4389 213c 488B38   		movq	(%rax), %rdi
 4390 213f 488D4C24 		leaq	80(%rsp), %rcx
 4390      50
 4391 2144 BE000000 		movl	$.LC99, %esi
 4391      00
 4392 2149 488D9310 		leaq	528(%rbx), %rdx
 4392      020000
 4393 2150 E8000000 		call	_ZN8UnitTest10CheckEqualERNS_11TestResultsEPKcPcRKNS_11TestDetailsE
 4393      00
 4394              	.LEHE59:
 4395              	.L466:
 4396              	.LEHB60:
 4397 2155 E8000000 		call	_ZN8UnitTest11CurrentTest7DetailsEv
 4397      00
 4398 215a 488B30   		movq	(%rax), %rsi
 4399 215d 488D7C24 		leaq	80(%rsp), %rdi
 4399      50
 4400 2162 BA220100 		movl	$290, %edx
 4400      00
 4401 2167 E8000000 		call	_ZN8UnitTest11TestDetailsC1ERKS0_i
 4401      00
 4402 216c C744240C 		movl	$1234, 12(%rsp)
 4402      D2040000 
 4403 2174 E8000000 		call	_ZN8UnitTest11CurrentTest7ResultsEv
 4403      00
 4404 2179 488D9C24 		leaq	208(%rsp), %rbx
 4404      D0000000 
 4405 2181 488B38   		movq	(%rax), %rdi
 4406 2184 488D4C24 		leaq	80(%rsp), %rcx
 4406      50
 4407 2189 488D7424 		leaq	12(%rsp), %rsi
 4407      0C
 4408 218e 488D9310 		leaq	784(%rbx), %rdx
 4408      030000
 4409 2195 E8000000 		call	_ZN8UnitTest10CheckEqualIiiEEvRNS_11TestResultsERKT_RKT0_RKNS_11TestDetailsE
 4409      00
 4410              	.LEHE60:
 4411              	.L469:
 4412 219a 488DBC24 		leaq	208(%rsp), %rdi
 4412      D0000000 
 4413 21a2 48C78424 		movq	$_ZTV17RecordingReporter+16, 208(%rsp)
 4413      D0000000 
 4413      00000000 
 4414              	.LEHB61:
 4415 21ae E8000000 		call	_ZN8UnitTest12TestReporterD2Ev
 4415      00
 4416              	.LEHE61:
 4417 21b3 488B8424 		movq	2312(%rsp), %rax
 4417      08090000 
 4418 21bb 64483304 		xorq	%fs:40, %rax
 4418      25280000 
 4418      00
 4419 21c4 7509     		jne	.L483
 4420 21c6 4881C410 		addq	$2320, %rsp
 4420      090000
 4421              		.cfi_remember_state
 4422              		.cfi_def_cfa_offset 16
 4423 21cd 5B       		popq	%rbx
 4424              		.cfi_def_cfa_offset 8
 4425 21ce C3       		ret
 4426              	.L483:
 4427              		.cfi_restore_state
 4428 21cf E8000000 		call	__stack_chk_fail
 4428      00
 4429              	.L478:
 4430 21d4 4889C7   		movq	%rax, %rdi
 4431 21d7 E8000000 		call	__cxa_begin_catch
 4431      00
 4432              	.LEHB62:
 4433 21dc E8000000 		call	_ZN8UnitTest11CurrentTest7DetailsEv
 4433      00
 4434 21e1 488B30   		movq	(%rax), %rsi
 4435 21e4 488D7C24 		leaq	80(%rsp), %rdi
 4435      50
 4436 21e9 BA220100 		movl	$290, %edx
 4436      00
 4437 21ee E8000000 		call	_ZN8UnitTest11TestDetailsC1ERKS0_i
 4437      00
 4438 21f3 E8000000 		call	_ZN8UnitTest11CurrentTest7ResultsEv
 4438      00
 4439 21f8 488B38   		movq	(%rax), %rdi
 4440 21fb 488D7424 		leaq	80(%rsp), %rsi
 4440      50
 4441 2200 BA000000 		movl	$.LC120, %edx
 4441      00
 4442 2205 E8000000 		call	_ZN8UnitTest11TestResults13OnTestFailureERKNS_11TestDetailsEPKc
 4442      00
 4443              	.LEHE62:
 4444              	.LEHB63:
 4445 220a E8000000 		call	__cxa_end_catch
 4445      00
 4446              	.LEHE63:
 4447 220f EB89     		jmp	.L469
 4448              	.L476:
 4449 2211 4889C7   		movq	%rax, %rdi
 4450 2214 E8000000 		call	__cxa_begin_catch
 4450      00
 4451              	.LEHB64:
 4452 2219 E8000000 		call	_ZN8UnitTest11CurrentTest7DetailsEv
 4452      00
 4453 221e 488B30   		movq	(%rax), %rsi
 4454 2221 488D7C24 		leaq	80(%rsp), %rdi
 4454      50
 4455 2226 BA210100 		movl	$289, %edx
 4455      00
 4456 222b E8000000 		call	_ZN8UnitTest11TestDetailsC1ERKS0_i
 4456      00
 4457 2230 E8000000 		call	_ZN8UnitTest11CurrentTest7ResultsEv
 4457      00
 4458 2235 488B38   		movq	(%rax), %rdi
 4459 2238 488D7424 		leaq	80(%rsp), %rsi
 4459      50
 4460 223d BA000000 		movl	$.LC119, %edx
 4460      00
 4461 2242 E8000000 		call	_ZN8UnitTest11TestResults13OnTestFailureERKNS_11TestDetailsEPKc
 4461      00
 4462              	.LEHE64:
 4463              	.LEHB65:
 4464 2247 E8000000 		call	__cxa_end_catch
 4464      00
 4465              	.LEHE65:
 4466 224c E904FFFF 		jmp	.L466
 4466      FF
 4467              	.L472:
 4468 2251 4889C7   		movq	%rax, %rdi
 4469 2254 E8000000 		call	__cxa_begin_catch
 4469      00
 4470              	.LEHB66:
 4471 2259 E8000000 		call	_ZN8UnitTest11CurrentTest7DetailsEv
 4471      00
 4472 225e 488B30   		movq	(%rax), %rsi
 4473 2261 488D7C24 		leaq	80(%rsp), %rdi
 4473      50
 4474 2266 BA1F0100 		movl	$287, %edx
 4474      00
 4475 226b E8000000 		call	_ZN8UnitTest11TestDetailsC1ERKS0_i
 4475      00
 4476 2270 E8000000 		call	_ZN8UnitTest11CurrentTest7ResultsEv
 4476      00
 4477 2275 488B38   		movq	(%rax), %rdi
 4478 2278 488D7424 		leaq	80(%rsp), %rsi
 4478      50
 4479 227d BA000000 		movl	$.LC117, %edx
 4479      00
 4480 2282 E8000000 		call	_ZN8UnitTest11TestResults13OnTestFailureERKNS_11TestDetailsEPKc
 4480      00
 4481              	.LEHE66:
 4482              	.LEHB67:
 4483 2287 E8000000 		call	__cxa_end_catch
 4483      00
 4484              	.LEHE67:
 4485 228c E94AFEFF 		jmp	.L460
 4485      FF
 4486              	.L474:
 4487 2291 4889C7   		movq	%rax, %rdi
 4488 2294 E8000000 		call	__cxa_begin_catch
 4488      00
 4489              	.LEHB68:
 4490 2299 E8000000 		call	_ZN8UnitTest11CurrentTest7DetailsEv
 4490      00
 4491 229e 488B30   		movq	(%rax), %rsi
 4492 22a1 488D7C24 		leaq	80(%rsp), %rdi
 4492      50
 4493 22a6 BA200100 		movl	$288, %edx
 4493      00
 4494 22ab E8000000 		call	_ZN8UnitTest11TestDetailsC1ERKS0_i
 4494      00
 4495 22b0 E8000000 		call	_ZN8UnitTest11CurrentTest7ResultsEv
 4495      00
 4496 22b5 488B38   		movq	(%rax), %rdi
 4497 22b8 488D7424 		leaq	80(%rsp), %rsi
 4497      50
 4498 22bd BA000000 		movl	$.LC118, %edx
 4498      00
 4499 22c2 E8000000 		call	_ZN8UnitTest11TestResults13OnTestFailureERKNS_11TestDetailsEPKc
 4499      00
 4500              	.LEHE68:
 4501              	.LEHB69:
 4502 22c7 E8000000 		call	__cxa_end_catch
 4502      00
 4503              	.LEHE69:
 4504 22cc E947FEFF 		jmp	.L463
 4504      FF
 4505              	.L471:
 4506 22d1 4889C3   		movq	%rax, %rbx
 4507              	.L458:
 4508 22d4 488DBC24 		leaq	208(%rsp), %rdi
 4508      D0000000 
 4509 22dc 48C78424 		movq	$_ZTV17RecordingReporter+16, 208(%rsp)
 4509      D0000000 
 4509      00000000 
 4510 22e8 E8000000 		call	_ZN8UnitTest12TestReporterD2Ev
 4510      00
 4511 22ed 4889DF   		movq	%rbx, %rdi
 4512              	.LEHB70:
 4513 22f0 E8000000 		call	_Unwind_Resume
 4513      00
 4514              	.LEHE70:
 4515              	.L479:
 4516 22f5 4889C3   		movq	%rax, %rbx
 4517 22f8 E8000000 		call	__cxa_end_catch
 4517      00
 4518 22fd EBD5     		jmp	.L458
 4519              	.L473:
 4520 22ff 4889C3   		movq	%rax, %rbx
 4521 2302 E8000000 		call	__cxa_end_catch
 4521      00
 4522 2307 EBCB     		jmp	.L458
 4523              	.L477:
 4524 2309 4889C3   		movq	%rax, %rbx
 4525 230c E8000000 		call	__cxa_end_catch
 4525      00
 4526 2311 EBC1     		jmp	.L458
 4527              	.L475:
 4528 2313 4889C3   		movq	%rax, %rbx
 4529 2316 E8000000 		call	__cxa_end_catch
 4529      00
 4530 231b EBB7     		jmp	.L458
 4531              		.cfi_endproc
 4532              	.LFE1234:
 4533              		.section	.gcc_except_table
 4534 017d 000000   		.align 4
 4535              	.LLSDA1234:
 4536 0180 FF       		.byte	0xff
 4537 0181 03       		.byte	0x3
 4538 0182 61       		.uleb128 .LLSDATT1234-.LLSDATTD1234
 4539              	.LLSDATTD1234:
 4540 0183 01       		.byte	0x1
 4541 0184 59       		.uleb128 .LLSDACSE1234-.LLSDACSB1234
 4542              	.LLSDACSB1234:
 4543 0185 D701     		.uleb128 .LEHB56-.LFB1234
 4544 0187 8702     		.uleb128 .LEHE56-.LEHB56
 4545 0189 9108     		.uleb128 .L471-.LFB1234
 4546 018b 00       		.uleb128 0
 4547 018c DE03     		.uleb128 .LEHB57-.LFB1234
 4548 018e 3D       		.uleb128 .LEHE57-.LEHB57
 4549 018f 9107     		.uleb128 .L472-.LFB1234
 4550 0191 01       		.uleb128 0x1
 4551 0192 9B04     		.uleb128 .LEHB58-.LFB1234
 4552 0194 3D       		.uleb128 .LEHE58-.LEHB58
 4553 0195 D107     		.uleb128 .L474-.LFB1234
 4554 0197 01       		.uleb128 0x1
 4555 0198 D804     		.uleb128 .LEHB59-.LFB1234
 4556 019a 3D       		.uleb128 .LEHE59-.LEHB59
 4557 019b D106     		.uleb128 .L476-.LFB1234
 4558 019d 01       		.uleb128 0x1
 4559 019e 9505     		.uleb128 .LEHB60-.LFB1234
 4560 01a0 45       		.uleb128 .LEHE60-.LEHB60
 4561 01a1 9406     		.uleb128 .L478-.LFB1234
 4562 01a3 01       		.uleb128 0x1
 4563 01a4 EE05     		.uleb128 .LEHB61-.LFB1234
 4564 01a6 05       		.uleb128 .LEHE61-.LEHB61
 4565 01a7 00       		.uleb128 0
 4566 01a8 00       		.uleb128 0
 4567 01a9 9C06     		.uleb128 .LEHB62-.LFB1234
 4568 01ab 2E       		.uleb128 .LEHE62-.LEHB62
 4569 01ac B508     		.uleb128 .L479-.LFB1234
 4570 01ae 00       		.uleb128 0
 4571 01af CA06     		.uleb128 .LEHB63-.LFB1234
 4572 01b1 05       		.uleb128 .LEHE63-.LEHB63
 4573 01b2 9108     		.uleb128 .L471-.LFB1234
 4574 01b4 00       		.uleb128 0
 4575 01b5 D906     		.uleb128 .LEHB64-.LFB1234
 4576 01b7 2E       		.uleb128 .LEHE64-.LEHB64
 4577 01b8 C908     		.uleb128 .L477-.LFB1234
 4578 01ba 00       		.uleb128 0
 4579 01bb 8707     		.uleb128 .LEHB65-.LFB1234
 4580 01bd 05       		.uleb128 .LEHE65-.LEHB65
 4581 01be 9108     		.uleb128 .L471-.LFB1234
 4582 01c0 00       		.uleb128 0
 4583 01c1 9907     		.uleb128 .LEHB66-.LFB1234
 4584 01c3 2E       		.uleb128 .LEHE66-.LEHB66
 4585 01c4 BF08     		.uleb128 .L473-.LFB1234
 4586 01c6 00       		.uleb128 0
 4587 01c7 C707     		.uleb128 .LEHB67-.LFB1234
 4588 01c9 05       		.uleb128 .LEHE67-.LEHB67
 4589 01ca 9108     		.uleb128 .L471-.LFB1234
 4590 01cc 00       		.uleb128 0
 4591 01cd D907     		.uleb128 .LEHB68-.LFB1234
 4592 01cf 2E       		.uleb128 .LEHE68-.LEHB68
 4593 01d0 D308     		.uleb128 .L475-.LFB1234
 4594 01d2 00       		.uleb128 0
 4595 01d3 8708     		.uleb128 .LEHB69-.LFB1234
 4596 01d5 05       		.uleb128 .LEHE69-.LEHB69
 4597 01d6 9108     		.uleb128 .L471-.LFB1234
 4598 01d8 00       		.uleb128 0
 4599 01d9 B008     		.uleb128 .LEHB70-.LFB1234
 4600 01db 05       		.uleb128 .LEHE70-.LEHB70
 4601 01dc 00       		.uleb128 0
 4602 01dd 00       		.uleb128 0
 4603              	.LLSDACSE1234:
 4604 01de 01       		.byte	0x1
 4605 01df 00       		.byte	0
 4606              		.align 4
 4607 01e0 00000000 		.long	0
 4608              	
 4609              	.LLSDATT1234:
 4610              		.text
 4612              		.section	.text.unlikely
 4613              	.LCOLDE121:
 4614              		.text
 4615              	.LHOTE121:
 4616              		.section	.rodata.str1.8
 4617 032a 00000000 		.align 8
 4617      0000
 4618              	.LC122:
 4619 0330 556E6861 		.string	"Unhandled exception in CHECK_EQUAL(1, results.GetFailureCount())"
 4619      6E646C65 
 4619      64206578 
 4619      63657074 
 4619      696F6E20 
 4620              		.section	.text.unlikely
 4621              		.align 2
 4622              	.LCOLDB123:
 4623              		.text
 4624              	.LHOTB123:
 4625 231d 90       		.align 2
 4626 231e 6690     		.p2align 4,,15
 4628              	_ZNK12_GLOBAL__N_126TestCheckArray2DCloseFalse7RunImplEv:
 4629              	.LFB1226:
 4630              		.cfi_startproc
 4631              		.cfi_personality 0x3,__gxx_personality_v0
 4632              		.cfi_lsda 0x3,.LLSDA1226
 4633 2320 53       		pushq	%rbx
 4634              		.cfi_def_cfa_offset 16
 4635              		.cfi_offset 3, -16
 4636 2321 31F6     		xorl	%esi, %esi
 4637 2323 4881ECB0 		subq	$176, %rsp
 4637      000000
 4638              		.cfi_def_cfa_offset 192
 4639 232a 488D7C24 		leaq	16(%rsp), %rdi
 4639      10
 4640 232f 64488B04 		movq	%fs:40, %rax
 4640      25280000 
 4640      00
 4641 2338 48898424 		movq	%rax, 168(%rsp)
 4641      A8000000 
 4642 2340 31C0     		xorl	%eax, %eax
 4643              	.LEHB71:
 4644 2342 E8000000 		call	_ZN8UnitTest11TestResultsC1EPNS_12TestReporterE
 4644      00
 4645 2347 B9000000 		movl	$.LC72, %ecx
 4645      00
 4646 234c 488D7C24 		leaq	48(%rsp), %rdi
 4646      30
 4647 2351 4531C0   		xorl	%r8d, %r8d
 4648 2354 4889CA   		movq	%rcx, %rdx
 4649 2357 4889CE   		movq	%rcx, %rsi
 4650 235a C7442450 		movl	$0x3f800000, 80(%rsp)
 4650      0000803F 
 4651 2362 C7442454 		movl	$0x3fc00000, 84(%rsp)
 4651      0000C03F 
 4652 236a C7442458 		movl	$0x40000000, 88(%rsp)
 4652      00000040 
 4653 2372 C744245C 		movl	$0x40000000, 92(%rsp)
 4653      00000040 
 4654 237a C7442460 		movl	$0x40200000, 96(%rsp)
 4654      00002040 
 4655 2382 C7442464 		movl	$0x40400000, 100(%rsp)
 4655      00004040 
 4656 238a C7442468 		movl	$0x40400000, 104(%rsp)
 4656      00004040 
 4657 2392 C744246C 		movl	$0x40600000, 108(%rsp)
 4657      00006040 
 4658 239a C7442470 		movl	$0x40800000, 112(%rsp)
 4658      00008040 
 4659 23a2 C7842480 		movl	$0x3f8147ae, 128(%rsp)
 4659      000000AE 
 4659      47813F
 4660 23ad C7842484 		movl	$0x3fc147ae, 132(%rsp)
 4660      000000AE 
 4660      47C13F
 4661 23b8 C7842488 		movl	$0x4000a3d7, 136(%rsp)
 4661      000000D7 
 4661      A30040
 4662 23c3 C784248C 		movl	$0x4000a3d7, 140(%rsp)
 4662      000000D7 
 4662      A30040
 4663 23ce C7842490 		movl	$0x4020a3d7, 144(%rsp)
 4663      000000D7 
 4663      A32040
 4664 23d9 C7842494 		movl	$0x4040a3d7, 148(%rsp)
 4664      000000D7 
 4664      A34040
 4665 23e4 C7842498 		movl	$0x4040a3d7, 152(%rsp)
 4665      000000D7 
 4665      A34040
 4666 23ef C784249C 		movl	$0x4060a3d7, 156(%rsp)
 4666      000000D7 
 4666      A36040
 4667 23fa C78424A0 		movl	$0x408051ec, 160(%rsp)
 4667      000000EC 
 4667      518040
 4668 2405 E8000000 		call	_ZN8UnitTest11TestDetailsC1EPKcS2_S2_i
 4668      00
 4669 240a 4C8D4424 		leaq	48(%rsp), %r8
 4669      30
 4670 240f 488D4C24 		leaq	12(%rsp), %rcx
 4670      0C
 4671 2414 488D9424 		leaq	128(%rsp), %rdx
 4671      80000000 
 4672 241c 488D7424 		leaq	80(%rsp), %rsi
 4672      50
 4673 2421 488D7C24 		leaq	16(%rsp), %rdi
 4673      10
 4674 2426 C744240C 		movl	$0x3a83126f, 12(%rsp)
 4674      6F12833A 
 4675 242e E8ADE0FF 		call	_ZN8UnitTest17CheckArray2DCloseIA3_A3_fS2_fEEvRNS_11TestResultsERKT_RKT0_iiRKT1_RKNS_11TestDe
 4675      FF
 4676              	.LEHE71:
 4677              	.LEHB72:
 4678 2433 E8000000 		call	_ZN8UnitTest11CurrentTest7DetailsEv
 4678      00
 4679 2438 488B30   		movq	(%rax), %rsi
 4680 243b 488D7C24 		leaq	48(%rsp), %rdi
 4680      30
 4681 2440 BA090100 		movl	$265, %edx
 4681      00
 4682 2445 E8000000 		call	_ZN8UnitTest11TestDetailsC1ERKS0_i
 4682      00
 4683 244a 488D7C24 		leaq	16(%rsp), %rdi
 4683      10
 4684 244f E8000000 		call	_ZNK8UnitTest11TestResults15GetFailureCountEv
 4684      00
 4685 2454 8944240C 		movl	%eax, 12(%rsp)
 4686 2458 C7442408 		movl	$1, 8(%rsp)
 4686      01000000 
 4687 2460 E8000000 		call	_ZN8UnitTest11CurrentTest7ResultsEv
 4687      00
 4688 2465 488B38   		movq	(%rax), %rdi
 4689 2468 488D4C24 		leaq	48(%rsp), %rcx
 4689      30
 4690 246d 488D5424 		leaq	12(%rsp), %rdx
 4690      0C
 4691 2472 488D7424 		leaq	8(%rsp), %rsi
 4691      08
 4692 2477 E8000000 		call	_ZN8UnitTest10CheckEqualIiiEEvRNS_11TestResultsERKT_RKT0_RKNS_11TestDetailsE
 4692      00
 4693              	.LEHE72:
 4694              	.L484:
 4695 247c 488B8424 		movq	168(%rsp), %rax
 4695      A8000000 
 4696 2484 64483304 		xorq	%fs:40, %rax
 4696      25280000 
 4696      00
 4697 248d 7509     		jne	.L492
 4698 248f 4881C4B0 		addq	$176, %rsp
 4698      000000
 4699              		.cfi_remember_state
 4700              		.cfi_def_cfa_offset 16
 4701 2496 5B       		popq	%rbx
 4702              		.cfi_def_cfa_offset 8
 4703 2497 C3       		ret
 4704              	.L492:
 4705              		.cfi_restore_state
 4706 2498 E8000000 		call	__stack_chk_fail
 4706      00
 4707              	.L489:
 4708 249d 4889C7   		movq	%rax, %rdi
 4709 24a0 E8000000 		call	__cxa_begin_catch
 4709      00
 4710              	.LEHB73:
 4711 24a5 E8000000 		call	_ZN8UnitTest11CurrentTest7DetailsEv
 4711      00
 4712 24aa 488B30   		movq	(%rax), %rsi
 4713 24ad 488D7C24 		leaq	48(%rsp), %rdi
 4713      30
 4714 24b2 BA090100 		movl	$265, %edx
 4714      00
 4715 24b7 E8000000 		call	_ZN8UnitTest11TestDetailsC1ERKS0_i
 4715      00
 4716 24bc E8000000 		call	_ZN8UnitTest11CurrentTest7ResultsEv
 4716      00
 4717 24c1 488B38   		movq	(%rax), %rdi
 4718 24c4 488D7424 		leaq	48(%rsp), %rsi
 4718      30
 4719 24c9 BA000000 		movl	$.LC122, %edx
 4719      00
 4720 24ce E8000000 		call	_ZN8UnitTest11TestResults13OnTestFailureERKNS_11TestDetailsEPKc
 4720      00
 4721              	.LEHE73:
 4722              	.LEHB74:
 4723 24d3 E8000000 		call	__cxa_end_catch
 4723      00
 4724              	.LEHE74:
 4725 24d8 EBA2     		jmp	.L484
 4726              	.L490:
 4727 24da 4889C3   		movq	%rax, %rbx
 4728 24dd E8000000 		call	__cxa_end_catch
 4728      00
 4729 24e2 4889DF   		movq	%rbx, %rdi
 4730              	.LEHB75:
 4731 24e5 E8000000 		call	_Unwind_Resume
 4731      00
 4732              	.LEHE75:
 4733              		.cfi_endproc
 4734              	.LFE1226:
 4735              		.section	.gcc_except_table
 4736              		.align 4
 4737              	.LLSDA1226:
 4738 01e4 FF       		.byte	0xff
 4739 01e5 03       		.byte	0x3
 4740 01e6 25       		.uleb128 .LLSDATT1226-.LLSDATTD1226
 4741              	.LLSDATTD1226:
 4742 01e7 01       		.byte	0x1
 4743 01e8 1B       		.uleb128 .LLSDACSE1226-.LLSDACSB1226
 4744              	.LLSDACSB1226:
 4745 01e9 22       		.uleb128 .LEHB71-.LFB1226
 4746 01ea F101     		.uleb128 .LEHE71-.LEHB71
 4747 01ec 00       		.uleb128 0
 4748 01ed 00       		.uleb128 0
 4749 01ee 9302     		.uleb128 .LEHB72-.LFB1226
 4750 01f0 49       		.uleb128 .LEHE72-.LEHB72
 4751 01f1 FD02     		.uleb128 .L489-.LFB1226
 4752 01f3 01       		.uleb128 0x1
 4753 01f4 8503     		.uleb128 .LEHB73-.LFB1226
 4754 01f6 2E       		.uleb128 .LEHE73-.LEHB73
 4755 01f7 BA03     		.uleb128 .L490-.LFB1226
 4756 01f9 00       		.uleb128 0
 4757 01fa B303     		.uleb128 .LEHB74-.LFB1226
 4758 01fc 05       		.uleb128 .LEHE74-.LEHB74
 4759 01fd 00       		.uleb128 0
 4760 01fe 00       		.uleb128 0
 4761 01ff C503     		.uleb128 .LEHB75-.LFB1226
 4762 0201 05       		.uleb128 .LEHE75-.LEHB75
 4763 0202 00       		.uleb128 0
 4764 0203 00       		.uleb128 0
 4765              	.LLSDACSE1226:
 4766 0204 01       		.byte	0x1
 4767 0205 00       		.byte	0
 4768 0206 0000     		.align 4
 4769 0208 00000000 		.long	0
 4770              	
 4771              	.LLSDATT1226:
 4772              		.text
 4774              		.section	.text.unlikely
 4775              	.LCOLDE123:
 4776              		.text
 4777              	.LHOTE123:
 4778              		.section	.rodata.str1.8
 4779 0371 00000000 		.align 8
 4779      000000
 4780              	.LC125:
 4781 0378 556E6861 		.string	"Unhandled exception in CHECK_EQUAL(0, results.GetFailureCount())"
 4781      6E646C65 
 4781      64206578 
 4781      63657074 
 4781      696F6E20 
 4782              		.section	.text.unlikely
 4783              		.align 2
 4784              	.LCOLDB126:
 4785              		.text
 4786              	.LHOTB126:
 4787              		.align 2
 4788 24ea 660F1F44 		.p2align 4,,15
 4788      0000
 4790              	_ZNK12_GLOBAL__N_125TestCheckArray2DCloseTrue7RunImplEv:
 4791              	.LFB1222:
 4792              		.cfi_startproc
 4793              		.cfi_personality 0x3,__gxx_personality_v0
 4794              		.cfi_lsda 0x3,.LLSDA1222
 4795 24f0 53       		pushq	%rbx
 4796              		.cfi_def_cfa_offset 16
 4797              		.cfi_offset 3, -16
 4798 24f1 31F6     		xorl	%esi, %esi
 4799 24f3 4881ECB0 		subq	$176, %rsp
 4799      000000
 4800              		.cfi_def_cfa_offset 192
 4801 24fa 488D7C24 		leaq	16(%rsp), %rdi
 4801      10
 4802 24ff 64488B04 		movq	%fs:40, %rax
 4802      25280000 
 4802      00
 4803 2508 48898424 		movq	%rax, 168(%rsp)
 4803      A8000000 
 4804 2510 31C0     		xorl	%eax, %eax
 4805              	.LEHB76:
 4806 2512 E8000000 		call	_ZN8UnitTest11TestResultsC1EPNS_12TestReporterE
 4806      00
 4807 2517 B9000000 		movl	$.LC72, %ecx
 4807      00
 4808 251c 488D7C24 		leaq	48(%rsp), %rdi
 4808      30
 4809 2521 4531C0   		xorl	%r8d, %r8d
 4810 2524 4889CA   		movq	%rcx, %rdx
 4811 2527 4889CE   		movq	%rcx, %rsi
 4812 252a C7442450 		movl	$0x3f800000, 80(%rsp)
 4812      0000803F 
 4813 2532 C7442454 		movl	$0x3fc00000, 84(%rsp)
 4813      0000C03F 
 4814 253a C7442458 		movl	$0x40000000, 88(%rsp)
 4814      00000040 
 4815 2542 C744245C 		movl	$0x40000000, 92(%rsp)
 4815      00000040 
 4816 254a C7442460 		movl	$0x40200000, 96(%rsp)
 4816      00002040 
 4817 2552 C7442464 		movl	$0x40400000, 100(%rsp)
 4817      00004040 
 4818 255a C7442468 		movl	$0x40400000, 104(%rsp)
 4818      00004040 
 4819 2562 C744246C 		movl	$0x40600000, 108(%rsp)
 4819      00006040 
 4820 256a C7442470 		movl	$0x40800000, 112(%rsp)
 4820      00008040 
 4821 2572 C7842480 		movl	$0x3f8147ae, 128(%rsp)
 4821      000000AE 
 4821      47813F
 4822 257d C7842484 		movl	$0x3fc147ae, 132(%rsp)
 4822      000000AE 
 4822      47C13F
 4823 2588 C7842488 		movl	$0x4000a3d7, 136(%rsp)
 4823      000000D7 
 4823      A30040
 4824 2593 C784248C 		movl	$0x4000a3d7, 140(%rsp)
 4824      000000D7 
 4824      A30040
 4825 259e C7842490 		movl	$0x4020a3d7, 144(%rsp)
 4825      000000D7 
 4825      A32040
 4826 25a9 C7842494 		movl	$0x4040a3d7, 148(%rsp)
 4826      000000D7 
 4826      A34040
 4827 25b4 C7842498 		movl	$0x4040a3d7, 152(%rsp)
 4827      000000D7 
 4827      A34040
 4828 25bf C784249C 		movl	$0x4060a3d7, 156(%rsp)
 4828      000000D7 
 4828      A36040
 4829 25ca C78424A0 		movl	$0x408051ec, 160(%rsp)
 4829      000000EC 
 4829      518040
 4830 25d5 E8000000 		call	_ZN8UnitTest11TestDetailsC1EPKcS2_S2_i
 4830      00
 4831 25da 4C8D4424 		leaq	48(%rsp), %r8
 4831      30
 4832 25df 488D4C24 		leaq	12(%rsp), %rcx
 4832      0C
 4833 25e4 488D9424 		leaq	128(%rsp), %rdx
 4833      80000000 
 4834 25ec 488D7424 		leaq	80(%rsp), %rsi
 4834      50
 4835 25f1 488D7C24 		leaq	16(%rsp), %rdi
 4835      10
 4836 25f6 C744240C 		movl	$0x3ca3d70a, 12(%rsp)
 4836      0AD7A33C 
 4837 25fe E8DDDEFF 		call	_ZN8UnitTest17CheckArray2DCloseIA3_A3_fS2_fEEvRNS_11TestResultsERKT_RKT0_iiRKT1_RKNS_11TestDe
 4837      FF
 4838              	.LEHE76:
 4839              	.LEHB77:
 4840 2603 E8000000 		call	_ZN8UnitTest11CurrentTest7DetailsEv
 4840      00
 4841 2608 488B30   		movq	(%rax), %rsi
 4842 260b 488D7C24 		leaq	48(%rsp), %rdi
 4842      30
 4843 2610 BAFB0000 		movl	$251, %edx
 4843      00
 4844 2615 E8000000 		call	_ZN8UnitTest11TestDetailsC1ERKS0_i
 4844      00
 4845 261a 488D7C24 		leaq	16(%rsp), %rdi
 4845      10
 4846 261f E8000000 		call	_ZNK8UnitTest11TestResults15GetFailureCountEv
 4846      00
 4847 2624 8944240C 		movl	%eax, 12(%rsp)
 4848 2628 C7442408 		movl	$0, 8(%rsp)
 4848      00000000 
 4849 2630 E8000000 		call	_ZN8UnitTest11CurrentTest7ResultsEv
 4849      00
 4850 2635 488B38   		movq	(%rax), %rdi
 4851 2638 488D4C24 		leaq	48(%rsp), %rcx
 4851      30
 4852 263d 488D5424 		leaq	12(%rsp), %rdx
 4852      0C
 4853 2642 488D7424 		leaq	8(%rsp), %rsi
 4853      08
 4854 2647 E8000000 		call	_ZN8UnitTest10CheckEqualIiiEEvRNS_11TestResultsERKT_RKT0_RKNS_11TestDetailsE
 4854      00
 4855              	.LEHE77:
 4856              	.L493:
 4857 264c 488B8424 		movq	168(%rsp), %rax
 4857      A8000000 
 4858 2654 64483304 		xorq	%fs:40, %rax
 4858      25280000 
 4858      00
 4859 265d 7509     		jne	.L501
 4860 265f 4881C4B0 		addq	$176, %rsp
 4860      000000
 4861              		.cfi_remember_state
 4862              		.cfi_def_cfa_offset 16
 4863 2666 5B       		popq	%rbx
 4864              		.cfi_def_cfa_offset 8
 4865 2667 C3       		ret
 4866              	.L501:
 4867              		.cfi_restore_state
 4868 2668 E8000000 		call	__stack_chk_fail
 4868      00
 4869              	.L498:
 4870 266d 4889C7   		movq	%rax, %rdi
 4871 2670 E8000000 		call	__cxa_begin_catch
 4871      00
 4872              	.LEHB78:
 4873 2675 E8000000 		call	_ZN8UnitTest11CurrentTest7DetailsEv
 4873      00
 4874 267a 488B30   		movq	(%rax), %rsi
 4875 267d 488D7C24 		leaq	48(%rsp), %rdi
 4875      30
 4876 2682 BAFB0000 		movl	$251, %edx
 4876      00
 4877 2687 E8000000 		call	_ZN8UnitTest11TestDetailsC1ERKS0_i
 4877      00
 4878 268c E8000000 		call	_ZN8UnitTest11CurrentTest7ResultsEv
 4878      00
 4879 2691 488B38   		movq	(%rax), %rdi
 4880 2694 488D7424 		leaq	48(%rsp), %rsi
 4880      30
 4881 2699 BA000000 		movl	$.LC125, %edx
 4881      00
 4882 269e E8000000 		call	_ZN8UnitTest11TestResults13OnTestFailureERKNS_11TestDetailsEPKc
 4882      00
 4883              	.LEHE78:
 4884              	.LEHB79:
 4885 26a3 E8000000 		call	__cxa_end_catch
 4885      00
 4886              	.LEHE79:
 4887 26a8 EBA2     		jmp	.L493
 4888              	.L499:
 4889 26aa 4889C3   		movq	%rax, %rbx
 4890 26ad E8000000 		call	__cxa_end_catch
 4890      00
 4891 26b2 4889DF   		movq	%rbx, %rdi
 4892              	.LEHB80:
 4893 26b5 E8000000 		call	_Unwind_Resume
 4893      00
 4894              	.LEHE80:
 4895              		.cfi_endproc
 4896              	.LFE1222:
 4897              		.section	.gcc_except_table
 4898              		.align 4
 4899              	.LLSDA1222:
 4900 020c FF       		.byte	0xff
 4901 020d 03       		.byte	0x3
 4902 020e 25       		.uleb128 .LLSDATT1222-.LLSDATTD1222
 4903              	.LLSDATTD1222:
 4904 020f 01       		.byte	0x1
 4905 0210 1B       		.uleb128 .LLSDACSE1222-.LLSDACSB1222
 4906              	.LLSDACSB1222:
 4907 0211 22       		.uleb128 .LEHB76-.LFB1222
 4908 0212 F101     		.uleb128 .LEHE76-.LEHB76
 4909 0214 00       		.uleb128 0
 4910 0215 00       		.uleb128 0
 4911 0216 9302     		.uleb128 .LEHB77-.LFB1222
 4912 0218 49       		.uleb128 .LEHE77-.LEHB77
 4913 0219 FD02     		.uleb128 .L498-.LFB1222
 4914 021b 01       		.uleb128 0x1
 4915 021c 8503     		.uleb128 .LEHB78-.LFB1222
 4916 021e 2E       		.uleb128 .LEHE78-.LEHB78
 4917 021f BA03     		.uleb128 .L499-.LFB1222
 4918 0221 00       		.uleb128 0
 4919 0222 B303     		.uleb128 .LEHB79-.LFB1222
 4920 0224 05       		.uleb128 .LEHE79-.LEHB79
 4921 0225 00       		.uleb128 0
 4922 0226 00       		.uleb128 0
 4923 0227 C503     		.uleb128 .LEHB80-.LFB1222
 4924 0229 05       		.uleb128 .LEHE80-.LEHB80
 4925 022a 00       		.uleb128 0
 4926 022b 00       		.uleb128 0
 4927              	.LLSDACSE1222:
 4928 022c 01       		.byte	0x1
 4929 022d 00       		.byte	0
 4930 022e 0000     		.align 4
 4931 0230 00000000 		.long	0
 4932              	
 4933              	.LLSDATT1222:
 4934              		.text
 4936              		.section	.text.unlikely
 4937              	.LCOLDE126:
 4938              		.text
 4939              	.LHOTE126:
 4940              		.section	.rodata.str1.1
 4941              	.LC127:
 4942 0092 66696C65 		.string	"file.h"
 4942      2E6800
 4943              	.LC128:
 4944 0099 6D797375 		.string	"mysuite"
 4944      69746500 
 4945              	.LC129:
 4946 00a1 6D797465 		.string	"mytest"
 4946      737400
 4947              		.section	.rodata.str1.8
 4948 03b9 00000000 		.align 8
 4948      000000
 4949              	.LC130:
 4950 03c0 556E6861 		.string	"Unhandled exception in CHECK_EQUAL(\"mytest\", reporter.lastFailedTest)"
 4950      6E646C65 
 4950      64206578 
 4950      63657074 
 4950      696F6E20 
 4951 0406 0000     		.align 8
 4952              	.LC131:
 4953 0408 556E6861 		.string	"Unhandled exception in CHECK_EQUAL(\"mysuite\", reporter.lastFailedSuite)"
 4953      6E646C65 
 4953      64206578 
 4953      63657074 
 4953      696F6E20 
 4954              		.align 8
 4955              	.LC132:
 4956 0450 556E6861 		.string	"Unhandled exception in CHECK_EQUAL(\"file.h\", reporter.lastFailedFile)"
 4956      6E646C65 
 4956      64206578 
 4956      63657074 
 4956      696F6E20 
 4957 0496 0000     		.align 8
 4958              	.LC133:
 4959 0498 556E6861 		.string	"Unhandled exception in CHECK_EQUAL(101, reporter.lastFailedLine)"
 4959      6E646C65 
 4959      64206578 
 4959      63657074 
 4959      696F6E20 
 4960              		.section	.text.unlikely
 4961              		.align 2
 4962              	.LCOLDB134:
 4963              		.text
 4964              	.LHOTB134:
 4965              		.align 2
 4966 26ba 660F1F44 		.p2align 4,,15
 4966      0000
 4968              	_ZNK12_GLOBAL__N_136TestCheckEqualFailureIncludesDetails7RunImplEv:
 4969              	.LFB1166:
 4970              		.cfi_startproc
 4971              		.cfi_personality 0x3,__gxx_personality_v0
 4972              		.cfi_lsda 0x3,.LLSDA1166
 4973 26c0 53       		pushq	%rbx
 4974              		.cfi_def_cfa_offset 16
 4975              		.cfi_offset 3, -16
 4976 26c1 4881ECB0 		subq	$2224, %rsp
 4976      080000
 4977              		.cfi_def_cfa_offset 2240
 4978 26c8 488D7424 		leaq	112(%rsp), %rsi
 4978      70
 4979 26cd 488D7C24 		leaq	16(%rsp), %rdi
 4979      10
 4980 26d2 48C74424 		movq	$_ZTV17RecordingReporter+16, 112(%rsp)
 4980      70000000 
 4980      00
 4981 26db 64488B04 		movq	%fs:40, %rax
 4981      25280000 
 4981      00
 4982 26e4 48898424 		movq	%rax, 2216(%rsp)
 4982      A8080000 
 4983 26ec 31C0     		xorl	%eax, %eax
 4984 26ee C7442478 		movl	$0, 120(%rsp)
 4984      00000000 
 4985 26f6 C784247C 		movl	$0, 636(%rsp)
 4985      02000000 
 4985      000000
 4986 2701 C7842480 		movl	$0, 896(%rsp)
 4986      03000000 
 4986      000000
 4987 270c C7842484 		movl	$0, 1668(%rsp)
 4987      06000000 
 4987      000000
 4988 2717 C7842488 		movl	$0x00000000, 2184(%rsp)
 4988      08000000 
 4988      000000
 4989 2722 C784248C 		movl	$0, 2188(%rsp)
 4989      08000000 
 4989      000000
 4990 272d C7842490 		movl	$0, 2192(%rsp)
 4990      08000000 
 4990      000000
 4991 2738 C7842494 		movl	$0, 2196(%rsp)
 4991      08000000 
 4991      000000
 4992 2743 C7842498 		movl	$0x00000000, 2200(%rsp)
 4992      08000000 
 4992      000000
 4993 274e C644247C 		movb	$0, 124(%rsp)
 4993      00
 4994 2753 C684247C 		movb	$0, 380(%rsp)
 4994      01000000 
 4995 275b C6842480 		movb	$0, 640(%rsp)
 4995      02000000 
 4996 2763 C6842484 		movb	$0, 900(%rsp)
 4996      03000000 
 4997 276b C6842484 		movb	$0, 1156(%rsp)
 4997      04000000 
 4998 2773 C6842484 		movb	$0, 1412(%rsp)
 4998      05000000 
 4999 277b C6842488 		movb	$0, 1672(%rsp)
 4999      06000000 
 5000 2783 C6842488 		movb	$0, 1928(%rsp)
 5000      07000000 
 5001              	.LEHB81:
 5002 278b E8000000 		call	_ZN8UnitTest11TestResultsC1EPNS_12TestReporterE
 5002      00
 5003 2790 488D7C24 		leaq	48(%rsp), %rdi
 5003      30
 5004 2795 41B86500 		movl	$101, %r8d
 5004      0000
 5005 279b B9000000 		movl	$.LC127, %ecx
 5005      00
 5006 27a0 BA000000 		movl	$.LC128, %edx
 5006      00
 5007 27a5 BE000000 		movl	$.LC129, %esi
 5007      00
 5008 27aa E8000000 		call	_ZN8UnitTest11TestDetailsC1EPKcS2_S2_i
 5008      00
 5009 27af 488D4C24 		leaq	48(%rsp), %rcx
 5009      30
 5010 27b4 488D5424 		leaq	80(%rsp), %rdx
 5010      50
 5011 27b9 488D7424 		leaq	12(%rsp), %rsi
 5011      0C
 5012 27be 488D7C24 		leaq	16(%rsp), %rdi
 5012      10
 5013 27c3 C7442450 		movl	$2, 80(%rsp)
 5013      02000000 
 5014 27cb C744240C 		movl	$1, 12(%rsp)
 5014      01000000 
 5015 27d3 E8000000 		call	_ZN8UnitTest10CheckEqualIiiEEvRNS_11TestResultsERKT_RKT0_RKNS_11TestDetailsE
 5015      00
 5016              	.LEHE81:
 5017              	.LEHB82:
 5018 27d8 E8000000 		call	_ZN8UnitTest11CurrentTest7DetailsEv
 5018      00
 5019 27dd 488B30   		movq	(%rax), %rsi
 5020 27e0 488D7C24 		leaq	80(%rsp), %rdi
 5020      50
 5021 27e5 BA5D0000 		movl	$93, %edx
 5021      00
 5022 27ea E8000000 		call	_ZN8UnitTest11TestDetailsC1ERKS0_i
 5022      00
 5023 27ef E8000000 		call	_ZN8UnitTest11CurrentTest7ResultsEv
 5023      00
 5024 27f4 488D5C24 		leaq	112(%rsp), %rbx
 5024      70
 5025 27f9 488B38   		movq	(%rax), %rdi
 5026 27fc 488D4C24 		leaq	80(%rsp), %rcx
 5026      50
 5027 2801 BE000000 		movl	$.LC129, %esi
 5027      00
 5028 2806 488D9314 		leaq	1044(%rbx), %rdx
 5028      040000
 5029 280d E8000000 		call	_ZN8UnitTest10CheckEqualERNS_11TestResultsEPKcPcRKNS_11TestDetailsE
 5029      00
 5030              	.LEHE82:
 5031              	.L506:
 5032              	.LEHB83:
 5033 2812 E8000000 		call	_ZN8UnitTest11CurrentTest7DetailsEv
 5033      00
 5034 2817 488B30   		movq	(%rax), %rsi
 5035 281a 488D7C24 		leaq	80(%rsp), %rdi
 5035      50
 5036 281f BA5E0000 		movl	$94, %edx
 5036      00
 5037 2824 E8000000 		call	_ZN8UnitTest11TestDetailsC1ERKS0_i
 5037      00
 5038 2829 E8000000 		call	_ZN8UnitTest11CurrentTest7ResultsEv
 5038      00
 5039 282e 488D5C24 		leaq	112(%rsp), %rbx
 5039      70
 5040 2833 488B38   		movq	(%rax), %rdi
 5041 2836 488D4C24 		leaq	80(%rsp), %rcx
 5041      50
 5042 283b BE000000 		movl	$.LC128, %esi
 5042      00
 5043 2840 488D9314 		leaq	788(%rbx), %rdx
 5043      030000
 5044 2847 E8000000 		call	_ZN8UnitTest10CheckEqualERNS_11TestResultsEPKcPcRKNS_11TestDetailsE
 5044      00
 5045              	.LEHE83:
 5046              	.L509:
 5047              	.LEHB84:
 5048 284c E8000000 		call	_ZN8UnitTest11CurrentTest7DetailsEv
 5048      00
 5049 2851 488B30   		movq	(%rax), %rsi
 5050 2854 488D7C24 		leaq	80(%rsp), %rdi
 5050      50
 5051 2859 BA5F0000 		movl	$95, %edx
 5051      00
 5052 285e E8000000 		call	_ZN8UnitTest11TestDetailsC1ERKS0_i
 5052      00
 5053 2863 E8000000 		call	_ZN8UnitTest11CurrentTest7ResultsEv
 5053      00
 5054 2868 488D5C24 		leaq	112(%rsp), %rbx
 5054      70
 5055 286d 488B38   		movq	(%rax), %rdi
 5056 2870 488D4C24 		leaq	80(%rsp), %rcx
 5056      50
 5057 2875 BE000000 		movl	$.LC127, %esi
 5057      00
 5058 287a 488D9310 		leaq	528(%rbx), %rdx
 5058      020000
 5059 2881 E8000000 		call	_ZN8UnitTest10CheckEqualERNS_11TestResultsEPKcPcRKNS_11TestDetailsE
 5059      00
 5060              	.LEHE84:
 5061              	.L512:
 5062              	.LEHB85:
 5063 2886 E8000000 		call	_ZN8UnitTest11CurrentTest7DetailsEv
 5063      00
 5064 288b 488B30   		movq	(%rax), %rsi
 5065 288e 488D7C24 		leaq	80(%rsp), %rdi
 5065      50
 5066 2893 BA600000 		movl	$96, %edx
 5066      00
 5067 2898 E8000000 		call	_ZN8UnitTest11TestDetailsC1ERKS0_i
 5067      00
 5068 289d C744240C 		movl	$101, 12(%rsp)
 5068      65000000 
 5069 28a5 E8000000 		call	_ZN8UnitTest11CurrentTest7ResultsEv
 5069      00
 5070 28aa 488D5C24 		leaq	112(%rsp), %rbx
 5070      70
 5071 28af 488B38   		movq	(%rax), %rdi
 5072 28b2 488D4C24 		leaq	80(%rsp), %rcx
 5072      50
 5073 28b7 488D7424 		leaq	12(%rsp), %rsi
 5073      0C
 5074 28bc 488D9310 		leaq	784(%rbx), %rdx
 5074      030000
 5075 28c3 E8000000 		call	_ZN8UnitTest10CheckEqualIiiEEvRNS_11TestResultsERKT_RKT0_RKNS_11TestDetailsE
 5075      00
 5076              	.LEHE85:
 5077              	.L515:
 5078 28c8 488D7C24 		leaq	112(%rsp), %rdi
 5078      70
 5079 28cd 48C74424 		movq	$_ZTV17RecordingReporter+16, 112(%rsp)
 5079      70000000 
 5079      00
 5080              	.LEHB86:
 5081 28d6 E8000000 		call	_ZN8UnitTest12TestReporterD2Ev
 5081      00
 5082              	.LEHE86:
 5083 28db 488B8424 		movq	2216(%rsp), %rax
 5083      A8080000 
 5084 28e3 64483304 		xorq	%fs:40, %rax
 5084      25280000 
 5084      00
 5085 28ec 7509     		jne	.L529
 5086 28ee 4881C4B0 		addq	$2224, %rsp
 5086      080000
 5087              		.cfi_remember_state
 5088              		.cfi_def_cfa_offset 16
 5089 28f5 5B       		popq	%rbx
 5090              		.cfi_def_cfa_offset 8
 5091 28f6 C3       		ret
 5092              	.L529:
 5093              		.cfi_restore_state
 5094 28f7 E8000000 		call	__stack_chk_fail
 5094      00
 5095              	.L524:
 5096 28fc 4889C7   		movq	%rax, %rdi
 5097 28ff E8000000 		call	__cxa_begin_catch
 5097      00
 5098              	.LEHB87:
 5099 2904 E8000000 		call	_ZN8UnitTest11CurrentTest7DetailsEv
 5099      00
 5100 2909 488B30   		movq	(%rax), %rsi
 5101 290c 488D7C24 		leaq	80(%rsp), %rdi
 5101      50
 5102 2911 BA600000 		movl	$96, %edx
 5102      00
 5103 2916 E8000000 		call	_ZN8UnitTest11TestDetailsC1ERKS0_i
 5103      00
 5104 291b E8000000 		call	_ZN8UnitTest11CurrentTest7ResultsEv
 5104      00
 5105 2920 488B38   		movq	(%rax), %rdi
 5106 2923 488D7424 		leaq	80(%rsp), %rsi
 5106      50
 5107 2928 BA000000 		movl	$.LC133, %edx
 5107      00
 5108 292d E8000000 		call	_ZN8UnitTest11TestResults13OnTestFailureERKNS_11TestDetailsEPKc
 5108      00
 5109              	.LEHE87:
 5110              	.LEHB88:
 5111 2932 E8000000 		call	__cxa_end_catch
 5111      00
 5112              	.LEHE88:
 5113 2937 EB8F     		jmp	.L515
 5114              	.L522:
 5115 2939 4889C7   		movq	%rax, %rdi
 5116 293c E8000000 		call	__cxa_begin_catch
 5116      00
 5117              	.LEHB89:
 5118 2941 E8000000 		call	_ZN8UnitTest11CurrentTest7DetailsEv
 5118      00
 5119 2946 488B30   		movq	(%rax), %rsi
 5120 2949 488D7C24 		leaq	80(%rsp), %rdi
 5120      50
 5121 294e BA5F0000 		movl	$95, %edx
 5121      00
 5122 2953 E8000000 		call	_ZN8UnitTest11TestDetailsC1ERKS0_i
 5122      00
 5123 2958 E8000000 		call	_ZN8UnitTest11CurrentTest7ResultsEv
 5123      00
 5124 295d 488B38   		movq	(%rax), %rdi
 5125 2960 488D7424 		leaq	80(%rsp), %rsi
 5125      50
 5126 2965 BA000000 		movl	$.LC132, %edx
 5126      00
 5127 296a E8000000 		call	_ZN8UnitTest11TestResults13OnTestFailureERKNS_11TestDetailsEPKc
 5127      00
 5128              	.LEHE89:
 5129              	.LEHB90:
 5130 296f E8000000 		call	__cxa_end_catch
 5130      00
 5131              	.LEHE90:
 5132 2974 E90DFFFF 		jmp	.L512
 5132      FF
 5133              	.L518:
 5134 2979 4889C7   		movq	%rax, %rdi
 5135 297c E8000000 		call	__cxa_begin_catch
 5135      00
 5136              	.LEHB91:
 5137 2981 E8000000 		call	_ZN8UnitTest11CurrentTest7DetailsEv
 5137      00
 5138 2986 488B30   		movq	(%rax), %rsi
 5139 2989 488D7C24 		leaq	80(%rsp), %rdi
 5139      50
 5140 298e BA5D0000 		movl	$93, %edx
 5140      00
 5141 2993 E8000000 		call	_ZN8UnitTest11TestDetailsC1ERKS0_i
 5141      00
 5142 2998 E8000000 		call	_ZN8UnitTest11CurrentTest7ResultsEv
 5142      00
 5143 299d 488B38   		movq	(%rax), %rdi
 5144 29a0 488D7424 		leaq	80(%rsp), %rsi
 5144      50
 5145 29a5 BA000000 		movl	$.LC130, %edx
 5145      00
 5146 29aa E8000000 		call	_ZN8UnitTest11TestResults13OnTestFailureERKNS_11TestDetailsEPKc
 5146      00
 5147              	.LEHE91:
 5148              	.LEHB92:
 5149 29af E8000000 		call	__cxa_end_catch
 5149      00
 5150              	.LEHE92:
 5151 29b4 E959FEFF 		jmp	.L506
 5151      FF
 5152              	.L520:
 5153 29b9 4889C7   		movq	%rax, %rdi
 5154 29bc E8000000 		call	__cxa_begin_catch
 5154      00
 5155              	.LEHB93:
 5156 29c1 E8000000 		call	_ZN8UnitTest11CurrentTest7DetailsEv
 5156      00
 5157 29c6 488B30   		movq	(%rax), %rsi
 5158 29c9 488D7C24 		leaq	80(%rsp), %rdi
 5158      50
 5159 29ce BA5E0000 		movl	$94, %edx
 5159      00
 5160 29d3 E8000000 		call	_ZN8UnitTest11TestDetailsC1ERKS0_i
 5160      00
 5161 29d8 E8000000 		call	_ZN8UnitTest11CurrentTest7ResultsEv
 5161      00
 5162 29dd 488B38   		movq	(%rax), %rdi
 5163 29e0 488D7424 		leaq	80(%rsp), %rsi
 5163      50
 5164 29e5 BA000000 		movl	$.LC131, %edx
 5164      00
 5165 29ea E8000000 		call	_ZN8UnitTest11TestResults13OnTestFailureERKNS_11TestDetailsEPKc
 5165      00
 5166              	.LEHE93:
 5167              	.LEHB94:
 5168 29ef E8000000 		call	__cxa_end_catch
 5168      00
 5169              	.LEHE94:
 5170 29f4 E953FEFF 		jmp	.L509
 5170      FF
 5171              	.L517:
 5172 29f9 4889C3   		movq	%rax, %rbx
 5173              	.L504:
 5174 29fc 488D7C24 		leaq	112(%rsp), %rdi
 5174      70
 5175 2a01 48C74424 		movq	$_ZTV17RecordingReporter+16, 112(%rsp)
 5175      70000000 
 5175      00
 5176 2a0a E8000000 		call	_ZN8UnitTest12TestReporterD2Ev
 5176      00
 5177 2a0f 4889DF   		movq	%rbx, %rdi
 5178              	.LEHB95:
 5179 2a12 E8000000 		call	_Unwind_Resume
 5179      00
 5180              	.LEHE95:
 5181              	.L525:
 5182 2a17 4889C3   		movq	%rax, %rbx
