   1              		.file	"TestChecks.cpp"
   2              		.section	.text.unlikely._ZN17RecordingReporter13ReportSummaryEiiif,"axG",@progbits,_ZN17RecordingR
   3              		.align 2
   4              	.LCOLDB0:
   5              		.section	.text._ZN17RecordingReporter13ReportSummaryEiiif,"axG",@progbits,_ZN17RecordingReporter13
   6              	.LHOTB0:
   7              		.align 2
   8              		.p2align 4,,15
   9              		.weak	_ZN17RecordingReporter13ReportSummaryEiiif
  11              	_ZN17RecordingReporter13ReportSummaryEiiif:
  12              	.LFB1130:
  13              		.cfi_startproc
  14 0000 89B71C08 		movl	%esi, 2076(%rdi)
  14      0000
  15 0006 89972008 		movl	%edx, 2080(%rdi)
  15      0000
  16 000c F30F1187 		movss	%xmm0, 2088(%rdi)
  16      28080000 
  17 0014 898F2408 		movl	%ecx, 2084(%rdi)
  17      0000
  18 001a C3       		ret
  19              		.cfi_endproc
  20              	.LFE1130:
  22              		.section	.text.unlikely._ZN17RecordingReporter13ReportSummaryEiiif,"axG",@progbits,_ZN17RecordingR
  23              	.LCOLDE0:
  24              		.section	.text._ZN17RecordingReporter13ReportSummaryEiiif,"axG",@progbits,_ZN17RecordingReporter13
  25              	.LHOTE0:
  26              		.section	.text.unlikely,"ax",@progbits
  27              		.align 2
  28              	.LCOLDB1:
  29              		.text
  30              	.LHOTB1:
  31              		.align 2
  32              		.p2align 4,,15
  34              	_ZN12_GLOBAL__N_143TestCheckArray2DCloseFailureIncludesDetailsD2Ev:
  35              	.LFB1333:
  36              		.cfi_startproc
  37 0000 48C70700 		movq	$_ZTVN12_GLOBAL__N_143TestCheckArray2DCloseFailureIncludesDetailsE+16, (%rdi)
  37      000000
  38 0007 E9000000 		jmp	_ZN8UnitTest4TestD2Ev
  38      00
  39              		.cfi_endproc
  40              	.LFE1333:
  42              		.section	.text.unlikely
  43              	.LCOLDE1:
  44              		.text
  45              	.LHOTE1:
  46              		.set	_ZN12_GLOBAL__N_143TestCheckArray2DCloseFailureIncludesDetailsD1Ev,_ZN12_GLOBAL__N_143TestChe
  47              		.section	.text.unlikely
  48              		.align 2
  49              	.LCOLDB2:
  50              		.text
  51              	.LHOTB2:
  52              		.align 2
  53 000c 0F1F4000 		.p2align 4,,15
  55              	_ZN12_GLOBAL__N_133TestCheckCloseWithDoublesSucceedsD2Ev:
  56              	.LFB1337:
  57              		.cfi_startproc
  58 0010 48C70700 		movq	$_ZTVN12_GLOBAL__N_133TestCheckCloseWithDoublesSucceedsE+16, (%rdi)
  58      000000
  59 0017 E9000000 		jmp	_ZN8UnitTest4TestD2Ev
  59      00
  60              		.cfi_endproc
  61              	.LFE1337:
  63              		.section	.text.unlikely
  64              	.LCOLDE2:
  65              		.text
  66              	.LHOTE2:
  67              		.set	_ZN12_GLOBAL__N_133TestCheckCloseWithDoublesSucceedsD1Ev,_ZN12_GLOBAL__N_133TestCheckCloseWit
  68              		.section	.text.unlikely
  69              		.align 2
  70              	.LCOLDB3:
  71              		.text
  72              	.LHOTB3:
  73              		.align 2
  74 001c 0F1F4000 		.p2align 4,,15
  76              	_ZN12_GLOBAL__N_126TestCheckArray2DCloseFalseD2Ev:
  77              	.LFB1341:
  78              		.cfi_startproc
  79 0020 48C70700 		movq	$_ZTVN12_GLOBAL__N_126TestCheckArray2DCloseFalseE+16, (%rdi)
  79      000000
  80 0027 E9000000 		jmp	_ZN8UnitTest4TestD2Ev
  80      00
  81              		.cfi_endproc
  82              	.LFE1341:
  84              		.section	.text.unlikely
  85              	.LCOLDE3:
  86              		.text
  87              	.LHOTE3:
  88              		.set	_ZN12_GLOBAL__N_126TestCheckArray2DCloseFalseD1Ev,_ZN12_GLOBAL__N_126TestCheckArray2DCloseFal
  89              		.section	.text.unlikely
  90              		.align 2
  91              	.LCOLDB4:
  92              		.text
  93              	.LHOTB4:
  94              		.align 2
  95 002c 0F1F4000 		.p2align 4,,15
  97              	_ZN12_GLOBAL__N_125TestCheckArray2DCloseTrueD2Ev:
  98              	.LFB1345:
  99              		.cfi_startproc
 100 0030 48C70700 		movq	$_ZTVN12_GLOBAL__N_125TestCheckArray2DCloseTrueE+16, (%rdi)
 100      000000
 101 0037 E9000000 		jmp	_ZN8UnitTest4TestD2Ev
 101      00
 102              		.cfi_endproc
 103              	.LFE1345:
 105              		.section	.text.unlikely
 106              	.LCOLDE4:
 107              		.text
 108              	.LHOTE4:
 109              		.set	_ZN12_GLOBAL__N_125TestCheckArray2DCloseTrueD1Ev,_ZN12_GLOBAL__N_125TestCheckArray2DCloseTrue
 110              		.section	.text.unlikely
 111              		.align 2
 112              	.LCOLDB5:
 113              		.text
 114              	.LHOTB5:
 115              		.align 2
 116 003c 0F1F4000 		.p2align 4,,15
 118              	_ZN12_GLOBAL__N_141TestCheckArrayCloseFailureIncludesDetailsD2Ev:
 119              	.LFB1349:
 120              		.cfi_startproc
 121 0040 48C70700 		movq	$_ZTVN12_GLOBAL__N_141TestCheckArrayCloseFailureIncludesDetailsE+16, (%rdi)
 121      000000
 122 0047 E9000000 		jmp	_ZN8UnitTest4TestD2Ev
 122      00
 123              		.cfi_endproc
 124              	.LFE1349:
 126              		.section	.text.unlikely
 127              	.LCOLDE5:
 128              		.text
 129              	.LHOTE5:
 130              		.set	_ZN12_GLOBAL__N_141TestCheckArrayCloseFailureIncludesDetailsD1Ev,_ZN12_GLOBAL__N_141TestCheck
 131              		.section	.text.unlikely
 132              		.align 2
 133              	.LCOLDB6:
 134              		.text
 135              	.LHOTB6:
 136              		.align 2
 137 004c 0F1F4000 		.p2align 4,,15
 139              	_ZN12_GLOBAL__N_124TestCheckArrayCloseFalseD2Ev:
 140              	.LFB1353:
 141              		.cfi_startproc
 142 0050 48C70700 		movq	$_ZTVN12_GLOBAL__N_124TestCheckArrayCloseFalseE+16, (%rdi)
 142      000000
 143 0057 E9000000 		jmp	_ZN8UnitTest4TestD2Ev
 143      00
 144              		.cfi_endproc
 145              	.LFE1353:
 147              		.section	.text.unlikely
 148              	.LCOLDE6:
 149              		.text
 150              	.LHOTE6:
 151              		.set	_ZN12_GLOBAL__N_124TestCheckArrayCloseFalseD1Ev,_ZN12_GLOBAL__N_124TestCheckArrayCloseFalseD2
 152              		.section	.text.unlikely
 153              		.align 2
 154              	.LCOLDB7:
 155              		.text
 156              	.LHOTB7:
 157              		.align 2
 158 005c 0F1F4000 		.p2align 4,,15
 160              	_ZN12_GLOBAL__N_123TestCheckArrayCloseTrueD2Ev:
 161              	.LFB1357:
 162              		.cfi_startproc
 163 0060 48C70700 		movq	$_ZTVN12_GLOBAL__N_123TestCheckArrayCloseTrueE+16, (%rdi)
 163      000000
 164 0067 E9000000 		jmp	_ZN8UnitTest4TestD2Ev
 164      00
 165              		.cfi_endproc
 166              	.LFE1357:
 168              		.section	.text.unlikely
 169              	.LCOLDE7:
 170              		.text
 171              	.LHOTE7:
 172              		.set	_ZN12_GLOBAL__N_123TestCheckArrayCloseTrueD1Ev,_ZN12_GLOBAL__N_123TestCheckArrayCloseTrueD2Ev
 173              		.section	.text.unlikely
 174              		.align 2
 175              	.LCOLDB8:
 176              		.text
 177              	.LHOTB8:
 178              		.align 2
 179 006c 0F1F4000 		.p2align 4,,15
 181              	_ZN12_GLOBAL__N_124TestCheckArrayEqualFalseD2Ev:
 182              	.LFB1361:
 183              		.cfi_startproc
 184 0070 48C70700 		movq	$_ZTVN12_GLOBAL__N_124TestCheckArrayEqualFalseE+16, (%rdi)
 184      000000
 185 0077 E9000000 		jmp	_ZN8UnitTest4TestD2Ev
 185      00
 186              		.cfi_endproc
 187              	.LFE1361:
 189              		.section	.text.unlikely
 190              	.LCOLDE8:
 191              		.text
 192              	.LHOTE8:
 193              		.set	_ZN12_GLOBAL__N_124TestCheckArrayEqualFalseD1Ev,_ZN12_GLOBAL__N_124TestCheckArrayEqualFalseD2
 194              		.section	.text.unlikely
 195              		.align 2
 196              	.LCOLDB9:
 197              		.text
 198              	.LHOTB9:
 199              		.align 2
 200 007c 0F1F4000 		.p2align 4,,15
 202              	_ZN12_GLOBAL__N_123TestCheckArrayEqualTrueD2Ev:
 203              	.LFB1365:
 204              		.cfi_startproc
 205 0080 48C70700 		movq	$_ZTVN12_GLOBAL__N_123TestCheckArrayEqualTrueE+16, (%rdi)
 205      000000
 206 0087 E9000000 		jmp	_ZN8UnitTest4TestD2Ev
 206      00
 207              		.cfi_endproc
 208              	.LFE1365:
 210              		.section	.text.unlikely
 211              	.LCOLDE9:
 212              		.text
 213              	.LHOTE9:
 214              		.set	_ZN12_GLOBAL__N_123TestCheckArrayEqualTrueD1Ev,_ZN12_GLOBAL__N_123TestCheckArrayEqualTrueD2Ev
 215              		.section	.text.unlikely
 216              		.align 2
 217              	.LCOLDB10:
 218              		.text
 219              	.LHOTB10:
 220              		.align 2
 221 008c 0F1F4000 		.p2align 4,,15
 223              	_ZN12_GLOBAL__N_136TestCheckCloseFailureIncludesDetailsD2Ev:
 224              	.LFB1369:
 225              		.cfi_startproc
 226 0090 48C70700 		movq	$_ZTVN12_GLOBAL__N_136TestCheckCloseFailureIncludesDetailsE+16, (%rdi)
 226      000000
 227 0097 E9000000 		jmp	_ZN8UnitTest4TestD2Ev
 227      00
 228              		.cfi_endproc
 229              	.LFE1369:
 231              		.section	.text.unlikely
 232              	.LCOLDE10:
 233              		.text
 234              	.LHOTE10:
 235              		.set	_ZN12_GLOBAL__N_136TestCheckCloseFailureIncludesDetailsD1Ev,_ZN12_GLOBAL__N_136TestCheckClose
 236              		.section	.text.unlikely
 237              		.align 2
 238              	.LCOLDB11:
 239              		.text
 240              	.LHOTB11:
 241              		.align 2
 242 009c 0F1F4000 		.p2align 4,,15
 244              	_ZN12_GLOBAL__N_138TestCheckCloseFailureIncludesToleranceD2Ev:
 245              	.LFB1373:
 246              		.cfi_startproc
 247 00a0 48C70700 		movq	$_ZTVN12_GLOBAL__N_138TestCheckCloseFailureIncludesToleranceE+16, (%rdi)
 247      000000
 248 00a7 E9000000 		jmp	_ZN8UnitTest4TestD2Ev
 248      00
 249              		.cfi_endproc
 250              	.LFE1373:
 252              		.section	.text.unlikely
 253              	.LCOLDE11:
 254              		.text
 255              	.LHOTE11:
 256              		.set	_ZN12_GLOBAL__N_138TestCheckCloseFailureIncludesToleranceD1Ev,_ZN12_GLOBAL__N_138TestCheckClo
 257              		.section	.text.unlikely
 258              		.align 2
 259              	.LCOLDB12:
 260              		.text
 261              	.LHOTB12:
 262              		.align 2
 263 00ac 0F1F4000 		.p2align 4,,15
 265              	_ZN12_GLOBAL__N_151TestCheckCloseFailureIncludesCheckExpectedAndActualD2Ev:
 266              	.LFB1377:
 267              		.cfi_startproc
 268 00b0 48C70700 		movq	$_ZTVN12_GLOBAL__N_151TestCheckCloseFailureIncludesCheckExpectedAndActualE+16, (%rdi)
 268      000000
 269 00b7 E9000000 		jmp	_ZN8UnitTest4TestD2Ev
 269      00
 270              		.cfi_endproc
 271              	.LFE1377:
 273              		.section	.text.unlikely
 274              	.LCOLDE12:
 275              		.text
 276              	.LHOTE12:
 277              		.set	_ZN12_GLOBAL__N_151TestCheckCloseFailureIncludesCheckExpectedAndActualD1Ev,_ZN12_GLOBAL__N_15
 278              		.section	.text.unlikely
 279              		.align 2
 280              	.LCOLDB13:
 281              		.text
 282              	.LHOTB13:
 283              		.align 2
 284 00bc 0F1F4000 		.p2align 4,,15
 286              	_ZN12_GLOBAL__N_139TestCheckCloseWithNaNAgainstItselfFailsD2Ev:
 287              	.LFB1381:
 288              		.cfi_startproc
 289 00c0 48C70700 		movq	$_ZTVN12_GLOBAL__N_139TestCheckCloseWithNaNAgainstItselfFailsE+16, (%rdi)
 289      000000
 290 00c7 E9000000 		jmp	_ZN8UnitTest4TestD2Ev
 290      00
 291              		.cfi_endproc
 292              	.LFE1381:
 294              		.section	.text.unlikely
 295              	.LCOLDE13:
 296              		.text
 297              	.LHOTE13:
 298              		.set	_ZN12_GLOBAL__N_139TestCheckCloseWithNaNAgainstItselfFailsD1Ev,_ZN12_GLOBAL__N_139TestCheckCl
 299              		.section	.text.unlikely
 300              		.align 2
 301              	.LCOLDB14:
 302              		.text
 303              	.LHOTB14:
 304              		.align 2
 305 00cc 0F1F4000 		.p2align 4,,15
 307              	_ZN12_GLOBAL__N_126TestCheckCloseWithNaNFailsD2Ev:
 308              	.LFB1385:
 309              		.cfi_startproc
 310 00d0 48C70700 		movq	$_ZTVN12_GLOBAL__N_126TestCheckCloseWithNaNFailsE+16, (%rdi)
 310      000000
 311 00d7 E9000000 		jmp	_ZN8UnitTest4TestD2Ev
 311      00
 312              		.cfi_endproc
 313              	.LFE1385:
 315              		.section	.text.unlikely
 316              	.LCOLDE14:
 317              		.text
 318              	.LHOTE14:
 319              		.set	_ZN12_GLOBAL__N_126TestCheckCloseWithNaNFailsD1Ev,_ZN12_GLOBAL__N_126TestCheckCloseWithNaNFai
 320              		.section	.text.unlikely
 321              		.align 2
 322              	.LCOLDB15:
 323              		.text
 324              	.LHOTB15:
 325              		.align 2
 326 00dc 0F1F4000 		.p2align 4,,15
 328              	_ZN12_GLOBAL__N_147TestCheckCloseWithZeroEpsilonWorksForSameNumberD2Ev:
 329              	.LFB1389:
 330              		.cfi_startproc
 331 00e0 48C70700 		movq	$_ZTVN12_GLOBAL__N_147TestCheckCloseWithZeroEpsilonWorksForSameNumberE+16, (%rdi)
 331      000000
 332 00e7 E9000000 		jmp	_ZN8UnitTest4TestD2Ev
 332      00
 333              		.cfi_endproc
 334              	.LFE1389:
 336              		.section	.text.unlikely
 337              	.LCOLDE15:
 338              		.text
 339              	.LHOTE15:
 340              		.set	_ZN12_GLOBAL__N_147TestCheckCloseWithZeroEpsilonWorksForSameNumberD1Ev,_ZN12_GLOBAL__N_147Tes
 341              		.section	.text.unlikely
 342              		.align 2
 343              	.LCOLDB16:
 344              		.text
 345              	.LHOTB16:
 346              		.align 2
 347 00ec 0F1F4000 		.p2align 4,,15
 349              	_ZN12_GLOBAL__N_119TestCheckCloseFalseD2Ev:
 350              	.LFB1393:
 351              		.cfi_startproc
 352 00f0 48C70700 		movq	$_ZTVN12_GLOBAL__N_119TestCheckCloseFalseE+16, (%rdi)
 352      000000
 353 00f7 E9000000 		jmp	_ZN8UnitTest4TestD2Ev
 353      00
 354              		.cfi_endproc
 355              	.LFE1393:
 357              		.section	.text.unlikely
 358              	.LCOLDE16:
 359              		.text
 360              	.LHOTE16:
 361              		.set	_ZN12_GLOBAL__N_119TestCheckCloseFalseD1Ev,_ZN12_GLOBAL__N_119TestCheckCloseFalseD2Ev
 362              		.section	.text.unlikely
 363              		.align 2
 364              	.LCOLDB17:
 365              		.text
 366              	.LHOTB17:
 367              		.align 2
 368 00fc 0F1F4000 		.p2align 4,,15
 370              	_ZN12_GLOBAL__N_118TestCheckCloseTrueD2Ev:
 371              	.LFB1397:
 372              		.cfi_startproc
 373 0100 48C70700 		movq	$_ZTVN12_GLOBAL__N_118TestCheckCloseTrueE+16, (%rdi)
 373      000000
 374 0107 E9000000 		jmp	_ZN8UnitTest4TestD2Ev
 374      00
 375              		.cfi_endproc
 376              	.LFE1397:
 378              		.section	.text.unlikely
 379              	.LCOLDE17:
 380              		.text
 381              	.LHOTE17:
 382              		.set	_ZN12_GLOBAL__N_118TestCheckCloseTrueD1Ev,_ZN12_GLOBAL__N_118TestCheckCloseTrueD2Ev
 383              		.section	.text.unlikely
 384              		.align 2
 385              	.LCOLDB18:
 386              		.text
 387              	.LHOTB18:
 388              		.align 2
 389 010c 0F1F4000 		.p2align 4,,15
 391              	_ZN12_GLOBAL__N_136TestCheckEqualFailureIncludesDetailsD2Ev:
 392              	.LFB1401:
 393              		.cfi_startproc
 394 0110 48C70700 		movq	$_ZTVN12_GLOBAL__N_136TestCheckEqualFailureIncludesDetailsE+16, (%rdi)
 394      000000
 395 0117 E9000000 		jmp	_ZN8UnitTest4TestD2Ev
 395      00
 396              		.cfi_endproc
 397              	.LFE1401:
 399              		.section	.text.unlikely
 400              	.LCOLDE18:
 401              		.text
 402              	.LHOTE18:
 403              		.set	_ZN12_GLOBAL__N_136TestCheckEqualFailureIncludesDetailsD1Ev,_ZN12_GLOBAL__N_136TestCheckEqual
 404              		.section	.text.unlikely
 405              		.align 2
 406              	.LCOLDB19:
 407              		.text
 408              	.LHOTB19:
 409              		.align 2
 410 011c 0F1F4000 		.p2align 4,,15
 412              	_ZN12_GLOBAL__N_151TestCheckEqualFailureIncludesCheckExpectedAndActualD2Ev:
 413              	.LFB1405:
 414              		.cfi_startproc
 415 0120 48C70700 		movq	$_ZTVN12_GLOBAL__N_151TestCheckEqualFailureIncludesCheckExpectedAndActualE+16, (%rdi)
 415      000000
 416 0127 E9000000 		jmp	_ZN8UnitTest4TestD2Ev
 416      00
 417              		.cfi_endproc
 418              	.LFE1405:
 420              		.section	.text.unlikely
 421              	.LCOLDE19:
 422              		.text
 423              	.LHOTE19:
 424              		.set	_ZN12_GLOBAL__N_151TestCheckEqualFailureIncludesCheckExpectedAndActualD1Ev,_ZN12_GLOBAL__N_15
 425              		.section	.text.unlikely
 426              		.align 2
 427              	.LCOLDB20:
 428              		.text
 429              	.LHOTB20:
 430              		.align 2
 431 012c 0F1F4000 		.p2align 4,,15
 433              	_ZN12_GLOBAL__N_153TestCheckEqualsWithStringsWorksOnContentsWithALiteralD2Ev:
 434              	.LFB1409:
 435              		.cfi_startproc
 436 0130 48C70700 		movq	$_ZTVN12_GLOBAL__N_153TestCheckEqualsWithStringsWorksOnContentsWithALiteralE+16, (%rdi)
 436      000000
 437 0137 E9000000 		jmp	_ZN8UnitTest4TestD2Ev
 437      00
 438              		.cfi_endproc
 439              	.LFE1409:
 441              		.section	.text.unlikely
 442              	.LCOLDE20:
 443              		.text
 444              	.LHOTE20:
 445              		.set	_ZN12_GLOBAL__N_153TestCheckEqualsWithStringsWorksOnContentsWithALiteralD1Ev,_ZN12_GLOBAL__N_
 446              		.section	.text.unlikely
 447              		.align 2
 448              	.LCOLDB21:
 449              		.text
 450              	.LHOTB21:
 451              		.align 2
 452 013c 0F1F4000 		.p2align 4,,15
 454              	_ZN12_GLOBAL__N_154TestCheckEqualsWithStringsWorksOnContentsConstNonConstD2Ev:
 455              	.LFB1413:
 456              		.cfi_startproc
 457 0140 48C70700 		movq	$_ZTVN12_GLOBAL__N_154TestCheckEqualsWithStringsWorksOnContentsConstNonConstE+16, (%rdi)
 457      000000
 458 0147 E9000000 		jmp	_ZN8UnitTest4TestD2Ev
 458      00
 459              		.cfi_endproc
 460              	.LFE1413:
 462              		.section	.text.unlikely
 463              	.LCOLDE21:
 464              		.text
 465              	.LHOTE21:
 466              		.set	_ZN12_GLOBAL__N_154TestCheckEqualsWithStringsWorksOnContentsConstNonConstD1Ev,_ZN12_GLOBAL__N
 467              		.section	.text.unlikely
 468              		.align 2
 469              	.LCOLDB22:
 470              		.text
 471              	.LHOTB22:
 472              		.align 2
 473 014c 0F1F4000 		.p2align 4,,15
 475              	_ZN12_GLOBAL__N_154TestCheckEqualsWithStringsWorksOnContentsNonConstConstD2Ev:
 476              	.LFB1417:
 477              		.cfi_startproc
 478 0150 48C70700 		movq	$_ZTVN12_GLOBAL__N_154TestCheckEqualsWithStringsWorksOnContentsNonConstConstE+16, (%rdi)
 478      000000
 479 0157 E9000000 		jmp	_ZN8UnitTest4TestD2Ev
 479      00
 480              		.cfi_endproc
 481              	.LFE1417:
 483              		.section	.text.unlikely
 484              	.LCOLDE22:
 485              		.text
 486              	.LHOTE22:
 487              		.set	_ZN12_GLOBAL__N_154TestCheckEqualsWithStringsWorksOnContentsNonConstConstD1Ev,_ZN12_GLOBAL__N
 488              		.section	.text.unlikely
 489              		.align 2
 490              	.LCOLDB23:
 491              		.text
 492              	.LHOTB23:
 493              		.align 2
 494 015c 0F1F4000 		.p2align 4,,15
 496              	_ZN12_GLOBAL__N_151TestCheckEqualsWithStringsWorksOnContentsConstConstD2Ev:
 497              	.LFB1421:
 498              		.cfi_startproc
 499 0160 48C70700 		movq	$_ZTVN12_GLOBAL__N_151TestCheckEqualsWithStringsWorksOnContentsConstConstE+16, (%rdi)
 499      000000
 500 0167 E9000000 		jmp	_ZN8UnitTest4TestD2Ev
 500      00
 501              		.cfi_endproc
 502              	.LFE1421:
 504              		.section	.text.unlikely
 505              	.LCOLDE23:
 506              		.text
 507              	.LHOTE23:
 508              		.set	_ZN12_GLOBAL__N_151TestCheckEqualsWithStringsWorksOnContentsConstConstD1Ev,_ZN12_GLOBAL__N_15
 509              		.section	.text.unlikely
 510              		.align 2
 511              	.LCOLDB24:
 512              		.text
 513              	.LHOTB24:
 514              		.align 2
 515 016c 0F1F4000 		.p2align 4,,15
 517              	_ZN12_GLOBAL__N_157TestCheckEqualsWithStringsWorksOnContentsNonConstNonConstD2Ev:
 518              	.LFB1425:
 519              		.cfi_startproc
 520 0170 48C70700 		movq	$_ZTVN12_GLOBAL__N_157TestCheckEqualsWithStringsWorksOnContentsNonConstNonConstE+16, (%rdi)
 520      000000
 521 0177 E9000000 		jmp	_ZN8UnitTest4TestD2Ev
 521      00
 522              		.cfi_endproc
 523              	.LFE1425:
 525              		.section	.text.unlikely
 526              	.LCOLDE24:
 527              		.text
 528              	.LHOTE24:
 529              		.set	_ZN12_GLOBAL__N_157TestCheckEqualsWithStringsWorksOnContentsNonConstNonConstD1Ev,_ZN12_GLOBAL
 530              		.section	.text.unlikely
 531              		.align 2
 532              	.LCOLDB25:
 533              		.text
 534              	.LHOTB25:
 535              		.align 2
 536 017c 0F1F4000 		.p2align 4,,15
 538              	_ZN12_GLOBAL__N_149TestCheckEqualsWithStringsFailsOnDifferentStringsD2Ev:
 539              	.LFB1429:
 540              		.cfi_startproc
 541 0180 48C70700 		movq	$_ZTVN12_GLOBAL__N_149TestCheckEqualsWithStringsFailsOnDifferentStringsE+16, (%rdi)
 541      000000
 542 0187 E9000000 		jmp	_ZN8UnitTest4TestD2Ev
 542      00
 543              		.cfi_endproc
 544              	.LFE1429:
 546              		.section	.text.unlikely
 547              	.LCOLDE25:
 548              		.text
 549              	.LHOTE25:
 550              		.set	_ZN12_GLOBAL__N_149TestCheckEqualsWithStringsFailsOnDifferentStringsD1Ev,_ZN12_GLOBAL__N_149T
 551              		.section	.text.unlikely
 552              		.align 2
 553              	.LCOLDB26:
 554              		.text
 555              	.LHOTB26:
 556              		.align 2
 557 018c 0F1F4000 		.p2align 4,,15
 559              	_ZN12_GLOBAL__N_130TestCheckEqualWithUnsignedLongD2Ev:
 560              	.LFB1433:
 561              		.cfi_startproc
 562 0190 48C70700 		movq	$_ZTVN12_GLOBAL__N_130TestCheckEqualWithUnsignedLongE+16, (%rdi)
 562      000000
 563 0197 E9000000 		jmp	_ZN8UnitTest4TestD2Ev
 563      00
 564              		.cfi_endproc
 565              	.LFE1433:
 567              		.section	.text.unlikely
 568              	.LCOLDE26:
 569              		.text
 570              	.LHOTE26:
 571              		.set	_ZN12_GLOBAL__N_130TestCheckEqualWithUnsignedLongD1Ev,_ZN12_GLOBAL__N_130TestCheckEqualWithUn
 572              		.section	.text.unlikely
 573              		.align 2
 574              	.LCOLDB27:
 575              		.text
 576              	.LHOTB27:
 577              		.align 2
 578 019c 0F1F4000 		.p2align 4,,15
 580              	_ZN12_GLOBAL__N_143TestCheckArray2DCloseFailureIncludesDetailsD0Ev:
 581              	.LFB1335:
 582              		.cfi_startproc
 583 01a0 53       		pushq	%rbx
 584              		.cfi_def_cfa_offset 16
 585              		.cfi_offset 3, -16
 586 01a1 4889FB   		movq	%rdi, %rbx
 587 01a4 48C70700 		movq	$_ZTVN12_GLOBAL__N_143TestCheckArray2DCloseFailureIncludesDetailsE+16, (%rdi)
 587      000000
 588 01ab E8000000 		call	_ZN8UnitTest4TestD2Ev
 588      00
 589 01b0 4889DF   		movq	%rbx, %rdi
 590 01b3 5B       		popq	%rbx
 591              		.cfi_def_cfa_offset 8
 592 01b4 E9000000 		jmp	_ZdlPv
 592      00
 593              		.cfi_endproc
 594              	.LFE1335:
 596              		.section	.text.unlikely
 597              	.LCOLDE27:
 598              		.text
 599              	.LHOTE27:
 600              		.section	.text.unlikely
 601              		.align 2
 602              	.LCOLDB28:
 603              		.text
 604              	.LHOTB28:
 605 01b9 90       		.align 2
 606 01ba 660F1F44 		.p2align 4,,15
 606      0000
 608              	_ZN12_GLOBAL__N_133TestCheckCloseWithDoublesSucceedsD0Ev:
 609              	.LFB1339:
 610              		.cfi_startproc
 611 01c0 53       		pushq	%rbx
 612              		.cfi_def_cfa_offset 16
 613              		.cfi_offset 3, -16
 614 01c1 4889FB   		movq	%rdi, %rbx
 615 01c4 48C70700 		movq	$_ZTVN12_GLOBAL__N_133TestCheckCloseWithDoublesSucceedsE+16, (%rdi)
 615      000000
 616 01cb E8000000 		call	_ZN8UnitTest4TestD2Ev
 616      00
 617 01d0 4889DF   		movq	%rbx, %rdi
 618 01d3 5B       		popq	%rbx
 619              		.cfi_def_cfa_offset 8
 620 01d4 E9000000 		jmp	_ZdlPv
 620      00
 621              		.cfi_endproc
 622              	.LFE1339:
 624              		.section	.text.unlikely
 625              	.LCOLDE28:
 626              		.text
 627              	.LHOTE28:
 628              		.section	.text.unlikely
 629              		.align 2
 630              	.LCOLDB29:
 631              		.text
 632              	.LHOTB29:
 633 01d9 90       		.align 2
 634 01da 660F1F44 		.p2align 4,,15
 634      0000
 636              	_ZN12_GLOBAL__N_126TestCheckArray2DCloseFalseD0Ev:
 637              	.LFB1343:
 638              		.cfi_startproc
 639 01e0 53       		pushq	%rbx
 640              		.cfi_def_cfa_offset 16
 641              		.cfi_offset 3, -16
 642 01e1 4889FB   		movq	%rdi, %rbx
 643 01e4 48C70700 		movq	$_ZTVN12_GLOBAL__N_126TestCheckArray2DCloseFalseE+16, (%rdi)
 643      000000
 644 01eb E8000000 		call	_ZN8UnitTest4TestD2Ev
 644      00
 645 01f0 4889DF   		movq	%rbx, %rdi
 646 01f3 5B       		popq	%rbx
 647              		.cfi_def_cfa_offset 8
 648 01f4 E9000000 		jmp	_ZdlPv
 648      00
 649              		.cfi_endproc
 650              	.LFE1343:
 652              		.section	.text.unlikely
 653              	.LCOLDE29:
 654              		.text
 655              	.LHOTE29:
 656              		.section	.text.unlikely
 657              		.align 2
 658              	.LCOLDB30:
 659              		.text
 660              	.LHOTB30:
 661 01f9 90       		.align 2
 662 01fa 660F1F44 		.p2align 4,,15
 662      0000
 664              	_ZN12_GLOBAL__N_125TestCheckArray2DCloseTrueD0Ev:
 665              	.LFB1347:
 666              		.cfi_startproc
 667 0200 53       		pushq	%rbx
 668              		.cfi_def_cfa_offset 16
 669              		.cfi_offset 3, -16
 670 0201 4889FB   		movq	%rdi, %rbx
 671 0204 48C70700 		movq	$_ZTVN12_GLOBAL__N_125TestCheckArray2DCloseTrueE+16, (%rdi)
 671      000000
 672 020b E8000000 		call	_ZN8UnitTest4TestD2Ev
 672      00
 673 0210 4889DF   		movq	%rbx, %rdi
 674 0213 5B       		popq	%rbx
 675              		.cfi_def_cfa_offset 8
 676 0214 E9000000 		jmp	_ZdlPv
 676      00
 677              		.cfi_endproc
 678              	.LFE1347:
 680              		.section	.text.unlikely
 681              	.LCOLDE30:
 682              		.text
 683              	.LHOTE30:
 684              		.section	.text.unlikely
 685              		.align 2
 686              	.LCOLDB31:
 687              		.text
 688              	.LHOTB31:
 689 0219 90       		.align 2
 690 021a 660F1F44 		.p2align 4,,15
 690      0000
 692              	_ZN12_GLOBAL__N_141TestCheckArrayCloseFailureIncludesDetailsD0Ev:
 693              	.LFB1351:
 694              		.cfi_startproc
 695 0220 53       		pushq	%rbx
 696              		.cfi_def_cfa_offset 16
 697              		.cfi_offset 3, -16
 698 0221 4889FB   		movq	%rdi, %rbx
 699 0224 48C70700 		movq	$_ZTVN12_GLOBAL__N_141TestCheckArrayCloseFailureIncludesDetailsE+16, (%rdi)
 699      000000
 700 022b E8000000 		call	_ZN8UnitTest4TestD2Ev
 700      00
 701 0230 4889DF   		movq	%rbx, %rdi
 702 0233 5B       		popq	%rbx
 703              		.cfi_def_cfa_offset 8
 704 0234 E9000000 		jmp	_ZdlPv
 704      00
 705              		.cfi_endproc
 706              	.LFE1351:
 708              		.section	.text.unlikely
 709              	.LCOLDE31:
 710              		.text
 711              	.LHOTE31:
 712              		.section	.text.unlikely
 713              		.align 2
 714              	.LCOLDB32:
 715              		.text
 716              	.LHOTB32:
 717 0239 90       		.align 2
 718 023a 660F1F44 		.p2align 4,,15
 718      0000
 720              	_ZN12_GLOBAL__N_124TestCheckArrayCloseFalseD0Ev:
 721              	.LFB1355:
 722              		.cfi_startproc
 723 0240 53       		pushq	%rbx
 724              		.cfi_def_cfa_offset 16
 725              		.cfi_offset 3, -16
 726 0241 4889FB   		movq	%rdi, %rbx
 727 0244 48C70700 		movq	$_ZTVN12_GLOBAL__N_124TestCheckArrayCloseFalseE+16, (%rdi)
 727      000000
 728 024b E8000000 		call	_ZN8UnitTest4TestD2Ev
 728      00
 729 0250 4889DF   		movq	%rbx, %rdi
 730 0253 5B       		popq	%rbx
 731              		.cfi_def_cfa_offset 8
 732 0254 E9000000 		jmp	_ZdlPv
 732      00
 733              		.cfi_endproc
 734              	.LFE1355:
 736              		.section	.text.unlikely
 737              	.LCOLDE32:
 738              		.text
 739              	.LHOTE32:
 740              		.section	.text.unlikely
 741              		.align 2
 742              	.LCOLDB33:
 743              		.text
 744              	.LHOTB33:
 745 0259 90       		.align 2
 746 025a 660F1F44 		.p2align 4,,15
 746      0000
 748              	_ZN12_GLOBAL__N_123TestCheckArrayCloseTrueD0Ev:
 749              	.LFB1359:
 750              		.cfi_startproc
 751 0260 53       		pushq	%rbx
 752              		.cfi_def_cfa_offset 16
 753              		.cfi_offset 3, -16
 754 0261 4889FB   		movq	%rdi, %rbx
 755 0264 48C70700 		movq	$_ZTVN12_GLOBAL__N_123TestCheckArrayCloseTrueE+16, (%rdi)
 755      000000
 756 026b E8000000 		call	_ZN8UnitTest4TestD2Ev
 756      00
 757 0270 4889DF   		movq	%rbx, %rdi
 758 0273 5B       		popq	%rbx
 759              		.cfi_def_cfa_offset 8
 760 0274 E9000000 		jmp	_ZdlPv
 760      00
 761              		.cfi_endproc
 762              	.LFE1359:
 764              		.section	.text.unlikely
 765              	.LCOLDE33:
 766              		.text
 767              	.LHOTE33:
 768              		.section	.text.unlikely
 769              		.align 2
 770              	.LCOLDB34:
 771              		.text
 772              	.LHOTB34:
 773 0279 90       		.align 2
 774 027a 660F1F44 		.p2align 4,,15
 774      0000
 776              	_ZN12_GLOBAL__N_124TestCheckArrayEqualFalseD0Ev:
 777              	.LFB1363:
 778              		.cfi_startproc
 779 0280 53       		pushq	%rbx
 780              		.cfi_def_cfa_offset 16
 781              		.cfi_offset 3, -16
 782 0281 4889FB   		movq	%rdi, %rbx
 783 0284 48C70700 		movq	$_ZTVN12_GLOBAL__N_124TestCheckArrayEqualFalseE+16, (%rdi)
 783      000000
 784 028b E8000000 		call	_ZN8UnitTest4TestD2Ev
 784      00
 785 0290 4889DF   		movq	%rbx, %rdi
 786 0293 5B       		popq	%rbx
 787              		.cfi_def_cfa_offset 8
 788 0294 E9000000 		jmp	_ZdlPv
 788      00
 789              		.cfi_endproc
 790              	.LFE1363:
 792              		.section	.text.unlikely
 793              	.LCOLDE34:
 794              		.text
 795              	.LHOTE34:
 796              		.section	.text.unlikely
 797              		.align 2
 798              	.LCOLDB35:
 799              		.text
 800              	.LHOTB35:
 801 0299 90       		.align 2
 802 029a 660F1F44 		.p2align 4,,15
 802      0000
 804              	_ZN12_GLOBAL__N_123TestCheckArrayEqualTrueD0Ev:
 805              	.LFB1367:
 806              		.cfi_startproc
 807 02a0 53       		pushq	%rbx
 808              		.cfi_def_cfa_offset 16
 809              		.cfi_offset 3, -16
 810 02a1 4889FB   		movq	%rdi, %rbx
 811 02a4 48C70700 		movq	$_ZTVN12_GLOBAL__N_123TestCheckArrayEqualTrueE+16, (%rdi)
 811      000000
 812 02ab E8000000 		call	_ZN8UnitTest4TestD2Ev
 812      00
 813 02b0 4889DF   		movq	%rbx, %rdi
 814 02b3 5B       		popq	%rbx
 815              		.cfi_def_cfa_offset 8
 816 02b4 E9000000 		jmp	_ZdlPv
 816      00
 817              		.cfi_endproc
 818              	.LFE1367:
 820              		.section	.text.unlikely
 821              	.LCOLDE35:
 822              		.text
 823              	.LHOTE35:
 824              		.section	.text.unlikely
 825              		.align 2
 826              	.LCOLDB36:
 827              		.text
 828              	.LHOTB36:
 829 02b9 90       		.align 2
 830 02ba 660F1F44 		.p2align 4,,15
 830      0000
 832              	_ZN12_GLOBAL__N_136TestCheckCloseFailureIncludesDetailsD0Ev:
 833              	.LFB1371:
 834              		.cfi_startproc
 835 02c0 53       		pushq	%rbx
 836              		.cfi_def_cfa_offset 16
 837              		.cfi_offset 3, -16
 838 02c1 4889FB   		movq	%rdi, %rbx
 839 02c4 48C70700 		movq	$_ZTVN12_GLOBAL__N_136TestCheckCloseFailureIncludesDetailsE+16, (%rdi)
 839      000000
 840 02cb E8000000 		call	_ZN8UnitTest4TestD2Ev
 840      00
 841 02d0 4889DF   		movq	%rbx, %rdi
 842 02d3 5B       		popq	%rbx
 843              		.cfi_def_cfa_offset 8
 844 02d4 E9000000 		jmp	_ZdlPv
 844      00
 845              		.cfi_endproc
 846              	.LFE1371:
 848              		.section	.text.unlikely
 849              	.LCOLDE36:
 850              		.text
 851              	.LHOTE36:
 852              		.section	.text.unlikely
 853              		.align 2
 854              	.LCOLDB37:
 855              		.text
 856              	.LHOTB37:
 857 02d9 90       		.align 2
 858 02da 660F1F44 		.p2align 4,,15
 858      0000
 860              	_ZN12_GLOBAL__N_138TestCheckCloseFailureIncludesToleranceD0Ev:
 861              	.LFB1375:
 862              		.cfi_startproc
 863 02e0 53       		pushq	%rbx
 864              		.cfi_def_cfa_offset 16
 865              		.cfi_offset 3, -16
 866 02e1 4889FB   		movq	%rdi, %rbx
 867 02e4 48C70700 		movq	$_ZTVN12_GLOBAL__N_138TestCheckCloseFailureIncludesToleranceE+16, (%rdi)
 867      000000
 868 02eb E8000000 		call	_ZN8UnitTest4TestD2Ev
 868      00
 869 02f0 4889DF   		movq	%rbx, %rdi
 870 02f3 5B       		popq	%rbx
 871              		.cfi_def_cfa_offset 8
 872 02f4 E9000000 		jmp	_ZdlPv
 872      00
 873              		.cfi_endproc
 874              	.LFE1375:
 876              		.section	.text.unlikely
 877              	.LCOLDE37:
 878              		.text
 879              	.LHOTE37:
 880              		.section	.text.unlikely
 881              		.align 2
 882              	.LCOLDB38:
 883              		.text
 884              	.LHOTB38:
 885 02f9 90       		.align 2
 886 02fa 660F1F44 		.p2align 4,,15
 886      0000
 888              	_ZN12_GLOBAL__N_151TestCheckCloseFailureIncludesCheckExpectedAndActualD0Ev:
 889              	.LFB1379:
 890              		.cfi_startproc
 891 0300 53       		pushq	%rbx
 892              		.cfi_def_cfa_offset 16
 893              		.cfi_offset 3, -16
 894 0301 4889FB   		movq	%rdi, %rbx
 895 0304 48C70700 		movq	$_ZTVN12_GLOBAL__N_151TestCheckCloseFailureIncludesCheckExpectedAndActualE+16, (%rdi)
 895      000000
 896 030b E8000000 		call	_ZN8UnitTest4TestD2Ev
 896      00
 897 0310 4889DF   		movq	%rbx, %rdi
 898 0313 5B       		popq	%rbx
 899              		.cfi_def_cfa_offset 8
 900 0314 E9000000 		jmp	_ZdlPv
 900      00
 901              		.cfi_endproc
 902              	.LFE1379:
 904              		.section	.text.unlikely
 905              	.LCOLDE38:
 906              		.text
 907              	.LHOTE38:
 908              		.section	.text.unlikely
 909              		.align 2
 910              	.LCOLDB39:
 911              		.text
 912              	.LHOTB39:
 913 0319 90       		.align 2
 914 031a 660F1F44 		.p2align 4,,15
 914      0000
 916              	_ZN12_GLOBAL__N_139TestCheckCloseWithNaNAgainstItselfFailsD0Ev:
 917              	.LFB1383:
 918              		.cfi_startproc
 919 0320 53       		pushq	%rbx
 920              		.cfi_def_cfa_offset 16
 921              		.cfi_offset 3, -16
 922 0321 4889FB   		movq	%rdi, %rbx
 923 0324 48C70700 		movq	$_ZTVN12_GLOBAL__N_139TestCheckCloseWithNaNAgainstItselfFailsE+16, (%rdi)
 923      000000
 924 032b E8000000 		call	_ZN8UnitTest4TestD2Ev
 924      00
 925 0330 4889DF   		movq	%rbx, %rdi
 926 0333 5B       		popq	%rbx
 927              		.cfi_def_cfa_offset 8
 928 0334 E9000000 		jmp	_ZdlPv
 928      00
 929              		.cfi_endproc
 930              	.LFE1383:
 932              		.section	.text.unlikely
 933              	.LCOLDE39:
 934              		.text
 935              	.LHOTE39:
 936              		.section	.text.unlikely
 937              		.align 2
 938              	.LCOLDB40:
 939              		.text
 940              	.LHOTB40:
 941 0339 90       		.align 2
 942 033a 660F1F44 		.p2align 4,,15
 942      0000
 944              	_ZN12_GLOBAL__N_126TestCheckCloseWithNaNFailsD0Ev:
 945              	.LFB1387:
 946              		.cfi_startproc
 947 0340 53       		pushq	%rbx
 948              		.cfi_def_cfa_offset 16
 949              		.cfi_offset 3, -16
 950 0341 4889FB   		movq	%rdi, %rbx
 951 0344 48C70700 		movq	$_ZTVN12_GLOBAL__N_126TestCheckCloseWithNaNFailsE+16, (%rdi)
 951      000000
 952 034b E8000000 		call	_ZN8UnitTest4TestD2Ev
 952      00
 953 0350 4889DF   		movq	%rbx, %rdi
 954 0353 5B       		popq	%rbx
 955              		.cfi_def_cfa_offset 8
 956 0354 E9000000 		jmp	_ZdlPv
 956      00
 957              		.cfi_endproc
 958              	.LFE1387:
 960              		.section	.text.unlikely
 961              	.LCOLDE40:
 962              		.text
 963              	.LHOTE40:
 964              		.section	.text.unlikely
 965              		.align 2
 966              	.LCOLDB41:
 967              		.text
 968              	.LHOTB41:
 969 0359 90       		.align 2
 970 035a 660F1F44 		.p2align 4,,15
 970      0000
 972              	_ZN12_GLOBAL__N_147TestCheckCloseWithZeroEpsilonWorksForSameNumberD0Ev:
 973              	.LFB1391:
 974              		.cfi_startproc
 975 0360 53       		pushq	%rbx
 976              		.cfi_def_cfa_offset 16
 977              		.cfi_offset 3, -16
 978 0361 4889FB   		movq	%rdi, %rbx
 979 0364 48C70700 		movq	$_ZTVN12_GLOBAL__N_147TestCheckCloseWithZeroEpsilonWorksForSameNumberE+16, (%rdi)
 979      000000
 980 036b E8000000 		call	_ZN8UnitTest4TestD2Ev
 980      00
 981 0370 4889DF   		movq	%rbx, %rdi
 982 0373 5B       		popq	%rbx
 983              		.cfi_def_cfa_offset 8
 984 0374 E9000000 		jmp	_ZdlPv
 984      00
 985              		.cfi_endproc
 986              	.LFE1391:
 988              		.section	.text.unlikely
 989              	.LCOLDE41:
 990              		.text
 991              	.LHOTE41:
 992              		.section	.text.unlikely
 993              		.align 2
 994              	.LCOLDB42:
 995              		.text
 996              	.LHOTB42:
 997 0379 90       		.align 2
 998 037a 660F1F44 		.p2align 4,,15
 998      0000
 1000              	_ZN12_GLOBAL__N_119TestCheckCloseFalseD0Ev:
 1001              	.LFB1395:
 1002              		.cfi_startproc
 1003 0380 53       		pushq	%rbx
 1004              		.cfi_def_cfa_offset 16
 1005              		.cfi_offset 3, -16
 1006 0381 4889FB   		movq	%rdi, %rbx
 1007 0384 48C70700 		movq	$_ZTVN12_GLOBAL__N_119TestCheckCloseFalseE+16, (%rdi)
 1007      000000
 1008 038b E8000000 		call	_ZN8UnitTest4TestD2Ev
 1008      00
 1009 0390 4889DF   		movq	%rbx, %rdi
 1010 0393 5B       		popq	%rbx
 1011              		.cfi_def_cfa_offset 8
 1012 0394 E9000000 		jmp	_ZdlPv
 1012      00
 1013              		.cfi_endproc
 1014              	.LFE1395:
 1016              		.section	.text.unlikely
 1017              	.LCOLDE42:
 1018              		.text
 1019              	.LHOTE42:
 1020              		.section	.text.unlikely
 1021              		.align 2
 1022              	.LCOLDB43:
 1023              		.text
 1024              	.LHOTB43:
 1025 0399 90       		.align 2
 1026 039a 660F1F44 		.p2align 4,,15
 1026      0000
 1028              	_ZN12_GLOBAL__N_118TestCheckCloseTrueD0Ev:
 1029              	.LFB1399:
 1030              		.cfi_startproc
 1031 03a0 53       		pushq	%rbx
 1032              		.cfi_def_cfa_offset 16
 1033              		.cfi_offset 3, -16
 1034 03a1 4889FB   		movq	%rdi, %rbx
 1035 03a4 48C70700 		movq	$_ZTVN12_GLOBAL__N_118TestCheckCloseTrueE+16, (%rdi)
 1035      000000
 1036 03ab E8000000 		call	_ZN8UnitTest4TestD2Ev
 1036      00
 1037 03b0 4889DF   		movq	%rbx, %rdi
 1038 03b3 5B       		popq	%rbx
 1039              		.cfi_def_cfa_offset 8
 1040 03b4 E9000000 		jmp	_ZdlPv
 1040      00
 1041              		.cfi_endproc
 1042              	.LFE1399:
 1044              		.section	.text.unlikely
 1045              	.LCOLDE43:
 1046              		.text
 1047              	.LHOTE43:
 1048              		.section	.text.unlikely
 1049              		.align 2
 1050              	.LCOLDB44:
 1051              		.text
 1052              	.LHOTB44:
 1053 03b9 90       		.align 2
 1054 03ba 660F1F44 		.p2align 4,,15
 1054      0000
 1056              	_ZN12_GLOBAL__N_136TestCheckEqualFailureIncludesDetailsD0Ev:
 1057              	.LFB1403:
 1058              		.cfi_startproc
 1059 03c0 53       		pushq	%rbx
 1060              		.cfi_def_cfa_offset 16
 1061              		.cfi_offset 3, -16
 1062 03c1 4889FB   		movq	%rdi, %rbx
 1063 03c4 48C70700 		movq	$_ZTVN12_GLOBAL__N_136TestCheckEqualFailureIncludesDetailsE+16, (%rdi)
 1063      000000
 1064 03cb E8000000 		call	_ZN8UnitTest4TestD2Ev
 1064      00
 1065 03d0 4889DF   		movq	%rbx, %rdi
 1066 03d3 5B       		popq	%rbx
 1067              		.cfi_def_cfa_offset 8
 1068 03d4 E9000000 		jmp	_ZdlPv
 1068      00
 1069              		.cfi_endproc
 1070              	.LFE1403:
 1072              		.section	.text.unlikely
 1073              	.LCOLDE44:
 1074              		.text
 1075              	.LHOTE44:
 1076              		.section	.text.unlikely
 1077              		.align 2
 1078              	.LCOLDB45:
 1079              		.text
 1080              	.LHOTB45:
 1081 03d9 90       		.align 2
 1082 03da 660F1F44 		.p2align 4,,15
 1082      0000
 1084              	_ZN12_GLOBAL__N_151TestCheckEqualFailureIncludesCheckExpectedAndActualD0Ev:
 1085              	.LFB1407:
 1086              		.cfi_startproc
 1087 03e0 53       		pushq	%rbx
 1088              		.cfi_def_cfa_offset 16
 1089              		.cfi_offset 3, -16
 1090 03e1 4889FB   		movq	%rdi, %rbx
 1091 03e4 48C70700 		movq	$_ZTVN12_GLOBAL__N_151TestCheckEqualFailureIncludesCheckExpectedAndActualE+16, (%rdi)
 1091      000000
 1092 03eb E8000000 		call	_ZN8UnitTest4TestD2Ev
 1092      00
 1093 03f0 4889DF   		movq	%rbx, %rdi
 1094 03f3 5B       		popq	%rbx
 1095              		.cfi_def_cfa_offset 8
 1096 03f4 E9000000 		jmp	_ZdlPv
 1096      00
 1097              		.cfi_endproc
 1098              	.LFE1407:
 1100              		.section	.text.unlikely
 1101              	.LCOLDE45:
 1102              		.text
 1103              	.LHOTE45:
 1104              		.section	.text.unlikely
 1105              		.align 2
 1106              	.LCOLDB46:
 1107              		.text
 1108              	.LHOTB46:
 1109 03f9 90       		.align 2
 1110 03fa 660F1F44 		.p2align 4,,15
 1110      0000
 1112              	_ZN12_GLOBAL__N_153TestCheckEqualsWithStringsWorksOnContentsWithALiteralD0Ev:
 1113              	.LFB1411:
 1114              		.cfi_startproc
 1115 0400 53       		pushq	%rbx
 1116              		.cfi_def_cfa_offset 16
 1117              		.cfi_offset 3, -16
 1118 0401 4889FB   		movq	%rdi, %rbx
 1119 0404 48C70700 		movq	$_ZTVN12_GLOBAL__N_153TestCheckEqualsWithStringsWorksOnContentsWithALiteralE+16, (%rdi)
 1119      000000
 1120 040b E8000000 		call	_ZN8UnitTest4TestD2Ev
 1120      00
 1121 0410 4889DF   		movq	%rbx, %rdi
 1122 0413 5B       		popq	%rbx
 1123              		.cfi_def_cfa_offset 8
 1124 0414 E9000000 		jmp	_ZdlPv
 1124      00
 1125              		.cfi_endproc
 1126              	.LFE1411:
 1128              		.section	.text.unlikely
 1129              	.LCOLDE46:
 1130              		.text
 1131              	.LHOTE46:
 1132              		.section	.text.unlikely
 1133              		.align 2
 1134              	.LCOLDB47:
 1135              		.text
 1136              	.LHOTB47:
 1137 0419 90       		.align 2
 1138 041a 660F1F44 		.p2align 4,,15
 1138      0000
 1140              	_ZN12_GLOBAL__N_154TestCheckEqualsWithStringsWorksOnContentsConstNonConstD0Ev:
 1141              	.LFB1415:
 1142              		.cfi_startproc
 1143 0420 53       		pushq	%rbx
 1144              		.cfi_def_cfa_offset 16
 1145              		.cfi_offset 3, -16
 1146 0421 4889FB   		movq	%rdi, %rbx
 1147 0424 48C70700 		movq	$_ZTVN12_GLOBAL__N_154TestCheckEqualsWithStringsWorksOnContentsConstNonConstE+16, (%rdi)
 1147      000000
 1148 042b E8000000 		call	_ZN8UnitTest4TestD2Ev
 1148      00
 1149 0430 4889DF   		movq	%rbx, %rdi
 1150 0433 5B       		popq	%rbx
 1151              		.cfi_def_cfa_offset 8
 1152 0434 E9000000 		jmp	_ZdlPv
 1152      00
 1153              		.cfi_endproc
 1154              	.LFE1415:
 1156              		.section	.text.unlikely
 1157              	.LCOLDE47:
 1158              		.text
 1159              	.LHOTE47:
 1160              		.section	.text.unlikely
 1161              		.align 2
 1162              	.LCOLDB48:
 1163              		.text
 1164              	.LHOTB48:
 1165 0439 90       		.align 2
 1166 043a 660F1F44 		.p2align 4,,15
 1166      0000
 1168              	_ZN12_GLOBAL__N_154TestCheckEqualsWithStringsWorksOnContentsNonConstConstD0Ev:
 1169              	.LFB1419:
 1170              		.cfi_startproc
 1171 0440 53       		pushq	%rbx
 1172              		.cfi_def_cfa_offset 16
 1173              		.cfi_offset 3, -16
 1174 0441 4889FB   		movq	%rdi, %rbx
 1175 0444 48C70700 		movq	$_ZTVN12_GLOBAL__N_154TestCheckEqualsWithStringsWorksOnContentsNonConstConstE+16, (%rdi)
 1175      000000
 1176 044b E8000000 		call	_ZN8UnitTest4TestD2Ev
 1176      00
 1177 0450 4889DF   		movq	%rbx, %rdi
 1178 0453 5B       		popq	%rbx
 1179              		.cfi_def_cfa_offset 8
 1180 0454 E9000000 		jmp	_ZdlPv
 1180      00
 1181              		.cfi_endproc
 1182              	.LFE1419:
 1184              		.section	.text.unlikely
 1185              	.LCOLDE48:
 1186              		.text
 1187              	.LHOTE48:
 1188              		.section	.text.unlikely
 1189              		.align 2
 1190              	.LCOLDB49:
 1191              		.text
 1192              	.LHOTB49:
 1193 0459 90       		.align 2
 1194 045a 660F1F44 		.p2align 4,,15
 1194      0000
 1196              	_ZN12_GLOBAL__N_151TestCheckEqualsWithStringsWorksOnContentsConstConstD0Ev:
 1197              	.LFB1423:
 1198              		.cfi_startproc
 1199 0460 53       		pushq	%rbx
 1200              		.cfi_def_cfa_offset 16
 1201              		.cfi_offset 3, -16
 1202 0461 4889FB   		movq	%rdi, %rbx
 1203 0464 48C70700 		movq	$_ZTVN12_GLOBAL__N_151TestCheckEqualsWithStringsWorksOnContentsConstConstE+16, (%rdi)
 1203      000000
 1204 046b E8000000 		call	_ZN8UnitTest4TestD2Ev
 1204      00
 1205 0470 4889DF   		movq	%rbx, %rdi
 1206 0473 5B       		popq	%rbx
 1207              		.cfi_def_cfa_offset 8
 1208 0474 E9000000 		jmp	_ZdlPv
 1208      00
 1209              		.cfi_endproc
 1210              	.LFE1423:
 1212              		.section	.text.unlikely
 1213              	.LCOLDE49:
 1214              		.text
 1215              	.LHOTE49:
 1216              		.section	.text.unlikely
 1217              		.align 2
 1218              	.LCOLDB50:
 1219              		.text
 1220              	.LHOTB50:
 1221 0479 90       		.align 2
 1222 047a 660F1F44 		.p2align 4,,15
 1222      0000
 1224              	_ZN12_GLOBAL__N_157TestCheckEqualsWithStringsWorksOnContentsNonConstNonConstD0Ev:
 1225              	.LFB1427:
 1226              		.cfi_startproc
 1227 0480 53       		pushq	%rbx
 1228              		.cfi_def_cfa_offset 16
 1229              		.cfi_offset 3, -16
 1230 0481 4889FB   		movq	%rdi, %rbx
 1231 0484 48C70700 		movq	$_ZTVN12_GLOBAL__N_157TestCheckEqualsWithStringsWorksOnContentsNonConstNonConstE+16, (%rdi)
 1231      000000
 1232 048b E8000000 		call	_ZN8UnitTest4TestD2Ev
 1232      00
 1233 0490 4889DF   		movq	%rbx, %rdi
 1234 0493 5B       		popq	%rbx
 1235              		.cfi_def_cfa_offset 8
 1236 0494 E9000000 		jmp	_ZdlPv
 1236      00
 1237              		.cfi_endproc
 1238              	.LFE1427:
 1240              		.section	.text.unlikely
 1241              	.LCOLDE50:
 1242              		.text
 1243              	.LHOTE50:
 1244              		.section	.text.unlikely
 1245              		.align 2
 1246              	.LCOLDB51:
 1247              		.text
 1248              	.LHOTB51:
 1249 0499 90       		.align 2
 1250 049a 660F1F44 		.p2align 4,,15
 1250      0000
 1252              	_ZN12_GLOBAL__N_149TestCheckEqualsWithStringsFailsOnDifferentStringsD0Ev:
 1253              	.LFB1431:
 1254              		.cfi_startproc
 1255 04a0 53       		pushq	%rbx
 1256              		.cfi_def_cfa_offset 16
 1257              		.cfi_offset 3, -16
 1258 04a1 4889FB   		movq	%rdi, %rbx
 1259 04a4 48C70700 		movq	$_ZTVN12_GLOBAL__N_149TestCheckEqualsWithStringsFailsOnDifferentStringsE+16, (%rdi)
 1259      000000
 1260 04ab E8000000 		call	_ZN8UnitTest4TestD2Ev
 1260      00
 1261 04b0 4889DF   		movq	%rbx, %rdi
 1262 04b3 5B       		popq	%rbx
 1263              		.cfi_def_cfa_offset 8
 1264 04b4 E9000000 		jmp	_ZdlPv
 1264      00
 1265              		.cfi_endproc
 1266              	.LFE1431:
 1268              		.section	.text.unlikely
 1269              	.LCOLDE51:
 1270              		.text
 1271              	.LHOTE51:
 1272              		.section	.text.unlikely
 1273              		.align 2
 1274              	.LCOLDB52:
 1275              		.text
 1276              	.LHOTB52:
 1277 04b9 90       		.align 2
 1278 04ba 660F1F44 		.p2align 4,,15
 1278      0000
 1280              	_ZN12_GLOBAL__N_130TestCheckEqualWithUnsignedLongD0Ev:
 1281              	.LFB1435:
 1282              		.cfi_startproc
 1283 04c0 53       		pushq	%rbx
 1284              		.cfi_def_cfa_offset 16
 1285              		.cfi_offset 3, -16
 1286 04c1 4889FB   		movq	%rdi, %rbx
 1287 04c4 48C70700 		movq	$_ZTVN12_GLOBAL__N_130TestCheckEqualWithUnsignedLongE+16, (%rdi)
 1287      000000
 1288 04cb E8000000 		call	_ZN8UnitTest4TestD2Ev
 1288      00
 1289 04d0 4889DF   		movq	%rbx, %rdi
 1290 04d3 5B       		popq	%rbx
 1291              		.cfi_def_cfa_offset 8
 1292 04d4 E9000000 		jmp	_ZdlPv
 1292      00
 1293              		.cfi_endproc
 1294              	.LFE1435:
 1296              		.section	.text.unlikely
 1297              	.LCOLDE52:
 1298              		.text
 1299              	.LHOTE52:
 1300              		.section	.text.unlikely._ZN17RecordingReporter15ReportTestStartERKN8UnitTest11TestDetailsE,"axG",@
 1301              		.align 2
 1302              	.LCOLDB53:
 1303              		.section	.text._ZN17RecordingReporter15ReportTestStartERKN8UnitTest11TestDetailsE,"axG",@progbits,
 1304              	.LHOTB53:
 1305              		.align 2
 1306              		.p2align 4,,15
 1307              		.weak	_ZN17RecordingReporter15ReportTestStartERKN8UnitTest11TestDetailsE
 1309              	_ZN17RecordingReporter15ReportTestStartERKN8UnitTest11TestDetailsE:
 1310              	.LFB1127:
 1311              		.cfi_startproc
 1312 0000 55       		pushq	%rbp
 1313              		.cfi_def_cfa_offset 16
 1314              		.cfi_offset 6, -16
 1315 0001 53       		pushq	%rbx
 1316              		.cfi_def_cfa_offset 24
 1317              		.cfi_offset 3, -24
 1318 0002 4889F5   		movq	%rsi, %rbp
 1319 0005 4889FB   		movq	%rdi, %rbx
 1320 0008 BA000100 		movl	$256, %edx
 1320      00
 1321 000d 4883EC08 		subq	$8, %rsp
 1322              		.cfi_def_cfa_offset 32
 1323 0011 83470801 		addl	$1, 8(%rdi)
 1324 0015 488B36   		movq	(%rsi), %rsi
 1325 0018 488D7F0C 		leaq	12(%rdi), %rdi
 1326 001c E8000000 		call	__strcpy_chk
 1326      00
 1327 0021 488B7508 		movq	8(%rbp), %rsi
 1328 0025 4883C408 		addq	$8, %rsp
 1329              		.cfi_def_cfa_offset 24
 1330 0029 488DBB0C 		leaq	268(%rbx), %rdi
 1330      010000
 1331 0030 5B       		popq	%rbx
 1332              		.cfi_def_cfa_offset 16
 1333 0031 5D       		popq	%rbp
 1334              		.cfi_def_cfa_offset 8
 1335 0032 BA000100 		movl	$256, %edx
 1335      00
 1336 0037 E9000000 		jmp	__strcpy_chk
 1336      00
 1337              		.cfi_endproc
 1338              	.LFE1127:
 1340              		.section	.text.unlikely._ZN17RecordingReporter15ReportTestStartERKN8UnitTest11TestDetailsE,"axG",@
 1341              	.LCOLDE53:
 1342              		.section	.text._ZN17RecordingReporter15ReportTestStartERKN8UnitTest11TestDetailsE,"axG",@progbits,
 1343              	.LHOTE53:
 1344              		.section	.text.unlikely._ZN17RecordingReporter13ReportFailureERKN8UnitTest11TestDetailsEPKc,"axG",
 1345              		.align 2
 1346              	.LCOLDB54:
 1347              		.section	.text._ZN17RecordingReporter13ReportFailureERKN8UnitTest11TestDetailsEPKc,"axG",@progbits
 1348              	.LHOTB54:
 1349              		.align 2
 1350              		.p2align 4,,15
 1351              		.weak	_ZN17RecordingReporter13ReportFailureERKN8UnitTest11TestDetailsEPKc
 1353              	_ZN17RecordingReporter13ReportFailureERKN8UnitTest11TestDetailsEPKc:
 1354              	.LFB1128:
 1355              		.cfi_startproc
 1356 0000 4154     		pushq	%r12
 1357              		.cfi_def_cfa_offset 16
 1358              		.cfi_offset 12, -16
 1359 0002 55       		pushq	%rbp
 1360              		.cfi_def_cfa_offset 24
 1361              		.cfi_offset 6, -24
 1362 0003 4889F5   		movq	%rsi, %rbp
 1363 0006 53       		pushq	%rbx
 1364              		.cfi_def_cfa_offset 32
 1365              		.cfi_offset 3, -32
 1366 0007 83870C02 		addl	$1, 524(%rdi)
 1366      000001
 1367 000e 4889FB   		movq	%rdi, %rbx
 1368 0011 488B7610 		movq	16(%rsi), %rsi
 1369 0015 488DBF10 		leaq	528(%rdi), %rdi
 1369      020000
 1370 001c 4989D4   		movq	%rdx, %r12
 1371 001f BA000100 		movl	$256, %edx
 1371      00
 1372 0024 E8000000 		call	__strcpy_chk
 1372      00
 1373 0029 8B4518   		movl	24(%rbp), %eax
 1374 002c 488B7500 		movq	0(%rbp), %rsi
 1375 0030 488DBB14 		leaq	788(%rbx), %rdi
 1375      030000
 1376 0037 BA000100 		movl	$256, %edx
 1376      00
 1377 003c 89831003 		movl	%eax, 784(%rbx)
 1377      0000
 1378 0042 E8000000 		call	__strcpy_chk
 1378      00
 1379 0047 488B7508 		movq	8(%rbp), %rsi
 1380 004b 488DBB14 		leaq	1044(%rbx), %rdi
 1380      040000
 1381 0052 BA000100 		movl	$256, %edx
 1381      00
 1382 0057 E8000000 		call	__strcpy_chk
 1382      00
 1383 005c 488DBB14 		leaq	1300(%rbx), %rdi
 1383      050000
 1384 0063 4C89E6   		movq	%r12, %rsi
 1385 0066 BA000100 		movl	$256, %edx
 1385      00
 1386 006b 5B       		popq	%rbx
 1387              		.cfi_def_cfa_offset 24
 1388 006c 5D       		popq	%rbp
 1389              		.cfi_def_cfa_offset 16
 1390 006d 415C     		popq	%r12
 1391              		.cfi_def_cfa_offset 8
 1392 006f E9000000 		jmp	__strcpy_chk
 1392      00
 1393              		.cfi_endproc
 1394              	.LFE1128:
 1396              		.section	.text.unlikely._ZN17RecordingReporter13ReportFailureERKN8UnitTest11TestDetailsEPKc,"axG",
 1397              	.LCOLDE54:
 1398              		.section	.text._ZN17RecordingReporter13ReportFailureERKN8UnitTest11TestDetailsEPKc,"axG",@progbits
 1399              	.LHOTE54:
 1400              		.section	.text.unlikely._ZN17RecordingReporter16ReportTestFinishERKN8UnitTest11TestDetailsEf,"axG"
 1401              		.align 2
 1402              	.LCOLDB55:
 1403              		.section	.text._ZN17RecordingReporter16ReportTestFinishERKN8UnitTest11TestDetailsEf,"axG",@progbit
 1404              	.LHOTB55:
 1405              		.align 2
 1406              		.p2align 4,,15
 1407              		.weak	_ZN17RecordingReporter16ReportTestFinishERKN8UnitTest11TestDetailsEf
 1409              	_ZN17RecordingReporter16ReportTestFinishERKN8UnitTest11TestDetailsEf:
 1410              	.LFB1129:
 1411              		.cfi_startproc
 1412 0000 55       		pushq	%rbp
 1413              		.cfi_def_cfa_offset 16
 1414              		.cfi_offset 6, -16
 1415 0001 53       		pushq	%rbx
 1416              		.cfi_def_cfa_offset 24
 1417              		.cfi_offset 3, -24
 1418 0002 4889F5   		movq	%rsi, %rbp
 1419 0005 4889FB   		movq	%rdi, %rbx
 1420 0008 BA000100 		movl	$256, %edx
 1420      00
 1421 000d 4883EC18 		subq	$24, %rsp
 1422              		.cfi_def_cfa_offset 48
 1423 0011 83871406 		addl	$1, 1556(%rdi)
 1423      000001
 1424 0018 488B36   		movq	(%rsi), %rsi
 1425 001b 488DBF18 		leaq	1560(%rdi), %rdi
 1425      060000
 1426 0022 F30F1144 		movss	%xmm0, 12(%rsp)
 1426      240C
 1427 0028 E8000000 		call	__strcpy_chk
 1427      00
 1428 002d 488B7508 		movq	8(%rbp), %rsi
 1429 0031 488DBB18 		leaq	1816(%rbx), %rdi
 1429      070000
 1430 0038 BA000100 		movl	$256, %edx
 1430      00
 1431 003d E8000000 		call	__strcpy_chk
 1431      00
 1432 0042 F30F1044 		movss	12(%rsp), %xmm0
 1432      240C
 1433 0048 F30F1183 		movss	%xmm0, 2072(%rbx)
 1433      18080000 
 1434 0050 4883C418 		addq	$24, %rsp
 1435              		.cfi_def_cfa_offset 24
 1436 0054 5B       		popq	%rbx
 1437              		.cfi_def_cfa_offset 16
 1438 0055 5D       		popq	%rbp
 1439              		.cfi_def_cfa_offset 8
 1440 0056 C3       		ret
 1441              		.cfi_endproc
 1442              	.LFE1129:
 1444              		.section	.text.unlikely._ZN17RecordingReporter16ReportTestFinishERKN8UnitTest11TestDetailsEf,"axG"
 1445              	.LCOLDE55:
 1446              		.section	.text._ZN17RecordingReporter16ReportTestFinishERKN8UnitTest11TestDetailsEf,"axG",@progbit
 1447              	.LHOTE55:
 1448              		.section	.text.unlikely._ZN17RecordingReporterD2Ev,"axG",@progbits,_ZN17RecordingReporterD5Ev,comd
 1449              		.align 2
 1450              	.LCOLDB56:
 1451              		.section	.text._ZN17RecordingReporterD2Ev,"axG",@progbits,_ZN17RecordingReporterD5Ev,comdat
 1452              	.LHOTB56:
 1453              		.align 2
 1454              		.p2align 4,,15
 1455              		.weak	_ZN17RecordingReporterD2Ev
 1457              	_ZN17RecordingReporterD2Ev:
 1458              	.LFB1437:
 1459              		.cfi_startproc
 1460 0000 48C70700 		movq	$_ZTV17RecordingReporter+16, (%rdi)
 1460      000000
 1461 0007 E9000000 		jmp	_ZN8UnitTest12TestReporterD2Ev
 1461      00
 1462              		.cfi_endproc
 1463              	.LFE1437:
 1465              		.section	.text.unlikely._ZN17RecordingReporterD2Ev,"axG",@progbits,_ZN17RecordingReporterD5Ev,comd
 1466              	.LCOLDE56:
 1467              		.section	.text._ZN17RecordingReporterD2Ev,"axG",@progbits,_ZN17RecordingReporterD5Ev,comdat
 1468              	.LHOTE56:
 1469              		.weak	_ZN17RecordingReporterD1Ev
 1470              		.set	_ZN17RecordingReporterD1Ev,_ZN17RecordingReporterD2Ev
 1471              		.section	.text.unlikely._ZN17RecordingReporterD0Ev,"axG",@progbits,_ZN17RecordingReporterD5Ev,comd
 1472              		.align 2
 1473              	.LCOLDB57:
 1474              		.section	.text._ZN17RecordingReporterD0Ev,"axG",@progbits,_ZN17RecordingReporterD5Ev,comdat
 1475              	.LHOTB57:
 1476              		.align 2
 1477              		.p2align 4,,15
 1478              		.weak	_ZN17RecordingReporterD0Ev
 1480              	_ZN17RecordingReporterD0Ev:
 1481              	.LFB1439:
 1482              		.cfi_startproc
 1483 0000 53       		pushq	%rbx
 1484              		.cfi_def_cfa_offset 16
 1485              		.cfi_offset 3, -16
 1486 0001 4889FB   		movq	%rdi, %rbx
 1487 0004 48C70700 		movq	$_ZTV17RecordingReporter+16, (%rdi)
 1487      000000
 1488 000b E8000000 		call	_ZN8UnitTest12TestReporterD2Ev
 1488      00
 1489 0010 4889DF   		movq	%rbx, %rdi
 1490 0013 5B       		popq	%rbx
 1491              		.cfi_def_cfa_offset 8
 1492 0014 E9000000 		jmp	_ZdlPv
 1492      00
 1493              		.cfi_endproc
 1494              	.LFE1439:
 1496              		.section	.text.unlikely._ZN17RecordingReporterD0Ev,"axG",@progbits,_ZN17RecordingReporterD5Ev,comd
 1497              	.LCOLDE57:
 1498              		.section	.text._ZN17RecordingReporterD0Ev,"axG",@progbits,_ZN17RecordingReporterD5Ev,comdat
 1499              	.LHOTE57:
 1500              		.section	.text.unlikely._ZN8UnitTest15MemoryOutStreamD1Ev,"axG",@progbits,_ZN8UnitTest15MemoryOutS
 1501              		.align 2
 1502              	.LCOLDB58:
 1503              		.section	.text._ZN8UnitTest15MemoryOutStreamD1Ev,"axG",@progbits,_ZN8UnitTest15MemoryOutStreamD1Ev
 1504              	.LHOTB58:
 1505              		.align 2
 1506              		.p2align 4,,15
 1507              		.weak	_ZN8UnitTest15MemoryOutStreamD1Ev
 1509              	_ZN8UnitTest15MemoryOutStreamD1Ev:
 1510              	.LFB1265:
 1511              		.cfi_startproc
 1512 0000 53       		pushq	%rbx
 1513              		.cfi_def_cfa_offset 16
 1514              		.cfi_offset 3, -16
 1515 0001 4889FB   		movq	%rdi, %rbx
 1516 0004 4883EC10 		subq	$16, %rsp
 1517              		.cfi_def_cfa_offset 32
 1518 0008 48C70700 		movq	$_ZTVN8UnitTest15MemoryOutStreamE+24, (%rdi)
 1518      000000
 1519 000f 48C74760 		movq	$_ZTVN8UnitTest15MemoryOutStreamE+64, 96(%rdi)
 1519      00000000 
 1520 0017 64488B04 		movq	%fs:40, %rax
 1520      25280000 
 1520      00
 1521 0020 48894424 		movq	%rax, 8(%rsp)
 1521      08
 1522 0025 31C0     		xorl	%eax, %eax
 1523 0027 488B4758 		movq	88(%rdi), %rax
 1524 002b 488D78E8 		leaq	-24(%rax), %rdi
 1525 002f 4881FF00 		cmpq	$_ZNSs4_Rep20_S_empty_rep_storageE, %rdi
 1525      000000
 1526 0036 7568     		jne	.L103
 1527              	.L91:
 1528 0038 488B4350 		movq	80(%rbx), %rax
 1529 003c 48C70300 		movq	$_ZTCN8UnitTest15MemoryOutStreamE0_St19basic_ostringstreamIcSt11char_traitsIcESaIcEE+24, (%rb
 1529      000000
 1530 0043 48C74360 		movq	$_ZTCN8UnitTest15MemoryOutStreamE0_St19basic_ostringstreamIcSt11char_traitsIcESaIcEE+64, 96(%
 1530      00000000 
 1531 004b 48C74308 		movq	$_ZTVSt15basic_stringbufIcSt11char_traitsIcESaIcEE+16, 8(%rbx)
 1531      00000000 
 1532 0053 488D78E8 		leaq	-24(%rax), %rdi
 1533 0057 4881FF00 		cmpq	$_ZNSs4_Rep20_S_empty_rep_storageE, %rdi
 1533      000000
 1534 005e 7570     		jne	.L104
 1535              	.L96:
 1536 0060 488D7B40 		leaq	64(%rbx), %rdi
 1537 0064 48C74308 		movq	$_ZTVSt15basic_streambufIcSt11char_traitsIcEE+16, 8(%rbx)
 1537      00000000 
 1538 006c E8000000 		call	_ZNSt6localeD1Ev
 1538      00
 1539 0071 488D7B60 		leaq	96(%rbx), %rdi
 1540 0075 48C74360 		movq	$_ZTVSt9basic_iosIcSt11char_traitsIcEE+16, 96(%rbx)
 1540      00000000 
 1541 007d E8000000 		call	_ZNSt8ios_baseD2Ev
 1541      00
 1542 0082 488B4424 		movq	8(%rsp), %rax
 1542      08
 1543 0087 64483304 		xorq	%fs:40, %rax
 1543      25280000 
 1543      00
 1544 0090 0F858700 		jne	.L105
 1544      0000
 1545 0096 4883C410 		addq	$16, %rsp
 1546              		.cfi_remember_state
 1547              		.cfi_def_cfa_offset 16
 1548 009a 5B       		popq	%rbx
 1549              		.cfi_def_cfa_offset 8
 1550 009b C3       		ret
 1551 009c 0F1F4000 		.p2align 4,,10
 1552              		.p2align 3
 1553              	.L103:
 1554              		.cfi_restore_state
 1555 00a0 BA000000 		movl	$_ZL28__gthrw___pthread_key_createPjPFvPvE, %edx
 1555      00
 1556 00a5 4885D2   		testq	%rdx, %rdx
 1557 00a8 7466     		je	.L92
 1558 00aa BAFFFFFF 		movl	$-1, %edx
 1558      FF
 1559 00af F00FC150 		lock xaddl	%edx, -8(%rax)
 1559      F8
 1560 00b4 89D0     		movl	%edx, %eax
 1561              	.L93:
 1562 00b6 85C0     		testl	%eax, %eax
 1563 00b8 0F8F7AFF 		jg	.L91
 1563      FFFF
 1564 00be 488D7424 		leaq	7(%rsp), %rsi
 1564      07
 1565 00c3 E8000000 		call	_ZNSs4_Rep10_M_destroyERKSaIcE
 1565      00
 1566 00c8 E96BFFFF 		jmp	.L91
 1566      FF
 1567 00cd 0F1F00   		.p2align 4,,10
 1568              		.p2align 3
 1569              	.L104:
 1570 00d0 BA000000 		movl	$_ZL28__gthrw___pthread_key_createPjPFvPvE, %edx
 1570      00
 1571 00d5 4885D2   		testq	%rdx, %rdx
 1572 00d8 7426     		je	.L97
 1573 00da BAFFFFFF 		movl	$-1, %edx
 1573      FF
 1574 00df F00FC150 		lock xaddl	%edx, -8(%rax)
 1574      F8
 1575 00e4 89D0     		movl	%edx, %eax
 1576              	.L98:
 1577 00e6 85C0     		testl	%eax, %eax
 1578 00e8 0F8F72FF 		jg	.L96
 1578      FFFF
 1579 00ee 488D7424 		leaq	7(%rsp), %rsi
 1579      07
 1580 00f3 E8000000 		call	_ZNSs4_Rep10_M_destroyERKSaIcE
 1580      00
 1581 00f8 E963FFFF 		jmp	.L96
 1581      FF
 1582 00fd 0F1F00   		.p2align 4,,10
 1583              		.p2align 3
 1584              	.L97:
 1585 0100 8B50F8   		movl	-8(%rax), %edx
 1586 0103 8D4AFF   		leal	-1(%rdx), %ecx
 1587 0106 8948F8   		movl	%ecx, -8(%rax)
 1588 0109 89D0     		movl	%edx, %eax
 1589 010b EBD9     		jmp	.L98
 1590 010d 0F1F00   		.p2align 4,,10
 1591              		.p2align 3
 1592              	.L92:
 1593 0110 8B50F8   		movl	-8(%rax), %edx
 1594 0113 8D4AFF   		leal	-1(%rdx), %ecx
 1595 0116 8948F8   		movl	%ecx, -8(%rax)
 1596 0119 89D0     		movl	%edx, %eax
 1597 011b EB99     		jmp	.L93
 1598              	.L105:
 1599 011d E8000000 		call	__stack_chk_fail
 1599      00
 1600              		.cfi_endproc
 1601              	.LFE1265:
 1603              		.section	.text.unlikely._ZN8UnitTest15MemoryOutStreamD1Ev,"axG",@progbits,_ZN8UnitTest15MemoryOutS
 1604              	.LCOLDE58:
 1605              		.section	.text._ZN8UnitTest15MemoryOutStreamD1Ev,"axG",@progbits,_ZN8UnitTest15MemoryOutStreamD1Ev
 1606              	.LHOTE58:
 1607              		.set	.LTHUNK0,_ZN8UnitTest15MemoryOutStreamD1Ev
 1608              	.LCOLDB59:
 1609              	.LHOTB59:
 1610 0122 0F1F4000 		.p2align 4,,15
 1610      662E0F1F 
 1610      84000000 
 1610      0000
 1611              		.weak	_ZTv0_n24_N8UnitTest15MemoryOutStreamD1Ev
 1613              	_ZTv0_n24_N8UnitTest15MemoryOutStreamD1Ev:
 1614              	.LFB1458:
 1615              		.cfi_startproc
 1616 0130 4C8B17   		movq	(%rdi), %r10
 1617 0133 49037AE8 		addq	-24(%r10), %rdi
 1618 0137 E9C4FEFF 		jmp	.LTHUNK0
 1618      FF
 1619              		.cfi_endproc
 1620              	.LFE1458:
 1622              	.LCOLDE59:
 1623              	.LHOTE59:
 1624              		.section	.text.unlikely._ZN8UnitTest15MemoryOutStreamD0Ev,"axG",@progbits,_ZN8UnitTest15MemoryOutS
 1625              		.align 2
 1626              	.LCOLDB60:
 1627              		.section	.text._ZN8UnitTest15MemoryOutStreamD0Ev,"axG",@progbits,_ZN8UnitTest15MemoryOutStreamD0Ev
 1628              	.LHOTB60:
 1629              		.align 2
 1630              		.p2align 4,,15
 1631              		.weak	_ZN8UnitTest15MemoryOutStreamD0Ev
 1633              	_ZN8UnitTest15MemoryOutStreamD0Ev:
 1634              	.LFB1266:
 1635              		.cfi_startproc
 1636 0000 53       		pushq	%rbx
 1637              		.cfi_def_cfa_offset 16
 1638              		.cfi_offset 3, -16
 1639 0001 4889FB   		movq	%rdi, %rbx
 1640 0004 4883EC10 		subq	$16, %rsp
 1641              		.cfi_def_cfa_offset 32
 1642 0008 48C70700 		movq	$_ZTVN8UnitTest15MemoryOutStreamE+24, (%rdi)
 1642      000000
 1643 000f 48C74760 		movq	$_ZTVN8UnitTest15MemoryOutStreamE+64, 96(%rdi)
 1643      00000000 
 1644 0017 64488B04 		movq	%fs:40, %rax
 1644      25280000 
 1644      00
 1645 0020 48894424 		movq	%rax, 8(%rsp)
 1645      08
 1646 0025 31C0     		xorl	%eax, %eax
 1647 0027 488B4758 		movq	88(%rdi), %rax
 1648 002b 488D78E8 		leaq	-24(%rax), %rdi
 1649 002f 4881FF00 		cmpq	$_ZNSs4_Rep20_S_empty_rep_storageE, %rdi
 1649      000000
 1650 0036 7570     		jne	.L119
 1651              	.L108:
 1652 0038 488B4350 		movq	80(%rbx), %rax
 1653 003c 48C70300 		movq	$_ZTCN8UnitTest15MemoryOutStreamE0_St19basic_ostringstreamIcSt11char_traitsIcESaIcEE+24, (%rb
 1653      000000
 1654 0043 48C74360 		movq	$_ZTCN8UnitTest15MemoryOutStreamE0_St19basic_ostringstreamIcSt11char_traitsIcESaIcEE+64, 96(%
 1654      00000000 
 1655 004b 48C74308 		movq	$_ZTVSt15basic_stringbufIcSt11char_traitsIcESaIcEE+16, 8(%rbx)
 1655      00000000 
 1656 0053 488D78E8 		leaq	-24(%rax), %rdi
 1657 0057 4881FF00 		cmpq	$_ZNSs4_Rep20_S_empty_rep_storageE, %rdi
 1657      000000
 1658 005e 7578     		jne	.L120
 1659              	.L113:
 1660 0060 488D7B40 		leaq	64(%rbx), %rdi
 1661 0064 48C74308 		movq	$_ZTVSt15basic_streambufIcSt11char_traitsIcEE+16, 8(%rbx)
 1661      00000000 
 1662 006c E8000000 		call	_ZNSt6localeD1Ev
 1662      00
 1663 0071 488D7B60 		leaq	96(%rbx), %rdi
 1664 0075 48C74360 		movq	$_ZTVSt9basic_iosIcSt11char_traitsIcEE+16, 96(%rbx)
 1664      00000000 
 1665 007d E8000000 		call	_ZNSt8ios_baseD2Ev
 1665      00
 1666 0082 4889DF   		movq	%rbx, %rdi
 1667 0085 E8000000 		call	_ZdlPv
 1667      00
 1668 008a 488B4424 		movq	8(%rsp), %rax
 1668      08
 1669 008f 64483304 		xorq	%fs:40, %rax
 1669      25280000 
 1669      00
 1670 0098 0F858700 		jne	.L121
 1670      0000
 1671 009e 4883C410 		addq	$16, %rsp
 1672              		.cfi_remember_state
 1673              		.cfi_def_cfa_offset 16
 1674 00a2 5B       		popq	%rbx
 1675              		.cfi_def_cfa_offset 8
 1676 00a3 C3       		ret
 1677              		.p2align 4,,10
 1678 00a4 0F1F4000 		.p2align 3
 1679              	.L119:
 1680              		.cfi_restore_state
 1681 00a8 BA000000 		movl	$_ZL28__gthrw___pthread_key_createPjPFvPvE, %edx
 1681      00
 1682 00ad 4885D2   		testq	%rdx, %rdx
 1683 00b0 7466     		je	.L109
 1684 00b2 BAFFFFFF 		movl	$-1, %edx
 1684      FF
 1685 00b7 F00FC150 		lock xaddl	%edx, -8(%rax)
 1685      F8
 1686 00bc 89D0     		movl	%edx, %eax
 1687              	.L110:
 1688 00be 85C0     		testl	%eax, %eax
 1689 00c0 0F8F72FF 		jg	.L108
 1689      FFFF
 1690 00c6 488D7424 		leaq	7(%rsp), %rsi
 1690      07
 1691 00cb E8000000 		call	_ZNSs4_Rep10_M_destroyERKSaIcE
 1691      00
 1692 00d0 E963FFFF 		jmp	.L108
 1692      FF
 1693              		.p2align 4,,10
 1694 00d5 0F1F00   		.p2align 3
 1695              	.L120:
 1696 00d8 BA000000 		movl	$_ZL28__gthrw___pthread_key_createPjPFvPvE, %edx
 1696      00
 1697 00dd 4885D2   		testq	%rdx, %rdx
 1698 00e0 7426     		je	.L114
 1699 00e2 BAFFFFFF 		movl	$-1, %edx
 1699      FF
 1700 00e7 F00FC150 		lock xaddl	%edx, -8(%rax)
 1700      F8
 1701 00ec 89D0     		movl	%edx, %eax
 1702              	.L115:
 1703 00ee 85C0     		testl	%eax, %eax
 1704 00f0 0F8F6AFF 		jg	.L113
 1704      FFFF
 1705 00f6 488D7424 		leaq	7(%rsp), %rsi
 1705      07
 1706 00fb E8000000 		call	_ZNSs4_Rep10_M_destroyERKSaIcE
 1706      00
 1707 0100 E95BFFFF 		jmp	.L113
 1707      FF
 1708              		.p2align 4,,10
 1709 0105 0F1F00   		.p2align 3
 1710              	.L114:
 1711 0108 8B50F8   		movl	-8(%rax), %edx
 1712 010b 8D4AFF   		leal	-1(%rdx), %ecx
 1713 010e 8948F8   		movl	%ecx, -8(%rax)
 1714 0111 89D0     		movl	%edx, %eax
 1715 0113 EBD9     		jmp	.L115
 1716              		.p2align 4,,10
 1717 0115 0F1F00   		.p2align 3
 1718              	.L109:
 1719 0118 8B50F8   		movl	-8(%rax), %edx
 1720 011b 8D4AFF   		leal	-1(%rdx), %ecx
 1721 011e 8948F8   		movl	%ecx, -8(%rax)
 1722 0121 89D0     		movl	%edx, %eax
 1723 0123 EB99     		jmp	.L110
 1724              	.L121:
 1725 0125 E8000000 		call	__stack_chk_fail
 1725      00
 1726              		.cfi_endproc
 1727              	.LFE1266:
 1729              		.section	.text.unlikely._ZN8UnitTest15MemoryOutStreamD0Ev,"axG",@progbits,_ZN8UnitTest15MemoryOutS
 1730              	.LCOLDE60:
 1731              		.section	.text._ZN8UnitTest15MemoryOutStreamD0Ev,"axG",@progbits,_ZN8UnitTest15MemoryOutStreamD0Ev
 1732              	.LHOTE60:
 1733              		.set	.LTHUNK1,_ZN8UnitTest15MemoryOutStreamD0Ev
 1734              	.LCOLDB61:
 1735              	.LHOTB61:
 1736 012a 660F1F44 		.p2align 4,,15
 1736      0000
 1737              		.weak	_ZTv0_n24_N8UnitTest15MemoryOutStreamD0Ev
 1739              	_ZTv0_n24_N8UnitTest15MemoryOutStreamD0Ev:
 1740              	.LFB1459:
 1741              		.cfi_startproc
 1742 0130 4C8B17   		movq	(%rdi), %r10
 1743 0133 49037AE8 		addq	-24(%r10), %rdi
 1744 0137 E9C4FEFF 		jmp	.LTHUNK1
 1744      FF
 1745              		.cfi_endproc
 1746              	.LFE1459:
 1748              	.LCOLDE61:
 1749              	.LHOTE61:
 1750              		.section	.text.unlikely._ZNSt15basic_stringbufIcSt11char_traitsIcESaIcEED2Ev,"axG",@progbits,_ZNSt
 1751              		.align 2
 1752              	.LCOLDB62:
 1753              		.section	.text._ZNSt15basic_stringbufIcSt11char_traitsIcESaIcEED2Ev,"axG",@progbits,_ZNSt15basic_s
 1754              	.LHOTB62:
 1755              		.align 2
 1756              		.p2align 4,,15
 1757              		.weak	_ZNSt15basic_stringbufIcSt11char_traitsIcESaIcEED2Ev
 1759              	_ZNSt15basic_stringbufIcSt11char_traitsIcESaIcEED2Ev:
 1760              	.LFB1244:
 1761              		.cfi_startproc
 1762 0000 53       		pushq	%rbx
 1763              		.cfi_def_cfa_offset 16
 1764              		.cfi_offset 3, -16
 1765 0001 4889FB   		movq	%rdi, %rbx
 1766 0004 4883EC10 		subq	$16, %rsp
 1767              		.cfi_def_cfa_offset 32
 1768 0008 48C70700 		movq	$_ZTVSt15basic_stringbufIcSt11char_traitsIcESaIcEE+16, (%rdi)
 1768      000000
 1769 000f 64488B04 		movq	%fs:40, %rax
 1769      25280000 
 1769      00
 1770 0018 48894424 		movq	%rax, 8(%rsp)
 1770      08
 1771 001d 31C0     		xorl	%eax, %eax
 1772 001f 488B4748 		movq	72(%rdi), %rax
 1773 0023 488D78E8 		leaq	-24(%rax), %rdi
 1774 0027 4881FF00 		cmpq	$_ZNSs4_Rep20_S_empty_rep_storageE, %rdi
 1774      000000
 1775 002e 7530     		jne	.L130
 1776              	.L124:
 1777 0030 488D7B38 		leaq	56(%rbx), %rdi
 1778 0034 48C70300 		movq	$_ZTVSt15basic_streambufIcSt11char_traitsIcEE+16, (%rbx)
 1778      000000
 1779 003b E8000000 		call	_ZNSt6localeD1Ev
 1779      00
 1780 0040 488B4424 		movq	8(%rsp), %rax
 1780      08
 1781 0045 64483304 		xorq	%fs:40, %rax
 1781      25280000 
 1781      00
 1782 004e 754D     		jne	.L131
 1783 0050 4883C410 		addq	$16, %rsp
 1784              		.cfi_remember_state
 1785              		.cfi_def_cfa_offset 16
 1786 0054 5B       		popq	%rbx
 1787              		.cfi_def_cfa_offset 8
 1788 0055 C3       		ret
 1789 0056 662E0F1F 		.p2align 4,,10
 1789      84000000 
 1789      0000
 1790              		.p2align 3
 1791              	.L130:
 1792              		.cfi_restore_state
 1793 0060 BA000000 		movl	$_ZL28__gthrw___pthread_key_createPjPFvPvE, %edx
 1793      00
 1794 0065 4885D2   		testq	%rdx, %rdx
 1795 0068 7426     		je	.L125
 1796 006a BAFFFFFF 		movl	$-1, %edx
 1796      FF
 1797 006f F00FC150 		lock xaddl	%edx, -8(%rax)
 1797      F8
 1798 0074 89D0     		movl	%edx, %eax
 1799              	.L126:
 1800 0076 85C0     		testl	%eax, %eax
 1801 0078 7FB6     		jg	.L124
 1802 007a 488D7424 		leaq	7(%rsp), %rsi
 1802      07
 1803 007f E8000000 		call	_ZNSs4_Rep10_M_destroyERKSaIcE
 1803      00
 1804 0084 EBAA     		jmp	.L124
 1805 0086 662E0F1F 		.p2align 4,,10
 1805      84000000 
 1805      0000
 1806              		.p2align 3
 1807              	.L125:
 1808 0090 8B50F8   		movl	-8(%rax), %edx
 1809 0093 8D4AFF   		leal	-1(%rdx), %ecx
 1810 0096 8948F8   		movl	%ecx, -8(%rax)
 1811 0099 89D0     		movl	%edx, %eax
 1812 009b EBD9     		jmp	.L126
 1813              	.L131:
 1814 009d E8000000 		call	__stack_chk_fail
 1814      00
 1815              		.cfi_endproc
 1816              	.LFE1244:
 1818              		.section	.text.unlikely._ZNSt15basic_stringbufIcSt11char_traitsIcESaIcEED2Ev,"axG",@progbits,_ZNSt
 1819              	.LCOLDE62:
 1820              		.section	.text._ZNSt15basic_stringbufIcSt11char_traitsIcESaIcEED2Ev,"axG",@progbits,_ZNSt15basic_s
 1821              	.LHOTE62:
 1822              		.weak	_ZNSt15basic_stringbufIcSt11char_traitsIcESaIcEED1Ev
 1823              		.set	_ZNSt15basic_stringbufIcSt11char_traitsIcESaIcEED1Ev,_ZNSt15basic_stringbufIcSt11char_traitsI
 1824              		.section	.rodata.str1.1,"aMS",@progbits,1
 1825              	.LC63:
 1826 0000 45787065 		.string	"Expected [ "
 1826      63746564 
 1826      205B2000 
 1827              	.LC64:
 1828 000c 5B2000   		.string	"[ "
 1829              	.LC65:
 1830 000f 2000     		.string	" "
 1831              	.LC66:
 1832 0011 5D2000   		.string	"] "
 1833              	.LC67:
 1834 0014 5D202B2F 		.string	"] +/- "
 1834      2D2000
 1835              	.LC68:
 1836 001b 20627574 		.string	" but was [ "
 1836      20776173 
 1836      205B2000 
 1837              	.LC69:
 1838 0027 5D00     		.string	"]"
 1839              		.section	.text.unlikely
 1840              	.LCOLDB70:
 1841              		.text
 1842              	.LHOTB70:
 1843 04d9 0F1F8000 		.p2align 4,,15
 1843      000000
 1845              	_ZN8UnitTest17CheckArray2DCloseIA3_A3_fS2_fEEvRNS_11TestResultsERKT_RKT0_iiRKT1_RKNS_11TestDetailsE
 1846              	.LFB1455:
 1847              		.cfi_startproc
 1848              		.cfi_personality 0x3,__gxx_personality_v0
 1849              		.cfi_lsda 0x3,.LLSDA1455
 1850 04e0 4157     		pushq	%r15
 1851              		.cfi_def_cfa_offset 16
 1852              		.cfi_offset 15, -16
 1853 04e2 4156     		pushq	%r14
 1854              		.cfi_def_cfa_offset 24
 1855              		.cfi_offset 14, -24
 1856 04e4 4D89C7   		movq	%r8, %r15
 1857 04e7 4155     		pushq	%r13
 1858              		.cfi_def_cfa_offset 32
 1859              		.cfi_offset 13, -32
 1860 04e9 4154     		pushq	%r12
 1861              		.cfi_def_cfa_offset 40
 1862              		.cfi_offset 12, -40
 1863 04eb 4989CE   		movq	%rcx, %r14
 1864 04ee 55       		pushq	%rbp
 1865              		.cfi_def_cfa_offset 48
 1866              		.cfi_offset 6, -48
 1867 04ef 53       		pushq	%rbx
 1868              		.cfi_def_cfa_offset 56
 1869              		.cfi_offset 3, -56
 1870 04f0 4989F4   		movq	%rsi, %r12
 1871 04f3 4889D5   		movq	%rdx, %rbp
 1872 04f6 4881EC98 		subq	$408, %rsp
 1872      010000
 1873              		.cfi_def_cfa_offset 464
 1874 04fd F30F100E 		movss	(%rsi), %xmm1
 1875 0501 48897C24 		movq	%rdi, 8(%rsp)
 1875      08
 1876 0506 0F28D9   		movaps	%xmm1, %xmm3
 1877 0509 F30F1001 		movss	(%rcx), %xmm0
 1878 050d F30F1012 		movss	(%rdx), %xmm2
 1879 0511 F30F5CD8 		subss	%xmm0, %xmm3
 1880 0515 64488B04 		movq	%fs:40, %rax
 1880      25280000 
 1880      00
 1881 051e 48898424 		movq	%rax, 392(%rsp)
 1881      88010000 
 1882 0526 31C0     		xorl	%eax, %eax
 1883 0528 31C0     		xorl	%eax, %eax
 1884 052a 0F2ED3   		ucomiss	%xmm3, %xmm2
 1885 052d 720A     		jb	.L133
 1886 052f F30F58C8 		addss	%xmm0, %xmm1
 1887 0533 0F2ECA   		ucomiss	%xmm2, %xmm1
 1888 0536 0F93C0   		setnb	%al
 1889              	.L133:
 1890 0539 F3410F10 		movss	4(%r12), %xmm1
 1890      4C2404
 1891 0540 0F28D9   		movaps	%xmm1, %xmm3
 1892 0543 F30F1055 		movss	4(%rbp), %xmm2
 1892      04
 1893 0548 F30F5CD8 		subss	%xmm0, %xmm3
 1894 054c 0F2ED3   		ucomiss	%xmm3, %xmm2
 1895 054f 0F82B704 		jb	.L206
 1895      0000
 1896 0555 F30F58C8 		addss	%xmm0, %xmm1
 1897 0559 BA000000 		movl	$0, %edx
 1897      00
 1898 055e 0F2ECA   		ucomiss	%xmm2, %xmm1
 1899 0561 0F42C2   		cmovb	%edx, %eax
 1900              	.L135:
 1901 0564 F3410F10 		movss	8(%r12), %xmm1
 1901      4C2408
 1902 056b 0F28D9   		movaps	%xmm1, %xmm3
 1903 056e F30F1055 		movss	8(%rbp), %xmm2
 1903      08
 1904 0573 F30F5CD8 		subss	%xmm0, %xmm3
 1905 0577 0F2ED3   		ucomiss	%xmm3, %xmm2
 1906 057a 0F828504 		jb	.L207
 1906      0000
 1907 0580 F30F58C8 		addss	%xmm0, %xmm1
 1908 0584 BA000000 		movl	$0, %edx
 1908      00
 1909 0589 0F2ECA   		ucomiss	%xmm2, %xmm1
 1910 058c 0F42C2   		cmovb	%edx, %eax
 1911              	.L137:
 1912 058f F3410F10 		movss	12(%r12), %xmm1
 1912      4C240C
 1913 0596 31D2     		xorl	%edx, %edx
 1914 0598 0F28D9   		movaps	%xmm1, %xmm3
 1915 059b F30F1055 		movss	12(%rbp), %xmm2
 1915      0C
 1916 05a0 F30F5CD8 		subss	%xmm0, %xmm3
 1917 05a4 0F2ED3   		ucomiss	%xmm3, %xmm2
 1918 05a7 720A     		jb	.L139
 1919 05a9 F30F58C8 		addss	%xmm0, %xmm1
 1920 05ad 0F2ECA   		ucomiss	%xmm2, %xmm1
 1921 05b0 0F93C2   		setnb	%dl
 1922              	.L139:
 1923 05b3 F3410F10 		movss	16(%r12), %xmm1
 1923      4C2410
 1924 05ba 0F28D9   		movaps	%xmm1, %xmm3
 1925 05bd F30F1055 		movss	16(%rbp), %xmm2
 1925      10
 1926 05c2 F30F5CD8 		subss	%xmm0, %xmm3
 1927 05c6 0F2ED3   		ucomiss	%xmm3, %xmm2
 1928 05c9 0F822F04 		jb	.L209
 1928      0000
 1929 05cf F30F58C8 		addss	%xmm0, %xmm1
 1930 05d3 B9000000 		movl	$0, %ecx
 1930      00
 1931 05d8 0F2ECA   		ucomiss	%xmm2, %xmm1
 1932 05db 0F42D1   		cmovb	%ecx, %edx
 1933              	.L141:
 1934 05de F3410F10 		movss	20(%r12), %xmm1
 1934      4C2414
 1935 05e5 0F28D9   		movaps	%xmm1, %xmm3
 1936 05e8 F30F1055 		movss	20(%rbp), %xmm2
 1936      14
 1937 05ed F30F5CD8 		subss	%xmm0, %xmm3
 1938 05f1 0F2ED3   		ucomiss	%xmm3, %xmm2
 1939 05f4 0F82FD03 		jb	.L210
 1939      0000
 1940 05fa F30F58C8 		addss	%xmm0, %xmm1
 1941 05fe 21D0     		andl	%edx, %eax
 1942 0600 BA000000 		movl	$0, %edx
 1942      00
 1943 0605 0F2ECA   		ucomiss	%xmm2, %xmm1
 1944 0608 0F42C2   		cmovb	%edx, %eax
 1945              	.L143:
 1946 060b F3410F10 		movss	24(%r12), %xmm1
 1946      4C2418
 1947 0612 31D2     		xorl	%edx, %edx
 1948 0614 0F28D9   		movaps	%xmm1, %xmm3
 1949 0617 F30F1055 		movss	24(%rbp), %xmm2
 1949      18
 1950 061c F30F5CD8 		subss	%xmm0, %xmm3
 1951 0620 0F2ED3   		ucomiss	%xmm3, %xmm2
 1952 0623 720A     		jb	.L146
 1953 0625 F30F58C8 		addss	%xmm0, %xmm1
 1954 0629 0F2ECA   		ucomiss	%xmm2, %xmm1
 1955 062c 0F93C2   		setnb	%dl
 1956              	.L146:
 1957 062f F3410F10 		movss	28(%r12), %xmm1
 1957      4C241C
 1958 0636 0F28D9   		movaps	%xmm1, %xmm3
 1959 0639 F30F1055 		movss	28(%rbp), %xmm2
 1959      1C
 1960 063e F30F5CD8 		subss	%xmm0, %xmm3
 1961 0642 0F2ED3   		ucomiss	%xmm3, %xmm2
 1962 0645 0F82A503 		jb	.L212
 1962      0000
 1963 064b F30F58C8 		addss	%xmm0, %xmm1
 1964 064f B9000000 		movl	$0, %ecx
 1964      00
 1965 0654 0F2ECA   		ucomiss	%xmm2, %xmm1
 1966 0657 0F42D1   		cmovb	%ecx, %edx
 1967              	.L148:
 1968 065a F3410F10 		movss	32(%r12), %xmm2
 1968      542420
 1969 0661 0F28DA   		movaps	%xmm2, %xmm3
 1970 0664 F30F104D 		movss	32(%rbp), %xmm1
 1970      20
 1971 0669 F30F5CD8 		subss	%xmm0, %xmm3
 1972 066d 0F2ECB   		ucomiss	%xmm3, %xmm1
 1973 0670 0F835903 		jnb	.L218
 1973      0000
 1974              	.L150:
 1975 0676 488D9C24 		leaq	128(%rsp), %rbx
 1975      80000000 
 1976 067e 4889DF   		movq	%rbx, %rdi
 1977 0681 E8000000 		call	_ZNSt8ios_baseC2Ev
 1977      00
 1978 0686 31F6     		xorl	%esi, %esi
 1979 0688 4889DF   		movq	%rbx, %rdi
 1980 068b 48C78424 		movq	$0, 344(%rsp)
 1980      58010000 
 1980      00000000 
 1981 0697 C6842460 		movb	$0, 352(%rsp)
 1981      01000000 
 1982 069f C6842461 		movb	$0, 353(%rsp)
 1982      01000000 
 1983 06a7 48C78424 		movq	$0, 360(%rsp)
 1983      68010000 
 1983      00000000 
 1984 06b3 48C78424 		movq	$0, 368(%rsp)
 1984      70010000 
 1984      00000000 
 1985 06bf 48C78424 		movq	$0, 376(%rsp)
 1985      78010000 
 1985      00000000 
 1986 06cb 48C78424 		movq	$0, 384(%rsp)
 1986      80010000 
 1986      00000000 
 1987 06d7 48C74424 		movq	$_ZTCN8UnitTest15MemoryOutStreamE0_So+24, 32(%rsp)
 1987      20000000 
 1987      00
 1988 06e0 48C78424 		movq	$_ZTCN8UnitTest15MemoryOutStreamE0_So+64, 128(%rsp)
 1988      80000000 
 1988      00000000 
 1989              	.LEHB0:
 1990 06ec E8000000 		call	_ZNSt9basic_iosIcSt11char_traitsIcEE4initEPSt15basic_streambufIcS1_E
 1990      00
 1991              	.LEHE0:
 1992 06f1 488D7C24 		leaq	96(%rsp), %rdi
 1992      60
 1993 06f6 48C74424 		movq	$_ZTCN8UnitTest15MemoryOutStreamE0_St19basic_ostringstreamIcSt11char_traitsIcESaIcEE+24, 32(%
 1993      20000000 
 1993      00
 1994 06ff 48C78424 		movq	$_ZTCN8UnitTest15MemoryOutStreamE0_St19basic_ostringstreamIcSt11char_traitsIcESaIcEE+64, 128(
 1994      80000000 
 1994      00000000 
 1995 070b 48C74424 		movq	$_ZTVSt15basic_streambufIcSt11char_traitsIcEE+16, 40(%rsp)
 1995      28000000 
 1995      00
 1996 0714 48C74424 		movq	$0, 48(%rsp)
 1996      30000000 
 1996      00
 1997 071d 48C74424 		movq	$0, 56(%rsp)
 1997      38000000 
 1997      00
 1998 0726 48C74424 		movq	$0, 64(%rsp)
 1998      40000000 
 1998      00
 1999 072f 48C74424 		movq	$0, 72(%rsp)
 1999      48000000 
 1999      00
 2000 0738 48C74424 		movq	$0, 80(%rsp)
 2000      50000000 
 2000      00
 2001 0741 48C74424 		movq	$0, 88(%rsp)
 2001      58000000 
 2001      00
 2002 074a E8000000 		call	_ZNSt6localeC1Ev
 2002      00
 2003 074f 488B4424 		movq	32(%rsp), %rax
 2003      20
 2004 0754 488D7C24 		leaq	32(%rsp), %rdi
 2004      20
 2005 0759 488D7424 		leaq	40(%rsp), %rsi
 2005      28
 2006 075e 48C74424 		movq	$_ZTVSt15basic_stringbufIcSt11char_traitsIcESaIcEE+16, 40(%rsp)
 2006      28000000 
 2006      00
 2007 0767 C7442468 		movl	$16, 104(%rsp)
 2007      10000000 
 2008 076f 48C74424 		movq	$_ZNSs4_Rep20_S_empty_rep_storageE+24, 112(%rsp)
 2008      70000000 
 2008      00
 2009 0778 480378E8 		addq	-24(%rax), %rdi
 2010              	.LEHB1:
 2011 077c E8000000 		call	_ZNSt9basic_iosIcSt11char_traitsIcEE4initEPSt15basic_streambufIcS1_E
 2011      00
 2012              	.LEHE1:
 2013 0781 488D7C24 		leaq	32(%rsp), %rdi
 2013      20
 2014 0786 BA0B0000 		movl	$11, %edx
 2014      00
 2015 078b BE000000 		movl	$.LC63, %esi
 2015      00
 2016 0790 48C74424 		movq	$_ZTVN8UnitTest15MemoryOutStreamE+24, 32(%rsp)
 2016      20000000 
 2016      00
 2017 0799 48C78424 		movq	$_ZTVN8UnitTest15MemoryOutStreamE+64, 128(%rsp)
 2017      80000000 
 2017      00000000 
 2018 07a5 48C74424 		movq	$_ZNSs4_Rep20_S_empty_rep_storageE+24, 120(%rsp)
 2018      78000000 
 2018      00
 2019              	.LEHB2:
 2020 07ae E8000000 		call	_ZSt16__ostream_insertIcSt11char_traitsIcEERSt13basic_ostreamIT_T0_ES6_PKS3_l
 2020      00
 2021 07b3 4D8D6C24 		leaq	36(%r12), %r13
 2021      24
 2022 07b8 0F1F8400 		.p2align 4,,10
 2022      00000000 
 2023              		.p2align 3
 2024              	.L160:
 2025 07c0 488D7C24 		leaq	32(%rsp), %rdi
 2025      20
 2026 07c5 BA020000 		movl	$2, %edx
 2026      00
 2027 07ca BE000000 		movl	$.LC64, %esi
 2027      00
 2028 07cf E8000000 		call	_ZSt16__ostream_insertIcSt11char_traitsIcEERSt13basic_ostreamIT_T0_ES6_PKS3_l
 2028      00
 2029 07d4 31DB     		xorl	%ebx, %ebx
 2030 07d6 662E0F1F 		.p2align 4,,10
 2030      84000000 
 2030      0000
 2031              		.p2align 3
 2032              	.L159:
 2033 07e0 660FEFC0 		pxor	%xmm0, %xmm0
 2034 07e4 488D7C24 		leaq	32(%rsp), %rdi
 2034      20
 2035 07e9 F3410F5A 		cvtss2sd	(%r12,%rbx), %xmm0
 2035      041C
 2036 07ef E8000000 		call	_ZNSo9_M_insertIdEERSoT_
 2036      00
 2037 07f4 BA010000 		movl	$1, %edx
 2037      00
 2038 07f9 BE000000 		movl	$.LC65, %esi
 2038      00
 2039 07fe 4889C7   		movq	%rax, %rdi
 2040 0801 E8000000 		call	_ZSt16__ostream_insertIcSt11char_traitsIcEERSt13basic_ostreamIT_T0_ES6_PKS3_l
 2040      00
 2041 0806 4883C304 		addq	$4, %rbx
 2042 080a 4883FB0C 		cmpq	$12, %rbx
 2043 080e 75D0     		jne	.L159
 2044 0810 488D7C24 		leaq	32(%rsp), %rdi
 2044      20
 2045 0815 BA020000 		movl	$2, %edx
 2045      00
 2046 081a BE000000 		movl	$.LC66, %esi
 2046      00
 2047 081f E8000000 		call	_ZSt16__ostream_insertIcSt11char_traitsIcEERSt13basic_ostreamIT_T0_ES6_PKS3_l
 2047      00
 2048 0824 4983C40C 		addq	$12, %r12
 2049 0828 4D39EC   		cmpq	%r13, %r12
 2050 082b 7593     		jne	.L160
 2051 082d 488D7C24 		leaq	32(%rsp), %rdi
 2051      20
 2052 0832 F3410F10 		movss	(%r14), %xmm4
 2052      26
 2053 0837 BA060000 		movl	$6, %edx
 2053      00
 2054 083c BE000000 		movl	$.LC67, %esi
 2054      00
 2055 0841 F30F1164 		movss	%xmm4, 4(%rsp)
 2055      2404
 2056 0847 E8000000 		call	_ZSt16__ostream_insertIcSt11char_traitsIcEERSt13basic_ostreamIT_T0_ES6_PKS3_l
 2056      00
 2057 084c 660FEFC0 		pxor	%xmm0, %xmm0
 2058 0850 488D7C24 		leaq	32(%rsp), %rdi
 2058      20
 2059 0855 F30F5A44 		cvtss2sd	4(%rsp), %xmm0
 2059      2404
 2060 085b E8000000 		call	_ZNSo9_M_insertIdEERSoT_
 2060      00
 2061 0860 BA0B0000 		movl	$11, %edx
 2061      00
 2062 0865 BE000000 		movl	$.LC68, %esi
 2062      00
 2063 086a 4889C7   		movq	%rax, %rdi
 2064 086d E8000000 		call	_ZSt16__ostream_insertIcSt11char_traitsIcEERSt13basic_ostreamIT_T0_ES6_PKS3_l
 2064      00
 2065 0872 4C8D6524 		leaq	36(%rbp), %r12
 2066 0876 662E0F1F 		.p2align 4,,10
 2066      84000000 
 2066      0000
 2067              		.p2align 3
 2068              	.L162:
 2069 0880 488D7C24 		leaq	32(%rsp), %rdi
 2069      20
 2070 0885 BA020000 		movl	$2, %edx
 2070      00
 2071 088a BE000000 		movl	$.LC64, %esi
 2071      00
 2072 088f E8000000 		call	_ZSt16__ostream_insertIcSt11char_traitsIcEERSt13basic_ostreamIT_T0_ES6_PKS3_l
 2072      00
 2073 0894 31DB     		xorl	%ebx, %ebx
 2074 0896 662E0F1F 		.p2align 4,,10
 2074      84000000 
 2074      0000
 2075              		.p2align 3
 2076              	.L161:
 2077 08a0 660FEFC0 		pxor	%xmm0, %xmm0
 2078 08a4 488D7C24 		leaq	32(%rsp), %rdi
 2078      20
 2079 08a9 F30F5A44 		cvtss2sd	0(%rbp,%rbx), %xmm0
 2079      1D00
 2080 08af E8000000 		call	_ZNSo9_M_insertIdEERSoT_
 2080      00
 2081 08b4 BA010000 		movl	$1, %edx
 2081      00
 2082 08b9 BE000000 		movl	$.LC65, %esi
 2082      00
 2083 08be 4889C7   		movq	%rax, %rdi
 2084 08c1 E8000000 		call	_ZSt16__ostream_insertIcSt11char_traitsIcEERSt13basic_ostreamIT_T0_ES6_PKS3_l
 2084      00
 2085 08c6 4883C304 		addq	$4, %rbx
 2086 08ca 4883FB0C 		cmpq	$12, %rbx
 2087 08ce 75D0     		jne	.L161
 2088 08d0 488D7C24 		leaq	32(%rsp), %rdi
 2088      20
 2089 08d5 BA020000 		movl	$2, %edx
 2089      00
 2090 08da BE000000 		movl	$.LC66, %esi
 2090      00
 2091 08df E8000000 		call	_ZSt16__ostream_insertIcSt11char_traitsIcEERSt13basic_ostreamIT_T0_ES6_PKS3_l
 2091      00
 2092 08e4 4883C50C 		addq	$12, %rbp
 2093 08e8 4C39E5   		cmpq	%r12, %rbp
 2094 08eb 7593     		jne	.L162
 2095 08ed 488D7C24 		leaq	32(%rsp), %rdi
 2095      20
 2096 08f2 BA010000 		movl	$1, %edx
 2096      00
 2097 08f7 BE000000 		movl	$.LC69, %esi
 2097      00
 2098 08fc E8000000 		call	_ZSt16__ostream_insertIcSt11char_traitsIcEERSt13basic_ostreamIT_T0_ES6_PKS3_l
 2098      00
 2099 0901 488D7C24 		leaq	32(%rsp), %rdi
 2099      20
 2100 0906 E8000000 		call	_ZNK8UnitTest15MemoryOutStream7GetTextEv
 2100      00
 2101 090b 488B7C24 		movq	8(%rsp), %rdi
 2101      08
 2102 0910 4889C2   		movq	%rax, %rdx
 2103 0913 4C89FE   		movq	%r15, %rsi
 2104 0916 E8000000 		call	_ZN8UnitTest11TestResults13OnTestFailureERKNS_11TestDetailsEPKc
 2104      00
 2105              	.LEHE2:
 2106 091b 488B5424 		movq	120(%rsp), %rdx
 2106      78
 2107 0920 48C74424 		movq	$_ZTVN8UnitTest15MemoryOutStreamE+24, 32(%rsp)
 2107      20000000 
 2107      00
 2108 0929 48C78424 		movq	$_ZTVN8UnitTest15MemoryOutStreamE+64, 128(%rsp)
 2108      80000000 
 2108      00000000 
 2109 0935 488D7AE8 		leaq	-24(%rdx), %rdi
 2110 0939 4881FF00 		cmpq	$_ZNSs4_Rep20_S_empty_rep_storageE, %rdi
 2110      000000
 2111 0940 0F85CD00 		jne	.L219
 2111      0000
 2112              	.L164:
 2113 0946 488B5424 		movq	112(%rsp), %rdx
 2113      70
 2114 094b 48C74424 		movq	$_ZTCN8UnitTest15MemoryOutStreamE0_St19basic_ostringstreamIcSt11char_traitsIcESaIcEE+24, 32(%
 2114      20000000 
 2114      00
 2115 0954 48C78424 		movq	$_ZTCN8UnitTest15MemoryOutStreamE0_St19basic_ostringstreamIcSt11char_traitsIcESaIcEE+64, 128(
 2115      80000000 
 2115      00000000 
 2116 0960 48C74424 		movq	$_ZTVSt15basic_stringbufIcSt11char_traitsIcESaIcEE+16, 40(%rsp)
 2116      28000000 
 2116      00
 2117 0969 488D7AE8 		leaq	-24(%rdx), %rdi
 2118 096d 4881FF00 		cmpq	$_ZNSs4_Rep20_S_empty_rep_storageE, %rdi
 2118      000000
 2119 0974 0F85CE00 		jne	.L220
 2119      0000
 2120              	.L169:
 2121 097a 488D7C24 		leaq	96(%rsp), %rdi
 2121      60
 2122 097f 48C74424 		movq	$_ZTVSt15basic_streambufIcSt11char_traitsIcEE+16, 40(%rsp)
 2122      28000000 
 2122      00
 2123 0988 E8000000 		call	_ZNSt6localeD1Ev
 2123      00
 2124 098d 488DBC24 		leaq	128(%rsp), %rdi
 2124      80000000 
 2125 0995 48C78424 		movq	$_ZTVSt9basic_iosIcSt11char_traitsIcEE+16, 128(%rsp)
 2125      80000000 
 2125      00000000 
 2126              	.LEHB3:
 2127 09a1 E8000000 		call	_ZNSt8ios_baseD2Ev
 2127      00
 2128              	.LEHE3:
 2129              	.L132:
 2130 09a6 488B8424 		movq	392(%rsp), %rax
 2130      88010000 
 2131 09ae 64483304 		xorq	%fs:40, %rax
 2131      25280000 
 2131      00
 2132 09b7 0F850901 		jne	.L221
 2132      0000
 2133 09bd 4881C498 		addq	$408, %rsp
 2133      010000
 2134              		.cfi_remember_state
 2135              		.cfi_def_cfa_offset 56
 2136 09c4 5B       		popq	%rbx
 2137              		.cfi_def_cfa_offset 48
 2138 09c5 5D       		popq	%rbp
 2139              		.cfi_def_cfa_offset 40
 2140 09c6 415C     		popq	%r12
 2141              		.cfi_def_cfa_offset 32
 2142 09c8 415D     		popq	%r13
 2143              		.cfi_def_cfa_offset 24
 2144 09ca 415E     		popq	%r14
 2145              		.cfi_def_cfa_offset 16
 2146 09cc 415F     		popq	%r15
 2147              		.cfi_def_cfa_offset 8
 2148 09ce C3       		ret
 2149              	.L218:
 2150              		.cfi_restore_state
 2151 09cf F30F58C2 		addss	%xmm2, %xmm0
 2152 09d3 0F2EC1   		ucomiss	%xmm1, %xmm0
 2153 09d6 0F829AFC 		jb	.L150
 2153      FFFF
 2154 09dc 84D2     		testb	%dl, %dl
 2155 09de 0F8492FC 		je	.L150
 2155      FFFF
 2156 09e4 84C0     		testb	%al, %al
 2157 09e6 75BE     		jne	.L132
 2158 09e8 E989FCFF 		jmp	.L150
 2158      FF
 2159 09ed 0F1F00   		.p2align 4,,10
 2160              		.p2align 3
 2161              	.L212:
 2162 09f0 31D2     		xorl	%edx, %edx
 2163 09f2 E963FCFF 		jmp	.L148
 2163      FF
 2164              	.L210:
 2165 09f7 31C0     		xorl	%eax, %eax
 2166 09f9 E90DFCFF 		jmp	.L143
 2166      FF
 2167              	.L209:
 2168 09fe 31D2     		xorl	%edx, %edx
 2169 0a00 E9D9FBFF 		jmp	.L141
 2169      FF
 2170              	.L207:
 2171 0a05 31C0     		xorl	%eax, %eax
 2172 0a07 E983FBFF 		jmp	.L137
 2172      FF
 2173              	.L206:
 2174 0a0c 31C0     		xorl	%eax, %eax
 2175 0a0e E951FBFF 		jmp	.L135
 2175      FF
 2176              	.L219:
 2177 0a13 B8000000 		movl	$_ZL28__gthrw___pthread_key_createPjPFvPvE, %eax
 2177      00
 2178 0a18 4885C0   		testq	%rax, %rax
 2179 0a1b 0F84AA00 		je	.L165
 2179      0000
 2180 0a21 B8FFFFFF 		movl	$-1, %eax
 2180      FF
 2181 0a26 F00FC142 		lock xaddl	%eax, -8(%rdx)
 2181      F8
 2182              	.L166:
 2183 0a2b 85C0     		testl	%eax, %eax
 2184 0a2d 0F8F13FF 		jg	.L164
 2184      FFFF
 2185 0a33 488D7424 		leaq	31(%rsp), %rsi
 2185      1F
 2186 0a38 E8000000 		call	_ZNSs4_Rep10_M_destroyERKSaIcE
 2186      00
 2187 0a3d E904FFFF 		jmp	.L164
 2187      FF
 2188              		.p2align 4,,10
 2189 0a42 660F1F44 		.p2align 3
 2189      0000
 2190              	.L220:
 2191 0a48 B8000000 		movl	$_ZL28__gthrw___pthread_key_createPjPFvPvE, %eax
 2191      00
 2192 0a4d 4885C0   		testq	%rax, %rax
 2193 0a50 744F     		je	.L170
 2194 0a52 B8FFFFFF 		movl	$-1, %eax
 2194      FF
 2195 0a57 F00FC142 		lock xaddl	%eax, -8(%rdx)
 2195      F8
 2196              	.L171:
 2197 0a5c 85C0     		testl	%eax, %eax
 2198 0a5e 0F8F16FF 		jg	.L169
 2198      FFFF
 2199 0a64 488D7424 		leaq	31(%rsp), %rsi
 2199      1F
 2200 0a69 E8000000 		call	_ZNSs4_Rep10_M_destroyERKSaIcE
 2200      00
 2201 0a6e E907FFFF 		jmp	.L169
 2201      FF
 2202              	.L186:
 2203 0a73 488D7C24 		leaq	40(%rsp), %rdi
 2203      28
 2204 0a78 4889C3   		movq	%rax, %rbx
 2205 0a7b E8000000 		call	_ZNSt15basic_stringbufIcSt11char_traitsIcESaIcEED1Ev
 2205      00
 2206              	.L157:
 2207 0a80 488DBC24 		leaq	128(%rsp), %rdi
 2207      80000000 
 2208 0a88 48C78424 		movq	$_ZTVSt9basic_iosIcSt11char_traitsIcEE+16, 128(%rsp)
 2208      80000000 
 2208      00000000 
 2209 0a94 E8000000 		call	_ZNSt8ios_baseD2Ev
 2209      00
 2210 0a99 4889DF   		movq	%rbx, %rdi
 2211              	.LEHB4:
 2212 0a9c E8000000 		call	_Unwind_Resume
 2212      00
 2213              	.LEHE4:
 2214              	.L170:
 2215 0aa1 8B42F8   		movl	-8(%rdx), %eax
 2216 0aa4 8D48FF   		leal	-1(%rax), %ecx
 2217 0aa7 894AF8   		movl	%ecx, -8(%rdx)
 2218 0aaa EBB0     		jmp	.L171
 2219              	.L184:
 2220 0aac 488D7C24 		leaq	32(%rsp), %rdi
 2220      20
 2221 0ab1 4889C3   		movq	%rax, %rbx
 2222 0ab4 E8000000 		call	_ZN8UnitTest15MemoryOutStreamD1Ev
 2222      00
 2223 0ab9 4889DF   		movq	%rbx, %rdi
 2224              	.LEHB5:
 2225 0abc E8000000 		call	_Unwind_Resume
 2225      00
 2226              	.LEHE5:
 2227              	.L185:
 2228 0ac1 4889C3   		movq	%rax, %rbx
 2229 0ac4 EBBA     		jmp	.L157
 2230              	.L221:
 2231 0ac6 E8000000 		call	__stack_chk_fail
 2231      00
 2232              	.L165:
 2233 0acb 8B42F8   		movl	-8(%rdx), %eax
 2234 0ace 8D48FF   		leal	-1(%rax), %ecx
 2235 0ad1 894AF8   		movl	%ecx, -8(%rdx)
 2236 0ad4 E952FFFF 		jmp	.L166
 2236      FF
 2237              		.cfi_endproc
 2238              	.LFE1455:
 2239              		.globl	__gxx_personality_v0
 2240              		.section	.gcc_except_table,"a",@progbits
 2241              	.LLSDA1455:
 2242 0000 FF       		.byte	0xff
 2243 0001 FF       		.byte	0xff
 2244 0002 01       		.byte	0x1
 2245 0003 22       		.uleb128 .LLSDACSE1455-.LLSDACSB1455
 2246              	.LLSDACSB1455:
 2247 0004 8C04     		.uleb128 .LEHB0-.LFB1455
 2248 0006 05       		.uleb128 .LEHE0-.LEHB0
 2249 0007 E10B     		.uleb128 .L185-.LFB1455
 2250 0009 00       		.uleb128 0
 2251 000a 9C05     		.uleb128 .LEHB1-.LFB1455
 2252 000c 05       		.uleb128 .LEHE1-.LEHB1
 2253 000d 930B     		.uleb128 .L186-.LFB1455
 2254 000f 00       		.uleb128 0
 2255 0010 CE05     		.uleb128 .LEHB2-.LFB1455
 2256 0012 ED02     		.uleb128 .LEHE2-.LEHB2
 2257 0014 CC0B     		.uleb128 .L184-.LFB1455
 2258 0016 00       		.uleb128 0
 2259 0017 C109     		.uleb128 .LEHB3-.LFB1455
 2260 0019 05       		.uleb128 .LEHE3-.LEHB3
 2261 001a 00       		.uleb128 0
 2262 001b 00       		.uleb128 0
 2263 001c BC0B     		.uleb128 .LEHB4-.LFB1455
 2264 001e 05       		.uleb128 .LEHE4-.LEHB4
 2265 001f 00       		.uleb128 0
 2266 0020 00       		.uleb128 0
 2267 0021 DC0B     		.uleb128 .LEHB5-.LFB1455
 2268 0023 05       		.uleb128 .LEHE5-.LEHB5
 2269 0024 00       		.uleb128 0
 2270 0025 00       		.uleb128 0
 2271              	.LLSDACSE1455:
 2272              		.text
 2274              		.section	.text.unlikely
 2275              	.LCOLDE70:
 2276              		.text
 2277              	.LHOTE70:
 2278              		.section	.rodata.str1.1
 2279              	.LC72:
 2280 0029 00       		.string	""
 2281              	.LC73:
 2282 002a 45787065 		.string	"Expected "
 2282      63746564 
 2282      2000
 2283              	.LC75:
 2284 0034 202B2F2D 		.string	" +/- "
 2284      2000
 2285              	.LC77:
 2286 003a 20627574 		.string	" but was "
 2286      20776173 
 2286      2000
 2287              	.LC79:
 2288 0044 78706563 		.string	"xpected 0.9"
 2288      74656420 
 2288      302E3900 
 2289              		.section	.rodata.str1.8,"aMS",@progbits,1
 2290              		.align 8
 2291              	.LC80:
 2292 0000 73747273 		.string	"strstr(reporter.lastFailedMessage, \"xpected 0.9\")"
 2292      74722872 
 2292      65706F72 
 2292      7465722E 
 2292      6C617374 
 2293              		.section	.rodata.str1.1
 2294              	.LC81:
 2295 0050 77617320 		.string	"was 1.1"
 2295      312E3100 
 2296              		.section	.rodata.str1.8
 2297 0032 00000000 		.align 8
 2297      0000
 2298              	.LC82:
 2299 0038 73747273 		.string	"strstr(reporter.lastFailedMessage, \"was 1.1\")"
 2299      74722872 
 2299      65706F72 
 2299      7465722E 
 2299      6C617374 
 2300 0066 0000     		.align 8
 2301              	.LC83:
 2302 0068 556E6861 		.string	"Unhandled exception in CHECK(strstr(reporter.lastFailedMessage, \"xpected 0.9\"))"
 2302      6E646C65 
 2302      64206578 
 2302      63657074 
 2302      696F6E20 
 2303              		.align 8
 2304              	.LC84:
 2305 00b8 556E6861 		.string	"Unhandled exception in CHECK(strstr(reporter.lastFailedMessage, \"was 1.1\"))"
 2305      6E646C65 
 2305      64206578 
 2305      63657074 
 2305      696F6E20 
 2306              		.section	.text.unlikely
 2307              		.align 2
 2308              	.LCOLDB85:
 2309              		.text
 2310              	.LHOTB85:
 2311 0ad9 90       		.align 2
 2312 0ada 660F1F44 		.p2align 4,,15
 2312      0000
 2314              	_ZNK12_GLOBAL__N_151TestCheckCloseFailureIncludesCheckExpectedAndActual7RunImplEv:
 2315              	.LFB1190:
 2316              		.cfi_startproc
 2317              		.cfi_personality 0x3,__gxx_personality_v0
 2318              		.cfi_lsda 0x3,.LLSDA1190
 2319 0ae0 53       		pushq	%rbx
 2320              		.cfi_def_cfa_offset 16
 2321              		.cfi_offset 3, -16
 2322 0ae1 4881EC00 		subq	$2560, %rsp
 2322      0A0000
 2323              		.cfi_def_cfa_offset 2576
 2324 0ae8 488DB424 		leaq	448(%rsp), %rsi
 2324      C0010000 
 2325 0af0 488D7C24 		leaq	16(%rsp), %rdi
 2325      10
 2326 0af5 48C78424 		movq	$_ZTV17RecordingReporter+16, 448(%rsp)
 2326      C0010000 
 2326      00000000 
 2327 0b01 64488B04 		movq	%fs:40, %rax
 2327      25280000 
 2327      00
 2328 0b0a 48898424 		movq	%rax, 2552(%rsp)
 2328      F8090000 
 2329 0b12 31C0     		xorl	%eax, %eax
 2330 0b14 C78424C8 		movl	$0, 456(%rsp)
 2330      01000000 
 2330      000000
 2331 0b1f C78424CC 		movl	$0, 972(%rsp)
 2331      03000000 
 2331      000000
 2332 0b2a C78424D0 		movl	$0, 1232(%rsp)
 2332      04000000 
 2332      000000
 2333 0b35 C78424D4 		movl	$0, 2004(%rsp)
 2333      07000000 
 2333      000000
 2334 0b40 C78424D8 		movl	$0x00000000, 2520(%rsp)
 2334      09000000 
 2334      000000
 2335 0b4b C78424DC 		movl	$0, 2524(%rsp)
 2335      09000000 
 2335      000000
 2336 0b56 C78424E0 		movl	$0, 2528(%rsp)
 2336      09000000 
 2336      000000
 2337 0b61 C78424E4 		movl	$0, 2532(%rsp)
 2337      09000000 
 2337      000000
 2338 0b6c C78424E8 		movl	$0x00000000, 2536(%rsp)
 2338      09000000 
 2338      000000
 2339 0b77 C68424CC 		movb	$0, 460(%rsp)
 2339      01000000 
 2340 0b7f C68424CC 		movb	$0, 716(%rsp)
 2340      02000000 
 2341 0b87 C68424D0 		movb	$0, 976(%rsp)
 2341      03000000 
 2342 0b8f C68424D4 		movb	$0, 1236(%rsp)
 2342      04000000 
 2343 0b97 C68424D4 		movb	$0, 1492(%rsp)
 2343      05000000 
 2344 0b9f C68424D4 		movb	$0, 1748(%rsp)
 2344      06000000 
 2345 0ba7 C68424D8 		movb	$0, 2008(%rsp)
 2345      07000000 
 2346 0baf C68424D8 		movb	$0, 2264(%rsp)
 2346      08000000 
 2347              	.LEHB6:
 2348 0bb7 E8000000 		call	_ZN8UnitTest11TestResultsC1EPNS_12TestReporterE
 2348      00
 2349 0bbc B9000000 		movl	$.LC72, %ecx
 2349      00
 2350 0bc1 488D7C24 		leaq	48(%rsp), %rdi
 2350      30
 2351 0bc6 4531C0   		xorl	%r8d, %r8d
 2352 0bc9 4889CA   		movq	%rcx, %rdx
 2353 0bcc 4889CE   		movq	%rcx, %rsi
 2354 0bcf E8000000 		call	_ZN8UnitTest11TestDetailsC1EPKcS2_S2_i
 2354      00
 2355              	.LEHE6:
 2356 0bd4 488D9C24 		leaq	176(%rsp), %rbx
 2356      B0000000 
 2357 0bdc 4889DF   		movq	%rbx, %rdi
 2358 0bdf E8000000 		call	_ZNSt8ios_baseC2Ev
 2358      00
 2359 0be4 31F6     		xorl	%esi, %esi
 2360 0be6 4889DF   		movq	%rbx, %rdi
 2361 0be9 48C78424 		movq	$0, 392(%rsp)
 2361      88010000 
 2361      00000000 
 2362 0bf5 C6842490 		movb	$0, 400(%rsp)
 2362      01000000 
 2363 0bfd C6842491 		movb	$0, 401(%rsp)
 2363      01000000 
 2364 0c05 48C78424 		movq	$0, 408(%rsp)
 2364      98010000 
 2364      00000000 
 2365 0c11 48C78424 		movq	$0, 416(%rsp)
 2365      A0010000 
 2365      00000000 
 2366 0c1d 48C78424 		movq	$0, 424(%rsp)
 2366      A8010000 
 2366      00000000 
 2367 0c29 48C78424 		movq	$0, 432(%rsp)
 2367      B0010000 
 2367      00000000 
 2368 0c35 48C74424 		movq	$_ZTCN8UnitTest15MemoryOutStreamE0_So+24, 80(%rsp)
 2368      50000000 
 2368      00
 2369 0c3e 48C78424 		movq	$_ZTCN8UnitTest15MemoryOutStreamE0_So+64, 176(%rsp)
 2369      B0000000 
 2369      00000000 
 2370              	.LEHB7:
 2371 0c4a E8000000 		call	_ZNSt9basic_iosIcSt11char_traitsIcEE4initEPSt15basic_streambufIcS1_E
 2371      00
 2372              	.LEHE7:
 2373 0c4f 488DBC24 		leaq	144(%rsp), %rdi
 2373      90000000 
 2374 0c57 48C74424 		movq	$_ZTCN8UnitTest15MemoryOutStreamE0_St19basic_ostringstreamIcSt11char_traitsIcESaIcEE+24, 80(%
 2374      50000000 
 2374      00
 2375 0c60 48C78424 		movq	$_ZTCN8UnitTest15MemoryOutStreamE0_St19basic_ostringstreamIcSt11char_traitsIcESaIcEE+64, 176(
 2375      B0000000 
 2375      00000000 
 2376 0c6c 48C74424 		movq	$_ZTVSt15basic_streambufIcSt11char_traitsIcEE+16, 88(%rsp)
 2376      58000000 
 2376      00
 2377 0c75 48C74424 		movq	$0, 96(%rsp)
 2377      60000000 
 2377      00
 2378 0c7e 48C74424 		movq	$0, 104(%rsp)
 2378      68000000 
 2378      00
 2379 0c87 48C74424 		movq	$0, 112(%rsp)
 2379      70000000 
 2379      00
 2380 0c90 48C74424 		movq	$0, 120(%rsp)
 2380      78000000 
 2380      00
 2381 0c99 48C78424 		movq	$0, 128(%rsp)
 2381      80000000 
 2381      00000000 
 2382 0ca5 48C78424 		movq	$0, 136(%rsp)
 2382      88000000 
 2382      00000000 
 2383 0cb1 E8000000 		call	_ZNSt6localeC1Ev
 2383      00
 2384 0cb6 488B4424 		movq	80(%rsp), %rax
 2384      50
 2385 0cbb 488D7C24 		leaq	80(%rsp), %rdi
 2385      50
 2386 0cc0 488D7424 		leaq	88(%rsp), %rsi
 2386      58
 2387 0cc5 48C74424 		movq	$_ZTVSt15basic_stringbufIcSt11char_traitsIcESaIcEE+16, 88(%rsp)
 2387      58000000 
 2387      00
 2388 0cce C7842498 		movl	$16, 152(%rsp)
 2388      00000010 
 2388      000000
 2389 0cd9 48C78424 		movq	$_ZNSs4_Rep20_S_empty_rep_storageE+24, 160(%rsp)
 2389      A0000000 
 2389      00000000 
 2390 0ce5 480378E8 		addq	-24(%rax), %rdi
 2391              	.LEHB8:
 2392 0ce9 E8000000 		call	_ZNSt9basic_iosIcSt11char_traitsIcEE4initEPSt15basic_streambufIcS1_E
 2392      00
 2393              	.LEHE8:
 2394 0cee 488D7C24 		leaq	80(%rsp), %rdi
 2394      50
 2395 0cf3 BA090000 		movl	$9, %edx
 2395      00
 2396 0cf8 BE000000 		movl	$.LC73, %esi
 2396      00
 2397 0cfd 48C74424 		movq	$_ZTVN8UnitTest15MemoryOutStreamE+24, 80(%rsp)
 2397      50000000 
 2397      00
 2398 0d06 48C78424 		movq	$_ZTVN8UnitTest15MemoryOutStreamE+64, 176(%rsp)
 2398      B0000000 
 2398      00000000 
 2399 0d12 48C78424 		movq	$_ZNSs4_Rep20_S_empty_rep_storageE+24, 168(%rsp)
 2399      A8000000 
 2399      00000000 
 2400              	.LEHB9:
 2401 0d1e E8000000 		call	_ZSt16__ostream_insertIcSt11char_traitsIcEERSt13basic_ostreamIT_T0_ES6_PKS3_l
 2401      00
 2402 0d23 F20F1005 		movsd	.LC74(%rip), %xmm0
 2402      00000000 
 2403 0d2b 488D7C24 		leaq	80(%rsp), %rdi
 2403      50
 2404 0d30 E8000000 		call	_ZNSo9_M_insertIdEERSoT_
 2404      00
 2405 0d35 BA050000 		movl	$5, %edx
 2405      00
 2406 0d3a BE000000 		movl	$.LC75, %esi
 2406      00
 2407 0d3f 4889C7   		movq	%rax, %rdi
 2408 0d42 4889C3   		movq	%rax, %rbx
 2409 0d45 E8000000 		call	_ZSt16__ostream_insertIcSt11char_traitsIcEERSt13basic_ostreamIT_T0_ES6_PKS3_l
 2409      00
 2410 0d4a F20F1005 		movsd	.LC76(%rip), %xmm0
 2410      00000000 
 2411 0d52 4889DF   		movq	%rbx, %rdi
 2412 0d55 E8000000 		call	_ZNSo9_M_insertIdEERSoT_
 2412      00
 2413 0d5a BA090000 		movl	$9, %edx
 2413      00
 2414 0d5f BE000000 		movl	$.LC77, %esi
 2414      00
 2415 0d64 4889C7   		movq	%rax, %rdi
 2416 0d67 4889C3   		movq	%rax, %rbx
 2417 0d6a E8000000 		call	_ZSt16__ostream_insertIcSt11char_traitsIcEERSt13basic_ostreamIT_T0_ES6_PKS3_l
 2417      00
 2418 0d6f F20F1005 		movsd	.LC78(%rip), %xmm0
 2418      00000000 
 2419 0d77 4889DF   		movq	%rbx, %rdi
 2420 0d7a E8000000 		call	_ZNSo9_M_insertIdEERSoT_
 2420      00
 2421 0d7f 488D7C24 		leaq	80(%rsp), %rdi
 2421      50
 2422 0d84 E8000000 		call	_ZNK8UnitTest15MemoryOutStream7GetTextEv
 2422      00
 2423 0d89 488D7424 		leaq	48(%rsp), %rsi
 2423      30
 2424 0d8e 488D7C24 		leaq	16(%rsp), %rdi
 2424      10
 2425 0d93 4889C2   		movq	%rax, %rdx
 2426 0d96 E8000000 		call	_ZN8UnitTest11TestResults13OnTestFailureERKNS_11TestDetailsEPKc
 2426      00
 2427              	.LEHE9:
 2428 0d9b 488B8424 		movq	168(%rsp), %rax
 2428      A8000000 
 2429 0da3 48C74424 		movq	$_ZTVN8UnitTest15MemoryOutStreamE+24, 80(%rsp)
 2429      50000000 
 2429      00
 2430 0dac 48C78424 		movq	$_ZTVN8UnitTest15MemoryOutStreamE+64, 176(%rsp)
 2430      B0000000 
 2430      00000000 
 2431 0db8 488D78E8 		leaq	-24(%rax), %rdi
 2432 0dbc 4881FF00 		cmpq	$_ZNSs4_Rep20_S_empty_rep_storageE, %rdi
 2432      000000
 2433 0dc3 0F853F01 		jne	.L266
 2433      0000
 2434              	.L229:
 2435 0dc9 488B8424 		movq	160(%rsp), %rax
 2435      A0000000 
 2436 0dd1 48C74424 		movq	$_ZTCN8UnitTest15MemoryOutStreamE0_St19basic_ostringstreamIcSt11char_traitsIcESaIcEE+24, 80(%
 2436      50000000 
 2436      00
 2437 0dda 48C78424 		movq	$_ZTCN8UnitTest15MemoryOutStreamE0_St19basic_ostringstreamIcSt11char_traitsIcESaIcEE+64, 176(
 2437      B0000000 
 2437      00000000 
 2438 0de6 48C74424 		movq	$_ZTVSt15basic_stringbufIcSt11char_traitsIcESaIcEE+16, 88(%rsp)
 2438      58000000 
 2438      00
 2439 0def 488D78E8 		leaq	-24(%rax), %rdi
 2440 0df3 4881FF00 		cmpq	$_ZNSs4_Rep20_S_empty_rep_storageE, %rdi
 2440      000000
 2441 0dfa 0F853801 		jne	.L267
 2441      0000
 2442              	.L234:
 2443 0e00 488DBC24 		leaq	144(%rsp), %rdi
 2443      90000000 
 2444 0e08 48C74424 		movq	$_ZTVSt15basic_streambufIcSt11char_traitsIcEE+16, 88(%rsp)
 2444      58000000 
 2444      00
 2445 0e11 E8000000 		call	_ZNSt6localeD1Ev
 2445      00
 2446 0e16 488D4424 		leaq	80(%rsp), %rax
 2446      50
 2447 0e1b 48C78424 		movq	$_ZTVSt9basic_iosIcSt11char_traitsIcEE+16, 176(%rsp)
 2447      B0000000 
 2447      00000000 
 2448 0e27 488D7860 		leaq	96(%rax), %rdi
 2449              	.LEHB10:
 2450 0e2b E8000000 		call	_ZNSt8ios_baseD2Ev
 2450      00
 2451              	.LEHE10:
 2452 0e30 488DBC24 		leaq	1748(%rsp), %rdi
 2452      D4060000 
 2453 0e38 BE000000 		movl	$.LC79, %esi
 2453      00
 2454 0e3d E8000000 		call	strstr
 2454      00
 2455 0e42 4885C0   		testq	%rax, %rax
 2456 0e45 0F848500 		je	.L268
 2456      0000
 2457              	.L239:
 2458 0e4b 488DBC24 		leaq	1748(%rsp), %rdi
 2458      D4060000 
 2459 0e53 BE000000 		movl	$.LC81, %esi
 2459      00
 2460 0e58 E8000000 		call	strstr
 2460      00
 2461 0e5d 4885C0   		testq	%rax, %rax
 2462 0e60 743E     		je	.L269
 2463              	.L242:
 2464 0e62 488DBC24 		leaq	448(%rsp), %rdi
 2464      C0010000 
 2465 0e6a 48C78424 		movq	$_ZTV17RecordingReporter+16, 448(%rsp)
 2465      C0010000 
 2465      00000000 
 2466              	.LEHB11:
 2467 0e76 E8000000 		call	_ZN8UnitTest12TestReporterD2Ev
 2467      00
 2468              	.LEHE11:
 2469 0e7b 488B8424 		movq	2552(%rsp), %rax
 2469      F8090000 
 2470 0e83 64483304 		xorq	%fs:40, %rax
 2470      25280000 
 2470      00
 2471 0e8c 0F85F300 		jne	.L270
 2471      0000
 2472 0e92 4881C400 		addq	$2560, %rsp
 2472      0A0000
 2473              		.cfi_remember_state
 2474              		.cfi_def_cfa_offset 16
 2475 0e99 5B       		popq	%rbx
 2476              		.cfi_def_cfa_offset 8
 2477 0e9a C3       		ret
 2478 0e9b 0F1F4400 		.p2align 4,,10
 2478      00
 2479              		.p2align 3
 2480              	.L269:
 2481              		.cfi_restore_state
 2482              	.LEHB12:
 2483 0ea0 E8000000 		call	_ZN8UnitTest11CurrentTest7DetailsEv
 2483      00
 2484 0ea5 488B30   		movq	(%rax), %rsi
 2485 0ea8 488D7C24 		leaq	48(%rsp), %rdi
 2485      30
 2486 0ead BA9C0000 		movl	$156, %edx
 2486      00
 2487 0eb2 E8000000 		call	_ZN8UnitTest11TestDetailsC1ERKS0_i
 2487      00
 2488 0eb7 E8000000 		call	_ZN8UnitTest11CurrentTest7ResultsEv
 2488      00
 2489 0ebc 488B38   		movq	(%rax), %rdi
 2490 0ebf 488D7424 		leaq	48(%rsp), %rsi
 2490      30
 2491 0ec4 BA000000 		movl	$.LC82, %edx
 2491      00
 2492 0ec9 E8000000 		call	_ZN8UnitTest11TestResults13OnTestFailureERKNS_11TestDetailsEPKc
 2492      00
 2493              	.LEHE12:
 2494 0ece EB92     		jmp	.L242
 2495              		.p2align 4,,10
 2496              		.p2align 3
 2497              	.L268:
 2498              	.LEHB13:
 2499 0ed0 E8000000 		call	_ZN8UnitTest11CurrentTest7DetailsEv
 2499      00
 2500 0ed5 488B30   		movq	(%rax), %rsi
 2501 0ed8 488D7C24 		leaq	48(%rsp), %rdi
 2501      30
 2502 0edd BA9B0000 		movl	$155, %edx
 2502      00
 2503 0ee2 E8000000 		call	_ZN8UnitTest11TestDetailsC1ERKS0_i
 2503      00
 2504 0ee7 E8000000 		call	_ZN8UnitTest11CurrentTest7ResultsEv
 2504      00
 2505 0eec 488B38   		movq	(%rax), %rdi
 2506 0eef 488D7424 		leaq	48(%rsp), %rsi
 2506      30
 2507 0ef4 BA000000 		movl	$.LC80, %edx
 2507      00
 2508 0ef9 E8000000 		call	_ZN8UnitTest11TestResults13OnTestFailureERKNS_11TestDetailsEPKc
 2508      00
 2509              	.LEHE13:
 2510 0efe E948FFFF 		jmp	.L239
 2510      FF
 2511              		.p2align 4,,10
 2512 0f03 0F1F4400 		.p2align 3
 2512      00
 2513              	.L266:
 2514 0f08 BA000000 		movl	$_ZL28__gthrw___pthread_key_createPjPFvPvE, %edx
 2514      00
 2515 0f0d 4885D2   		testq	%rdx, %rdx
 2516 0f10 7456     		je	.L230
 2517 0f12 BAFFFFFF 		movl	$-1, %edx
 2517      FF
 2518 0f17 F00FC150 		lock xaddl	%edx, -8(%rax)
 2518      F8
 2519 0f1c 89D0     		movl	%edx, %eax
 2520              	.L231:
 2521 0f1e 85C0     		testl	%eax, %eax
 2522 0f20 0F8FA3FE 		jg	.L229
 2522      FFFF
 2523 0f26 488D7424 		leaq	15(%rsp), %rsi
 2523      0F
 2524 0f2b E8000000 		call	_ZNSs4_Rep10_M_destroyERKSaIcE
 2524      00
 2525 0f30 E994FEFF 		jmp	.L229
 2525      FF
 2526              		.p2align 4,,10
 2527 0f35 0F1F00   		.p2align 3
 2528              	.L267:
 2529 0f38 BA000000 		movl	$_ZL28__gthrw___pthread_key_createPjPFvPvE, %edx
 2529      00
 2530 0f3d 4885D2   		testq	%rdx, %rdx
 2531 0f40 7436     		je	.L235
 2532 0f42 BAFFFFFF 		movl	$-1, %edx
 2532      FF
 2533 0f47 F00FC150 		lock xaddl	%edx, -8(%rax)
 2533      F8
 2534 0f4c 89D0     		movl	%edx, %eax
 2535              	.L236:
 2536 0f4e 85C0     		testl	%eax, %eax
 2537 0f50 0F8FAAFE 		jg	.L234
 2537      FFFF
 2538 0f56 488D7424 		leaq	15(%rsp), %rsi
 2538      0F
 2539 0f5b E8000000 		call	_ZNSs4_Rep10_M_destroyERKSaIcE
 2539      00
 2540 0f60 E99BFEFF 		jmp	.L234
 2540      FF
 2541              		.p2align 4,,10
 2542 0f65 0F1F00   		.p2align 3
 2543              	.L230:
 2544 0f68 8B50F8   		movl	-8(%rax), %edx
 2545 0f6b 8D4AFF   		leal	-1(%rdx), %ecx
 2546 0f6e 8948F8   		movl	%ecx, -8(%rax)
 2547 0f71 89D0     		movl	%edx, %eax
 2548 0f73 EBA9     		jmp	.L231
 2549              		.p2align 4,,10
 2550 0f75 0F1F00   		.p2align 3
 2551              	.L235:
 2552 0f78 8B50F8   		movl	-8(%rax), %edx
 2553 0f7b 8D4AFF   		leal	-1(%rdx), %ecx
 2554 0f7e 8948F8   		movl	%ecx, -8(%rax)
 2555 0f81 89D0     		movl	%edx, %eax
 2556 0f83 EBC9     		jmp	.L236
 2557              	.L270:
 2558 0f85 E8000000 		call	__stack_chk_fail
 2558      00
 2559              	.L251:
 2560 0f8a 4889C7   		movq	%rax, %rdi
 2561 0f8d E8000000 		call	__cxa_begin_catch
 2561      00
 2562              	.LEHB14:
 2563 0f92 E8000000 		call	_ZN8UnitTest11CurrentTest7DetailsEv
 2563      00
 2564 0f97 488B30   		movq	(%rax), %rsi
 2565 0f9a 488D7C24 		leaq	48(%rsp), %rdi
 2565      30
 2566 0f9f BA9B0000 		movl	$155, %edx
 2566      00
 2567 0fa4 E8000000 		call	_ZN8UnitTest11TestDetailsC1ERKS0_i
 2567      00
 2568 0fa9 E8000000 		call	_ZN8UnitTest11CurrentTest7ResultsEv
 2568      00
 2569 0fae 488B38   		movq	(%rax), %rdi
 2570 0fb1 488D7424 		leaq	48(%rsp), %rsi
 2570      30
 2571 0fb6 BA000000 		movl	$.LC83, %edx
 2571      00
 2572 0fbb E8000000 		call	_ZN8UnitTest11TestResults13OnTestFailureERKNS_11TestDetailsEPKc
 2572      00
 2573              	.LEHE14:
 2574              	.LEHB15:
 2575 0fc0 E8000000 		call	__cxa_end_catch
 2575      00
 2576              	.LEHE15:
 2577 0fc5 E981FEFF 		jmp	.L239
 2577      FF
 2578              	.L250:
 2579 0fca 4889C3   		movq	%rax, %rbx
 2580              	.L227:
 2581 0fcd 488DBC24 		leaq	448(%rsp), %rdi
 2581      C0010000 
 2582 0fd5 48C78424 		movq	$_ZTV17RecordingReporter+16, 448(%rsp)
 2582      C0010000 
 2582      00000000 
 2583 0fe1 E8000000 		call	_ZN8UnitTest12TestReporterD2Ev
 2583      00
 2584 0fe6 4889DF   		movq	%rbx, %rdi
 2585              	.LEHB16:
 2586 0fe9 E8000000 		call	_Unwind_Resume
 2586      00
 2587              	.LEHE16:
 2588              	.L252:
 2589 0fee 4889C3   		movq	%rax, %rbx
 2590 0ff1 E8000000 		call	__cxa_end_catch
 2590      00
 2591 0ff6 EBD5     		jmp	.L227
 2592              	.L253:
 2593 0ff8 4889C7   		movq	%rax, %rdi
 2594 0ffb E8000000 		call	__cxa_begin_catch
 2594      00
 2595              	.LEHB17:
 2596 1000 E8000000 		call	_ZN8UnitTest11CurrentTest7DetailsEv
 2596      00
 2597 1005 488B30   		movq	(%rax), %rsi
 2598 1008 488D7C24 		leaq	48(%rsp), %rdi
 2598      30
 2599 100d BA9C0000 		movl	$156, %edx
 2599      00
 2600 1012 E8000000 		call	_ZN8UnitTest11TestDetailsC1ERKS0_i
 2600      00
 2601 1017 E8000000 		call	_ZN8UnitTest11CurrentTest7ResultsEv
 2601      00
 2602 101c 488B38   		movq	(%rax), %rdi
 2603 101f 488D7424 		leaq	48(%rsp), %rsi
 2603      30
 2604 1024 BA000000 		movl	$.LC84, %edx
 2604      00
 2605 1029 E8000000 		call	_ZN8UnitTest11TestResults13OnTestFailureERKNS_11TestDetailsEPKc
 2605      00
 2606              	.LEHE17:
 2607              	.LEHB18:
 2608 102e E8000000 		call	__cxa_end_catch
 2608      00
 2609              	.LEHE18:
 2610 1033 E92AFEFF 		jmp	.L242
 2610      FF
 2611              	.L255:
 2612 1038 488D7C24 		leaq	80(%rsp), %rdi
 2612      50
 2613 103d 4889C3   		movq	%rax, %rbx
 2614 1040 E8000000 		call	_ZN8UnitTest15MemoryOutStreamD1Ev
 2614      00
 2615 1045 EB86     		jmp	.L227
 2616              	.L254:
 2617 1047 4889C3   		movq	%rax, %rbx
 2618 104a E8000000 		call	__cxa_end_catch
 2618      00
 2619 104f E979FFFF 		jmp	.L227
 2619      FF
 2620              	.L257:
 2621 1054 488D7C24 		leaq	88(%rsp), %rdi
 2621      58
 2622 1059 4889C3   		movq	%rax, %rbx
 2623 105c E8000000 		call	_ZNSt15basic_stringbufIcSt11char_traitsIcESaIcEED1Ev
 2623      00
 2624              	.L225:
 2625 1061 488DBC24 		leaq	176(%rsp), %rdi
 2625      B0000000 
 2626 1069 48C78424 		movq	$_ZTVSt9basic_iosIcSt11char_traitsIcEE+16, 176(%rsp)
 2626      B0000000 
 2626      00000000 
 2627 1075 E8000000 		call	_ZNSt8ios_baseD2Ev
 2627      00
 2628 107a E94EFFFF 		jmp	.L227
 2628      FF
 2629              	.L256:
 2630 107f 4889C3   		movq	%rax, %rbx
 2631 1082 EBDD     		jmp	.L225
 2632              		.cfi_endproc
 2633              	.LFE1190:
 2634              		.section	.gcc_except_table
 2635 0026 0000     		.align 4
 2636              	.LLSDA1190:
 2637 0028 FF       		.byte	0xff
 2638 0029 03       		.byte	0x3
 2639 002a 55       		.uleb128 .LLSDATT1190-.LLSDATTD1190
 2640              	.LLSDATTD1190:
 2641 002b 01       		.byte	0x1
 2642 002c 4C       		.uleb128 .LLSDACSE1190-.LLSDACSB1190
 2643              	.LLSDACSB1190:
 2644 002d D701     		.uleb128 .LEHB6-.LFB1190
 2645 002f 1D       		.uleb128 .LEHE6-.LEHB6
 2646 0030 EA09     		.uleb128 .L250-.LFB1190
 2647 0032 00       		.uleb128 0
 2648 0033 EA02     		.uleb128 .LEHB7-.LFB1190
 2649 0035 05       		.uleb128 .LEHE7-.LEHB7
 2650 0036 9F0B     		.uleb128 .L256-.LFB1190
 2651 0038 00       		.uleb128 0
 2652 0039 8904     		.uleb128 .LEHB8-.LFB1190
 2653 003b 05       		.uleb128 .LEHE8-.LEHB8
 2654 003c F40A     		.uleb128 .L257-.LFB1190
 2655 003e 00       		.uleb128 0
 2656 003f BE04     		.uleb128 .LEHB9-.LFB1190
 2657 0041 7D       		.uleb128 .LEHE9-.LEHB9
 2658 0042 D80A     		.uleb128 .L255-.LFB1190
 2659 0044 00       		.uleb128 0
 2660 0045 CB06     		.uleb128 .LEHB10-.LFB1190
 2661 0047 05       		.uleb128 .LEHE10-.LEHB10
 2662 0048 EA09     		.uleb128 .L250-.LFB1190
 2663 004a 00       		.uleb128 0
 2664 004b 9607     		.uleb128 .LEHB11-.LFB1190
 2665 004d 05       		.uleb128 .LEHE11-.LEHB11
 2666 004e 00       		.uleb128 0
 2667 004f 00       		.uleb128 0
 2668 0050 C007     		.uleb128 .LEHB12-.LFB1190
 2669 0052 2E       		.uleb128 .LEHE12-.LEHB12
 2670 0053 980A     		.uleb128 .L253-.LFB1190
 2671 0055 01       		.uleb128 0x1
 2672 0056 F007     		.uleb128 .LEHB13-.LFB1190
 2673 0058 2E       		.uleb128 .LEHE13-.LEHB13
 2674 0059 AA09     		.uleb128 .L251-.LFB1190
 2675 005b 01       		.uleb128 0x1
 2676 005c B209     		.uleb128 .LEHB14-.LFB1190
 2677 005e 2E       		.uleb128 .LEHE14-.LEHB14
 2678 005f 8E0A     		.uleb128 .L252-.LFB1190
 2679 0061 00       		.uleb128 0
 2680 0062 E009     		.uleb128 .LEHB15-.LFB1190
 2681 0064 05       		.uleb128 .LEHE15-.LEHB15
 2682 0065 EA09     		.uleb128 .L250-.LFB1190
 2683 0067 00       		.uleb128 0
 2684 0068 890A     		.uleb128 .LEHB16-.LFB1190
 2685 006a 05       		.uleb128 .LEHE16-.LEHB16
 2686 006b 00       		.uleb128 0
 2687 006c 00       		.uleb128 0
 2688 006d A00A     		.uleb128 .LEHB17-.LFB1190
 2689 006f 2E       		.uleb128 .LEHE17-.LEHB17
 2690 0070 E70A     		.uleb128 .L254-.LFB1190
 2691 0072 00       		.uleb128 0
 2692 0073 CE0A     		.uleb128 .LEHB18-.LFB1190
 2693 0075 05       		.uleb128 .LEHE18-.LEHB18
 2694 0076 EA09     		.uleb128 .L250-.LFB1190
 2695 0078 00       		.uleb128 0
 2696              	.LLSDACSE1190:
 2697 0079 01       		.byte	0x1
 2698 007a 00       		.byte	0
 2699 007b 00       		.align 4
 2700 007c 00000000 		.long	0
 2701              	
 2702              	.LLSDATT1190:
 2703              		.text
 2705              		.section	.text.unlikely
 2706              	.LCOLDE85:
 2707              		.text
 2708              	.LHOTE85:
 2709              		.section	.rodata.str1.8
 2710 0104 00000000 		.align 8
 2711              	.LC86:
 2712 0108 556E6861 		.string	"Unhandled exception in CHECK_EQUAL(something, something)"
 2712      6E646C65 
 2712      64206578 
 2712      63657074 
 2712      696F6E20 
 2713              		.section	.text.unlikely
 2714              		.align 2
 2715              	.LCOLDB87:
 2716              		.text
 2717              	.LHOTB87:
 2718              		.align 2
 2719 1084 6690662E 		.p2align 4,,15
 2719      0F1F8400 
 2719      00000000 
 2721              	_ZNK12_GLOBAL__N_130TestCheckEqualWithUnsignedLong7RunImplEv:
 2722              	.LFB1134:
 2723              		.cfi_startproc
 2724              		.cfi_personality 0x3,__gxx_personality_v0
 2725              		.cfi_lsda 0x3,.LLSDA1134
 2726 1090 53       		pushq	%rbx
 2727              		.cfi_def_cfa_offset 16
 2728              		.cfi_offset 3, -16
 2729 1091 31F6     		xorl	%esi, %esi
 2730 1093 4883EC50 		subq	$80, %rsp
 2731              		.cfi_def_cfa_offset 96
 2732 1097 4889E7   		movq	%rsp, %rdi
 2733 109a 64488B04 		movq	%fs:40, %rax
 2733      25280000 
 2733      00
 2734 10a3 48894424 		movq	%rax, 72(%rsp)
 2734      48
 2735 10a8 31C0     		xorl	%eax, %eax
 2736              	.LEHB19:
 2737 10aa E8000000 		call	_ZN8UnitTest11TestResultsC1EPNS_12TestReporterE
 2737      00
 2738              	.LEHE19:
 2739              	.LEHB20:
 2740 10af E8000000 		call	_ZN8UnitTest11CurrentTest7DetailsEv
 2740      00
 2741 10b4 488B30   		movq	(%rax), %rsi
 2742 10b7 488D7C24 		leaq	32(%rsp), %rdi
 2742      20
 2743 10bc BA0E0000 		movl	$14, %edx
 2743      00
 2744 10c1 E8000000 		call	_ZN8UnitTest11TestDetailsC1ERKS0_i
 2744      00
 2745 10c6 E8000000 		call	_ZN8UnitTest11CurrentTest7ResultsEv
 2745      00
 2746              	.LEHE20:
 2747              	.L271:
 2748 10cb 488B4424 		movq	72(%rsp), %rax
 2748      48
 2749 10d0 64483304 		xorq	%fs:40, %rax
 2749      25280000 
 2749      00
 2750 10d9 7506     		jne	.L279
 2751 10db 4883C450 		addq	$80, %rsp
 2752              		.cfi_remember_state
 2753              		.cfi_def_cfa_offset 16
 2754 10df 5B       		popq	%rbx
 2755              		.cfi_def_cfa_offset 8
 2756 10e0 C3       		ret
 2757              	.L279:
 2758              		.cfi_restore_state
 2759 10e1 E8000000 		call	__stack_chk_fail
 2759      00
 2760              	.L276:
 2761 10e6 4889C7   		movq	%rax, %rdi
 2762 10e9 E8000000 		call	__cxa_begin_catch
 2762      00
 2763              	.LEHB21:
 2764 10ee E8000000 		call	_ZN8UnitTest11CurrentTest7DetailsEv
 2764      00
 2765 10f3 488B30   		movq	(%rax), %rsi
 2766 10f6 488D7C24 		leaq	32(%rsp), %rdi
 2766      20
 2767 10fb BA0E0000 		movl	$14, %edx
 2767      00
 2768 1100 E8000000 		call	_ZN8UnitTest11TestDetailsC1ERKS0_i
 2768      00
 2769 1105 E8000000 		call	_ZN8UnitTest11CurrentTest7ResultsEv
 2769      00
 2770 110a 488B38   		movq	(%rax), %rdi
 2771 110d 488D7424 		leaq	32(%rsp), %rsi
 2771      20
 2772 1112 BA000000 		movl	$.LC86, %edx
 2772      00
 2773 1117 E8000000 		call	_ZN8UnitTest11TestResults13OnTestFailureERKNS_11TestDetailsEPKc
 2773      00
 2774              	.LEHE21:
 2775              	.LEHB22:
 2776 111c E8000000 		call	__cxa_end_catch
 2776      00
 2777              	.LEHE22:
 2778 1121 EBA8     		jmp	.L271
 2779              	.L277:
 2780 1123 4889C3   		movq	%rax, %rbx
 2781 1126 E8000000 		call	__cxa_end_catch
 2781      00
 2782 112b 4889DF   		movq	%rbx, %rdi
 2783              	.LEHB23:
 2784 112e E8000000 		call	_Unwind_Resume
 2784      00
 2785              	.LEHE23:
 2786              		.cfi_endproc
 2787              	.LFE1134:
 2788              		.section	.gcc_except_table
 2789              		.align 4
 2790              	.LLSDA1134:
 2791 0080 FF       		.byte	0xff
 2792 0081 03       		.byte	0x3
 2793 0082 21       		.uleb128 .LLSDATT1134-.LLSDATTD1134
 2794              	.LLSDATTD1134:
 2795 0083 01       		.byte	0x1
 2796 0084 17       		.uleb128 .LLSDACSE1134-.LLSDACSB1134
 2797              	.LLSDACSB1134:
 2798 0085 1A       		.uleb128 .LEHB19-.LFB1134
 2799 0086 05       		.uleb128 .LEHE19-.LEHB19
 2800 0087 00       		.uleb128 0
 2801 0088 00       		.uleb128 0
 2802 0089 1F       		.uleb128 .LEHB20-.LFB1134
 2803 008a 1C       		.uleb128 .LEHE20-.LEHB20
 2804 008b 56       		.uleb128 .L276-.LFB1134
 2805 008c 01       		.uleb128 0x1
 2806 008d 5E       		.uleb128 .LEHB21-.LFB1134
 2807 008e 2E       		.uleb128 .LEHE21-.LEHB21
 2808 008f 9301     		.uleb128 .L277-.LFB1134
 2809 0091 00       		.uleb128 0
 2810 0092 8C01     		.uleb128 .LEHB22-.LFB1134
 2811 0094 05       		.uleb128 .LEHE22-.LEHB22
 2812 0095 00       		.uleb128 0
 2813 0096 00       		.uleb128 0
 2814 0097 9E01     		.uleb128 .LEHB23-.LFB1134
 2815 0099 05       		.uleb128 .LEHE23-.LEHB23
 2816 009a 00       		.uleb128 0
 2817 009b 00       		.uleb128 0
 2818              	.LLSDACSE1134:
 2819 009c 01       		.byte	0x1
 2820 009d 00       		.byte	0
 2821 009e 0000     		.align 4
 2822 00a0 00000000 		.long	0
 2823              	
 2824              	.LLSDATT1134:
 2825              		.text
 2827              		.section	.text.unlikely
 2828              	.LCOLDE87:
 2829              		.text
 2830              	.LHOTE87:
 2831              		.section	.rodata.str1.8
 2832 0141 00000000 		.align 8
 2832      000000
 2833              	.LC88:
 2834 0148 556E6861 		.string	"Unhandled exception in CHECK_CLOSE(0.5, 0.5)"
 2834      6E646C65 
 2834      64206578 
 2834      63657074 
 2834      696F6E20 
 2835              		.section	.text.unlikely
 2836              		.align 2
 2837              	.LCOLDB89:
 2838              		.text
 2839              	.LHOTB89:
 2840 1133 90       		.align 2
 2841 1134 6690662E 		.p2align 4,,15
 2841      0F1F8400 
 2841      00000000 
 2843              	_ZNK12_GLOBAL__N_133TestCheckCloseWithDoublesSucceeds7RunImplEv:
 2844              	.LFB1230:
 2845              		.cfi_startproc
 2846              		.cfi_personality 0x3,__gxx_personality_v0
 2847              		.cfi_lsda 0x3,.LLSDA1230
 2848 1140 53       		pushq	%rbx
 2849              		.cfi_def_cfa_offset 16
 2850              		.cfi_offset 3, -16
 2851 1141 4883EC30 		subq	$48, %rsp
 2852              		.cfi_def_cfa_offset 64
 2853 1145 64488B04 		movq	%fs:40, %rax
 2853      25280000 
 2853      00
 2854 114e 48894424 		movq	%rax, 40(%rsp)
 2854      28
 2855 1153 31C0     		xorl	%eax, %eax
 2856              	.LEHB24:
 2857 1155 E8000000 		call	_ZN8UnitTest11CurrentTest7DetailsEv
 2857      00
 2858 115a 488B30   		movq	(%rax), %rsi
 2859 115d BA0E0100 		movl	$270, %edx
 2859      00
 2860 1162 4889E7   		movq	%rsp, %rdi
 2861 1165 E8000000 		call	_ZN8UnitTest11TestDetailsC1ERKS0_i
 2861      00
 2862 116a E8000000 		call	_ZN8UnitTest11CurrentTest7ResultsEv
 2862      00
 2863              	.LEHE24:
 2864              	.L280:
 2865 116f 488B4424 		movq	40(%rsp), %rax
 2865      28
 2866 1174 64483304 		xorq	%fs:40, %rax
 2866      25280000 
 2866      00
 2867 117d 7506     		jne	.L288
 2868 117f 4883C430 		addq	$48, %rsp
 2869              		.cfi_remember_state
 2870              		.cfi_def_cfa_offset 16
 2871 1183 5B       		popq	%rbx
 2872              		.cfi_def_cfa_offset 8
 2873 1184 C3       		ret
 2874              	.L288:
 2875              		.cfi_restore_state
 2876 1185 E8000000 		call	__stack_chk_fail
 2876      00
 2877              	.L285:
 2878 118a 4889C7   		movq	%rax, %rdi
 2879 118d E8000000 		call	__cxa_begin_catch
 2879      00
 2880              	.LEHB25:
 2881 1192 E8000000 		call	_ZN8UnitTest11CurrentTest7DetailsEv
 2881      00
 2882 1197 488B30   		movq	(%rax), %rsi
 2883 119a BA0E0100 		movl	$270, %edx
 2883      00
 2884 119f 4889E7   		movq	%rsp, %rdi
 2885 11a2 E8000000 		call	_ZN8UnitTest11TestDetailsC1ERKS0_i
 2885      00
 2886 11a7 E8000000 		call	_ZN8UnitTest11CurrentTest7ResultsEv
 2886      00
 2887 11ac 488B38   		movq	(%rax), %rdi
 2888 11af BA000000 		movl	$.LC88, %edx
 2888      00
 2889 11b4 4889E6   		movq	%rsp, %rsi
 2890 11b7 E8000000 		call	_ZN8UnitTest11TestResults13OnTestFailureERKNS_11TestDetailsEPKc
 2890      00
 2891              	.LEHE25:
 2892              	.LEHB26:
 2893 11bc E8000000 		call	__cxa_end_catch
 2893      00
 2894              	.LEHE26:
 2895 11c1 EBAC     		jmp	.L280
 2896              	.L286:
 2897 11c3 4889C3   		movq	%rax, %rbx
 2898 11c6 E8000000 		call	__cxa_end_catch
 2898      00
 2899 11cb 4889DF   		movq	%rbx, %rdi
 2900              	.LEHB27:
 2901 11ce E8000000 		call	_Unwind_Resume
 2901      00
 2902              	.LEHE27:
 2903              		.cfi_endproc
 2904              	.LFE1230:
 2905              		.section	.gcc_except_table
 2906              		.align 4
 2907              	.LLSDA1230:
 2908 00a4 FF       		.byte	0xff
 2909 00a5 03       		.byte	0x3
 2910 00a6 1D       		.uleb128 .LLSDATT1230-.LLSDATTD1230
 2911              	.LLSDATTD1230:
 2912 00a7 01       		.byte	0x1
 2913 00a8 12       		.uleb128 .LLSDACSE1230-.LLSDACSB1230
 2914              	.LLSDACSB1230:
 2915 00a9 15       		.uleb128 .LEHB24-.LFB1230
 2916 00aa 1A       		.uleb128 .LEHE24-.LEHB24
 2917 00ab 4A       		.uleb128 .L285-.LFB1230
 2918 00ac 01       		.uleb128 0x1
 2919 00ad 52       		.uleb128 .LEHB25-.LFB1230
 2920 00ae 2A       		.uleb128 .LEHE25-.LEHB25
 2921 00af 8301     		.uleb128 .L286-.LFB1230
 2922 00b1 00       		.uleb128 0
 2923 00b2 7C       		.uleb128 .LEHB26-.LFB1230
 2924 00b3 05       		.uleb128 .LEHE26-.LEHB26
 2925 00b4 00       		.uleb128 0
 2926 00b5 00       		.uleb128 0
 2927 00b6 8E01     		.uleb128 .LEHB27-.LFB1230
 2928 00b8 05       		.uleb128 .LEHE27-.LEHB27
 2929 00b9 00       		.uleb128 0
 2930 00ba 00       		.uleb128 0
 2931              	.LLSDACSE1230:
 2932 00bb 01       		.byte	0x1
 2933 00bc 00       		.byte	0
 2934 00bd 000000   		.align 4
 2935 00c0 00000000 		.long	0
 2936              	
 2937              	.LLSDATT1230:
 2938              		.text
 2940              		.section	.text.unlikely
 2941              	.LCOLDE89:
 2942              		.text
 2943              	.LHOTE89:
 2944              		.section	.rodata.str1.1
 2945              	.LC90:
 2946 0058 302E3031 		.string	"0.01"
 2946      00
 2947              		.section	.rodata.str1.8
 2948 0175 000000   		.align 8
 2949              	.LC91:
 2950 0178 73747273 		.string	"strstr(reporter.lastFailedMessage, \"0.01\")"
 2950      74722872 
 2950      65706F72 
 2950      7465722E 
 2950      6C617374 
 2951 01a3 00000000 		.align 8
 2951      00
 2952              	.LC92:
 2953 01a8 556E6861 		.string	"Unhandled exception in CHECK(strstr(reporter.lastFailedMessage, \"0.01\"))"
 2953      6E646C65 
 2953      64206578 
 2953      63657074 
 2953      696F6E20 
 2954              		.section	.text.unlikely
 2955              		.align 2
 2956              	.LCOLDB93:
 2957              		.text
 2958              	.LHOTB93:
 2959 11d3 90       		.align 2
 2960 11d4 6690662E 		.p2align 4,,15
 2960      0F1F8400 
 2960      00000000 
 2962              	_ZNK12_GLOBAL__N_138TestCheckCloseFailureIncludesTolerance7RunImplEv:
 2963              	.LFB1194:
 2964              		.cfi_startproc
 2965              		.cfi_personality 0x3,__gxx_personality_v0
 2966              		.cfi_lsda 0x3,.LLSDA1194
 2967 11e0 53       		pushq	%rbx
 2968              		.cfi_def_cfa_offset 16
 2969              		.cfi_offset 3, -16
 2970 11e1 4881EC00 		subq	$2560, %rsp
 2970      0A0000
 2971              		.cfi_def_cfa_offset 2576
 2972 11e8 488DB424 		leaq	448(%rsp), %rsi
 2972      C0010000 
 2973 11f0 488D7C24 		leaq	16(%rsp), %rdi
 2973      10
 2974 11f5 48C78424 		movq	$_ZTV17RecordingReporter+16, 448(%rsp)
 2974      C0010000 
 2974      00000000 
 2975 1201 64488B04 		movq	%fs:40, %rax
 2975      25280000 
 2975      00
 2976 120a 48898424 		movq	%rax, 2552(%rsp)
 2976      F8090000 
 2977 1212 31C0     		xorl	%eax, %eax
 2978 1214 C78424C8 		movl	$0, 456(%rsp)
 2978      01000000 
 2978      000000
 2979 121f C78424CC 		movl	$0, 972(%rsp)
 2979      03000000 
 2979      000000
 2980 122a C78424D0 		movl	$0, 1232(%rsp)
 2980      04000000 
 2980      000000
 2981 1235 C78424D4 		movl	$0, 2004(%rsp)
 2981      07000000 
 2981      000000
 2982 1240 C78424D8 		movl	$0x00000000, 2520(%rsp)
 2982      09000000 
 2982      000000
 2983 124b C78424DC 		movl	$0, 2524(%rsp)
 2983      09000000 
 2983      000000
 2984 1256 C78424E0 		movl	$0, 2528(%rsp)
 2984      09000000 
 2984      000000
 2985 1261 C78424E4 		movl	$0, 2532(%rsp)
 2985      09000000 
 2985      000000
 2986 126c C78424E8 		movl	$0x00000000, 2536(%rsp)
 2986      09000000 
 2986      000000
 2987 1277 C68424CC 		movb	$0, 460(%rsp)
 2987      01000000 
 2988 127f C68424CC 		movb	$0, 716(%rsp)
 2988      02000000 
 2989 1287 C68424D0 		movb	$0, 976(%rsp)
 2989      03000000 
 2990 128f C68424D4 		movb	$0, 1236(%rsp)
 2990      04000000 
 2991 1297 C68424D4 		movb	$0, 1492(%rsp)
 2991      05000000 
 2992 129f C68424D4 		movb	$0, 1748(%rsp)
 2992      06000000 
 2993 12a7 C68424D8 		movb	$0, 2008(%rsp)
 2993      07000000 
 2994 12af C68424D8 		movb	$0, 2264(%rsp)
 2994      08000000 
 2995              	.LEHB28:
 2996 12b7 E8000000 		call	_ZN8UnitTest11TestResultsC1EPNS_12TestReporterE
 2996      00
 2997 12bc B9000000 		movl	$.LC72, %ecx
 2997      00
 2998 12c1 488D7C24 		leaq	48(%rsp), %rdi
 2998      30
 2999 12c6 4531C0   		xorl	%r8d, %r8d
 3000 12c9 4889CA   		movq	%rcx, %rdx
 3001 12cc 4889CE   		movq	%rcx, %rsi
 3002 12cf E8000000 		call	_ZN8UnitTest11TestDetailsC1EPKcS2_S2_i
 3002      00
 3003              	.LEHE28:
 3004 12d4 488D9C24 		leaq	176(%rsp), %rbx
 3004      B0000000 
 3005 12dc 4889DF   		movq	%rbx, %rdi
 3006 12df E8000000 		call	_ZNSt8ios_baseC2Ev
 3006      00
 3007 12e4 31F6     		xorl	%esi, %esi
 3008 12e6 4889DF   		movq	%rbx, %rdi
 3009 12e9 48C78424 		movq	$0, 392(%rsp)
 3009      88010000 
 3009      00000000 
 3010 12f5 C6842490 		movb	$0, 400(%rsp)
 3010      01000000 
 3011 12fd C6842491 		movb	$0, 401(%rsp)
 3011      01000000 
 3012 1305 48C78424 		movq	$0, 408(%rsp)
 3012      98010000 
 3012      00000000 
 3013 1311 48C78424 		movq	$0, 416(%rsp)
 3013      A0010000 
 3013      00000000 
 3014 131d 48C78424 		movq	$0, 424(%rsp)
 3014      A8010000 
 3014      00000000 
 3015 1329 48C78424 		movq	$0, 432(%rsp)
 3015      B0010000 
 3015      00000000 
 3016 1335 48C74424 		movq	$_ZTCN8UnitTest15MemoryOutStreamE0_So+24, 80(%rsp)
 3016      50000000 
 3016      00
 3017 133e 48C78424 		movq	$_ZTCN8UnitTest15MemoryOutStreamE0_So+64, 176(%rsp)
 3017      B0000000 
 3017      00000000 
 3018              	.LEHB29:
 3019 134a E8000000 		call	_ZNSt9basic_iosIcSt11char_traitsIcEE4initEPSt15basic_streambufIcS1_E
 3019      00
 3020              	.LEHE29:
 3021 134f 488DBC24 		leaq	144(%rsp), %rdi
 3021      90000000 
 3022 1357 48C74424 		movq	$_ZTCN8UnitTest15MemoryOutStreamE0_St19basic_ostringstreamIcSt11char_traitsIcESaIcEE+24, 80(%
 3022      50000000 
 3022      00
 3023 1360 48C78424 		movq	$_ZTCN8UnitTest15MemoryOutStreamE0_St19basic_ostringstreamIcSt11char_traitsIcESaIcEE+64, 176(
 3023      B0000000 
 3023      00000000 
 3024 136c 48C74424 		movq	$_ZTVSt15basic_streambufIcSt11char_traitsIcEE+16, 88(%rsp)
 3024      58000000 
 3024      00
 3025 1375 48C74424 		movq	$0, 96(%rsp)
 3025      60000000 
 3025      00
 3026 137e 48C74424 		movq	$0, 104(%rsp)
 3026      68000000 
 3026      00
 3027 1387 48C74424 		movq	$0, 112(%rsp)
 3027      70000000 
 3027      00
 3028 1390 48C74424 		movq	$0, 120(%rsp)
 3028      78000000 
 3028      00
 3029 1399 48C78424 		movq	$0, 128(%rsp)
 3029      80000000 
 3029      00000000 
 3030 13a5 48C78424 		movq	$0, 136(%rsp)
 3030      88000000 
 3030      00000000 
 3031 13b1 E8000000 		call	_ZNSt6localeC1Ev
 3031      00
 3032 13b6 488B4424 		movq	80(%rsp), %rax
 3032      50
 3033 13bb 488D7C24 		leaq	80(%rsp), %rdi
 3033      50
 3034 13c0 488D7424 		leaq	88(%rsp), %rsi
 3034      58
 3035 13c5 48C74424 		movq	$_ZTVSt15basic_stringbufIcSt11char_traitsIcESaIcEE+16, 88(%rsp)
 3035      58000000 
 3035      00
 3036 13ce C7842498 		movl	$16, 152(%rsp)
 3036      00000010 
 3036      000000
 3037 13d9 48C78424 		movq	$_ZNSs4_Rep20_S_empty_rep_storageE+24, 160(%rsp)
 3037      A0000000 
 3037      00000000 
 3038 13e5 480378E8 		addq	-24(%rax), %rdi
 3039              	.LEHB30:
 3040 13e9 E8000000 		call	_ZNSt9basic_iosIcSt11char_traitsIcEE4initEPSt15basic_streambufIcS1_E
 3040      00
 3041              	.LEHE30:
 3042 13ee 488D7C24 		leaq	80(%rsp), %rdi
 3042      50
 3043 13f3 BA090000 		movl	$9, %edx
 3043      00
 3044 13f8 BE000000 		movl	$.LC73, %esi
 3044      00
 3045 13fd 48C74424 		movq	$_ZTVN8UnitTest15MemoryOutStreamE+24, 80(%rsp)
 3045      50000000 
 3045      00
 3046 1406 48C78424 		movq	$_ZTVN8UnitTest15MemoryOutStreamE+64, 176(%rsp)
 3046      B0000000 
 3046      00000000 
 3047 1412 48C78424 		movq	$_ZNSs4_Rep20_S_empty_rep_storageE+24, 168(%rsp)
 3047      A8000000 
 3047      00000000 
 3048              	.LEHB31:
 3049 141e E8000000 		call	_ZSt16__ostream_insertIcSt11char_traitsIcEERSt13basic_ostreamIT_T0_ES6_PKS3_l
 3049      00
 3050 1423 488D7C24 		leaq	80(%rsp), %rdi
 3050      50
 3051 1428 BE020000 		movl	$2, %esi
 3051      00
 3052 142d E8000000 		call	_ZNSolsEi
 3052      00
 3053 1432 BA050000 		movl	$5, %edx
 3053      00
 3054 1437 BE000000 		movl	$.LC75, %esi
 3054      00
 3055 143c 4889C7   		movq	%rax, %rdi
 3056 143f 4889C3   		movq	%rax, %rbx
 3057 1442 E8000000 		call	_ZSt16__ostream_insertIcSt11char_traitsIcEERSt13basic_ostreamIT_T0_ES6_PKS3_l
 3057      00
 3058 1447 F20F1005 		movsd	.LC76(%rip), %xmm0
 3058      00000000 
 3059 144f 4889DF   		movq	%rbx, %rdi
 3060 1452 E8000000 		call	_ZNSo9_M_insertIdEERSoT_
 3060      00
 3061 1457 BA090000 		movl	$9, %edx
 3061      00
 3062 145c BE000000 		movl	$.LC77, %esi
 3062      00
 3063 1461 4889C7   		movq	%rax, %rdi
 3064 1464 4889C3   		movq	%rax, %rbx
 3065 1467 E8000000 		call	_ZSt16__ostream_insertIcSt11char_traitsIcEERSt13basic_ostreamIT_T0_ES6_PKS3_l
 3065      00
 3066 146c BE030000 		movl	$3, %esi
 3066      00
 3067 1471 4889DF   		movq	%rbx, %rdi
 3068 1474 E8000000 		call	_ZNSolsEi
 3068      00
 3069 1479 488D7C24 		leaq	80(%rsp), %rdi
 3069      50
 3070 147e E8000000 		call	_ZNK8UnitTest15MemoryOutStream7GetTextEv
 3070      00
 3071 1483 488D7424 		leaq	48(%rsp), %rsi
 3071      30
 3072 1488 488D7C24 		leaq	16(%rsp), %rdi
 3072      10
 3073 148d 4889C2   		movq	%rax, %rdx
 3074 1490 E8000000 		call	_ZN8UnitTest11TestResults13OnTestFailureERKNS_11TestDetailsEPKc
 3074      00
 3075              	.LEHE31:
 3076 1495 488B8424 		movq	168(%rsp), %rax
 3076      A8000000 
 3077 149d 48C74424 		movq	$_ZTVN8UnitTest15MemoryOutStreamE+24, 80(%rsp)
 3077      50000000 
 3077      00
 3078 14a6 48C78424 		movq	$_ZTVN8UnitTest15MemoryOutStreamE+64, 176(%rsp)
 3078      B0000000 
 3078      00000000 
 3079 14b2 488D78E8 		leaq	-24(%rax), %rdi
 3080 14b6 4881FF00 		cmpq	$_ZNSs4_Rep20_S_empty_rep_storageE, %rdi
 3080      000000
 3081 14bd 0F85ED00 		jne	.L326
 3081      0000
 3082              	.L296:
 3083 14c3 488B8424 		movq	160(%rsp), %rax
 3083      A0000000 
 3084 14cb 48C74424 		movq	$_ZTCN8UnitTest15MemoryOutStreamE0_St19basic_ostringstreamIcSt11char_traitsIcESaIcEE+24, 80(%
 3084      50000000 
 3084      00
 3085 14d4 48C78424 		movq	$_ZTCN8UnitTest15MemoryOutStreamE0_St19basic_ostringstreamIcSt11char_traitsIcESaIcEE+64, 176(
 3085      B0000000 
 3085      00000000 
 3086 14e0 48C74424 		movq	$_ZTVSt15basic_stringbufIcSt11char_traitsIcESaIcEE+16, 88(%rsp)
 3086      58000000 
 3086      00
 3087 14e9 488D78E8 		leaq	-24(%rax), %rdi
 3088 14ed 4881FF00 		cmpq	$_ZNSs4_Rep20_S_empty_rep_storageE, %rdi
 3088      000000
 3089 14f4 0F85E600 		jne	.L327
 3089      0000
 3090              	.L301:
 3091 14fa 488DBC24 		leaq	144(%rsp), %rdi
 3091      90000000 
 3092 1502 48C74424 		movq	$_ZTVSt15basic_streambufIcSt11char_traitsIcEE+16, 88(%rsp)
 3092      58000000 
 3092      00
 3093 150b E8000000 		call	_ZNSt6localeD1Ev
 3093      00
 3094 1510 488D4424 		leaq	80(%rsp), %rax
 3094      50
 3095 1515 48C78424 		movq	$_ZTVSt9basic_iosIcSt11char_traitsIcEE+16, 176(%rsp)
 3095      B0000000 
 3095      00000000 
 3096 1521 488D7860 		leaq	96(%rax), %rdi
 3097              	.LEHB32:
 3098 1525 E8000000 		call	_ZNSt8ios_baseD2Ev
 3098      00
 3099              	.LEHE32:
 3100 152a 488DBC24 		leaq	1748(%rsp), %rdi
 3100      D4060000 
 3101 1532 BE000000 		movl	$.LC90, %esi
 3101      00
 3102 1537 E8000000 		call	strstr
 3102      00
 3103 153c 4885C0   		testq	%rax, %rax
 3104 153f 743F     		je	.L328
 3105              	.L306:
 3106 1541 488DBC24 		leaq	448(%rsp), %rdi
 3106      C0010000 
 3107 1549 48C78424 		movq	$_ZTV17RecordingReporter+16, 448(%rsp)
 3107      C0010000 
 3107      00000000 
 3108              	.LEHB33:
 3109 1555 E8000000 		call	_ZN8UnitTest12TestReporterD2Ev
 3109      00
 3110              	.LEHE33:
 3111 155a 488B8424 		movq	2552(%rsp), %rax
 3111      F8090000 
 3112 1562 64483304 		xorq	%fs:40, %rax
 3112      25280000 
 3112      00
 3113 156b 0F85BC00 		jne	.L329
 3113      0000
 3114 1571 4881C400 		addq	$2560, %rsp
 3114      0A0000
 3115              		.cfi_remember_state
 3116              		.cfi_def_cfa_offset 16
 3117 1578 5B       		popq	%rbx
 3118              		.cfi_def_cfa_offset 8
 3119 1579 C3       		ret
 3120 157a 660F1F44 		.p2align 4,,10
 3120      0000
 3121              		.p2align 3
 3122              	.L328:
 3123              		.cfi_restore_state
 3124              	.LEHB34:
 3125 1580 E8000000 		call	_ZN8UnitTest11CurrentTest7DetailsEv
 3125      00
 3126 1585 488B30   		movq	(%rax), %rsi
 3127 1588 488D7C24 		leaq	48(%rsp), %rdi
 3127      30
 3128 158d BAA60000 		movl	$166, %edx
 3128      00
 3129 1592 E8000000 		call	_ZN8UnitTest11TestDetailsC1ERKS0_i
 3129      00
 3130 1597 E8000000 		call	_ZN8UnitTest11CurrentTest7ResultsEv
 3130      00
 3131 159c 488B38   		movq	(%rax), %rdi
 3132 159f 488D7424 		leaq	48(%rsp), %rsi
 3132      30
 3133 15a4 BA000000 		movl	$.LC91, %edx
 3133      00
 3134 15a9 E8000000 		call	_ZN8UnitTest11TestResults13OnTestFailureERKNS_11TestDetailsEPKc
 3134      00
 3135              	.LEHE34:
 3136 15ae EB91     		jmp	.L306
 3137              		.p2align 4,,10
 3138              		.p2align 3
 3139              	.L326:
 3140 15b0 BA000000 		movl	$_ZL28__gthrw___pthread_key_createPjPFvPvE, %edx
 3140      00
 3141 15b5 4885D2   		testq	%rdx, %rdx
 3142 15b8 7456     		je	.L297
 3143 15ba BAFFFFFF 		movl	$-1, %edx
 3143      FF
 3144 15bf F00FC150 		lock xaddl	%edx, -8(%rax)
 3144      F8
 3145 15c4 89D0     		movl	%edx, %eax
 3146              	.L298:
 3147 15c6 85C0     		testl	%eax, %eax
 3148 15c8 0F8FF5FE 		jg	.L296
 3148      FFFF
 3149 15ce 488D7424 		leaq	15(%rsp), %rsi
 3149      0F
 3150 15d3 E8000000 		call	_ZNSs4_Rep10_M_destroyERKSaIcE
 3150      00
 3151 15d8 E9E6FEFF 		jmp	.L296
 3151      FF
 3152 15dd 0F1F00   		.p2align 4,,10
 3153              		.p2align 3
 3154              	.L327:
 3155 15e0 BA000000 		movl	$_ZL28__gthrw___pthread_key_createPjPFvPvE, %edx
 3155      00
 3156 15e5 4885D2   		testq	%rdx, %rdx
 3157 15e8 7436     		je	.L302
 3158 15ea BAFFFFFF 		movl	$-1, %edx
 3158      FF
 3159 15ef F00FC150 		lock xaddl	%edx, -8(%rax)
 3159      F8
 3160 15f4 89D0     		movl	%edx, %eax
 3161              	.L303:
 3162 15f6 85C0     		testl	%eax, %eax
 3163 15f8 0F8FFCFE 		jg	.L301
 3163      FFFF
 3164 15fe 488D7424 		leaq	15(%rsp), %rsi
 3164      0F
 3165 1603 E8000000 		call	_ZNSs4_Rep10_M_destroyERKSaIcE
 3165      00
 3166 1608 E9EDFEFF 		jmp	.L301
 3166      FF
 3167 160d 0F1F00   		.p2align 4,,10
 3168              		.p2align 3
 3169              	.L297:
 3170 1610 8B50F8   		movl	-8(%rax), %edx
 3171 1613 8D4AFF   		leal	-1(%rdx), %ecx
 3172 1616 8948F8   		movl	%ecx, -8(%rax)
 3173 1619 89D0     		movl	%edx, %eax
 3174 161b EBA9     		jmp	.L298
 3175 161d 0F1F00   		.p2align 4,,10
 3176              		.p2align 3
 3177              	.L302:
 3178 1620 8B50F8   		movl	-8(%rax), %edx
 3179 1623 8D4AFF   		leal	-1(%rdx), %ecx
 3180 1626 8948F8   		movl	%ecx, -8(%rax)
 3181 1629 89D0     		movl	%edx, %eax
 3182 162b EBC9     		jmp	.L303
 3183              	.L329:
 3184 162d E8000000 		call	__stack_chk_fail
 3184      00
 3185              	.L313:
 3186 1632 4889C7   		movq	%rax, %rdi
 3187 1635 E8000000 		call	__cxa_begin_catch
 3187      00
 3188              	.LEHB35:
 3189 163a E8000000 		call	_ZN8UnitTest11CurrentTest7DetailsEv
 3189      00
 3190 163f 488B30   		movq	(%rax), %rsi
 3191 1642 488D7C24 		leaq	48(%rsp), %rdi
 3191      30
 3192 1647 BAA60000 		movl	$166, %edx
 3192      00
 3193 164c E8000000 		call	_ZN8UnitTest11TestDetailsC1ERKS0_i
 3193      00
 3194 1651 E8000000 		call	_ZN8UnitTest11CurrentTest7ResultsEv
 3194      00
 3195 1656 488B38   		movq	(%rax), %rdi
 3196 1659 488D7424 		leaq	48(%rsp), %rsi
 3196      30
 3197 165e BA000000 		movl	$.LC92, %edx
 3197      00
 3198 1663 E8000000 		call	_ZN8UnitTest11TestResults13OnTestFailureERKNS_11TestDetailsEPKc
 3198      00
 3199              	.LEHE35:
 3200              	.LEHB36:
 3201 1668 E8000000 		call	__cxa_end_catch
 3201      00
 3202              	.LEHE36:
 3203 166d E9CFFEFF 		jmp	.L306
 3203      FF
 3204              	.L315:
 3205 1672 488D7C24 		leaq	80(%rsp), %rdi
 3205      50
 3206 1677 4889C3   		movq	%rax, %rbx
 3207 167a E8000000 		call	_ZN8UnitTest15MemoryOutStreamD1Ev
 3207      00
 3208              	.L294:
 3209 167f 488DBC24 		leaq	448(%rsp), %rdi
 3209      C0010000 
 3210 1687 48C78424 		movq	$_ZTV17RecordingReporter+16, 448(%rsp)
 3210      C0010000 
 3210      00000000 
 3211 1693 E8000000 		call	_ZN8UnitTest12TestReporterD2Ev
 3211      00
 3212 1698 4889DF   		movq	%rbx, %rdi
 3213              	.LEHB37:
 3214 169b E8000000 		call	_Unwind_Resume
 3214      00
 3215              	.LEHE37:
 3216              	.L316:
 3217 16a0 4889C3   		movq	%rax, %rbx
 3218              	.L292:
 3219 16a3 488DBC24 		leaq	176(%rsp), %rdi
 3219      B0000000 
 3220 16ab 48C78424 		movq	$_ZTVSt9basic_iosIcSt11char_traitsIcEE+16, 176(%rsp)
 3220      B0000000 
 3220      00000000 
 3221 16b7 E8000000 		call	_ZNSt8ios_baseD2Ev
 3221      00
 3222 16bc EBC1     		jmp	.L294
 3223              	.L312:
 3224 16be 4889C3   		movq	%rax, %rbx
 3225 16c1 EBBC     		jmp	.L294
 3226              	.L317:
 3227 16c3 488D7C24 		leaq	88(%rsp), %rdi
 3227      58
 3228 16c8 4889C3   		movq	%rax, %rbx
 3229 16cb E8000000 		call	_ZNSt15basic_stringbufIcSt11char_traitsIcESaIcEED1Ev
 3229      00
 3230 16d0 EBD1     		jmp	.L292
 3231              	.L314:
 3232 16d2 4889C3   		movq	%rax, %rbx
 3233 16d5 E8000000 		call	__cxa_end_catch
 3233      00
 3234 16da EBA3     		jmp	.L294
 3235              		.cfi_endproc
 3236              	.LFE1194:
 3237              		.section	.gcc_except_table
 3238              		.align 4
 3239              	.LLSDA1194:
 3240 00c4 FF       		.byte	0xff
 3241 00c5 03       		.byte	0x3
 3242 00c6 45       		.uleb128 .LLSDATT1194-.LLSDATTD1194
 3243              	.LLSDATTD1194:
 3244 00c7 01       		.byte	0x1
 3245 00c8 3A       		.uleb128 .LLSDACSE1194-.LLSDACSB1194
 3246              	.LLSDACSB1194:
 3247 00c9 D701     		.uleb128 .LEHB28-.LFB1194
 3248 00cb 1D       		.uleb128 .LEHE28-.LEHB28
 3249 00cc DE09     		.uleb128 .L312-.LFB1194
 3250 00ce 00       		.uleb128 0
 3251 00cf EA02     		.uleb128 .LEHB29-.LFB1194
 3252 00d1 05       		.uleb128 .LEHE29-.LEHB29
 3253 00d2 C009     		.uleb128 .L316-.LFB1194
 3254 00d4 00       		.uleb128 0
 3255 00d5 8904     		.uleb128 .LEHB30-.LFB1194
 3256 00d7 05       		.uleb128 .LEHE30-.LEHB30
 3257 00d8 E309     		.uleb128 .L317-.LFB1194
 3258 00da 00       		.uleb128 0
 3259 00db BE04     		.uleb128 .LEHB31-.LFB1194
 3260 00dd 77       		.uleb128 .LEHE31-.LEHB31
 3261 00de 9209     		.uleb128 .L315-.LFB1194
 3262 00e0 00       		.uleb128 0
 3263 00e1 C506     		.uleb128 .LEHB32-.LFB1194
 3264 00e3 05       		.uleb128 .LEHE32-.LEHB32
 3265 00e4 DE09     		.uleb128 .L312-.LFB1194
 3266 00e6 00       		.uleb128 0
 3267 00e7 F506     		.uleb128 .LEHB33-.LFB1194
 3268 00e9 05       		.uleb128 .LEHE33-.LEHB33
 3269 00ea 00       		.uleb128 0
 3270 00eb 00       		.uleb128 0
 3271 00ec A007     		.uleb128 .LEHB34-.LFB1194
 3272 00ee 2E       		.uleb128 .LEHE34-.LEHB34
 3273 00ef D208     		.uleb128 .L313-.LFB1194
 3274 00f1 01       		.uleb128 0x1
 3275 00f2 DA08     		.uleb128 .LEHB35-.LFB1194
 3276 00f4 2E       		.uleb128 .LEHE35-.LEHB35
 3277 00f5 F209     		.uleb128 .L314-.LFB1194
 3278 00f7 00       		.uleb128 0
 3279 00f8 8809     		.uleb128 .LEHB36-.LFB1194
 3280 00fa 05       		.uleb128 .LEHE36-.LEHB36
 3281 00fb DE09     		.uleb128 .L312-.LFB1194
 3282 00fd 00       		.uleb128 0
 3283 00fe BB09     		.uleb128 .LEHB37-.LFB1194
 3284 0100 05       		.uleb128 .LEHE37-.LEHB37
 3285 0101 00       		.uleb128 0
 3286 0102 00       		.uleb128 0
 3287              	.LLSDACSE1194:
 3288 0103 01       		.byte	0x1
 3289 0104 00       		.byte	0
 3290 0105 000000   		.align 4
 3291 0108 00000000 		.long	0
 3292              	
 3293              	.LLSDATT1194:
 3294              		.text
 3296              		.section	.text.unlikely
 3297              	.LCOLDE93:
 3298              		.text
 3299              	.LHOTE93:
 3300              		.section	.rodata.str1.1
 3301              	.LC94:
 3302 005d 5D206275 		.string	"] but was [ "
 3302      74207761 
 3302      73205B20 
 3302      00
 3303              		.section	.text.unlikely
 3304              	.LCOLDB95:
 3305              		.text
 3306              	.LHOTB95:
 3307 16dc 0F1F4000 		.p2align 4,,15
 3309              	_ZN8UnitTest15CheckArrayEqualIA3_iS1_EEvRNS_11TestResultsERKT_RKT0_iRKNS_11TestDetailsE.constprop.1
 3310              	.LFB1453:
 3311              		.cfi_startproc
 3312              		.cfi_personality 0x3,__gxx_personality_v0
 3313              		.cfi_lsda 0x3,.LLSDA1453
 3314 16e0 4156     		pushq	%r14
 3315              		.cfi_def_cfa_offset 16
 3316              		.cfi_offset 14, -16
 3317 16e2 4155     		pushq	%r13
 3318              		.cfi_def_cfa_offset 24
 3319              		.cfi_offset 13, -24
 3320 16e4 4989CD   		movq	%rcx, %r13
 3321 16e7 4154     		pushq	%r12
 3322              		.cfi_def_cfa_offset 32
 3323              		.cfi_offset 12, -32
 3324 16e9 55       		pushq	%rbp
 3325              		.cfi_def_cfa_offset 40
 3326              		.cfi_offset 6, -40
 3327 16ea 4989FC   		movq	%rdi, %r12
 3328 16ed 53       		pushq	%rbx
 3329              		.cfi_def_cfa_offset 48
 3330              		.cfi_offset 3, -48
 3331 16ee 4889D3   		movq	%rdx, %rbx
 3332 16f1 4889F5   		movq	%rsi, %rbp
 3333 16f4 4881EC80 		subq	$384, %rsp
 3333      010000
 3334              		.cfi_def_cfa_offset 432
 3335 16fb 64488B04 		movq	%fs:40, %rax
 3335      25280000 
 3335      00
 3336 1704 48898424 		movq	%rax, 376(%rsp)
 3336      78010000 
 3337 170c 31C0     		xorl	%eax, %eax
 3338 170e 8B4204   		movl	4(%rdx), %eax
 3339 1711 394604   		cmpl	%eax, 4(%rsi)
 3340 1714 8B03     		movl	(%rbx), %eax
 3341 1716 0F94C2   		sete	%dl
 3342 1719 3906     		cmpl	%eax, (%rsi)
 3343 171b 0F94C0   		sete	%al
 3344 171e 84C2     		testb	%al, %dl
 3345 1720 7436     		je	.L354
 3346 1722 8B4308   		movl	8(%rbx), %eax
 3347 1725 394608   		cmpl	%eax, 8(%rsi)
 3348 1728 752E     		jne	.L354
 3349              	.L330:
 3350 172a 488B8424 		movq	376(%rsp), %rax
 3350      78010000 
 3351 1732 64483304 		xorq	%fs:40, %rax
 3351      25280000 
 3351      00
 3352 173b 0F850603 		jne	.L365
 3352      0000
 3353 1741 4881C480 		addq	$384, %rsp
 3353      010000
 3354              		.cfi_remember_state
 3355              		.cfi_def_cfa_offset 48
 3356 1748 5B       		popq	%rbx
 3357              		.cfi_def_cfa_offset 40
 3358 1749 5D       		popq	%rbp
 3359              		.cfi_def_cfa_offset 32
 3360 174a 415C     		popq	%r12
 3361              		.cfi_def_cfa_offset 24
 3362 174c 415D     		popq	%r13
 3363              		.cfi_def_cfa_offset 16
 3364 174e 415E     		popq	%r14
 3365              		.cfi_def_cfa_offset 8
 3366 1750 C3       		ret
 3367              		.p2align 4,,10
 3368 1751 0F1F8000 		.p2align 3
 3368      000000
 3369              	.L354:
 3370              		.cfi_restore_state
 3371 1758 4C8D7424 		leaq	112(%rsp), %r14
 3371      70
 3372 175d 4C89F7   		movq	%r14, %rdi
 3373 1760 E8000000 		call	_ZNSt8ios_baseC2Ev
 3373      00
 3374 1765 31F6     		xorl	%esi, %esi
 3375 1767 4C89F7   		movq	%r14, %rdi
 3376 176a 48C78424 		movq	$0, 328(%rsp)
 3376      48010000 
 3376      00000000 
 3377 1776 C6842450 		movb	$0, 336(%rsp)
 3377      01000000 
 3378 177e C6842451 		movb	$0, 337(%rsp)
 3378      01000000 
 3379 1786 48C78424 		movq	$0, 344(%rsp)
 3379      58010000 
 3379      00000000 
 3380 1792 48C78424 		movq	$0, 352(%rsp)
 3380      60010000 
 3380      00000000 
 3381 179e 48C78424 		movq	$0, 360(%rsp)
 3381      68010000 
 3381      00000000 
 3382 17aa 48C78424 		movq	$0, 368(%rsp)
 3382      70010000 
 3382      00000000 
 3383 17b6 48C74424 		movq	$_ZTCN8UnitTest15MemoryOutStreamE0_So+24, 16(%rsp)
 3383      10000000 
 3383      00
 3384 17bf 48C74424 		movq	$_ZTCN8UnitTest15MemoryOutStreamE0_So+64, 112(%rsp)
 3384      70000000 
 3384      00
 3385              	.LEHB38:
 3386 17c8 E8000000 		call	_ZNSt9basic_iosIcSt11char_traitsIcEE4initEPSt15basic_streambufIcS1_E
 3386      00
 3387              	.LEHE38:
 3388 17cd 488D7C24 		leaq	80(%rsp), %rdi
 3388      50
 3389 17d2 48C74424 		movq	$_ZTCN8UnitTest15MemoryOutStreamE0_St19basic_ostringstreamIcSt11char_traitsIcESaIcEE+24, 16(%
 3389      10000000 
 3389      00
 3390 17db 48C74424 		movq	$_ZTCN8UnitTest15MemoryOutStreamE0_St19basic_ostringstreamIcSt11char_traitsIcESaIcEE+64, 112(
 3390      70000000 
 3390      00
 3391 17e4 48C74424 		movq	$_ZTVSt15basic_streambufIcSt11char_traitsIcEE+16, 24(%rsp)
 3391      18000000 
 3391      00
 3392 17ed 48C74424 		movq	$0, 32(%rsp)
 3392      20000000 
 3392      00
 3393 17f6 48C74424 		movq	$0, 40(%rsp)
 3393      28000000 
 3393      00
 3394 17ff 48C74424 		movq	$0, 48(%rsp)
 3394      30000000 
 3394      00
 3395 1808 48C74424 		movq	$0, 56(%rsp)
 3395      38000000 
 3395      00
 3396 1811 48C74424 		movq	$0, 64(%rsp)
 3396      40000000 
 3396      00
 3397 181a 48C74424 		movq	$0, 72(%rsp)
 3397      48000000 
 3397      00
 3398 1823 E8000000 		call	_ZNSt6localeC1Ev
 3398      00
 3399 1828 488B4424 		movq	16(%rsp), %rax
 3399      10
 3400 182d 488D7C24 		leaq	16(%rsp), %rdi
 3400      10
 3401 1832 488D7424 		leaq	24(%rsp), %rsi
 3401      18
 3402 1837 48C74424 		movq	$_ZTVSt15basic_stringbufIcSt11char_traitsIcESaIcEE+16, 24(%rsp)
 3402      18000000 
 3402      00
 3403 1840 C7442458 		movl	$16, 88(%rsp)
 3403      10000000 
 3404 1848 48C74424 		movq	$_ZNSs4_Rep20_S_empty_rep_storageE+24, 96(%rsp)
 3404      60000000 
 3404      00
 3405 1851 480378E8 		addq	-24(%rax), %rdi
 3406              	.LEHB39:
 3407 1855 E8000000 		call	_ZNSt9basic_iosIcSt11char_traitsIcEE4initEPSt15basic_streambufIcS1_E
 3407      00
 3408              	.LEHE39:
 3409 185a 488D7C24 		leaq	16(%rsp), %rdi
 3409      10
 3410 185f BA0B0000 		movl	$11, %edx
 3410      00
 3411 1864 BE000000 		movl	$.LC63, %esi
 3411      00
 3412 1869 48C74424 		movq	$_ZTVN8UnitTest15MemoryOutStreamE+24, 16(%rsp)
 3412      10000000 
 3412      00
 3413 1872 48C74424 		movq	$_ZTVN8UnitTest15MemoryOutStreamE+64, 112(%rsp)
 3413      70000000 
 3413      00
 3414 187b 48C74424 		movq	$_ZNSs4_Rep20_S_empty_rep_storageE+24, 104(%rsp)
 3414      68000000 
 3414      00
 3415              	.LEHB40:
 3416 1884 E8000000 		call	_ZSt16__ostream_insertIcSt11char_traitsIcEERSt13basic_ostreamIT_T0_ES6_PKS3_l
 3416      00
 3417 1889 4C8D750C 		leaq	12(%rbp), %r14
 3418 188d 0F1F00   		.p2align 4,,10
 3419              		.p2align 3
 3420              	.L337:
 3421 1890 8B7500   		movl	0(%rbp), %esi
 3422 1893 488D7C24 		leaq	16(%rsp), %rdi
 3422      10
 3423 1898 E8000000 		call	_ZNSolsEi
 3423      00
 3424 189d BA010000 		movl	$1, %edx
 3424      00
 3425 18a2 BE000000 		movl	$.LC65, %esi
 3425      00
 3426 18a7 4889C7   		movq	%rax, %rdi
 3427 18aa E8000000 		call	_ZSt16__ostream_insertIcSt11char_traitsIcEERSt13basic_ostreamIT_T0_ES6_PKS3_l
 3427      00
 3428 18af 4883C504 		addq	$4, %rbp
 3429 18b3 4C39F5   		cmpq	%r14, %rbp
 3430 18b6 75D8     		jne	.L337
 3431 18b8 488D7C24 		leaq	16(%rsp), %rdi
 3431      10
 3432 18bd BA0C0000 		movl	$12, %edx
 3432      00
 3433 18c2 BE000000 		movl	$.LC94, %esi
 3433      00
 3434 18c7 E8000000 		call	_ZSt16__ostream_insertIcSt11char_traitsIcEERSt13basic_ostreamIT_T0_ES6_PKS3_l
 3434      00
 3435 18cc 488D6B0C 		leaq	12(%rbx), %rbp
 3436              		.p2align 4,,10
 3437              		.p2align 3
 3438              	.L338:
 3439 18d0 8B33     		movl	(%rbx), %esi
 3440 18d2 488D7C24 		leaq	16(%rsp), %rdi
 3440      10
 3441 18d7 E8000000 		call	_ZNSolsEi
 3441      00
 3442 18dc BA010000 		movl	$1, %edx
 3442      00
 3443 18e1 BE000000 		movl	$.LC65, %esi
 3443      00
 3444 18e6 4889C7   		movq	%rax, %rdi
 3445 18e9 E8000000 		call	_ZSt16__ostream_insertIcSt11char_traitsIcEERSt13basic_ostreamIT_T0_ES6_PKS3_l
 3445      00
 3446 18ee 4883C304 		addq	$4, %rbx
 3447 18f2 4839EB   		cmpq	%rbp, %rbx
 3448 18f5 75D9     		jne	.L338
 3449 18f7 488D7C24 		leaq	16(%rsp), %rdi
 3449      10
 3450 18fc BA010000 		movl	$1, %edx
 3450      00
 3451 1901 BE000000 		movl	$.LC69, %esi
 3451      00
 3452 1906 E8000000 		call	_ZSt16__ostream_insertIcSt11char_traitsIcEERSt13basic_ostreamIT_T0_ES6_PKS3_l
 3452      00
 3453 190b 488D7C24 		leaq	16(%rsp), %rdi
 3453      10
 3454 1910 E8000000 		call	_ZNK8UnitTest15MemoryOutStream7GetTextEv
 3454      00
 3455 1915 4889C2   		movq	%rax, %rdx
 3456 1918 4C89EE   		movq	%r13, %rsi
 3457 191b 4C89E7   		movq	%r12, %rdi
 3458 191e E8000000 		call	_ZN8UnitTest11TestResults13OnTestFailureERKNS_11TestDetailsEPKc
 3458      00
 3459              	.LEHE40:
 3460 1923 488B4424 		movq	104(%rsp), %rax
 3460      68
 3461 1928 48C74424 		movq	$_ZTVN8UnitTest15MemoryOutStreamE+24, 16(%rsp)
 3461      10000000 
 3461      00
 3462 1931 48C74424 		movq	$_ZTVN8UnitTest15MemoryOutStreamE+64, 112(%rsp)
 3462      70000000 
 3462      00
 3463 193a 488D78E8 		leaq	-24(%rax), %rdi
 3464 193e 4881FF00 		cmpq	$_ZNSs4_Rep20_S_empty_rep_storageE, %rdi
 3464      000000
 3465 1945 7558     		jne	.L366
 3466              	.L340:
 3467 1947 488B4424 		movq	96(%rsp), %rax
 3467      60
 3468 194c 48C74424 		movq	$_ZTCN8UnitTest15MemoryOutStreamE0_St19basic_ostringstreamIcSt11char_traitsIcESaIcEE+24, 16(%
 3468      10000000 
 3468      00
 3469 1955 48C74424 		movq	$_ZTCN8UnitTest15MemoryOutStreamE0_St19basic_ostringstreamIcSt11char_traitsIcESaIcEE+64, 112(
 3469      70000000 
 3469      00
 3470 195e 48C74424 		movq	$_ZTVSt15basic_stringbufIcSt11char_traitsIcESaIcEE+16, 24(%rsp)
 3470      18000000 
 3470      00
 3471 1967 488D78E8 		leaq	-24(%rax), %rdi
 3472 196b 4881FF00 		cmpq	$_ZNSs4_Rep20_S_empty_rep_storageE, %rdi
 3472      000000
 3473 1972 7551     		jne	.L367
 3474              	.L345:
 3475 1974 488D7C24 		leaq	80(%rsp), %rdi
 3475      50
 3476 1979 48C74424 		movq	$_ZTVSt15basic_streambufIcSt11char_traitsIcEE+16, 24(%rsp)
 3476      18000000 
 3476      00
 3477 1982 E8000000 		call	_ZNSt6localeD1Ev
 3477      00
 3478 1987 488D7C24 		leaq	112(%rsp), %rdi
 3478      70
 3479 198c 48C74424 		movq	$_ZTVSt9basic_iosIcSt11char_traitsIcEE+16, 112(%rsp)
 3479      70000000 
 3479      00
 3480              	.LEHB41:
 3481 1995 E8000000 		call	_ZNSt8ios_baseD2Ev
 3481      00
 3482              	.LEHE41:
 3483 199a E98BFDFF 		jmp	.L330
 3483      FF
 3484              	.L366:
 3485 199f BA000000 		movl	$_ZL28__gthrw___pthread_key_createPjPFvPvE, %edx
 3485      00
 3486 19a4 4885D2   		testq	%rdx, %rdx
 3487 19a7 7442     		je	.L341
 3488 19a9 BAFFFFFF 		movl	$-1, %edx
 3488      FF
 3489 19ae F00FC150 		lock xaddl	%edx, -8(%rax)
 3489      F8
 3490 19b3 89D0     		movl	%edx, %eax
 3491              	.L342:
 3492 19b5 85C0     		testl	%eax, %eax
 3493 19b7 7F8E     		jg	.L340
 3494 19b9 488D7424 		leaq	15(%rsp), %rsi
 3494      0F
 3495 19be E8000000 		call	_ZNSs4_Rep10_M_destroyERKSaIcE
 3495      00
 3496 19c3 EB82     		jmp	.L340
 3497              	.L367:
 3498 19c5 BA000000 		movl	$_ZL28__gthrw___pthread_key_createPjPFvPvE, %edx
 3498      00
 3499 19ca 4885D2   		testq	%rdx, %rdx
 3500 19cd 7429     		je	.L346
 3501 19cf BAFFFFFF 		movl	$-1, %edx
 3501      FF
 3502 19d4 F00FC150 		lock xaddl	%edx, -8(%rax)
 3502      F8
 3503 19d9 89D0     		movl	%edx, %eax
 3504              	.L347:
 3505 19db 85C0     		testl	%eax, %eax
 3506 19dd 7F95     		jg	.L345
 3507 19df 488D7424 		leaq	15(%rsp), %rsi
 3507      0F
 3508 19e4 E8000000 		call	_ZNSs4_Rep10_M_destroyERKSaIcE
 3508      00
 3509 19e9 EB89     		jmp	.L345
 3510              	.L341:
 3511 19eb 8B50F8   		movl	-8(%rax), %edx
 3512 19ee 8D4AFF   		leal	-1(%rdx), %ecx
 3513 19f1 8948F8   		movl	%ecx, -8(%rax)
 3514 19f4 89D0     		movl	%edx, %eax
 3515 19f6 EBBD     		jmp	.L342
 3516              	.L346:
 3517 19f8 8B50F8   		movl	-8(%rax), %edx
 3518 19fb 8D4AFF   		leal	-1(%rdx), %ecx
 3519 19fe 8948F8   		movl	%ecx, -8(%rax)
 3520 1a01 89D0     		movl	%edx, %eax
 3521 1a03 EBD6     		jmp	.L347
 3522              	.L352:
 3523 1a05 4889C3   		movq	%rax, %rbx
 3524              	.L335:
 3525 1a08 488D7C24 		leaq	112(%rsp), %rdi
 3525      70
 3526 1a0d 48C74424 		movq	$_ZTVSt9basic_iosIcSt11char_traitsIcEE+16, 112(%rsp)
 3526      70000000 
 3526      00
 3527 1a16 E8000000 		call	_ZNSt8ios_baseD2Ev
 3527      00
 3528 1a1b 4889DF   		movq	%rbx, %rdi
 3529              	.LEHB42:
 3530 1a1e E8000000 		call	_Unwind_Resume
 3530      00
 3531              	.LEHE42:
 3532              	.L351:
 3533 1a23 488D7C24 		leaq	16(%rsp), %rdi
 3533      10
 3534 1a28 4889C3   		movq	%rax, %rbx
 3535 1a2b E8000000 		call	_ZN8UnitTest15MemoryOutStreamD1Ev
 3535      00
 3536 1a30 4889DF   		movq	%rbx, %rdi
 3537              	.LEHB43:
 3538 1a33 E8000000 		call	_Unwind_Resume
 3538      00
 3539              	.LEHE43:
 3540              	.L353:
 3541 1a38 488D7C24 		leaq	24(%rsp), %rdi
 3541      18
 3542 1a3d 4889C3   		movq	%rax, %rbx
 3543 1a40 E8000000 		call	_ZNSt15basic_stringbufIcSt11char_traitsIcESaIcEED1Ev
 3543      00
 3544 1a45 EBC1     		jmp	.L335
 3545              	.L365:
 3546 1a47 E8000000 		call	__stack_chk_fail
 3546      00
 3547              		.cfi_endproc
 3548              	.LFE1453:
 3549              		.section	.gcc_except_table
 3550              	.LLSDA1453:
 3551 010c FF       		.byte	0xff
 3552 010d FF       		.byte	0xff
 3553 010e 01       		.byte	0x1
 3554 010f 22       		.uleb128 .LLSDACSE1453-.LLSDACSB1453
 3555              	.LLSDACSB1453:
 3556 0110 E801     		.uleb128 .LEHB38-.LFB1453
 3557 0112 05       		.uleb128 .LEHE38-.LEHB38
 3558 0113 A506     		.uleb128 .L352-.LFB1453
 3559 0115 00       		.uleb128 0
 3560 0116 F502     		.uleb128 .LEHB39-.LFB1453
 3561 0118 05       		.uleb128 .LEHE39-.LEHB39
 3562 0119 D806     		.uleb128 .L353-.LFB1453
 3563 011b 00       		.uleb128 0
 3564 011c A403     		.uleb128 .LEHB40-.LFB1453
 3565 011e 9F01     		.uleb128 .LEHE40-.LEHB40
 3566 0120 C306     		.uleb128 .L351-.LFB1453
 3567 0122 00       		.uleb128 0
 3568 0123 B505     		.uleb128 .LEHB41-.LFB1453
 3569 0125 05       		.uleb128 .LEHE41-.LEHB41
 3570 0126 00       		.uleb128 0
 3571 0127 00       		.uleb128 0
 3572 0128 BE06     		.uleb128 .LEHB42-.LFB1453
 3573 012a 05       		.uleb128 .LEHE42-.LEHB42
 3574 012b 00       		.uleb128 0
 3575 012c 00       		.uleb128 0
 3576 012d D306     		.uleb128 .LEHB43-.LFB1453
 3577 012f 05       		.uleb128 .LEHE43-.LEHB43
 3578 0130 00       		.uleb128 0
 3579 0131 00       		.uleb128 0
 3580              	.LLSDACSE1453:
 3581              		.text
 3583              		.section	.text.unlikely
 3584              	.LCOLDE95:
 3585              		.text
 3586              	.LHOTE95:
 3587              		.section	.text.unlikely
 3588              	.LCOLDB96:
 3589              		.text
 3590              	.LHOTB96:
 3591 1a4c 0F1F4000 		.p2align 4,,15
 3593              	_ZN8UnitTest15CheckArrayCloseIA3_fS1_fEEvRNS_11TestResultsERKT_RKT0_iRKT1_RKNS_11TestDetailsE.const
 3594              	.LFB1454:
 3595              		.cfi_startproc
 3596              		.cfi_personality 0x3,__gxx_personality_v0
 3597              		.cfi_lsda 0x3,.LLSDA1454
 3598 1a50 4157     		pushq	%r15
 3599              		.cfi_def_cfa_offset 16
 3600              		.cfi_offset 15, -16
 3601 1a52 4156     		pushq	%r14
 3602              		.cfi_def_cfa_offset 24
 3603              		.cfi_offset 14, -24
 3604 1a54 4989CF   		movq	%rcx, %r15
 3605 1a57 4155     		pushq	%r13
 3606              		.cfi_def_cfa_offset 32
 3607              		.cfi_offset 13, -32
 3608 1a59 4154     		pushq	%r12
 3609              		.cfi_def_cfa_offset 40
 3610              		.cfi_offset 12, -40
 3611 1a5b 4D89C5   		movq	%r8, %r13
 3612 1a5e 55       		pushq	%rbp
 3613              		.cfi_def_cfa_offset 48
 3614              		.cfi_offset 6, -48
 3615 1a5f 53       		pushq	%rbx
 3616              		.cfi_def_cfa_offset 56
 3617              		.cfi_offset 3, -56
 3618 1a60 4989FC   		movq	%rdi, %r12
 3619 1a63 4889F5   		movq	%rsi, %rbp
 3620 1a66 4889D3   		movq	%rdx, %rbx
 3621 1a69 4881EC98 		subq	$408, %rsp
 3621      010000
 3622              		.cfi_def_cfa_offset 464
 3623 1a70 F30F100E 		movss	(%rsi), %xmm1
 3624 1a74 0F28D9   		movaps	%xmm1, %xmm3
 3625 1a77 F30F1001 		movss	(%rcx), %xmm0
 3626 1a7b F30F1012 		movss	(%rdx), %xmm2
 3627 1a7f F30F5CD8 		subss	%xmm0, %xmm3
 3628 1a83 64488B04 		movq	%fs:40, %rax
 3628      25280000 
 3628      00
 3629 1a8c 48898424 		movq	%rax, 392(%rsp)
 3629      88010000 
 3630 1a94 31C0     		xorl	%eax, %eax
 3631 1a96 31C0     		xorl	%eax, %eax
 3632 1a98 0F2ED3   		ucomiss	%xmm3, %xmm2
 3633 1a9b 720A     		jb	.L369
 3634 1a9d F30F58C8 		addss	%xmm0, %xmm1
 3635 1aa1 0F2ECA   		ucomiss	%xmm2, %xmm1
 3636 1aa4 0F93C0   		setnb	%al
 3637              	.L369:
 3638 1aa7 F30F104D 		movss	4(%rbp), %xmm1
 3638      04
 3639 1aac 0F28D9   		movaps	%xmm1, %xmm3
 3640 1aaf F30F1053 		movss	4(%rbx), %xmm2
 3640      04
 3641 1ab4 F30F5CD8 		subss	%xmm0, %xmm3
 3642 1ab8 0F2ED3   		ucomiss	%xmm3, %xmm2
 3643 1abb 0F82FF02 		jb	.L407
 3643      0000
 3644 1ac1 F30F58C8 		addss	%xmm0, %xmm1
 3645 1ac5 BA000000 		movl	$0, %edx
 3645      00
 3646 1aca 0F2ECA   		ucomiss	%xmm2, %xmm1
 3647 1acd 0F42C2   		cmovb	%edx, %eax
 3648              	.L371:
 3649 1ad0 F30F1055 		movss	8(%rbp), %xmm2
 3649      08
 3650 1ad5 0F28DA   		movaps	%xmm2, %xmm3
 3651 1ad8 F30F104B 		movss	8(%rbx), %xmm1
 3651      08
 3652 1add F30F5CD8 		subss	%xmm0, %xmm3
 3653 1ae1 0F2ECB   		ucomiss	%xmm3, %xmm1
 3654 1ae4 0F83E602 		jnb	.L413
 3654      0000
 3655              	.L373:
 3656 1aea 4C8DB424 		leaq	128(%rsp), %r14
 3656      80000000 
 3657 1af2 4C89F7   		movq	%r14, %rdi
 3658 1af5 E8000000 		call	_ZNSt8ios_baseC2Ev
 3658      00
 3659 1afa 31F6     		xorl	%esi, %esi
 3660 1afc 4C89F7   		movq	%r14, %rdi
 3661 1aff 48C78424 		movq	$0, 344(%rsp)
 3661      58010000 
 3661      00000000 
 3662 1b0b C6842460 		movb	$0, 352(%rsp)
 3662      01000000 
 3663 1b13 C6842461 		movb	$0, 353(%rsp)
 3663      01000000 
 3664 1b1b 48C78424 		movq	$0, 360(%rsp)
 3664      68010000 
 3664      00000000 
 3665 1b27 48C78424 		movq	$0, 368(%rsp)
 3665      70010000 
 3665      00000000 
 3666 1b33 48C78424 		movq	$0, 376(%rsp)
 3666      78010000 
 3666      00000000 
 3667 1b3f 48C78424 		movq	$0, 384(%rsp)
 3667      80010000 
 3667      00000000 
 3668 1b4b 48C74424 		movq	$_ZTCN8UnitTest15MemoryOutStreamE0_So+24, 32(%rsp)
 3668      20000000 
 3668      00
 3669 1b54 48C78424 		movq	$_ZTCN8UnitTest15MemoryOutStreamE0_So+64, 128(%rsp)
 3669      80000000 
 3669      00000000 
 3670              	.LEHB44:
 3671 1b60 E8000000 		call	_ZNSt9basic_iosIcSt11char_traitsIcEE4initEPSt15basic_streambufIcS1_E
 3671      00
 3672              	.LEHE44:
 3673 1b65 488D7C24 		leaq	96(%rsp), %rdi
 3673      60
 3674 1b6a 48C74424 		movq	$_ZTCN8UnitTest15MemoryOutStreamE0_St19basic_ostringstreamIcSt11char_traitsIcESaIcEE+24, 32(%
 3674      20000000 
 3674      00
 3675 1b73 48C78424 		movq	$_ZTCN8UnitTest15MemoryOutStreamE0_St19basic_ostringstreamIcSt11char_traitsIcESaIcEE+64, 128(
 3675      80000000 
 3675      00000000 
 3676 1b7f 48C74424 		movq	$_ZTVSt15basic_streambufIcSt11char_traitsIcEE+16, 40(%rsp)
 3676      28000000 
 3676      00
 3677 1b88 48C74424 		movq	$0, 48(%rsp)
 3677      30000000 
 3677      00
 3678 1b91 48C74424 		movq	$0, 56(%rsp)
 3678      38000000 
 3678      00
 3679 1b9a 48C74424 		movq	$0, 64(%rsp)
 3679      40000000 
 3679      00
 3680 1ba3 48C74424 		movq	$0, 72(%rsp)
 3680      48000000 
 3680      00
 3681 1bac 48C74424 		movq	$0, 80(%rsp)
 3681      50000000 
 3681      00
 3682 1bb5 48C74424 		movq	$0, 88(%rsp)
 3682      58000000 
 3682      00
 3683 1bbe E8000000 		call	_ZNSt6localeC1Ev
 3683      00
 3684 1bc3 488B4424 		movq	32(%rsp), %rax
 3684      20
 3685 1bc8 488D7C24 		leaq	32(%rsp), %rdi
 3685      20
 3686 1bcd 488D7424 		leaq	40(%rsp), %rsi
 3686      28
 3687 1bd2 48C74424 		movq	$_ZTVSt15basic_stringbufIcSt11char_traitsIcESaIcEE+16, 40(%rsp)
 3687      28000000 
 3687      00
 3688 1bdb C7442468 		movl	$16, 104(%rsp)
 3688      10000000 
 3689 1be3 48C74424 		movq	$_ZNSs4_Rep20_S_empty_rep_storageE+24, 112(%rsp)
 3689      70000000 
 3689      00
 3690 1bec 480378E8 		addq	-24(%rax), %rdi
 3691              	.LEHB45:
 3692 1bf0 E8000000 		call	_ZNSt9basic_iosIcSt11char_traitsIcEE4initEPSt15basic_streambufIcS1_E
 3692      00
 3693              	.LEHE45:
 3694 1bf5 488D7C24 		leaq	32(%rsp), %rdi
 3694      20
 3695 1bfa BA0B0000 		movl	$11, %edx
 3695      00
 3696 1bff BE000000 		movl	$.LC63, %esi
 3696      00
 3697 1c04 48C74424 		movq	$_ZTVN8UnitTest15MemoryOutStreamE+24, 32(%rsp)
 3697      20000000 
 3697      00
 3698 1c0d 48C78424 		movq	$_ZTVN8UnitTest15MemoryOutStreamE+64, 128(%rsp)
 3698      80000000 
 3698      00000000 
 3699 1c19 48C74424 		movq	$_ZNSs4_Rep20_S_empty_rep_storageE+24, 120(%rsp)
 3699      78000000 
 3699      00
 3700              	.LEHB46:
 3701 1c22 E8000000 		call	_ZSt16__ostream_insertIcSt11char_traitsIcEERSt13basic_ostreamIT_T0_ES6_PKS3_l
 3701      00
 3702 1c27 4C8D750C 		leaq	12(%rbp), %r14
 3703 1c2b 0F1F4400 		.p2align 4,,10
 3703      00
 3704              		.p2align 3
 3705              	.L381:
 3706 1c30 660FEFC0 		pxor	%xmm0, %xmm0
 3707 1c34 488D7C24 		leaq	32(%rsp), %rdi
 3707      20
 3708 1c39 F30F5A45 		cvtss2sd	0(%rbp), %xmm0
 3708      00
 3709 1c3e E8000000 		call	_ZNSo9_M_insertIdEERSoT_
 3709      00
 3710 1c43 BA010000 		movl	$1, %edx
 3710      00
 3711 1c48 BE000000 		movl	$.LC65, %esi
 3711      00
 3712 1c4d 4889C7   		movq	%rax, %rdi
 3713 1c50 E8000000 		call	_ZSt16__ostream_insertIcSt11char_traitsIcEERSt13basic_ostreamIT_T0_ES6_PKS3_l
 3713      00
 3714 1c55 4883C504 		addq	$4, %rbp
 3715 1c59 4C39F5   		cmpq	%r14, %rbp
 3716 1c5c 75D2     		jne	.L381
 3717 1c5e 488D7C24 		leaq	32(%rsp), %rdi
 3717      20
 3718 1c63 F3410F10 		movss	(%r15), %xmm4
 3718      27
 3719 1c68 BA060000 		movl	$6, %edx
 3719      00
 3720 1c6d BE000000 		movl	$.LC67, %esi
 3720      00
 3721 1c72 F30F1164 		movss	%xmm4, 12(%rsp)
 3721      240C
 3722 1c78 E8000000 		call	_ZSt16__ostream_insertIcSt11char_traitsIcEERSt13basic_ostreamIT_T0_ES6_PKS3_l
 3722      00
 3723 1c7d 660FEFC0 		pxor	%xmm0, %xmm0
 3724 1c81 488D7C24 		leaq	32(%rsp), %rdi
 3724      20
 3725 1c86 F30F5A44 		cvtss2sd	12(%rsp), %xmm0
 3725      240C
 3726 1c8c E8000000 		call	_ZNSo9_M_insertIdEERSoT_
 3726      00
 3727 1c91 BA0B0000 		movl	$11, %edx
 3727      00
 3728 1c96 BE000000 		movl	$.LC68, %esi
 3728      00
 3729 1c9b 4889C7   		movq	%rax, %rdi
 3730 1c9e E8000000 		call	_ZSt16__ostream_insertIcSt11char_traitsIcEERSt13basic_ostreamIT_T0_ES6_PKS3_l
 3730      00
 3731 1ca3 488D6B0C 		leaq	12(%rbx), %rbp
 3732 1ca7 660F1F84 		.p2align 4,,10
 3732      00000000 
 3732      00
 3733              		.p2align 3
 3734              	.L382:
 3735 1cb0 660FEFC0 		pxor	%xmm0, %xmm0
 3736 1cb4 488D7C24 		leaq	32(%rsp), %rdi
 3736      20
 3737 1cb9 F30F5A03 		cvtss2sd	(%rbx), %xmm0
 3738 1cbd E8000000 		call	_ZNSo9_M_insertIdEERSoT_
 3738      00
 3739 1cc2 BA010000 		movl	$1, %edx
 3739      00
 3740 1cc7 BE000000 		movl	$.LC65, %esi
 3740      00
 3741 1ccc 4889C7   		movq	%rax, %rdi
 3742 1ccf E8000000 		call	_ZSt16__ostream_insertIcSt11char_traitsIcEERSt13basic_ostreamIT_T0_ES6_PKS3_l
 3742      00
 3743 1cd4 4883C304 		addq	$4, %rbx
 3744 1cd8 4839EB   		cmpq	%rbp, %rbx
 3745 1cdb 75D3     		jne	.L382
 3746 1cdd 488D7C24 		leaq	32(%rsp), %rdi
 3746      20
 3747 1ce2 BA010000 		movl	$1, %edx
 3747      00
 3748 1ce7 BE000000 		movl	$.LC69, %esi
 3748      00
 3749 1cec E8000000 		call	_ZSt16__ostream_insertIcSt11char_traitsIcEERSt13basic_ostreamIT_T0_ES6_PKS3_l
 3749      00
 3750 1cf1 488D7C24 		leaq	32(%rsp), %rdi
 3750      20
 3751 1cf6 E8000000 		call	_ZNK8UnitTest15MemoryOutStream7GetTextEv
 3751      00
 3752 1cfb 4889C2   		movq	%rax, %rdx
 3753 1cfe 4C89EE   		movq	%r13, %rsi
 3754 1d01 4C89E7   		movq	%r12, %rdi
 3755 1d04 E8000000 		call	_ZN8UnitTest11TestResults13OnTestFailureERKNS_11TestDetailsEPKc
 3755      00
 3756              	.LEHE46:
 3757 1d09 488B4424 		movq	120(%rsp), %rax
 3757      78
 3758 1d0e 48C74424 		movq	$_ZTVN8UnitTest15MemoryOutStreamE+24, 32(%rsp)
 3758      20000000 
 3758      00
 3759 1d17 48C78424 		movq	$_ZTVN8UnitTest15MemoryOutStreamE+64, 128(%rsp)
 3759      80000000 
 3759      00000000 
 3760 1d23 488D78E8 		leaq	-24(%rax), %rdi
 3761 1d27 4881FF00 		cmpq	$_ZNSs4_Rep20_S_empty_rep_storageE, %rdi
 3761      000000
 3762 1d2e 0F85BC00 		jne	.L414
 3762      0000
 3763              	.L384:
 3764 1d34 488B4424 		movq	112(%rsp), %rax
 3764      70
 3765 1d39 48C74424 		movq	$_ZTCN8UnitTest15MemoryOutStreamE0_St19basic_ostringstreamIcSt11char_traitsIcESaIcEE+24, 32(%
 3765      20000000 
 3765      00
 3766 1d42 48C78424 		movq	$_ZTCN8UnitTest15MemoryOutStreamE0_St19basic_ostringstreamIcSt11char_traitsIcESaIcEE+64, 128(
 3766      80000000 
 3766      00000000 
 3767 1d4e 48C74424 		movq	$_ZTVSt15basic_stringbufIcSt11char_traitsIcESaIcEE+16, 40(%rsp)
 3767      28000000 
 3767      00
 3768 1d57 488D78E8 		leaq	-24(%rax), %rdi
 3769 1d5b 4881FF00 		cmpq	$_ZNSs4_Rep20_S_empty_rep_storageE, %rdi
 3769      000000
 3770 1d62 0F85B500 		jne	.L415
 3770      0000
 3771              	.L389:
 3772 1d68 488D7C24 		leaq	96(%rsp), %rdi
 3772      60
 3773 1d6d 48C74424 		movq	$_ZTVSt15basic_streambufIcSt11char_traitsIcEE+16, 40(%rsp)
 3773      28000000 
 3773      00
 3774 1d76 E8000000 		call	_ZNSt6localeD1Ev
 3774      00
 3775 1d7b 488DBC24 		leaq	128(%rsp), %rdi
 3775      80000000 
 3776 1d83 48C78424 		movq	$_ZTVSt9basic_iosIcSt11char_traitsIcEE+16, 128(%rsp)
 3776      80000000 
 3776      00000000 
 3777              	.LEHB47:
 3778 1d8f E8000000 		call	_ZNSt8ios_baseD2Ev
 3778      00
 3779              	.LEHE47:
 3780              	.L368:
 3781 1d94 488B8424 		movq	392(%rsp), %rax
 3781      88010000 
 3782 1d9c 64483304 		xorq	%fs:40, %rax
 3782      25280000 
 3782      00
 3783 1da5 0F850101 		jne	.L416
 3783      0000
 3784 1dab 4881C498 		addq	$408, %rsp
 3784      010000
 3785              		.cfi_remember_state
 3786              		.cfi_def_cfa_offset 56
 3787 1db2 5B       		popq	%rbx
 3788              		.cfi_def_cfa_offset 48
 3789 1db3 5D       		popq	%rbp
 3790              		.cfi_def_cfa_offset 40
 3791 1db4 415C     		popq	%r12
 3792              		.cfi_def_cfa_offset 32
 3793 1db6 415D     		popq	%r13
 3794              		.cfi_def_cfa_offset 24
 3795 1db8 415E     		popq	%r14
 3796              		.cfi_def_cfa_offset 16
 3797 1dba 415F     		popq	%r15
 3798              		.cfi_def_cfa_offset 8
 3799 1dbc C3       		ret
 3800 1dbd 0F1F00   		.p2align 4,,10
 3801              		.p2align 3
 3802              	.L407:
 3803              		.cfi_restore_state
 3804 1dc0 31C0     		xorl	%eax, %eax
 3805 1dc2 E909FDFF 		jmp	.L371
 3805      FF
 3806 1dc7 660F1F84 		.p2align 4,,10
 3806      00000000 
 3806      00
 3807              		.p2align 3
 3808              	.L413:
 3809 1dd0 F30F58C2 		addss	%xmm2, %xmm0
 3810 1dd4 0F2EC1   		ucomiss	%xmm1, %xmm0
 3811 1dd7 0F820DFD 		jb	.L373
 3811      FFFF
 3812 1ddd 84C0     		testb	%al, %al
 3813 1ddf 75B3     		jne	.L368
 3814 1de1 E904FDFF 		jmp	.L373
 3814      FF
 3815 1de6 662E0F1F 		.p2align 4,,10
 3815      84000000 
 3815      0000
 3816              		.p2align 3
 3817              	.L414:
 3818 1df0 BA000000 		movl	$_ZL28__gthrw___pthread_key_createPjPFvPvE, %edx
 3818      00
 3819 1df5 4885D2   		testq	%rdx, %rdx
 3820 1df8 7450     		je	.L385
 3821 1dfa BAFFFFFF 		movl	$-1, %edx
 3821      FF
 3822 1dff F00FC150 		lock xaddl	%edx, -8(%rax)
 3822      F8
 3823 1e04 89D0     		movl	%edx, %eax
 3824              	.L386:
 3825 1e06 85C0     		testl	%eax, %eax
 3826 1e08 0F8F26FF 		jg	.L384
 3826      FFFF
 3827 1e0e 488D7424 		leaq	31(%rsp), %rsi
 3827      1F
 3828 1e13 E8000000 		call	_ZNSs4_Rep10_M_destroyERKSaIcE
 3828      00
 3829 1e18 E917FFFF 		jmp	.L384
 3829      FF
 3830              	.L415:
 3831 1e1d BA000000 		movl	$_ZL28__gthrw___pthread_key_createPjPFvPvE, %edx
 3831      00
 3832 1e22 4885D2   		testq	%rdx, %rdx
 3833 1e25 7430     		je	.L390
 3834 1e27 BAFFFFFF 		movl	$-1, %edx
 3834      FF
 3835 1e2c F00FC150 		lock xaddl	%edx, -8(%rax)
 3835      F8
 3836 1e31 89D0     		movl	%edx, %eax
 3837              	.L391:
 3838 1e33 85C0     		testl	%eax, %eax
 3839 1e35 0F8F2DFF 		jg	.L389
 3839      FFFF
 3840 1e3b 488D7424 		leaq	31(%rsp), %rsi
 3840      1F
 3841 1e40 E8000000 		call	_ZNSs4_Rep10_M_destroyERKSaIcE
 3841      00
 3842 1e45 E91EFFFF 		jmp	.L389
 3842      FF
 3843              	.L385:
 3844 1e4a 8B50F8   		movl	-8(%rax), %edx
 3845 1e4d 8D4AFF   		leal	-1(%rdx), %ecx
 3846 1e50 8948F8   		movl	%ecx, -8(%rax)
 3847 1e53 89D0     		movl	%edx, %eax
 3848 1e55 EBAF     		jmp	.L386
 3849              	.L390:
 3850 1e57 8B50F8   		movl	-8(%rax), %edx
 3851 1e5a 8D4AFF   		leal	-1(%rdx), %ecx
 3852 1e5d 8948F8   		movl	%ecx, -8(%rax)
 3853 1e60 89D0     		movl	%edx, %eax
 3854 1e62 EBCF     		jmp	.L391
 3855              	.L398:
 3856 1e64 4889C3   		movq	%rax, %rbx
 3857              	.L379:
 3858 1e67 488DBC24 		leaq	128(%rsp), %rdi
 3858      80000000 
 3859 1e6f 48C78424 		movq	$_ZTVSt9basic_iosIcSt11char_traitsIcEE+16, 128(%rsp)
 3859      80000000 
 3859      00000000 
 3860 1e7b E8000000 		call	_ZNSt8ios_baseD2Ev
 3860      00
 3861 1e80 4889DF   		movq	%rbx, %rdi
 3862              	.LEHB48:
 3863 1e83 E8000000 		call	_Unwind_Resume
 3863      00
 3864              	.LEHE48:
 3865              	.L399:
 3866 1e88 488D7C24 		leaq	40(%rsp), %rdi
 3866      28
 3867 1e8d 4889C3   		movq	%rax, %rbx
 3868 1e90 E8000000 		call	_ZNSt15basic_stringbufIcSt11char_traitsIcESaIcEED1Ev
 3868      00
 3869 1e95 EBD0     		jmp	.L379
 3870              	.L397:
 3871 1e97 488D7C24 		leaq	32(%rsp), %rdi
 3871      20
 3872 1e9c 4889C3   		movq	%rax, %rbx
 3873 1e9f E8000000 		call	_ZN8UnitTest15MemoryOutStreamD1Ev
 3873      00
 3874 1ea4 4889DF   		movq	%rbx, %rdi
 3875              	.LEHB49:
 3876 1ea7 E8000000 		call	_Unwind_Resume
 3876      00
 3877              	.LEHE49:
 3878              	.L416:
 3879 1eac E8000000 		call	__stack_chk_fail
 3879      00
 3880              		.cfi_endproc
 3881              	.LFE1454:
 3882              		.section	.gcc_except_table
 3883              	.LLSDA1454:
 3884 0132 FF       		.byte	0xff
 3885 0133 FF       		.byte	0xff
 3886 0134 01       		.byte	0x1
 3887 0135 22       		.uleb128 .LLSDACSE1454-.LLSDACSB1454
 3888              	.LLSDACSB1454:
 3889 0136 9002     		.uleb128 .LEHB44-.LFB1454
 3890 0138 05       		.uleb128 .LEHE44-.LEHB44
 3891 0139 9408     		.uleb128 .L398-.LFB1454
 3892 013b 00       		.uleb128 0
 3893 013c A003     		.uleb128 .LEHB45-.LFB1454
 3894 013e 05       		.uleb128 .LEHE45-.LEHB45
 3895 013f B808     		.uleb128 .L399-.LFB1454
 3896 0141 00       		.uleb128 0
 3897 0142 D203     		.uleb128 .LEHB46-.LFB1454
 3898 0144 E701     		.uleb128 .LEHE46-.LEHB46
 3899 0146 C708     		.uleb128 .L397-.LFB1454
 3900 0148 00       		.uleb128 0
 3901 0149 BF06     		.uleb128 .LEHB47-.LFB1454
 3902 014b 05       		.uleb128 .LEHE47-.LEHB47
 3903 014c 00       		.uleb128 0
 3904 014d 00       		.uleb128 0
 3905 014e B308     		.uleb128 .LEHB48-.LFB1454
 3906 0150 05       		.uleb128 .LEHE48-.LEHB48
 3907 0151 00       		.uleb128 0
 3908 0152 00       		.uleb128 0
 3909 0153 D708     		.uleb128 .LEHB49-.LFB1454
 3910 0155 05       		.uleb128 .LEHE49-.LEHB49
 3911 0156 00       		.uleb128 0
 3912 0157 00       		.uleb128 0
 3913              	.LLSDACSE1454:
 3914              		.text
 3916              		.section	.text.unlikely
 3917              	.LCOLDE96:
 3918              		.text
 3919              	.LHOTE96:
 3920              		.section	.text.unlikely._ZNSt15basic_stringbufIcSt11char_traitsIcESaIcEED0Ev,"axG",@progbits,_ZNSt
 3921              		.align 2
 3922              	.LCOLDB97:
 3923              		.section	.text._ZNSt15basic_stringbufIcSt11char_traitsIcESaIcEED0Ev,"axG",@progbits,_ZNSt15basic_s
 3924              	.LHOTB97:
 3925              		.align 2
 3926              		.p2align 4,,15
 3927              		.weak	_ZNSt15basic_stringbufIcSt11char_traitsIcESaIcEED0Ev
 3929              	_ZNSt15basic_stringbufIcSt11char_traitsIcESaIcEED0Ev:
 3930              	.LFB1246:
 3931              		.cfi_startproc
 3932 0000 53       		pushq	%rbx
 3933              		.cfi_def_cfa_offset 16
 3934              		.cfi_offset 3, -16
 3935 0001 4889FB   		movq	%rdi, %rbx
 3936 0004 4883EC10 		subq	$16, %rsp
 3937              		.cfi_def_cfa_offset 32
 3938 0008 48C70700 		movq	$_ZTVSt15basic_stringbufIcSt11char_traitsIcESaIcEE+16, (%rdi)
 3938      000000
 3939 000f 64488B04 		movq	%fs:40, %rax
 3939      25280000 
 3939      00
 3940 0018 48894424 		movq	%rax, 8(%rsp)
 3940      08
 3941 001d 31C0     		xorl	%eax, %eax
 3942 001f 488B4748 		movq	72(%rdi), %rax
 3943 0023 488D78E8 		leaq	-24(%rax), %rdi
 3944 0027 4881FF00 		cmpq	$_ZNSs4_Rep20_S_empty_rep_storageE, %rdi
 3944      000000
 3945 002e 7530     		jne	.L425
 3946              	.L419:
 3947 0030 488D7B38 		leaq	56(%rbx), %rdi
 3948 0034 48C70300 		movq	$_ZTVSt15basic_streambufIcSt11char_traitsIcEE+16, (%rbx)
 3948      000000
 3949 003b E8000000 		call	_ZNSt6localeD1Ev
 3949      00
 3950 0040 4889DF   		movq	%rbx, %rdi
 3951 0043 E8000000 		call	_ZdlPv
 3951      00
 3952 0048 488B4424 		movq	8(%rsp), %rax
 3952      08
 3953 004d 64483304 		xorq	%fs:40, %rax
 3953      25280000 
 3953      00
 3954 0056 7545     		jne	.L426
 3955 0058 4883C410 		addq	$16, %rsp
 3956              		.cfi_remember_state
 3957              		.cfi_def_cfa_offset 16
 3958 005c 5B       		popq	%rbx
 3959              		.cfi_def_cfa_offset 8
 3960 005d C3       		ret
 3961 005e 6690     		.p2align 4,,10
 3962              		.p2align 3
 3963              	.L425:
 3964              		.cfi_restore_state
 3965 0060 BA000000 		movl	$_ZL28__gthrw___pthread_key_createPjPFvPvE, %edx
 3965      00
 3966 0065 4885D2   		testq	%rdx, %rdx
 3967 0068 7426     		je	.L420
 3968 006a BAFFFFFF 		movl	$-1, %edx
 3968      FF
 3969 006f F00FC150 		lock xaddl	%edx, -8(%rax)
 3969      F8
 3970 0074 89D0     		movl	%edx, %eax
 3971              	.L421:
 3972 0076 85C0     		testl	%eax, %eax
 3973 0078 7FB6     		jg	.L419
 3974 007a 488D7424 		leaq	7(%rsp), %rsi
 3974      07
 3975 007f E8000000 		call	_ZNSs4_Rep10_M_destroyERKSaIcE
 3975      00
 3976 0084 EBAA     		jmp	.L419
 3977 0086 662E0F1F 		.p2align 4,,10
 3977      84000000 
 3977      0000
 3978              		.p2align 3
 3979              	.L420:
 3980 0090 8B50F8   		movl	-8(%rax), %edx
 3981 0093 8D4AFF   		leal	-1(%rdx), %ecx
 3982 0096 8948F8   		movl	%ecx, -8(%rax)
 3983 0099 89D0     		movl	%edx, %eax
 3984 009b EBD9     		jmp	.L421
 3985              	.L426:
 3986 009d E8000000 		call	__stack_chk_fail
 3986      00
 3987              		.cfi_endproc
 3988              	.LFE1246:
 3990              		.section	.text.unlikely._ZNSt15basic_stringbufIcSt11char_traitsIcESaIcEED0Ev,"axG",@progbits,_ZNSt
 3991              	.LCOLDE97:
 3992              		.section	.text._ZNSt15basic_stringbufIcSt11char_traitsIcESaIcEED0Ev,"axG",@progbits,_ZNSt15basic_s
 3993              	.LHOTE97:
 3994              		.section	.text.unlikely._ZN8UnitTest10CheckEqualIiiEEvRNS_11TestResultsERKT_RKT0_RKNS_11TestDetail
 3995              	.LCOLDB98:
 3996              		.section	.text._ZN8UnitTest10CheckEqualIiiEEvRNS_11TestResultsERKT_RKT0_RKNS_11TestDetailsE,"axG",
 3997              	.LHOTB98:
 3998              		.p2align 4,,15
 3999              		.weak	_ZN8UnitTest10CheckEqualIiiEEvRNS_11TestResultsERKT_RKT0_RKNS_11TestDetailsE
 4001              	_ZN8UnitTest10CheckEqualIiiEEvRNS_11TestResultsERKT_RKT0_RKNS_11TestDetailsE:
 4002              	.LFB1267:
 4003              		.cfi_startproc
 4004              		.cfi_personality 0x3,__gxx_personality_v0
 4005              		.cfi_lsda 0x3,.LLSDA1267
 4006 0000 4156     		pushq	%r14
 4007              		.cfi_def_cfa_offset 16
 4008              		.cfi_offset 14, -16
 4009 0002 4155     		pushq	%r13
 4010              		.cfi_def_cfa_offset 24
 4011              		.cfi_offset 13, -24
 4012 0004 4154     		pushq	%r12
 4013              		.cfi_def_cfa_offset 32
 4014              		.cfi_offset 12, -32
 4015 0006 55       		pushq	%rbp
 4016              		.cfi_def_cfa_offset 40
 4017              		.cfi_offset 6, -40
 4018 0007 4889D5   		movq	%rdx, %rbp
 4019 000a 53       		pushq	%rbx
 4020              		.cfi_def_cfa_offset 48
 4021              		.cfi_offset 3, -48
 4022 000b 4889F3   		movq	%rsi, %rbx
 4023 000e 4881EC80 		subq	$384, %rsp
 4023      010000
 4024              		.cfi_def_cfa_offset 432
 4025 0015 64488B04 		movq	%fs:40, %rax
 4025      25280000 
 4025      00
 4026 001e 48898424 		movq	%rax, 376(%rsp)
 4026      78010000 
 4027 0026 31C0     		xorl	%eax, %eax
 4028 0028 8B02     		movl	(%rdx), %eax
 4029 002a 3906     		cmpl	%eax, (%rsi)
 4030 002c 0F84F601 		je	.L427
 4030      0000
 4031 0032 4C8D6424 		leaq	112(%rsp), %r12
 4031      70
 4032 0037 4989FD   		movq	%rdi, %r13
 4033 003a 4989CE   		movq	%rcx, %r14
 4034 003d 4C89E7   		movq	%r12, %rdi
 4035 0040 E8000000 		call	_ZNSt8ios_baseC2Ev
 4035      00
 4036 0045 31F6     		xorl	%esi, %esi
 4037 0047 4C89E7   		movq	%r12, %rdi
 4038 004a 48C78424 		movq	$0, 328(%rsp)
 4038      48010000 
 4038      00000000 
 4039 0056 C6842450 		movb	$0, 336(%rsp)
 4039      01000000 
 4040 005e C6842451 		movb	$0, 337(%rsp)
 4040      01000000 
 4041 0066 48C78424 		movq	$0, 344(%rsp)
 4041      58010000 
 4041      00000000 
 4042 0072 48C78424 		movq	$0, 352(%rsp)
 4042      60010000 
 4042      00000000 
 4043 007e 48C78424 		movq	$0, 360(%rsp)
 4043      68010000 
 4043      00000000 
 4044 008a 48C78424 		movq	$0, 368(%rsp)
 4044      70010000 
 4044      00000000 
 4045 0096 48C74424 		movq	$_ZTCN8UnitTest15MemoryOutStreamE0_So+24, 16(%rsp)
 4045      10000000 
 4045      00
 4046 009f 48C74424 		movq	$_ZTCN8UnitTest15MemoryOutStreamE0_So+64, 112(%rsp)
 4046      70000000 
 4046      00
 4047              	.LEHB50:
 4048 00a8 E8000000 		call	_ZNSt9basic_iosIcSt11char_traitsIcEE4initEPSt15basic_streambufIcS1_E
 4048      00
 4049              	.LEHE50:
 4050 00ad 488D7C24 		leaq	80(%rsp), %rdi
 4050      50
 4051 00b2 48C74424 		movq	$_ZTCN8UnitTest15MemoryOutStreamE0_St19basic_ostringstreamIcSt11char_traitsIcESaIcEE+24, 16(%
 4051      10000000 
 4051      00
 4052 00bb 48C74424 		movq	$_ZTCN8UnitTest15MemoryOutStreamE0_St19basic_ostringstreamIcSt11char_traitsIcESaIcEE+64, 112(
 4052      70000000 
 4052      00
 4053 00c4 48C74424 		movq	$_ZTVSt15basic_streambufIcSt11char_traitsIcEE+16, 24(%rsp)
 4053      18000000 
 4053      00
 4054 00cd 48C74424 		movq	$0, 32(%rsp)
 4054      20000000 
 4054      00
 4055 00d6 48C74424 		movq	$0, 40(%rsp)
 4055      28000000 
 4055      00
 4056 00df 48C74424 		movq	$0, 48(%rsp)
 4056      30000000 
 4056      00
 4057 00e8 48C74424 		movq	$0, 56(%rsp)
 4057      38000000 
 4057      00
 4058 00f1 48C74424 		movq	$0, 64(%rsp)
 4058      40000000 
 4058      00
 4059 00fa 48C74424 		movq	$0, 72(%rsp)
 4059      48000000 
 4059      00
 4060 0103 E8000000 		call	_ZNSt6localeC1Ev
 4060      00
 4061 0108 488B4424 		movq	16(%rsp), %rax
 4061      10
 4062 010d 488D7C24 		leaq	16(%rsp), %rdi
 4062      10
 4063 0112 488D7424 		leaq	24(%rsp), %rsi
 4063      18
 4064 0117 48C74424 		movq	$_ZTVSt15basic_stringbufIcSt11char_traitsIcESaIcEE+16, 24(%rsp)
 4064      18000000 
 4064      00
 4065 0120 C7442458 		movl	$16, 88(%rsp)
 4065      10000000 
 4066 0128 48C74424 		movq	$_ZNSs4_Rep20_S_empty_rep_storageE+24, 96(%rsp)
 4066      60000000 
 4066      00
 4067 0131 480378E8 		addq	-24(%rax), %rdi
 4068              	.LEHB51:
 4069 0135 E8000000 		call	_ZNSt9basic_iosIcSt11char_traitsIcEE4initEPSt15basic_streambufIcS1_E
 4069      00
 4070              	.LEHE51:
 4071 013a 488D7C24 		leaq	16(%rsp), %rdi
 4071      10
 4072 013f BA090000 		movl	$9, %edx
 4072      00
 4073 0144 BE000000 		movl	$.LC73, %esi
 4073      00
 4074 0149 48C74424 		movq	$_ZTVN8UnitTest15MemoryOutStreamE+24, 16(%rsp)
 4074      10000000 
 4074      00
 4075 0152 48C74424 		movq	$_ZTVN8UnitTest15MemoryOutStreamE+64, 112(%rsp)
 4075      70000000 
 4075      00
 4076 015b 48C74424 		movq	$_ZNSs4_Rep20_S_empty_rep_storageE+24, 104(%rsp)
 4076      68000000 
 4076      00
 4077 0164 8B6D00   		movl	0(%rbp), %ebp
 4078 0167 8B1B     		movl	(%rbx), %ebx
 4079              	.LEHB52:
 4080 0169 E8000000 		call	_ZSt16__ostream_insertIcSt11char_traitsIcEERSt13basic_ostreamIT_T0_ES6_PKS3_l
 4080      00
 4081 016e 488D7C24 		leaq	16(%rsp), %rdi
 4081      10
 4082 0173 89DE     		movl	%ebx, %esi
 4083 0175 E8000000 		call	_ZNSolsEi
 4083      00
 4084 017a BA090000 		movl	$9, %edx
 4084      00
 4085 017f BE000000 		movl	$.LC77, %esi
 4085      00
 4086 0184 4889C7   		movq	%rax, %rdi
 4087 0187 4889C3   		movq	%rax, %rbx
 4088 018a E8000000 		call	_ZSt16__ostream_insertIcSt11char_traitsIcEERSt13basic_ostreamIT_T0_ES6_PKS3_l
 4088      00
 4089 018f 89EE     		movl	%ebp, %esi
 4090 0191 4889DF   		movq	%rbx, %rdi
 4091 0194 E8000000 		call	_ZNSolsEi
 4091      00
 4092 0199 488D7C24 		leaq	16(%rsp), %rdi
 4092      10
 4093 019e E8000000 		call	_ZNK8UnitTest15MemoryOutStream7GetTextEv
 4093      00
 4094 01a3 4889C2   		movq	%rax, %rdx
 4095 01a6 4C89F6   		movq	%r14, %rsi
 4096 01a9 4C89EF   		movq	%r13, %rdi
 4097 01ac E8000000 		call	_ZN8UnitTest11TestResults13OnTestFailureERKNS_11TestDetailsEPKc
 4097      00
 4098              	.LEHE52:
 4099 01b1 488B4424 		movq	104(%rsp), %rax
 4099      68
 4100 01b6 48C74424 		movq	$_ZTVN8UnitTest15MemoryOutStreamE+24, 16(%rsp)
 4100      10000000 
 4100      00
 4101 01bf 48C74424 		movq	$_ZTVN8UnitTest15MemoryOutStreamE+64, 112(%rsp)
 4101      70000000 
 4101      00
 4102 01c8 488D78E8 		leaq	-24(%rax), %rdi
 4103 01cc 4881FF00 		cmpq	$_ZNSs4_Rep20_S_empty_rep_storageE, %rdi
 4103      000000
 4104 01d3 757B     		jne	.L453
 4105              	.L434:
 4106 01d5 488B4424 		movq	96(%rsp), %rax
 4106      60
 4107 01da 48C74424 		movq	$_ZTCN8UnitTest15MemoryOutStreamE0_St19basic_ostringstreamIcSt11char_traitsIcESaIcEE+24, 16(%
 4107      10000000 
 4107      00
 4108 01e3 48C74424 		movq	$_ZTCN8UnitTest15MemoryOutStreamE0_St19basic_ostringstreamIcSt11char_traitsIcESaIcEE+64, 112(
 4108      70000000 
 4108      00
 4109 01ec 48C74424 		movq	$_ZTVSt15basic_stringbufIcSt11char_traitsIcESaIcEE+16, 24(%rsp)
 4109      18000000 
 4109      00
 4110 01f5 488D78E8 		leaq	-24(%rax), %rdi
 4111 01f9 4881FF00 		cmpq	$_ZNSs4_Rep20_S_empty_rep_storageE, %rdi
 4111      000000
 4112 0200 757E     		jne	.L454
 4113              	.L439:
 4114 0202 488D7C24 		leaq	80(%rsp), %rdi
 4114      50
 4115 0207 48C74424 		movq	$_ZTVSt15basic_streambufIcSt11char_traitsIcEE+16, 24(%rsp)
 4115      18000000 
 4115      00
 4116 0210 E8000000 		call	_ZNSt6localeD1Ev
 4116      00
 4117 0215 488D7C24 		leaq	112(%rsp), %rdi
 4117      70
 4118 021a 48C74424 		movq	$_ZTVSt9basic_iosIcSt11char_traitsIcEE+16, 112(%rsp)
 4118      70000000 
 4118      00
 4119              	.LEHB53:
 4120 0223 E8000000 		call	_ZNSt8ios_baseD2Ev
 4120      00
 4121              	.LEHE53:
 4122              	.L427:
 4123 0228 488B8424 		movq	376(%rsp), %rax
 4123      78010000 
 4124 0230 64483304 		xorq	%fs:40, %rax
 4124      25280000 
 4124      00
 4125 0239 0F858E00 		jne	.L455
 4125      0000
 4126 023f 4881C480 		addq	$384, %rsp
 4126      010000
 4127              		.cfi_remember_state
 4128              		.cfi_def_cfa_offset 48
 4129 0246 5B       		popq	%rbx
 4130              		.cfi_def_cfa_offset 40
 4131 0247 5D       		popq	%rbp
 4132              		.cfi_def_cfa_offset 32
 4133 0248 415C     		popq	%r12
 4134              		.cfi_def_cfa_offset 24
 4135 024a 415D     		popq	%r13
 4136              		.cfi_def_cfa_offset 16
 4137 024c 415E     		popq	%r14
 4138              		.cfi_def_cfa_offset 8
 4139 024e C3       		ret
 4140 024f 90       		.p2align 4,,10
 4141              		.p2align 3
 4142              	.L453:
 4143              		.cfi_restore_state
 4144 0250 BA000000 		movl	$_ZL28__gthrw___pthread_key_createPjPFvPvE, %edx
 4144      00
 4145 0255 4885D2   		testq	%rdx, %rdx
 4146 0258 7456     		je	.L435
 4147 025a BAFFFFFF 		movl	$-1, %edx
 4147      FF
 4148 025f F00FC150 		lock xaddl	%edx, -8(%rax)
 4148      F8
 4149 0264 89D0     		movl	%edx, %eax
 4150              	.L436:
 4151 0266 85C0     		testl	%eax, %eax
 4152 0268 0F8F67FF 		jg	.L434
 4152      FFFF
 4153 026e 488D7424 		leaq	15(%rsp), %rsi
 4153      0F
 4154 0273 E8000000 		call	_ZNSs4_Rep10_M_destroyERKSaIcE
 4154      00
 4155 0278 E958FFFF 		jmp	.L434
 4155      FF
 4156 027d 0F1F00   		.p2align 4,,10
 4157              		.p2align 3
 4158              	.L454:
 4159 0280 BA000000 		movl	$_ZL28__gthrw___pthread_key_createPjPFvPvE, %edx
 4159      00
 4160 0285 4885D2   		testq	%rdx, %rdx
 4161 0288 7436     		je	.L440
 4162 028a BAFFFFFF 		movl	$-1, %edx
 4162      FF
 4163 028f F00FC150 		lock xaddl	%edx, -8(%rax)
 4163      F8
 4164 0294 89D0     		movl	%edx, %eax
 4165              	.L441:
 4166 0296 85C0     		testl	%eax, %eax
 4167 0298 0F8F64FF 		jg	.L439
 4167      FFFF
 4168 029e 488D7424 		leaq	15(%rsp), %rsi
 4168      0F
 4169 02a3 E8000000 		call	_ZNSs4_Rep10_M_destroyERKSaIcE
 4169      00
 4170 02a8 E955FFFF 		jmp	.L439
 4170      FF
 4171 02ad 0F1F00   		.p2align 4,,10
 4172              		.p2align 3
 4173              	.L435:
 4174 02b0 8B50F8   		movl	-8(%rax), %edx
 4175 02b3 8D4AFF   		leal	-1(%rdx), %ecx
 4176 02b6 8948F8   		movl	%ecx, -8(%rax)
 4177 02b9 89D0     		movl	%edx, %eax
 4178 02bb EBA9     		jmp	.L436
 4179 02bd 0F1F00   		.p2align 4,,10
 4180              		.p2align 3
 4181              	.L440:
 4182 02c0 8B50F8   		movl	-8(%rax), %edx
 4183 02c3 8D4AFF   		leal	-1(%rdx), %ecx
 4184 02c6 8948F8   		movl	%ecx, -8(%rax)
 4185 02c9 89D0     		movl	%edx, %eax
 4186 02cb EBC9     		jmp	.L441
 4187              	.L455:
 4188 02cd E8000000 		call	__stack_chk_fail
 4188      00
 4189              	.L445:
 4190 02d2 4889C3   		movq	%rax, %rbx
 4191 02d5 EB0A     		jmp	.L443
 4192              	.L447:
 4193 02d7 4889C3   		movq	%rax, %rbx
 4194 02da EB17     		jmp	.L430
 4195              	.L446:
 4196 02dc 4889C3   		movq	%rax, %rbx
 4197 02df EB1C     		jmp	.L431
 4198              	.L443:
 4199 02e1 488D7C24 		leaq	16(%rsp), %rdi
 4199      10
 4200 02e6 E8000000 		call	_ZN8UnitTest15MemoryOutStreamD1Ev
 4200      00
 4201 02eb 4889DF   		movq	%rbx, %rdi
 4202              	.LEHB54:
 4203 02ee E8000000 		call	_Unwind_Resume
 4203      00
 4204              	.LEHE54:
 4205              	.L430:
 4206 02f3 488D7C24 		leaq	24(%rsp), %rdi
 4206      18
 4207 02f8 E8000000 		call	_ZNSt15basic_stringbufIcSt11char_traitsIcESaIcEED1Ev
 4207      00
 4208              	.L431:
 4209 02fd 488D7C24 		leaq	112(%rsp), %rdi
 4209      70
 4210 0302 48C74424 		movq	$_ZTVSt9basic_iosIcSt11char_traitsIcEE+16, 112(%rsp)
 4210      70000000 
 4210      00
 4211 030b E8000000 		call	_ZNSt8ios_baseD2Ev
 4211      00
 4212 0310 4889DF   		movq	%rbx, %rdi
 4213              	.LEHB55:
 4214 0313 E8000000 		call	_Unwind_Resume
 4214      00
 4215              	.LEHE55:
 4216              		.cfi_endproc
 4217              	.LFE1267:
 4218              		.section	.gcc_except_table
 4219              	.LLSDA1267:
 4220 0158 FF       		.byte	0xff
 4221 0159 FF       		.byte	0xff
 4222 015a 01       		.byte	0x1
 4223 015b 21       		.uleb128 .LLSDACSE1267-.LLSDACSB1267
 4224              	.LLSDACSB1267:
 4225 015c A801     		.uleb128 .LEHB50-.LFB1267
 4226 015e 05       		.uleb128 .LEHE50-.LEHB50
 4227 015f DC05     		.uleb128 .L446-.LFB1267
 4228 0161 00       		.uleb128 0
 4229 0162 B502     		.uleb128 .LEHB51-.LFB1267
 4230 0164 05       		.uleb128 .LEHE51-.LEHB51
 4231 0165 D705     		.uleb128 .L447-.LFB1267
 4232 0167 00       		.uleb128 0
 4233 0168 E902     		.uleb128 .LEHB52-.LFB1267
 4234 016a 48       		.uleb128 .LEHE52-.LEHB52
 4235 016b D205     		.uleb128 .L445-.LFB1267
 4236 016d 00       		.uleb128 0
 4237 016e A304     		.uleb128 .LEHB53-.LFB1267
 4238 0170 05       		.uleb128 .LEHE53-.LEHB53
 4239 0171 00       		.uleb128 0
 4240 0172 00       		.uleb128 0
 4241 0173 EE05     		.uleb128 .LEHB54-.LFB1267
 4242 0175 05       		.uleb128 .LEHE54-.LEHB54
 4243 0176 00       		.uleb128 0
 4244 0177 00       		.uleb128 0
 4245 0178 9306     		.uleb128 .LEHB55-.LFB1267
 4246 017a 05       		.uleb128 .LEHE55-.LEHB55
 4247 017b 00       		.uleb128 0
 4248 017c 00       		.uleb128 0
 4249              	.LLSDACSE1267:
 4250              		.section	.text._ZN8UnitTest10CheckEqualIiiEEvRNS_11TestResultsERKT_RKT0_RKNS_11TestDetailsE,"axG",
 4252              		.section	.text.unlikely._ZN8UnitTest10CheckEqualIiiEEvRNS_11TestResultsERKT_RKT0_RKNS_11TestDetail
 4253              	.LCOLDE98:
 4254              		.section	.text._ZN8UnitTest10CheckEqualIiiEEvRNS_11TestResultsERKT_RKT0_RKNS_11TestDetailsE,"axG",
 4255              	.LHOTE98:
 4256              		.section	.rodata.str1.1
 4257              	.LC99:
 4258 006a 66696C65 		.string	"file"
 4258      00
 4259              	.LC100:
 4260 006f 61727261 		.string	"array2DCloseSuite"
 4260      79324443 
 4260      6C6F7365 
 4260      53756974 
 4260      6500
 4261              	.LC101:
 4262 0081 61727261 		.string	"array2DCloseTest"
 4262      79324443 
 4262      6C6F7365 
 4262      54657374 
 4262      00
 4263              		.section	.rodata.str1.8
 4264 01f1 00000000 		.align 8
 4264      000000
 4265              	.LC117:
 4266 01f8 556E6861 		.string	"Unhandled exception in CHECK_EQUAL(\"array2DCloseTest\", reporter.lastFailedTest)"
 4266      6E646C65 
 4266      64206578 
 4266      63657074 
 4266      696F6E20 
 4267              		.align 8
 4268              	.LC118:
 4269 0248 556E6861 		.string	"Unhandled exception in CHECK_EQUAL(\"array2DCloseSuite\", reporter.lastFailedSuite)"
 4269      6E646C65 
 4269      64206578 
 4269      63657074 
 4269      696F6E20 
 4270 029a 00000000 		.align 8
 4270      0000
 4271              	.LC119:
 4272 02a0 556E6861 		.string	"Unhandled exception in CHECK_EQUAL(\"file\", reporter.lastFailedFile)"
 4272      6E646C65 
 4272      64206578 
 4272      63657074 
 4272      696F6E20 
 4273 02e4 00000000 		.align 8
 4274              	.LC120:
 4275 02e8 556E6861 		.string	"Unhandled exception in CHECK_EQUAL(1234, reporter.lastFailedLine)"
 4275      6E646C65 
 4275      64206578 
 4275      63657074 
 4275      696F6E20 
 4276              		.section	.text.unlikely
 4277              		.align 2
 4278              	.LCOLDB121:
 4279              		.text
 4280              	.LHOTB121:
 4281 1eb1 90       		.align 2
 4282 1eb2 0F1F4000 		.p2align 4,,15
 4282      662E0F1F 
 4282      84000000 
 4282      0000
 4284              	_ZNK12_GLOBAL__N_143TestCheckArray2DCloseFailureIncludesDetails7RunImplEv:
 4285              	.LFB1234:
 4286              		.cfi_startproc
 4287              		.cfi_personality 0x3,__gxx_personality_v0
 4288              		.cfi_lsda 0x3,.LLSDA1234
 4289 1ec0 53       		pushq	%rbx
 4290              		.cfi_def_cfa_offset 16
 4291              		.cfi_offset 3, -16
 4292 1ec1 4881EC10 		subq	$2320, %rsp
 4292      090000
 4293              		.cfi_def_cfa_offset 2336
 4294 1ec8 488DB424 		leaq	208(%rsp), %rsi
 4294      D0000000 
 4295 1ed0 488D7C24 		leaq	16(%rsp), %rdi
 4295      10
 4296 1ed5 48C78424 		movq	$_ZTV17RecordingReporter+16, 208(%rsp)
 4296      D0000000 
 4296      00000000 
 4297 1ee1 64488B04 		movq	%fs:40, %rax
 4297      25280000 
 4297      00
 4298 1eea 48898424 		movq	%rax, 2312(%rsp)
 4298      08090000 
 4299 1ef2 31C0     		xorl	%eax, %eax
 4300 1ef4 C78424D8 		movl	$0, 216(%rsp)
 4300      00000000 
 4300      000000
 4301 1eff C78424DC 		movl	$0, 732(%rsp)
 4301      02000000 
 4301      000000
 4302 1f0a C78424E0 		movl	$0, 992(%rsp)
 4302      03000000 
 4302      000000
 4303 1f15 C78424E4 		movl	$0, 1764(%rsp)
 4303      06000000 
 4303      000000
 4304 1f20 C78424E8 		movl	$0x00000000, 2280(%rsp)
 4304      08000000 
 4304      000000
 4305 1f2b C78424EC 		movl	$0, 2284(%rsp)
 4305      08000000 
 4305      000000
 4306 1f36 C78424F0 		movl	$0, 2288(%rsp)
 4306      08000000 
 4306      000000
 4307 1f41 C78424F4 		movl	$0, 2292(%rsp)
 4307      08000000 
 4307      000000
 4308 1f4c C78424F8 		movl	$0x00000000, 2296(%rsp)
 4308      08000000 
 4308      000000
 4309 1f57 C68424DC 		movb	$0, 220(%rsp)
 4309      00000000 
 4310 1f5f C68424DC 		movb	$0, 476(%rsp)
 4310      01000000 
 4311 1f67 C68424E0 		movb	$0, 736(%rsp)
 4311      02000000 
 4312 1f6f C68424E4 		movb	$0, 996(%rsp)
 4312      03000000 
 4313 1f77 C68424E4 		movb	$0, 1252(%rsp)
 4313      04000000 
 4314 1f7f C68424E4 		movb	$0, 1508(%rsp)
 4314      05000000 
 4315 1f87 C68424E8 		movb	$0, 1768(%rsp)
 4315      06000000 
 4316 1f8f C68424E8 		movb	$0, 2024(%rsp)
 4316      07000000 
 4317              	.LEHB56:
 4318 1f97 E8000000 		call	_ZN8UnitTest11TestResultsC1EPNS_12TestReporterE
 4318      00
 4319 1f9c 488D7C24 		leaq	48(%rsp), %rdi
 4319      30
 4320 1fa1 41B8D204 		movl	$1234, %r8d
 4320      0000
 4321 1fa7 B9000000 		movl	$.LC99, %ecx
 4321      00
 4322 1fac BA000000 		movl	$.LC100, %edx
 4322      00
 4323 1fb1 BE000000 		movl	$.LC101, %esi
 4323      00
 4324 1fb6 E8000000 		call	_ZN8UnitTest11TestDetailsC1EPKcS2_S2_i
 4324      00
 4325 1fbb 4C8D4424 		leaq	48(%rsp), %r8
 4325      30
 4326 1fc0 488D4C24 		leaq	80(%rsp), %rcx
 4326      50
 4327 1fc5 488D9424 		leaq	160(%rsp), %rdx
 4327      A0000000 
 4328 1fcd 488D7424 		leaq	112(%rsp), %rsi
 4328      70
 4329 1fd2 488D7C24 		leaq	16(%rsp), %rdi
 4329      10
 4330 1fd7 C7442470 		movl	$0x3f800000, 112(%rsp)
 4330      0000803F 
 4331 1fdf C7442474 		movl	$0x3fc00000, 116(%rsp)
 4331      0000C03F 
 4332 1fe7 C7442478 		movl	$0x40000000, 120(%rsp)
 4332      00000040 
 4333 1fef C744247C 		movl	$0x40000000, 124(%rsp)
 4333      00000040 
 4334 1ff7 C7842480 		movl	$0x40200000, 128(%rsp)
 4334      00000000 
 4334      002040
 4335 2002 C7842484 		movl	$0x40400000, 132(%rsp)
 4335      00000000 
 4335      004040
 4336 200d C7842488 		movl	$0x40400000, 136(%rsp)
 4336      00000000 
 4336      004040
 4337 2018 C784248C 		movl	$0x40600000, 140(%rsp)
 4337      00000000 
 4337      006040
 4338 2023 C7842490 		movl	$0x40800000, 144(%rsp)
 4338      00000000 
 4338      008040
 4339 202e C78424A0 		movl	$0x3f8147ae, 160(%rsp)
 4339      000000AE 
 4339      47813F
 4340 2039 C78424A4 		movl	$0x3fc147ae, 164(%rsp)
 4340      000000AE 
 4340      47C13F
 4341 2044 C78424A8 		movl	$0x4000a3d7, 168(%rsp)
 4341      000000D7 
 4341      A30040
 4342 204f C78424AC 		movl	$0x4000a3d7, 172(%rsp)
 4342      000000D7 
 4342      A30040
 4343 205a C78424B0 		movl	$0x4020a3d7, 176(%rsp)
 4343      000000D7 
 4343      A32040
 4344 2065 C78424B4 		movl	$0x4040a3d7, 180(%rsp)
 4344      000000D7 
 4344      A34040
 4345 2070 C78424B8 		movl	$0x4040a3d7, 184(%rsp)
 4345      000000D7 
 4345      A34040
 4346 207b C78424BC 		movl	$0x4060a3d7, 188(%rsp)
 4346      000000D7 
 4346      A36040
 4347 2086 C78424C0 		movl	$0x408051ec, 192(%rsp)
 4347      000000EC 
 4347      518040
 4348 2091 C7442450 		movl	$0x3a83126f, 80(%rsp)
 4348      6F12833A 
 4349 2099 E842E4FF 		call	_ZN8UnitTest17CheckArray2DCloseIA3_A3_fS2_fEEvRNS_11TestResultsERKT_RKT0_iiRKT1_RKNS_11TestDe
 4349      FF
 4350              	.LEHE56:
 4351              	.LEHB57:
 4352 209e E8000000 		call	_ZN8UnitTest11CurrentTest7DetailsEv
 4352      00
 4353 20a3 488B30   		movq	(%rax), %rsi
 4354 20a6 488D7C24 		leaq	80(%rsp), %rdi
 4354      50
 4355 20ab BA1F0100 		movl	$287, %edx
 4355      00
 4356 20b0 E8000000 		call	_ZN8UnitTest11TestDetailsC1ERKS0_i
 4356      00
 4357 20b5 E8000000 		call	_ZN8UnitTest11CurrentTest7ResultsEv
 4357      00
 4358 20ba 488D9C24 		leaq	208(%rsp), %rbx
 4358      D0000000 
 4359 20c2 488B38   		movq	(%rax), %rdi
 4360 20c5 488D4C24 		leaq	80(%rsp), %rcx
 4360      50
 4361 20ca BE000000 		movl	$.LC101, %esi
 4361      00
 4362 20cf 488D9314 		leaq	1044(%rbx), %rdx
 4362      040000
 4363 20d6 E8000000 		call	_ZN8UnitTest10CheckEqualERNS_11TestResultsEPKcPcRKNS_11TestDetailsE
 4363      00
 4364              	.LEHE57:
 4365              	.L460:
 4366              	.LEHB58:
 4367 20db E8000000 		call	_ZN8UnitTest11CurrentTest7DetailsEv
 4367      00
 4368 20e0 488B30   		movq	(%rax), %rsi
 4369 20e3 488D7C24 		leaq	80(%rsp), %rdi
 4369      50
 4370 20e8 BA200100 		movl	$288, %edx
 4370      00
 4371 20ed E8000000 		call	_ZN8UnitTest11TestDetailsC1ERKS0_i
 4371      00
 4372 20f2 E8000000 		call	_ZN8UnitTest11CurrentTest7ResultsEv
 4372      00
 4373 20f7 488D9C24 		leaq	208(%rsp), %rbx
 4373      D0000000 
 4374 20ff 488B38   		movq	(%rax), %rdi
 4375 2102 488D4C24 		leaq	80(%rsp), %rcx
 4375      50
 4376 2107 BE000000 		movl	$.LC100, %esi
 4376      00
 4377 210c 488D9314 		leaq	788(%rbx), %rdx
 4377      030000
 4378 2113 E8000000 		call	_ZN8UnitTest10CheckEqualERNS_11TestResultsEPKcPcRKNS_11TestDetailsE
 4378      00
 4379              	.LEHE58:
 4380              	.L463:
 4381              	.LEHB59:
 4382 2118 E8000000 		call	_ZN8UnitTest11CurrentTest7DetailsEv
 4382      00
 4383 211d 488B30   		movq	(%rax), %rsi
 4384 2120 488D7C24 		leaq	80(%rsp), %rdi
 4384      50
 4385 2125 BA210100 		movl	$289, %edx
 4385      00
 4386 212a E8000000 		call	_ZN8UnitTest11TestDetailsC1ERKS0_i
 4386      00
 4387 212f E8000000 		call	_ZN8UnitTest11CurrentTest7ResultsEv
 4387      00
 4388 2134 488D9C24 		leaq	208(%rsp), %rbx
 4388      D0000000 
 4389 213c 488B38   		movq	(%rax), %rdi
 4390 213f 488D4C24 		leaq	80(%rsp), %rcx
 4390      50
 4391 2144 BE000000 		movl	$.LC99, %esi
 4391      00
 4392 2149 488D9310 		leaq	528(%rbx), %rdx
 4392      020000
 4393 2150 E8000000 		call	_ZN8UnitTest10CheckEqualERNS_11TestResultsEPKcPcRKNS_11TestDetailsE
 4393      00
 4394              	.LEHE59:
 4395              	.L466:
 4396              	.LEHB60:
 4397 2155 E8000000 		call	_ZN8UnitTest11CurrentTest7DetailsEv
 4397      00
 4398 215a 488B30   		movq	(%rax), %rsi
 4399 215d 488D7C24 		leaq	80(%rsp), %rdi
 4399      50
 4400 2162 BA220100 		movl	$290, %edx
 4400      00
 4401 2167 E8000000 		call	_ZN8UnitTest11TestDetailsC1ERKS0_i
 4401      00
 4402 216c C744240C 		movl	$1234, 12(%rsp)
 4402      D2040000 
 4403 2174 E8000000 		call	_ZN8UnitTest11CurrentTest7ResultsEv
 4403      00
 4404 2179 488D9C24 		leaq	208(%rsp), %rbx
 4404      D0000000 
 4405 2181 488B38   		movq	(%rax), %rdi
 4406 2184 488D4C24 		leaq	80(%rsp), %rcx
 4406      50
 4407 2189 488D7424 		leaq	12(%rsp), %rsi
 4407      0C
 4408 218e 488D9310 		leaq	784(%rbx), %rdx
 4408      030000
 4409 2195 E8000000 		call	_ZN8UnitTest10CheckEqualIiiEEvRNS_11TestResultsERKT_RKT0_RKNS_11TestDetailsE
 4409      00
 4410              	.LEHE60:
 4411              	.L469:
 4412 219a 488DBC24 		leaq	208(%rsp), %rdi
 4412      D0000000 
 4413 21a2 48C78424 		movq	$_ZTV17RecordingReporter+16, 208(%rsp)
 4413      D0000000 
 4413      00000000 
 4414              	.LEHB61:
 4415 21ae E8000000 		call	_ZN8UnitTest12TestReporterD2Ev
 4415      00
 4416              	.LEHE61:
 4417 21b3 488B8424 		movq	2312(%rsp), %rax
 4417      08090000 
 4418 21bb 64483304 		xorq	%fs:40, %rax
 4418      25280000 
 4418      00
 4419 21c4 7509     		jne	.L483
 4420 21c6 4881C410 		addq	$2320, %rsp
 4420      090000
 4421              		.cfi_remember_state
 4422              		.cfi_def_cfa_offset 16
 4423 21cd 5B       		popq	%rbx
 4424              		.cfi_def_cfa_offset 8
 4425 21ce C3       		ret
 4426              	.L483:
 4427              		.cfi_restore_state
 4428 21cf E8000000 		call	__stack_chk_fail
 4428      00
 4429              	.L478:
 4430 21d4 4889C7   		movq	%rax, %rdi
 4431 21d7 E8000000 		call	__cxa_begin_catch
 4431      00
 4432              	.LEHB62:
 4433 21dc E8000000 		call	_ZN8UnitTest11CurrentTest7DetailsEv
 4433      00
 4434 21e1 488B30   		movq	(%rax), %rsi
 4435 21e4 488D7C24 		leaq	80(%rsp), %rdi
 4435      50
 4436 21e9 BA220100 		movl	$290, %edx
 4436      00
 4437 21ee E8000000 		call	_ZN8UnitTest11TestDetailsC1ERKS0_i
 4437      00
 4438 21f3 E8000000 		call	_ZN8UnitTest11CurrentTest7ResultsEv
 4438      00
 4439 21f8 488B38   		movq	(%rax), %rdi
 4440 21fb 488D7424 		leaq	80(%rsp), %rsi
 4440      50
 4441 2200 BA000000 		movl	$.LC120, %edx
 4441      00
 4442 2205 E8000000 		call	_ZN8UnitTest11TestResults13OnTestFailureERKNS_11TestDetailsEPKc
 4442      00
 4443              	.LEHE62:
 4444              	.LEHB63:
 4445 220a E8000000 		call	__cxa_end_catch
 4445      00
 4446              	.LEHE63:
 4447 220f EB89     		jmp	.L469
 4448              	.L476:
 4449 2211 4889C7   		movq	%rax, %rdi
 4450 2214 E8000000 		call	__cxa_begin_catch
 4450      00
 4451              	.LEHB64:
 4452 2219 E8000000 		call	_ZN8UnitTest11CurrentTest7DetailsEv
 4452      00
 4453 221e 488B30   		movq	(%rax), %rsi
 4454 2221 488D7C24 		leaq	80(%rsp), %rdi
 4454      50
 4455 2226 BA210100 		movl	$289, %edx
 4455      00
 4456 222b E8000000 		call	_ZN8UnitTest11TestDetailsC1ERKS0_i
 4456      00
 4457 2230 E8000000 		call	_ZN8UnitTest11CurrentTest7ResultsEv
 4457      00
 4458 2235 488B38   		movq	(%rax), %rdi
 4459 2238 488D7424 		leaq	80(%rsp), %rsi
 4459      50
 4460 223d BA000000 		movl	$.LC119, %edx
 4460      00
 4461 2242 E8000000 		call	_ZN8UnitTest11TestResults13OnTestFailureERKNS_11TestDetailsEPKc
 4461      00
 4462              	.LEHE64:
 4463              	.LEHB65:
 4464 2247 E8000000 		call	__cxa_end_catch
 4464      00
 4465              	.LEHE65:
 4466 224c E904FFFF 		jmp	.L466
 4466      FF
 4467              	.L472:
 4468 2251 4889C7   		movq	%rax, %rdi
 4469 2254 E8000000 		call	__cxa_begin_catch
 4469      00
 4470              	.LEHB66:
 4471 2259 E8000000 		call	_ZN8UnitTest11CurrentTest7DetailsEv
 4471      00
 4472 225e 488B30   		movq	(%rax), %rsi
 4473 2261 488D7C24 		leaq	80(%rsp), %rdi
 4473      50
 4474 2266 BA1F0100 		movl	$287, %edx
 4474      00
 4475 226b E8000000 		call	_ZN8UnitTest11TestDetailsC1ERKS0_i
 4475      00
 4476 2270 E8000000 		call	_ZN8UnitTest11CurrentTest7ResultsEv
 4476      00
 4477 2275 488B38   		movq	(%rax), %rdi
 4478 2278 488D7424 		leaq	80(%rsp), %rsi
 4478      50
 4479 227d BA000000 		movl	$.LC117, %edx
 4479      00
 4480 2282 E8000000 		call	_ZN8UnitTest11TestResults13OnTestFailureERKNS_11TestDetailsEPKc
 4480      00
 4481              	.LEHE66:
 4482              	.LEHB67:
 4483 2287 E8000000 		call	__cxa_end_catch
 4483      00
 4484              	.LEHE67:
 4485 228c E94AFEFF 		jmp	.L460
 4485      FF
 4486              	.L474:
 4487 2291 4889C7   		movq	%rax, %rdi
 4488 2294 E8000000 		call	__cxa_begin_catch
 4488      00
 4489              	.LEHB68:
 4490 2299 E8000000 		call	_ZN8UnitTest11CurrentTest7DetailsEv
 4490      00
 4491 229e 488B30   		movq	(%rax), %rsi
 4492 22a1 488D7C24 		leaq	80(%rsp), %rdi
 4492      50
 4493 22a6 BA200100 		movl	$288, %edx
 4493      00
 4494 22ab E8000000 		call	_ZN8UnitTest11TestDetailsC1ERKS0_i
 4494      00
 4495 22b0 E8000000 		call	_ZN8UnitTest11CurrentTest7ResultsEv
 4495      00
 4496 22b5 488B38   		movq	(%rax), %rdi
 4497 22b8 488D7424 		leaq	80(%rsp), %rsi
 4497      50
 4498 22bd BA000000 		movl	$.LC118, %edx
 4498      00
 4499 22c2 E8000000 		call	_ZN8UnitTest11TestResults13OnTestFailureERKNS_11TestDetailsEPKc
 4499      00
 4500              	.LEHE68:
 4501              	.LEHB69:
 4502 22c7 E8000000 		call	__cxa_end_catch
 4502      00
 4503              	.LEHE69:
 4504 22cc E947FEFF 		jmp	.L463
 4504      FF
 4505              	.L471:
 4506 22d1 4889C3   		movq	%rax, %rbx
 4507              	.L458:
 4508 22d4 488DBC24 		leaq	208(%rsp), %rdi
 4508      D0000000 
 4509 22dc 48C78424 		movq	$_ZTV17RecordingReporter+16, 208(%rsp)
 4509      D0000000 
 4509      00000000 
 4510 22e8 E8000000 		call	_ZN8UnitTest12TestReporterD2Ev
 4510      00
 4511 22ed 4889DF   		movq	%rbx, %rdi
 4512              	.LEHB70:
 4513 22f0 E8000000 		call	_Unwind_Resume
 4513      00
 4514              	.LEHE70:
 4515              	.L479:
 4516 22f5 4889C3   		movq	%rax, %rbx
 4517 22f8 E8000000 		call	__cxa_end_catch
 4517      00
 4518 22fd EBD5     		jmp	.L458
 4519              	.L473:
 4520 22ff 4889C3   		movq	%rax, %rbx
 4521 2302 E8000000 		call	__cxa_end_catch
 4521      00
 4522 2307 EBCB     		jmp	.L458
 4523              	.L477:
 4524 2309 4889C3   		movq	%rax, %rbx
 4525 230c E8000000 		call	__cxa_end_catch
 4525      00
 4526 2311 EBC1     		jmp	.L458
 4527              	.L475:
 4528 2313 4889C3   		movq	%rax, %rbx
 4529 2316 E8000000 		call	__cxa_end_catch
 4529      00
 4530 231b EBB7     		jmp	.L458
 4531              		.cfi_endproc
 4532              	.LFE1234:
 4533              		.section	.gcc_except_table
 4534 017d 000000   		.align 4
 4535              	.LLSDA1234:
 4536 0180 FF       		.byte	0xff
 4537 0181 03       		.byte	0x3
 4538 0182 61       		.uleb128 .LLSDATT1234-.LLSDATTD1234
 4539              	.LLSDATTD1234:
 4540 0183 01       		.byte	0x1
 4541 0184 59       		.uleb128 .LLSDACSE1234-.LLSDACSB1234
 4542              	.LLSDACSB1234:
 4543 0185 D701     		.uleb128 .LEHB56-.LFB1234
 4544 0187 8702     		.uleb128 .LEHE56-.LEHB56
 4545 0189 9108     		.uleb128 .L471-.LFB1234
 4546 018b 00       		.uleb128 0
 4547 018c DE03     		.uleb128 .LEHB57-.LFB1234
 4548 018e 3D       		.uleb128 .LEHE57-.LEHB57
 4549 018f 9107     		.uleb128 .L472-.LFB1234
 4550 0191 01       		.uleb128 0x1
 4551 0192 9B04     		.uleb128 .LEHB58-.LFB1234
 4552 0194 3D       		.uleb128 .LEHE58-.LEHB58
 4553 0195 D107     		.uleb128 .L474-.LFB1234
 4554 0197 01       		.uleb128 0x1
 4555 0198 D804     		.uleb128 .LEHB59-.LFB1234
 4556 019a 3D       		.uleb128 .LEHE59-.LEHB59
 4557 019b D106     		.uleb128 .L476-.LFB1234
 4558 019d 01       		.uleb128 0x1
 4559 019e 9505     		.uleb128 .LEHB60-.LFB1234
 4560 01a0 45       		.uleb128 .LEHE60-.LEHB60
 4561 01a1 9406     		.uleb128 .L478-.LFB1234
 4562 01a3 01       		.uleb128 0x1
 4563 01a4 EE05     		.uleb128 .LEHB61-.LFB1234
 4564 01a6 05       		.uleb128 .LEHE61-.LEHB61
 4565 01a7 00       		.uleb128 0
 4566 01a8 00       		.uleb128 0
 4567 01a9 9C06     		.uleb128 .LEHB62-.LFB1234
 4568 01ab 2E       		.uleb128 .LEHE62-.LEHB62
 4569 01ac B508     		.uleb128 .L479-.LFB1234
 4570 01ae 00       		.uleb128 0
 4571 01af CA06     		.uleb128 .LEHB63-.LFB1234
 4572 01b1 05       		.uleb128 .LEHE63-.LEHB63
 4573 01b2 9108     		.uleb128 .L471-.LFB1234
 4574 01b4 00       		.uleb128 0
 4575 01b5 D906     		.uleb128 .LEHB64-.LFB1234
 4576 01b7 2E       		.uleb128 .LEHE64-.LEHB64
 4577 01b8 C908     		.uleb128 .L477-.LFB1234
 4578 01ba 00       		.uleb128 0
 4579 01bb 8707     		.uleb128 .LEHB65-.LFB1234
 4580 01bd 05       		.uleb128 .LEHE65-.LEHB65
 4581 01be 9108     		.uleb128 .L471-.LFB1234
 4582 01c0 00       		.uleb128 0
 4583 01c1 9907     		.uleb128 .LEHB66-.LFB1234
 4584 01c3 2E       		.uleb128 .LEHE66-.LEHB66
 4585 01c4 BF08     		.uleb128 .L473-.LFB1234
 4586 01c6 00       		.uleb128 0
 4587 01c7 C707     		.uleb128 .LEHB67-.LFB1234
 4588 01c9 05       		.uleb128 .LEHE67-.LEHB67
 4589 01ca 9108     		.uleb128 .L471-.LFB1234
 4590 01cc 00       		.uleb128 0
 4591 01cd D907     		.uleb128 .LEHB68-.LFB1234
 4592 01cf 2E       		.uleb128 .LEHE68-.LEHB68
 4593 01d0 D308     		.uleb128 .L475-.LFB1234
 4594 01d2 00       		.uleb128 0
 4595 01d3 8708     		.uleb128 .LEHB69-.LFB1234
 4596 01d5 05       		.uleb128 .LEHE69-.LEHB69
 4597 01d6 9108     		.uleb128 .L471-.LFB1234
 4598 01d8 00       		.uleb128 0
 4599 01d9 B008     		.uleb128 .LEHB70-.LFB1234
 4600 01db 05       		.uleb128 .LEHE70-.LEHB70
 4601 01dc 00       		.uleb128 0
 4602 01dd 00       		.uleb128 0
 4603              	.LLSDACSE1234:
 4604 01de 01       		.byte	0x1
 4605 01df 00       		.byte	0
 4606              		.align 4
 4607 01e0 00000000 		.long	0
 4608              	
 4609              	.LLSDATT1234:
 4610              		.text
 4612              		.section	.text.unlikely
 4613              	.LCOLDE121:
 4614              		.text
 4615              	.LHOTE121:
 4616              		.section	.rodata.str1.8
 4617 032a 00000000 		.align 8
 4617      0000
 4618              	.LC122:
 4619 0330 556E6861 		.string	"Unhandled exception in CHECK_EQUAL(1, results.GetFailureCount())"
 4619      6E646C65 
 4619      64206578 
 4619      63657074 
 4619      696F6E20 
 4620              		.section	.text.unlikely
 4621              		.align 2
 4622              	.LCOLDB123:
 4623              		.text
 4624              	.LHOTB123:
 4625 231d 90       		.align 2
 4626 231e 6690     		.p2align 4,,15
 4628              	_ZNK12_GLOBAL__N_126TestCheckArray2DCloseFalse7RunImplEv:
 4629              	.LFB1226:
 4630              		.cfi_startproc
 4631              		.cfi_personality 0x3,__gxx_personality_v0
 4632              		.cfi_lsda 0x3,.LLSDA1226
 4633 2320 53       		pushq	%rbx
 4634              		.cfi_def_cfa_offset 16
 4635              		.cfi_offset 3, -16
 4636 2321 31F6     		xorl	%esi, %esi
 4637 2323 4881ECB0 		subq	$176, %rsp
 4637      000000
 4638              		.cfi_def_cfa_offset 192
 4639 232a 488D7C24 		leaq	16(%rsp), %rdi
 4639      10
 4640 232f 64488B04 		movq	%fs:40, %rax
 4640      25280000 
 4640      00
 4641 2338 48898424 		movq	%rax, 168(%rsp)
 4641      A8000000 
 4642 2340 31C0     		xorl	%eax, %eax
 4643              	.LEHB71:
 4644 2342 E8000000 		call	_ZN8UnitTest11TestResultsC1EPNS_12TestReporterE
 4644      00
 4645 2347 B9000000 		movl	$.LC72, %ecx
 4645      00
 4646 234c 488D7C24 		leaq	48(%rsp), %rdi
 4646      30
 4647 2351 4531C0   		xorl	%r8d, %r8d
 4648 2354 4889CA   		movq	%rcx, %rdx
 4649 2357 4889CE   		movq	%rcx, %rsi
 4650 235a C7442450 		movl	$0x3f800000, 80(%rsp)
 4650      0000803F 
 4651 2362 C7442454 		movl	$0x3fc00000, 84(%rsp)
 4651      0000C03F 
 4652 236a C7442458 		movl	$0x40000000, 88(%rsp)
 4652      00000040 
 4653 2372 C744245C 		movl	$0x40000000, 92(%rsp)
 4653      00000040 
 4654 237a C7442460 		movl	$0x40200000, 96(%rsp)
 4654      00002040 
 4655 2382 C7442464 		movl	$0x40400000, 100(%rsp)
 4655      00004040 
 4656 238a C7442468 		movl	$0x40400000, 104(%rsp)
 4656      00004040 
 4657 2392 C744246C 		movl	$0x40600000, 108(%rsp)
 4657      00006040 
 4658 239a C7442470 		movl	$0x40800000, 112(%rsp)
 4658      00008040 
 4659 23a2 C7842480 		movl	$0x3f8147ae, 128(%rsp)
 4659      000000AE 
 4659      47813F
 4660 23ad C7842484 		movl	$0x3fc147ae, 132(%rsp)
 4660      000000AE 
 4660      47C13F
 4661 23b8 C7842488 		movl	$0x4000a3d7, 136(%rsp)
 4661      000000D7 
 4661      A30040
 4662 23c3 C784248C 		movl	$0x4000a3d7, 140(%rsp)
 4662      000000D7 
 4662      A30040
 4663 23ce C7842490 		movl	$0x4020a3d7, 144(%rsp)
 4663      000000D7 
 4663      A32040
 4664 23d9 C7842494 		movl	$0x4040a3d7, 148(%rsp)
 4664      000000D7 
 4664      A34040
 4665 23e4 C7842498 		movl	$0x4040a3d7, 152(%rsp)
 4665      000000D7 
 4665      A34040
 4666 23ef C784249C 		movl	$0x4060a3d7, 156(%rsp)
 4666      000000D7 
 4666      A36040
 4667 23fa C78424A0 		movl	$0x408051ec, 160(%rsp)
 4667      000000EC 
 4667      518040
 4668 2405 E8000000 		call	_ZN8UnitTest11TestDetailsC1EPKcS2_S2_i
 4668      00
 4669 240a 4C8D4424 		leaq	48(%rsp), %r8
 4669      30
 4670 240f 488D4C24 		leaq	12(%rsp), %rcx
 4670      0C
 4671 2414 488D9424 		leaq	128(%rsp), %rdx
 4671      80000000 
 4672 241c 488D7424 		leaq	80(%rsp), %rsi
 4672      50
 4673 2421 488D7C24 		leaq	16(%rsp), %rdi
 4673      10
 4674 2426 C744240C 		movl	$0x3a83126f, 12(%rsp)
 4674      6F12833A 
 4675 242e E8ADE0FF 		call	_ZN8UnitTest17CheckArray2DCloseIA3_A3_fS2_fEEvRNS_11TestResultsERKT_RKT0_iiRKT1_RKNS_11TestDe
 4675      FF
 4676              	.LEHE71:
 4677              	.LEHB72:
 4678 2433 E8000000 		call	_ZN8UnitTest11CurrentTest7DetailsEv
 4678      00
 4679 2438 488B30   		movq	(%rax), %rsi
 4680 243b 488D7C24 		leaq	48(%rsp), %rdi
 4680      30
 4681 2440 BA090100 		movl	$265, %edx
 4681      00
 4682 2445 E8000000 		call	_ZN8UnitTest11TestDetailsC1ERKS0_i
 4682      00
 4683 244a 488D7C24 		leaq	16(%rsp), %rdi
 4683      10
 4684 244f E8000000 		call	_ZNK8UnitTest11TestResults15GetFailureCountEv
 4684      00
 4685 2454 8944240C 		movl	%eax, 12(%rsp)
 4686 2458 C7442408 		movl	$1, 8(%rsp)
 4686      01000000 
 4687 2460 E8000000 		call	_ZN8UnitTest11CurrentTest7ResultsEv
 4687      00
 4688 2465 488B38   		movq	(%rax), %rdi
 4689 2468 488D4C24 		leaq	48(%rsp), %rcx
 4689      30
 4690 246d 488D5424 		leaq	12(%rsp), %rdx
 4690      0C
 4691 2472 488D7424 		leaq	8(%rsp), %rsi
 4691      08
 4692 2477 E8000000 		call	_ZN8UnitTest10CheckEqualIiiEEvRNS_11TestResultsERKT_RKT0_RKNS_11TestDetailsE
 4692      00
 4693              	.LEHE72:
 4694              	.L484:
 4695 247c 488B8424 		movq	168(%rsp), %rax
 4695      A8000000 
 4696 2484 64483304 		xorq	%fs:40, %rax
 4696      25280000 
 4696      00
 4697 248d 7509     		jne	.L492
 4698 248f 4881C4B0 		addq	$176, %rsp
 4698      000000
 4699              		.cfi_remember_state
 4700              		.cfi_def_cfa_offset 16
 4701 2496 5B       		popq	%rbx
 4702              		.cfi_def_cfa_offset 8
 4703 2497 C3       		ret
 4704              	.L492:
 4705              		.cfi_restore_state
 4706 2498 E8000000 		call	__stack_chk_fail
 4706      00
 4707              	.L489:
 4708 249d 4889C7   		movq	%rax, %rdi
 4709 24a0 E8000000 		call	__cxa_begin_catch
 4709      00
 4710              	.LEHB73:
 4711 24a5 E8000000 		call	_ZN8UnitTest11CurrentTest7DetailsEv
 4711      00
 4712 24aa 488B30   		movq	(%rax), %rsi
 4713 24ad 488D7C24 		leaq	48(%rsp), %rdi
 4713      30
 4714 24b2 BA090100 		movl	$265, %edx
 4714      00
 4715 24b7 E8000000 		call	_ZN8UnitTest11TestDetailsC1ERKS0_i
 4715      00
 4716 24bc E8000000 		call	_ZN8UnitTest11CurrentTest7ResultsEv
 4716      00
 4717 24c1 488B38   		movq	(%rax), %rdi
 4718 24c4 488D7424 		leaq	48(%rsp), %rsi
 4718      30
 4719 24c9 BA000000 		movl	$.LC122, %edx
 4719      00
 4720 24ce E8000000 		call	_ZN8UnitTest11TestResults13OnTestFailureERKNS_11TestDetailsEPKc
 4720      00
 4721              	.LEHE73:
 4722              	.LEHB74:
 4723 24d3 E8000000 		call	__cxa_end_catch
 4723      00
 4724              	.LEHE74:
 4725 24d8 EBA2     		jmp	.L484
 4726              	.L490:
 4727 24da 4889C3   		movq	%rax, %rbx
 4728 24dd E8000000 		call	__cxa_end_catch
 4728      00
 4729 24e2 4889DF   		movq	%rbx, %rdi
 4730              	.LEHB75:
 4731 24e5 E8000000 		call	_Unwind_Resume
 4731      00
 4732              	.LEHE75:
 4733              		.cfi_endproc
 4734              	.LFE1226:
 4735              		.section	.gcc_except_table
 4736              		.align 4
 4737              	.LLSDA1226:
 4738 01e4 FF       		.byte	0xff
 4739 01e5 03       		.byte	0x3
 4740 01e6 25       		.uleb128 .LLSDATT1226-.LLSDATTD1226
 4741              	.LLSDATTD1226:
 4742 01e7 01       		.byte	0x1
 4743 01e8 1B       		.uleb128 .LLSDACSE1226-.LLSDACSB1226
 4744              	.LLSDACSB1226:
 4745 01e9 22       		.uleb128 .LEHB71-.LFB1226
 4746 01ea F101     		.uleb128 .LEHE71-.LEHB71
 4747 01ec 00       		.uleb128 0
 4748 01ed 00       		.uleb128 0
 4749 01ee 9302     		.uleb128 .LEHB72-.LFB1226
 4750 01f0 49       		.uleb128 .LEHE72-.LEHB72
 4751 01f1 FD02     		.uleb128 .L489-.LFB1226
 4752 01f3 01       		.uleb128 0x1
 4753 01f4 8503     		.uleb128 .LEHB73-.LFB1226
 4754 01f6 2E       		.uleb128 .LEHE73-.LEHB73
 4755 01f7 BA03     		.uleb128 .L490-.LFB1226
 4756 01f9 00       		.uleb128 0
 4757 01fa B303     		.uleb128 .LEHB74-.LFB1226
 4758 01fc 05       		.uleb128 .LEHE74-.LEHB74
 4759 01fd 00       		.uleb128 0
 4760 01fe 00       		.uleb128 0
 4761 01ff C503     		.uleb128 .LEHB75-.LFB1226
 4762 0201 05       		.uleb128 .LEHE75-.LEHB75
 4763 0202 00       		.uleb128 0
 4764 0203 00       		.uleb128 0
 4765              	.LLSDACSE1226:
 4766 0204 01       		.byte	0x1
 4767 0205 00       		.byte	0
 4768 0206 0000     		.align 4
 4769 0208 00000000 		.long	0
 4770              	
 4771              	.LLSDATT1226:
 4772              		.text
 4774              		.section	.text.unlikely
 4775              	.LCOLDE123:
 4776              		.text
 4777              	.LHOTE123:
 4778              		.section	.rodata.str1.8
 4779 0371 00000000 		.align 8
 4779      000000
 4780              	.LC125:
 4781 0378 556E6861 		.string	"Unhandled exception in CHECK_EQUAL(0, results.GetFailureCount())"
 4781      6E646C65 
 4781      64206578 
 4781      63657074 
 4781      696F6E20 
 4782              		.section	.text.unlikely
 4783              		.align 2
 4784              	.LCOLDB126:
 4785              		.text
 4786              	.LHOTB126:
 4787              		.align 2
 4788 24ea 660F1F44 		.p2align 4,,15
 4788      0000
 4790              	_ZNK12_GLOBAL__N_125TestCheckArray2DCloseTrue7RunImplEv:
 4791              	.LFB1222:
 4792              		.cfi_startproc
 4793              		.cfi_personality 0x3,__gxx_personality_v0
 4794              		.cfi_lsda 0x3,.LLSDA1222
 4795 24f0 53       		pushq	%rbx
 4796              		.cfi_def_cfa_offset 16
 4797              		.cfi_offset 3, -16
 4798 24f1 31F6     		xorl	%esi, %esi
 4799 24f3 4881ECB0 		subq	$176, %rsp
 4799      000000
 4800              		.cfi_def_cfa_offset 192
 4801 24fa 488D7C24 		leaq	16(%rsp), %rdi
 4801      10
 4802 24ff 64488B04 		movq	%fs:40, %rax
 4802      25280000 
 4802      00
 4803 2508 48898424 		movq	%rax, 168(%rsp)
 4803      A8000000 
 4804 2510 31C0     		xorl	%eax, %eax
 4805              	.LEHB76:
 4806 2512 E8000000 		call	_ZN8UnitTest11TestResultsC1EPNS_12TestReporterE
 4806      00
 4807 2517 B9000000 		movl	$.LC72, %ecx
 4807      00
 4808 251c 488D7C24 		leaq	48(%rsp), %rdi
 4808      30
 4809 2521 4531C0   		xorl	%r8d, %r8d
 4810 2524 4889CA   		movq	%rcx, %rdx
 4811 2527 4889CE   		movq	%rcx, %rsi
 4812 252a C7442450 		movl	$0x3f800000, 80(%rsp)
 4812      0000803F 
 4813 2532 C7442454 		movl	$0x3fc00000, 84(%rsp)
 4813      0000C03F 
 4814 253a C7442458 		movl	$0x40000000, 88(%rsp)
 4814      00000040 
 4815 2542 C744245C 		movl	$0x40000000, 92(%rsp)
 4815      00000040 
 4816 254a C7442460 		movl	$0x40200000, 96(%rsp)
 4816      00002040 
 4817 2552 C7442464 		movl	$0x40400000, 100(%rsp)
 4817      00004040 
 4818 255a C7442468 		movl	$0x40400000, 104(%rsp)
 4818      00004040 
 4819 2562 C744246C 		movl	$0x40600000, 108(%rsp)
 4819      00006040 
 4820 256a C7442470 		movl	$0x40800000, 112(%rsp)
 4820      00008040 
 4821 2572 C7842480 		movl	$0x3f8147ae, 128(%rsp)
 4821      000000AE 
 4821      47813F
 4822 257d C7842484 		movl	$0x3fc147ae, 132(%rsp)
 4822      000000AE 
 4822      47C13F
 4823 2588 C7842488 		movl	$0x4000a3d7, 136(%rsp)
 4823      000000D7 
 4823      A30040
 4824 2593 C784248C 		movl	$0x4000a3d7, 140(%rsp)
 4824      000000D7 
 4824      A30040
 4825 259e C7842490 		movl	$0x4020a3d7, 144(%rsp)
 4825      000000D7 
 4825      A32040
 4826 25a9 C7842494 		movl	$0x4040a3d7, 148(%rsp)
 4826      000000D7 
 4826      A34040
 4827 25b4 C7842498 		movl	$0x4040a3d7, 152(%rsp)
 4827      000000D7 
 4827      A34040
 4828 25bf C784249C 		movl	$0x4060a3d7, 156(%rsp)
 4828      000000D7 
 4828      A36040
 4829 25ca C78424A0 		movl	$0x408051ec, 160(%rsp)
 4829      000000EC 
 4829      518040
 4830 25d5 E8000000 		call	_ZN8UnitTest11TestDetailsC1EPKcS2_S2_i
 4830      00
 4831 25da 4C8D4424 		leaq	48(%rsp), %r8
 4831      30
 4832 25df 488D4C24 		leaq	12(%rsp), %rcx
 4832      0C
 4833 25e4 488D9424 		leaq	128(%rsp), %rdx
 4833      80000000 
 4834 25ec 488D7424 		leaq	80(%rsp), %rsi
 4834      50
 4835 25f1 488D7C24 		leaq	16(%rsp), %rdi
 4835      10
 4836 25f6 C744240C 		movl	$0x3ca3d70a, 12(%rsp)
 4836      0AD7A33C 
 4837 25fe E8DDDEFF 		call	_ZN8UnitTest17CheckArray2DCloseIA3_A3_fS2_fEEvRNS_11TestResultsERKT_RKT0_iiRKT1_RKNS_11TestDe
 4837      FF
 4838              	.LEHE76:
 4839              	.LEHB77:
 4840 2603 E8000000 		call	_ZN8UnitTest11CurrentTest7DetailsEv
 4840      00
 4841 2608 488B30   		movq	(%rax), %rsi
 4842 260b 488D7C24 		leaq	48(%rsp), %rdi
 4842      30
 4843 2610 BAFB0000 		movl	$251, %edx
 4843      00
 4844 2615 E8000000 		call	_ZN8UnitTest11TestDetailsC1ERKS0_i
 4844      00
 4845 261a 488D7C24 		leaq	16(%rsp), %rdi
 4845      10
 4846 261f E8000000 		call	_ZNK8UnitTest11TestResults15GetFailureCountEv
 4846      00
 4847 2624 8944240C 		movl	%eax, 12(%rsp)
 4848 2628 C7442408 		movl	$0, 8(%rsp)
 4848      00000000 
 4849 2630 E8000000 		call	_ZN8UnitTest11CurrentTest7ResultsEv
 4849      00
 4850 2635 488B38   		movq	(%rax), %rdi
 4851 2638 488D4C24 		leaq	48(%rsp), %rcx
 4851      30
 4852 263d 488D5424 		leaq	12(%rsp), %rdx
 4852      0C
 4853 2642 488D7424 		leaq	8(%rsp), %rsi
 4853      08
 4854 2647 E8000000 		call	_ZN8UnitTest10CheckEqualIiiEEvRNS_11TestResultsERKT_RKT0_RKNS_11TestDetailsE
 4854      00
 4855              	.LEHE77:
 4856              	.L493:
 4857 264c 488B8424 		movq	168(%rsp), %rax
 4857      A8000000 
 4858 2654 64483304 		xorq	%fs:40, %rax
 4858      25280000 
 4858      00
 4859 265d 7509     		jne	.L501
 4860 265f 4881C4B0 		addq	$176, %rsp
 4860      000000
 4861              		.cfi_remember_state
 4862              		.cfi_def_cfa_offset 16
 4863 2666 5B       		popq	%rbx
 4864              		.cfi_def_cfa_offset 8
 4865 2667 C3       		ret
 4866              	.L501:
 4867              		.cfi_restore_state
 4868 2668 E8000000 		call	__stack_chk_fail
 4868      00
 4869              	.L498:
 4870 266d 4889C7   		movq	%rax, %rdi
 4871 2670 E8000000 		call	__cxa_begin_catch
 4871      00
 4872              	.LEHB78:
 4873 2675 E8000000 		call	_ZN8UnitTest11CurrentTest7DetailsEv
 4873      00
 4874 267a 488B30   		movq	(%rax), %rsi
 4875 267d 488D7C24 		leaq	48(%rsp), %rdi
 4875      30
 4876 2682 BAFB0000 		movl	$251, %edx
 4876      00
 4877 2687 E8000000 		call	_ZN8UnitTest11TestDetailsC1ERKS0_i
 4877      00
 4878 268c E8000000 		call	_ZN8UnitTest11CurrentTest7ResultsEv
 4878      00
 4879 2691 488B38   		movq	(%rax), %rdi
 4880 2694 488D7424 		leaq	48(%rsp), %rsi
 4880      30
 4881 2699 BA000000 		movl	$.LC125, %edx
 4881      00
 4882 269e E8000000 		call	_ZN8UnitTest11TestResults13OnTestFailureERKNS_11TestDetailsEPKc
 4882      00
 4883              	.LEHE78:
 4884              	.LEHB79:
 4885 26a3 E8000000 		call	__cxa_end_catch
 4885      00
 4886              	.LEHE79:
 4887 26a8 EBA2     		jmp	.L493
 4888              	.L499:
 4889 26aa 4889C3   		movq	%rax, %rbx
 4890 26ad E8000000 		call	__cxa_end_catch
 4890      00
 4891 26b2 4889DF   		movq	%rbx, %rdi
 4892              	.LEHB80:
 4893 26b5 E8000000 		call	_Unwind_Resume
 4893      00
 4894              	.LEHE80:
 4895              		.cfi_endproc
 4896              	.LFE1222:
 4897              		.section	.gcc_except_table
 4898              		.align 4
 4899              	.LLSDA1222:
 4900 020c FF       		.byte	0xff
 4901 020d 03       		.byte	0x3
 4902 020e 25       		.uleb128 .LLSDATT1222-.LLSDATTD1222
 4903              	.LLSDATTD1222:
 4904 020f 01       		.byte	0x1
 4905 0210 1B       		.uleb128 .LLSDACSE1222-.LLSDACSB1222
 4906              	.LLSDACSB1222:
 4907 0211 22       		.uleb128 .LEHB76-.LFB1222
 4908 0212 F101     		.uleb128 .LEHE76-.LEHB76
 4909 0214 00       		.uleb128 0
 4910 0215 00       		.uleb128 0
 4911 0216 9302     		.uleb128 .LEHB77-.LFB1222
 4912 0218 49       		.uleb128 .LEHE77-.LEHB77
 4913 0219 FD02     		.uleb128 .L498-.LFB1222
 4914 021b 01       		.uleb128 0x1
 4915 021c 8503     		.uleb128 .LEHB78-.LFB1222
 4916 021e 2E       		.uleb128 .LEHE78-.LEHB78
 4917 021f BA03     		.uleb128 .L499-.LFB1222
 4918 0221 00       		.uleb128 0
 4919 0222 B303     		.uleb128 .LEHB79-.LFB1222
 4920 0224 05       		.uleb128 .LEHE79-.LEHB79
 4921 0225 00       		.uleb128 0
 4922 0226 00       		.uleb128 0
 4923 0227 C503     		.uleb128 .LEHB80-.LFB1222
 4924 0229 05       		.uleb128 .LEHE80-.LEHB80
 4925 022a 00       		.uleb128 0
 4926 022b 00       		.uleb128 0
 4927              	.LLSDACSE1222:
 4928 022c 01       		.byte	0x1
 4929 022d 00       		.byte	0
 4930 022e 0000     		.align 4
 4931 0230 00000000 		.long	0
 4932              	
 4933              	.LLSDATT1222:
 4934              		.text
 4936              		.section	.text.unlikely
 4937              	.LCOLDE126:
 4938              		.text
 4939              	.LHOTE126:
 4940              		.section	.rodata.str1.1
 4941              	.LC127:
 4942 0092 66696C65 		.string	"file.h"
 4942      2E6800
 4943              	.LC128:
 4944 0099 6D797375 		.string	"mysuite"
 4944      69746500 
 4945              	.LC129:
 4946 00a1 6D797465 		.string	"mytest"
 4946      737400
 4947              		.section	.rodata.str1.8
 4948 03b9 00000000 		.align 8
 4948      000000
 4949              	.LC130:
 4950 03c0 556E6861 		.string	"Unhandled exception in CHECK_EQUAL(\"mytest\", reporter.lastFailedTest)"
 4950      6E646C65 
 4950      64206578 
 4950      63657074 
 4950      696F6E20 
 4951 0406 0000     		.align 8
 4952              	.LC131:
 4953 0408 556E6861 		.string	"Unhandled exception in CHECK_EQUAL(\"mysuite\", reporter.lastFailedSuite)"
 4953      6E646C65 
 4953      64206578 
 4953      63657074 
 4953      696F6E20 
 4954              		.align 8
 4955              	.LC132:
 4956 0450 556E6861 		.string	"Unhandled exception in CHECK_EQUAL(\"file.h\", reporter.lastFailedFile)"
 4956      6E646C65 
 4956      64206578 
 4956      63657074 
 4956      696F6E20 
 4957 0496 0000     		.align 8
 4958              	.LC133:
 4959 0498 556E6861 		.string	"Unhandled exception in CHECK_EQUAL(101, reporter.lastFailedLine)"
 4959      6E646C65 
 4959      64206578 
 4959      63657074 
 4959      696F6E20 
 4960              		.section	.text.unlikely
 4961              		.align 2
 4962              	.LCOLDB134:
 4963              		.text
 4964              	.LHOTB134:
 4965              		.align 2
 4966 26ba 660F1F44 		.p2align 4,,15
 4966      0000
 4968              	_ZNK12_GLOBAL__N_136TestCheckEqualFailureIncludesDetails7RunImplEv:
 4969              	.LFB1166:
 4970              		.cfi_startproc
 4971              		.cfi_personality 0x3,__gxx_personality_v0
 4972              		.cfi_lsda 0x3,.LLSDA1166
 4973 26c0 53       		pushq	%rbx
 4974              		.cfi_def_cfa_offset 16
 4975              		.cfi_offset 3, -16
 4976 26c1 4881ECB0 		subq	$2224, %rsp
 4976      080000
 4977              		.cfi_def_cfa_offset 2240
 4978 26c8 488D7424 		leaq	112(%rsp), %rsi
 4978      70
 4979 26cd 488D7C24 		leaq	16(%rsp), %rdi
 4979      10
 4980 26d2 48C74424 		movq	$_ZTV17RecordingReporter+16, 112(%rsp)
 4980      70000000 
 4980      00
 4981 26db 64488B04 		movq	%fs:40, %rax
 4981      25280000 
 4981      00
 4982 26e4 48898424 		movq	%rax, 2216(%rsp)
 4982      A8080000 
 4983 26ec 31C0     		xorl	%eax, %eax
 4984 26ee C7442478 		movl	$0, 120(%rsp)
 4984      00000000 
 4985 26f6 C784247C 		movl	$0, 636(%rsp)
 4985      02000000 
 4985      000000
 4986 2701 C7842480 		movl	$0, 896(%rsp)
 4986      03000000 
 4986      000000
 4987 270c C7842484 		movl	$0, 1668(%rsp)
 4987      06000000 
 4987      000000
 4988 2717 C7842488 		movl	$0x00000000, 2184(%rsp)
 4988      08000000 
 4988      000000
 4989 2722 C784248C 		movl	$0, 2188(%rsp)
 4989      08000000 
 4989      000000
 4990 272d C7842490 		movl	$0, 2192(%rsp)
 4990      08000000 
 4990      000000
 4991 2738 C7842494 		movl	$0, 2196(%rsp)
 4991      08000000 
 4991      000000
 4992 2743 C7842498 		movl	$0x00000000, 2200(%rsp)
 4992      08000000 
 4992      000000
 4993 274e C644247C 		movb	$0, 124(%rsp)
 4993      00
 4994 2753 C684247C 		movb	$0, 380(%rsp)
 4994      01000000 
 4995 275b C6842480 		movb	$0, 640(%rsp)
 4995      02000000 
 4996 2763 C6842484 		movb	$0, 900(%rsp)
 4996      03000000 
 4997 276b C6842484 		movb	$0, 1156(%rsp)
 4997      04000000 
 4998 2773 C6842484 		movb	$0, 1412(%rsp)
 4998      05000000 
 4999 277b C6842488 		movb	$0, 1672(%rsp)
 4999      06000000 
 5000 2783 C6842488 		movb	$0, 1928(%rsp)
 5000      07000000 
 5001              	.LEHB81:
 5002 278b E8000000 		call	_ZN8UnitTest11TestResultsC1EPNS_12TestReporterE
 5002      00
 5003 2790 488D7C24 		leaq	48(%rsp), %rdi
 5003      30
 5004 2795 41B86500 		movl	$101, %r8d
 5004      0000
 5005 279b B9000000 		movl	$.LC127, %ecx
 5005      00
 5006 27a0 BA000000 		movl	$.LC128, %edx
 5006      00
 5007 27a5 BE000000 		movl	$.LC129, %esi
 5007      00
 5008 27aa E8000000 		call	_ZN8UnitTest11TestDetailsC1EPKcS2_S2_i
 5008      00
 5009 27af 488D4C24 		leaq	48(%rsp), %rcx
 5009      30
 5010 27b4 488D5424 		leaq	80(%rsp), %rdx
 5010      50
 5011 27b9 488D7424 		leaq	12(%rsp), %rsi
 5011      0C
 5012 27be 488D7C24 		leaq	16(%rsp), %rdi
 5012      10
 5013 27c3 C7442450 		movl	$2, 80(%rsp)
 5013      02000000 
 5014 27cb C744240C 		movl	$1, 12(%rsp)
 5014      01000000 
 5015 27d3 E8000000 		call	_ZN8UnitTest10CheckEqualIiiEEvRNS_11TestResultsERKT_RKT0_RKNS_11TestDetailsE
 5015      00
 5016              	.LEHE81:
 5017              	.LEHB82:
 5018 27d8 E8000000 		call	_ZN8UnitTest11CurrentTest7DetailsEv
 5018      00
 5019 27dd 488B30   		movq	(%rax), %rsi
 5020 27e0 488D7C24 		leaq	80(%rsp), %rdi
 5020      50
 5021 27e5 BA5D0000 		movl	$93, %edx
 5021      00
 5022 27ea E8000000 		call	_ZN8UnitTest11TestDetailsC1ERKS0_i
 5022      00
 5023 27ef E8000000 		call	_ZN8UnitTest11CurrentTest7ResultsEv
 5023      00
 5024 27f4 488D5C24 		leaq	112(%rsp), %rbx
 5024      70
 5025 27f9 488B38   		movq	(%rax), %rdi
 5026 27fc 488D4C24 		leaq	80(%rsp), %rcx
 5026      50
 5027 2801 BE000000 		movl	$.LC129, %esi
 5027      00
 5028 2806 488D9314 		leaq	1044(%rbx), %rdx
 5028      040000
 5029 280d E8000000 		call	_ZN8UnitTest10CheckEqualERNS_11TestResultsEPKcPcRKNS_11TestDetailsE
 5029      00
 5030              	.LEHE82:
 5031              	.L506:
 5032              	.LEHB83:
 5033 2812 E8000000 		call	_ZN8UnitTest11CurrentTest7DetailsEv
 5033      00
 5034 2817 488B30   		movq	(%rax), %rsi
 5035 281a 488D7C24 		leaq	80(%rsp), %rdi
 5035      50
 5036 281f BA5E0000 		movl	$94, %edx
 5036      00
 5037 2824 E8000000 		call	_ZN8UnitTest11TestDetailsC1ERKS0_i
 5037      00
 5038 2829 E8000000 		call	_ZN8UnitTest11CurrentTest7ResultsEv
 5038      00
 5039 282e 488D5C24 		leaq	112(%rsp), %rbx
 5039      70
 5040 2833 488B38   		movq	(%rax), %rdi
 5041 2836 488D4C24 		leaq	80(%rsp), %rcx
 5041      50
 5042 283b BE000000 		movl	$.LC128, %esi
 5042      00
 5043 2840 488D9314 		leaq	788(%rbx), %rdx
 5043      030000
 5044 2847 E8000000 		call	_ZN8UnitTest10CheckEqualERNS_11TestResultsEPKcPcRKNS_11TestDetailsE
 5044      00
 5045              	.LEHE83:
 5046              	.L509:
 5047              	.LEHB84:
 5048 284c E8000000 		call	_ZN8UnitTest11CurrentTest7DetailsEv
 5048      00
 5049 2851 488B30   		movq	(%rax), %rsi
 5050 2854 488D7C24 		leaq	80(%rsp), %rdi
 5050      50
 5051 2859 BA5F0000 		movl	$95, %edx
 5051      00
 5052 285e E8000000 		call	_ZN8UnitTest11TestDetailsC1ERKS0_i
 5052      00
 5053 2863 E8000000 		call	_ZN8UnitTest11CurrentTest7ResultsEv
 5053      00
 5054 2868 488D5C24 		leaq	112(%rsp), %rbx
 5054      70
 5055 286d 488B38   		movq	(%rax), %rdi
 5056 2870 488D4C24 		leaq	80(%rsp), %rcx
 5056      50
 5057 2875 BE000000 		movl	$.LC127, %esi
 5057      00
 5058 287a 488D9310 		leaq	528(%rbx), %rdx
 5058      020000
 5059 2881 E8000000 		call	_ZN8UnitTest10CheckEqualERNS_11TestResultsEPKcPcRKNS_11TestDetailsE
 5059      00
 5060              	.LEHE84:
 5061              	.L512:
 5062              	.LEHB85:
 5063 2886 E8000000 		call	_ZN8UnitTest11CurrentTest7DetailsEv
 5063      00
 5064 288b 488B30   		movq	(%rax), %rsi
 5065 288e 488D7C24 		leaq	80(%rsp), %rdi
 5065      50
 5066 2893 BA600000 		movl	$96, %edx
 5066      00
 5067 2898 E8000000 		call	_ZN8UnitTest11TestDetailsC1ERKS0_i
 5067      00
 5068 289d C744240C 		movl	$101, 12(%rsp)
 5068      65000000 
 5069 28a5 E8000000 		call	_ZN8UnitTest11CurrentTest7ResultsEv
 5069      00
 5070 28aa 488D5C24 		leaq	112(%rsp), %rbx
 5070      70
 5071 28af 488B38   		movq	(%rax), %rdi
 5072 28b2 488D4C24 		leaq	80(%rsp), %rcx
 5072      50
 5073 28b7 488D7424 		leaq	12(%rsp), %rsi
 5073      0C
 5074 28bc 488D9310 		leaq	784(%rbx), %rdx
 5074      030000
 5075 28c3 E8000000 		call	_ZN8UnitTest10CheckEqualIiiEEvRNS_11TestResultsERKT_RKT0_RKNS_11TestDetailsE
 5075      00
 5076              	.LEHE85:
 5077              	.L515:
 5078 28c8 488D7C24 		leaq	112(%rsp), %rdi
 5078      70
 5079 28cd 48C74424 		movq	$_ZTV17RecordingReporter+16, 112(%rsp)
 5079      70000000 
 5079      00
 5080              	.LEHB86:
 5081 28d6 E8000000 		call	_ZN8UnitTest12TestReporterD2Ev
 5081      00
 5082              	.LEHE86:
 5083 28db 488B8424 		movq	2216(%rsp), %rax
 5083      A8080000 
 5084 28e3 64483304 		xorq	%fs:40, %rax
 5084      25280000 
 5084      00
 5085 28ec 7509     		jne	.L529
 5086 28ee 4881C4B0 		addq	$2224, %rsp
 5086      080000
 5087              		.cfi_remember_state
 5088              		.cfi_def_cfa_offset 16
 5089 28f5 5B       		popq	%rbx
 5090              		.cfi_def_cfa_offset 8
 5091 28f6 C3       		ret
 5092              	.L529:
 5093              		.cfi_restore_state
 5094 28f7 E8000000 		call	__stack_chk_fail
 5094      00
 5095              	.L524:
 5096 28fc 4889C7   		movq	%rax, %rdi
 5097 28ff E8000000 		call	__cxa_begin_catch
 5097      00
 5098              	.LEHB87:
 5099 2904 E8000000 		call	_ZN8UnitTest11CurrentTest7DetailsEv
 5099      00
 5100 2909 488B30   		movq	(%rax), %rsi
 5101 290c 488D7C24 		leaq	80(%rsp), %rdi
 5101      50
 5102 2911 BA600000 		movl	$96, %edx
 5102      00
 5103 2916 E8000000 		call	_ZN8UnitTest11TestDetailsC1ERKS0_i
 5103      00
 5104 291b E8000000 		call	_ZN8UnitTest11CurrentTest7ResultsEv
 5104      00
 5105 2920 488B38   		movq	(%rax), %rdi
 5106 2923 488D7424 		leaq	80(%rsp), %rsi
 5106      50
 5107 2928 BA000000 		movl	$.LC133, %edx
 5107      00
 5108 292d E8000000 		call	_ZN8UnitTest11TestResults13OnTestFailureERKNS_11TestDetailsEPKc
 5108      00
 5109              	.LEHE87:
 5110              	.LEHB88:
 5111 2932 E8000000 		call	__cxa_end_catch
 5111      00
 5112              	.LEHE88:
 5113 2937 EB8F     		jmp	.L515
 5114              	.L522:
 5115 2939 4889C7   		movq	%rax, %rdi
 5116 293c E8000000 		call	__cxa_begin_catch
 5116      00
 5117              	.LEHB89:
 5118 2941 E8000000 		call	_ZN8UnitTest11CurrentTest7DetailsEv
 5118      00
 5119 2946 488B30   		movq	(%rax), %rsi
 5120 2949 488D7C24 		leaq	80(%rsp), %rdi
 5120      50
 5121 294e BA5F0000 		movl	$95, %edx
 5121      00
 5122 2953 E8000000 		call	_ZN8UnitTest11TestDetailsC1ERKS0_i
 5122      00
 5123 2958 E8000000 		call	_ZN8UnitTest11CurrentTest7ResultsEv
 5123      00
 5124 295d 488B38   		movq	(%rax), %rdi
 5125 2960 488D7424 		leaq	80(%rsp), %rsi
 5125      50
 5126 2965 BA000000 		movl	$.LC132, %edx
 5126      00
 5127 296a E8000000 		call	_ZN8UnitTest11TestResults13OnTestFailureERKNS_11TestDetailsEPKc
 5127      00
 5128              	.LEHE89:
 5129              	.LEHB90:
 5130 296f E8000000 		call	__cxa_end_catch
 5130      00
 5131              	.LEHE90:
 5132 2974 E90DFFFF 		jmp	.L512
 5132      FF
 5133              	.L518:
 5134 2979 4889C7   		movq	%rax, %rdi
 5135 297c E8000000 		call	__cxa_begin_catch
 5135      00
 5136              	.LEHB91:
 5137 2981 E8000000 		call	_ZN8UnitTest11CurrentTest7DetailsEv
 5137      00
 5138 2986 488B30   		movq	(%rax), %rsi
 5139 2989 488D7C24 		leaq	80(%rsp), %rdi
 5139      50
 5140 298e BA5D0000 		movl	$93, %edx
 5140      00
 5141 2993 E8000000 		call	_ZN8UnitTest11TestDetailsC1ERKS0_i
 5141      00
 5142 2998 E8000000 		call	_ZN8UnitTest11CurrentTest7ResultsEv
 5142      00
 5143 299d 488B38   		movq	(%rax), %rdi
 5144 29a0 488D7424 		leaq	80(%rsp), %rsi
 5144      50
 5145 29a5 BA000000 		movl	$.LC130, %edx
 5145      00
 5146 29aa E8000000 		call	_ZN8UnitTest11TestResults13OnTestFailureERKNS_11TestDetailsEPKc
 5146      00
 5147              	.LEHE91:
 5148              	.LEHB92:
 5149 29af E8000000 		call	__cxa_end_catch
 5149      00
 5150              	.LEHE92:
 5151 29b4 E959FEFF 		jmp	.L506
 5151      FF
 5152              	.L520:
 5153 29b9 4889C7   		movq	%rax, %rdi
 5154 29bc E8000000 		call	__cxa_begin_catch
 5154      00
 5155              	.LEHB93:
 5156 29c1 E8000000 		call	_ZN8UnitTest11CurrentTest7DetailsEv
 5156      00
 5157 29c6 488B30   		movq	(%rax), %rsi
 5158 29c9 488D7C24 		leaq	80(%rsp), %rdi
 5158      50
 5159 29ce BA5E0000 		movl	$94, %edx
 5159      00
 5160 29d3 E8000000 		call	_ZN8UnitTest11TestDetailsC1ERKS0_i
 5160      00
 5161 29d8 E8000000 		call	_ZN8UnitTest11CurrentTest7ResultsEv
 5161      00
 5162 29dd 488B38   		movq	(%rax), %rdi
 5163 29e0 488D7424 		leaq	80(%rsp), %rsi
 5163      50
 5164 29e5 BA000000 		movl	$.LC131, %edx
 5164      00
 5165 29ea E8000000 		call	_ZN8UnitTest11TestResults13OnTestFailureERKNS_11TestDetailsEPKc
 5165      00
 5166              	.LEHE93:
 5167              	.LEHB94:
 5168 29ef E8000000 		call	__cxa_end_catch
 5168      00
 5169              	.LEHE94:
 5170 29f4 E953FEFF 		jmp	.L509
 5170      FF
 5171              	.L517:
 5172 29f9 4889C3   		movq	%rax, %rbx
 5173              	.L504:
 5174 29fc 488D7C24 		leaq	112(%rsp), %rdi
 5174      70
 5175 2a01 48C74424 		movq	$_ZTV17RecordingReporter+16, 112(%rsp)
 5175      70000000 
 5175      00
 5176 2a0a E8000000 		call	_ZN8UnitTest12TestReporterD2Ev
 5176      00
 5177 2a0f 4889DF   		movq	%rbx, %rdi
 5178              	.LEHB95:
 5179 2a12 E8000000 		call	_Unwind_Resume
 5179      00
 5180              	.LEHE95:
 5181              	.L525:
 5182 2a17 4889C3   		movq	%rax, %rbx
 5183 2a1a E8000000 		call	__cxa_end_catch
 5183      00
 5184 2a1f EBDB     		jmp	.L504
 5185              	.L519:
 5186 2a21 4889C3   		movq	%rax, %rbx
 5187 2a24 E8000000 		call	__cxa_end_catch
 5187      00
 5188 2a29 EBD1     		jmp	.L504
 5189              	.L523:
 5190 2a2b 4889C3   		movq	%rax, %rbx
 5191 2a2e E8000000 		call	__cxa_end_catch
 5191      00
 5192 2a33 EBC7     		jmp	.L504
 5193              	.L521:
 5194 2a35 4889C3   		movq	%rax, %rbx
 5195 2a38 E8000000 		call	__cxa_end_catch
 5195      00
 5196 2a3d EBBD     		jmp	.L504
 5197              		.cfi_endproc
 5198              	.LFE1166:
 5199              		.section	.gcc_except_table
 5200              		.align 4
 5201              	.LLSDA1166:
 5202 0234 FF       		.byte	0xff
 5203 0235 03       		.byte	0x3
 5204 0236 61       		.uleb128 .LLSDATT1166-.LLSDATTD1166
 5205              	.LLSDATTD1166:
 5206 0237 01       		.byte	0x1
 5207 0238 58       		.uleb128 .LLSDACSE1166-.LLSDACSB1166
 5208              	.LLSDACSB1166:
 5209 0239 CB01     		.uleb128 .LEHB81-.LFB1166
 5210 023b 4D       		.uleb128 .LEHE81-.LEHB81
 5211 023c B906     		.uleb128 .L517-.LFB1166
 5212 023e 00       		.uleb128 0
 5213 023f 9802     		.uleb128 .LEHB82-.LFB1166
 5214 0241 3A       		.uleb128 .LEHE82-.LEHB82
 5215 0242 B905     		.uleb128 .L518-.LFB1166
 5216 0244 01       		.uleb128 0x1
 5217 0245 D202     		.uleb128 .LEHB83-.LFB1166
 5218 0247 3A       		.uleb128 .LEHE83-.LEHB83
 5219 0248 F905     		.uleb128 .L520-.LFB1166
 5220 024a 01       		.uleb128 0x1
 5221 024b 8C03     		.uleb128 .LEHB84-.LFB1166
 5222 024d 3A       		.uleb128 .LEHE84-.LEHB84
 5223 024e F904     		.uleb128 .L522-.LFB1166
 5224 0250 01       		.uleb128 0x1
 5225 0251 C603     		.uleb128 .LEHB85-.LFB1166
 5226 0253 42       		.uleb128 .LEHE85-.LEHB85
 5227 0254 BC04     		.uleb128 .L524-.LFB1166
 5228 0256 01       		.uleb128 0x1
 5229 0257 9604     		.uleb128 .LEHB86-.LFB1166
 5230 0259 05       		.uleb128 .LEHE86-.LEHB86
 5231 025a 00       		.uleb128 0
 5232 025b 00       		.uleb128 0
 5233 025c C404     		.uleb128 .LEHB87-.LFB1166
 5234 025e 2E       		.uleb128 .LEHE87-.LEHB87
 5235 025f D706     		.uleb128 .L525-.LFB1166
 5236 0261 00       		.uleb128 0
 5237 0262 F204     		.uleb128 .LEHB88-.LFB1166
 5238 0264 05       		.uleb128 .LEHE88-.LEHB88
 5239 0265 B906     		.uleb128 .L517-.LFB1166
 5240 0267 00       		.uleb128 0
 5241 0268 8105     		.uleb128 .LEHB89-.LFB1166
 5242 026a 2E       		.uleb128 .LEHE89-.LEHB89
 5243 026b EB06     		.uleb128 .L523-.LFB1166
 5244 026d 00       		.uleb128 0
 5245 026e AF05     		.uleb128 .LEHB90-.LFB1166
 5246 0270 05       		.uleb128 .LEHE90-.LEHB90
 5247 0271 B906     		.uleb128 .L517-.LFB1166
 5248 0273 00       		.uleb128 0
 5249 0274 C105     		.uleb128 .LEHB91-.LFB1166
 5250 0276 2E       		.uleb128 .LEHE91-.LEHB91
 5251 0277 E106     		.uleb128 .L519-.LFB1166
 5252 0279 00       		.uleb128 0
 5253 027a EF05     		.uleb128 .LEHB92-.LFB1166
 5254 027c 05       		.uleb128 .LEHE92-.LEHB92
 5255 027d B906     		.uleb128 .L517-.LFB1166
 5256 027f 00       		.uleb128 0
 5257 0280 8106     		.uleb128 .LEHB93-.LFB1166
 5258 0282 2E       		.uleb128 .LEHE93-.LEHB93
 5259 0283 F506     		.uleb128 .L521-.LFB1166
 5260 0285 00       		.uleb128 0
 5261 0286 AF06     		.uleb128 .LEHB94-.LFB1166
 5262 0288 05       		.uleb128 .LEHE94-.LEHB94
 5263 0289 B906     		.uleb128 .L517-.LFB1166
 5264 028b 00       		.uleb128 0
 5265 028c D206     		.uleb128 .LEHB95-.LFB1166
 5266 028e 05       		.uleb128 .LEHE95-.LEHB95
 5267 028f 00       		.uleb128 0
 5268 0290 00       		.uleb128 0
 5269              	.LLSDACSE1166:
 5270 0291 01       		.byte	0x1
 5271 0292 00       		.byte	0
 5272 0293 00       		.align 4
 5273 0294 00000000 		.long	0
 5274              	
 5275              	.LLSDATT1166:
 5276              		.text
 5278              		.section	.text.unlikely
 5279              	.LCOLDE134:
 5280              		.text
 5281              	.LHOTE134:
 5282              		.section	.rodata.str1.1
 5283              	.LC135:
 5284 00a8 78706563 		.string	"xpected 1"
 5284      74656420 
 5284      3100
 5285              		.section	.rodata.str1.8
 5286 04d9 00000000 		.align 8
 5286      000000
 5287              	.LC136:
 5288 04e0 73747273 		.string	"strstr(reporter.lastFailedMessage, \"xpected 1\")"
 5288      74722872 
 5288      65706F72 
 5288      7465722E 
 5288      6C617374 
 5289              		.section	.rodata.str1.1
 5290              	.LC137:
 5291 00b2 77617320 		.string	"was 2"
 5291      3200
 5292              		.section	.rodata.str1.8
 5293              		.align 8
 5294              	.LC138:
 5295 0510 73747273 		.string	"strstr(reporter.lastFailedMessage, \"was 2\")"
 5295      74722872 
 5295      65706F72 
 5295      7465722E 
 5295      6C617374 
 5296 053c 00000000 		.align 8
 5297              	.LC139:
 5298 0540 556E6861 		.string	"Unhandled exception in CHECK(strstr(reporter.lastFailedMessage, \"xpected 1\"))"
 5298      6E646C65 
 5298      64206578 
 5298      63657074 
 5298      696F6E20 
 5299 058e 0000     		.align 8
 5300              	.LC140:
 5301 0590 556E6861 		.string	"Unhandled exception in CHECK(strstr(reporter.lastFailedMessage, \"was 2\"))"
 5301      6E646C65 
 5301      64206578 
 5301      63657074 
 5301      696F6E20 
 5302              		.section	.text.unlikely
 5303              		.align 2
 5304              	.LCOLDB141:
 5305              		.text
 5306              	.LHOTB141:
 5307 2a3f 90       		.align 2
 5308              		.p2align 4,,15
 5310              	_ZNK12_GLOBAL__N_151TestCheckEqualFailureIncludesCheckExpectedAndActual7RunImplEv:
 5311              	.LFB1162:
 5312              		.cfi_startproc
 5313              		.cfi_personality 0x3,__gxx_personality_v0
 5314              		.cfi_lsda 0x3,.LLSDA1162
 5315 2a40 53       		pushq	%rbx
 5316              		.cfi_def_cfa_offset 16
 5317              		.cfi_offset 3, -16
 5318 2a41 4881EC90 		subq	$2192, %rsp
 5318      080000
 5319              		.cfi_def_cfa_offset 2208
 5320 2a48 488D7424 		leaq	80(%rsp), %rsi
 5320      50
 5321 2a4d 488D7C24 		leaq	16(%rsp), %rdi
 5321      10
 5322 2a52 48C74424 		movq	$_ZTV17RecordingReporter+16, 80(%rsp)
 5322      50000000 
 5322      00
 5323 2a5b 64488B04 		movq	%fs:40, %rax
 5323      25280000 
 5323      00
 5324 2a64 48898424 		movq	%rax, 2184(%rsp)
 5324      88080000 
 5325 2a6c 31C0     		xorl	%eax, %eax
 5326 2a6e C7442458 		movl	$0, 88(%rsp)
 5326      00000000 
 5327 2a76 C784245C 		movl	$0, 604(%rsp)
 5327      02000000 
 5327      000000
 5328 2a81 C7842460 		movl	$0, 864(%rsp)
 5328      03000000 
 5328      000000
 5329 2a8c C7842464 		movl	$0, 1636(%rsp)
 5329      06000000 
 5329      000000
 5330 2a97 C7842468 		movl	$0x00000000, 2152(%rsp)
 5330      08000000 
 5330      000000
 5331 2aa2 C784246C 		movl	$0, 2156(%rsp)
 5331      08000000 
 5331      000000
 5332 2aad C7842470 		movl	$0, 2160(%rsp)
 5332      08000000 
 5332      000000
 5333 2ab8 C7842474 		movl	$0, 2164(%rsp)
 5333      08000000 
 5333      000000
 5334 2ac3 C7842478 		movl	$0x00000000, 2168(%rsp)
 5334      08000000 
 5334      000000
 5335 2ace C644245C 		movb	$0, 92(%rsp)
 5335      00
 5336 2ad3 C684245C 		movb	$0, 348(%rsp)
 5336      01000000 
 5337 2adb C6842460 		movb	$0, 608(%rsp)
 5337      02000000 
 5338 2ae3 C6842464 		movb	$0, 868(%rsp)
 5338      03000000 
 5339 2aeb C6842464 		movb	$0, 1124(%rsp)
 5339      04000000 
 5340 2af3 C6842464 		movb	$0, 1380(%rsp)
 5340      05000000 
 5341 2afb C6842468 		movb	$0, 1640(%rsp)
 5341      06000000 
 5342 2b03 C6842468 		movb	$0, 1896(%rsp)
 5342      07000000 
 5343              	.LEHB96:
 5344 2b0b E8000000 		call	_ZN8UnitTest11TestResultsC1EPNS_12TestReporterE
 5344      00
 5345 2b10 B9000000 		movl	$.LC72, %ecx
 5345      00
 5346 2b15 488D7C24 		leaq	48(%rsp), %rdi
 5346      30
 5347 2b1a 4531C0   		xorl	%r8d, %r8d
 5348 2b1d 4889CA   		movq	%rcx, %rdx
 5349 2b20 4889CE   		movq	%rcx, %rsi
 5350 2b23 C7442408 		movl	$2, 8(%rsp)
 5350      02000000 
 5351 2b2b E8000000 		call	_ZN8UnitTest11TestDetailsC1EPKcS2_S2_i
 5351      00
 5352 2b30 488D4C24 		leaq	48(%rsp), %rcx
 5352      30
 5353 2b35 488D5424 		leaq	8(%rsp), %rdx
 5353      08
 5354 2b3a 488D7424 		leaq	12(%rsp), %rsi
 5354      0C
 5355 2b3f 488D7C24 		leaq	16(%rsp), %rdi
 5355      10
 5356 2b44 C744240C 		movl	$1, 12(%rsp)
 5356      01000000 
 5357 2b4c E8000000 		call	_ZN8UnitTest10CheckEqualIiiEEvRNS_11TestResultsERKT_RKT0_RKNS_11TestDetailsE
 5357      00
 5358              	.LEHE96:
 5359 2b51 488DBC24 		leaq	1380(%rsp), %rdi
 5359      64050000 
 5360 2b59 BE000000 		movl	$.LC135, %esi
 5360      00
 5361 2b5e E8000000 		call	strstr
 5361      00
 5362 2b63 4885C0   		testq	%rax, %rax
 5363 2b66 7478     		je	.L551
 5364              	.L532:
 5365 2b68 488DBC24 		leaq	1380(%rsp), %rdi
 5365      64050000 
 5366 2b70 BE000000 		movl	$.LC137, %esi
 5366      00
 5367 2b75 E8000000 		call	strstr
 5367      00
 5368 2b7a 4885C0   		testq	%rax, %rax
 5369 2b7d 7431     		je	.L552
 5370              	.L534:
 5371 2b7f 488D7C24 		leaq	80(%rsp), %rdi
 5371      50
 5372 2b84 48C74424 		movq	$_ZTV17RecordingReporter+16, 80(%rsp)
 5372      50000000 
 5372      00
 5373              	.LEHB97:
 5374 2b8d E8000000 		call	_ZN8UnitTest12TestReporterD2Ev
 5374      00
 5375              	.LEHE97:
 5376 2b92 488B8424 		movq	2184(%rsp), %rax
 5376      88080000 
 5377 2b9a 64483304 		xorq	%fs:40, %rax
 5377      25280000 
 5377      00
 5378 2ba3 756E     		jne	.L553
 5379 2ba5 4881C490 		addq	$2192, %rsp
 5379      080000
 5380              		.cfi_remember_state
 5381              		.cfi_def_cfa_offset 16
 5382 2bac 5B       		popq	%rbx
 5383              		.cfi_def_cfa_offset 8
 5384 2bad C3       		ret
 5385 2bae 6690     		.p2align 4,,10
 5386              		.p2align 3
 5387              	.L552:
 5388              		.cfi_restore_state
 5389              	.LEHB98:
 5390 2bb0 E8000000 		call	_ZN8UnitTest11CurrentTest7DetailsEv
 5390      00
 5391 2bb5 488B30   		movq	(%rax), %rsi
 5392 2bb8 488D7C24 		leaq	48(%rsp), %rdi
 5392      30
 5393 2bbd BA520000 		movl	$82, %edx
 5393      00
 5394 2bc2 E8000000 		call	_ZN8UnitTest11TestDetailsC1ERKS0_i
 5394      00
 5395 2bc7 E8000000 		call	_ZN8UnitTest11CurrentTest7ResultsEv
 5395      00
 5396 2bcc 488B38   		movq	(%rax), %rdi
 5397 2bcf 488D7424 		leaq	48(%rsp), %rsi
 5397      30
 5398 2bd4 BA000000 		movl	$.LC138, %edx
 5398      00
 5399 2bd9 E8000000 		call	_ZN8UnitTest11TestResults13OnTestFailureERKNS_11TestDetailsEPKc
 5399      00
 5400              	.LEHE98:
 5401 2bde EB9F     		jmp	.L534
 5402              		.p2align 4,,10
 5403              		.p2align 3
 5404              	.L551:
 5405              	.LEHB99:
 5406 2be0 E8000000 		call	_ZN8UnitTest11CurrentTest7DetailsEv
 5406      00
 5407 2be5 488B30   		movq	(%rax), %rsi
 5408 2be8 488D7C24 		leaq	48(%rsp), %rdi
 5408      30
 5409 2bed BA510000 		movl	$81, %edx
 5409      00
 5410 2bf2 E8000000 		call	_ZN8UnitTest11TestDetailsC1ERKS0_i
 5410      00
 5411 2bf7 E8000000 		call	_ZN8UnitTest11CurrentTest7ResultsEv
 5411      00
 5412 2bfc 488B38   		movq	(%rax), %rdi
 5413 2bff 488D7424 		leaq	48(%rsp), %rsi
 5413      30
 5414 2c04 BA000000 		movl	$.LC136, %edx
 5414      00
 5415 2c09 E8000000 		call	_ZN8UnitTest11TestResults13OnTestFailureERKNS_11TestDetailsEPKc
 5415      00
 5416              	.LEHE99:
 5417 2c0e E955FFFF 		jmp	.L532
 5417      FF
 5418              	.L553:
 5419 2c13 E8000000 		call	__stack_chk_fail
 5419      00
 5420              	.L544:
 5421 2c18 4889C7   		movq	%rax, %rdi
 5422 2c1b E8000000 		call	__cxa_begin_catch
 5422      00
 5423              	.LEHB100:
 5424 2c20 E8000000 		call	_ZN8UnitTest11CurrentTest7DetailsEv
 5424      00
 5425 2c25 488B30   		movq	(%rax), %rsi
 5426 2c28 488D7C24 		leaq	48(%rsp), %rdi
 5426      30
 5427 2c2d BA510000 		movl	$81, %edx
 5427      00
 5428 2c32 E8000000 		call	_ZN8UnitTest11TestDetailsC1ERKS0_i
 5428      00
 5429 2c37 E8000000 		call	_ZN8UnitTest11CurrentTest7ResultsEv
 5429      00
 5430 2c3c 488B38   		movq	(%rax), %rdi
 5431 2c3f 488D7424 		leaq	48(%rsp), %rsi
 5431      30
 5432 2c44 BA000000 		movl	$.LC139, %edx
 5432      00
 5433 2c49 E8000000 		call	_ZN8UnitTest11TestResults13OnTestFailureERKNS_11TestDetailsEPKc
 5433      00
 5434              	.LEHE100:
 5435              	.LEHB101:
 5436 2c4e E8000000 		call	__cxa_end_catch
 5436      00
 5437              	.LEHE101:
 5438 2c53 E910FFFF 		jmp	.L532
 5438      FF
 5439              	.L543:
 5440 2c58 4889C3   		movq	%rax, %rbx
 5441              	.L536:
 5442 2c5b 488D7C24 		leaq	80(%rsp), %rdi
 5442      50
 5443 2c60 48C74424 		movq	$_ZTV17RecordingReporter+16, 80(%rsp)
 5443      50000000 
 5443      00
 5444 2c69 E8000000 		call	_ZN8UnitTest12TestReporterD2Ev
 5444      00
 5445 2c6e 4889DF   		movq	%rbx, %rdi
 5446              	.LEHB102:
 5447 2c71 E8000000 		call	_Unwind_Resume
 5447      00
 5448              	.LEHE102:
 5449              	.L546:
 5450 2c76 4889C7   		movq	%rax, %rdi
 5451 2c79 E8000000 		call	__cxa_begin_catch
 5451      00
 5452              	.LEHB103:
 5453 2c7e E8000000 		call	_ZN8UnitTest11CurrentTest7DetailsEv
 5453      00
 5454 2c83 488B30   		movq	(%rax), %rsi
 5455 2c86 488D7C24 		leaq	48(%rsp), %rdi
 5455      30
 5456 2c8b BA520000 		movl	$82, %edx
 5456      00
 5457 2c90 E8000000 		call	_ZN8UnitTest11TestDetailsC1ERKS0_i
 5457      00
 5458 2c95 E8000000 		call	_ZN8UnitTest11CurrentTest7ResultsEv
 5458      00
 5459 2c9a 488B38   		movq	(%rax), %rdi
 5460 2c9d 488D7424 		leaq	48(%rsp), %rsi
 5460      30
 5461 2ca2 BA000000 		movl	$.LC140, %edx
 5461      00
 5462 2ca7 E8000000 		call	_ZN8UnitTest11TestResults13OnTestFailureERKNS_11TestDetailsEPKc
 5462      00
 5463              	.LEHE103:
 5464              	.LEHB104:
 5465 2cac E8000000 		call	__cxa_end_catch
 5465      00
 5466              	.LEHE104:
 5467 2cb1 E9C9FEFF 		jmp	.L534
 5467      FF
 5468              	.L545:
 5469 2cb6 4889C3   		movq	%rax, %rbx
 5470 2cb9 E8000000 		call	__cxa_end_catch
 5470      00
 5471 2cbe EB9B     		jmp	.L536
 5472              	.L547:
 5473 2cc0 4889C3   		movq	%rax, %rbx
 5474 2cc3 E8000000 		call	__cxa_end_catch
 5474      00
 5475 2cc8 EB91     		jmp	.L536
 5476              		.cfi_endproc
 5477              	.LFE1162:
 5478              		.section	.gcc_except_table
 5479              		.align 4
 5480              	.LLSDA1162:
 5481 0298 FF       		.byte	0xff
 5482 0299 03       		.byte	0x3
 5483 029a 3D       		.uleb128 .LLSDATT1162-.LLSDATTD1162
 5484              	.LLSDATTD1162:
 5485 029b 01       		.byte	0x1
 5486 029c 34       		.uleb128 .LLSDACSE1162-.LLSDACSB1162
 5487              	.LLSDACSB1162:
 5488 029d CB01     		.uleb128 .LEHB96-.LFB1162
 5489 029f 46       		.uleb128 .LEHE96-.LEHB96
 5490 02a0 9804     		.uleb128 .L543-.LFB1162
 5491 02a2 00       		.uleb128 0
 5492 02a3 CD02     		.uleb128 .LEHB97-.LFB1162
 5493 02a5 05       		.uleb128 .LEHE97-.LEHB97
 5494 02a6 00       		.uleb128 0
 5495 02a7 00       		.uleb128 0
 5496 02a8 F002     		.uleb128 .LEHB98-.LFB1162
 5497 02aa 2E       		.uleb128 .LEHE98-.LEHB98
 5498 02ab B604     		.uleb128 .L546-.LFB1162
 5499 02ad 01       		.uleb128 0x1
 5500 02ae A003     		.uleb128 .LEHB99-.LFB1162
 5501 02b0 2E       		.uleb128 .LEHE99-.LEHB99
 5502 02b1 D803     		.uleb128 .L544-.LFB1162
 5503 02b3 01       		.uleb128 0x1
 5504 02b4 E003     		.uleb128 .LEHB100-.LFB1162
 5505 02b6 2E       		.uleb128 .LEHE100-.LEHB100
 5506 02b7 F604     		.uleb128 .L545-.LFB1162
 5507 02b9 00       		.uleb128 0
 5508 02ba 8E04     		.uleb128 .LEHB101-.LFB1162
 5509 02bc 05       		.uleb128 .LEHE101-.LEHB101
 5510 02bd 9804     		.uleb128 .L543-.LFB1162
 5511 02bf 00       		.uleb128 0
 5512 02c0 B104     		.uleb128 .LEHB102-.LFB1162
 5513 02c2 05       		.uleb128 .LEHE102-.LEHB102
 5514 02c3 00       		.uleb128 0
 5515 02c4 00       		.uleb128 0
 5516 02c5 BE04     		.uleb128 .LEHB103-.LFB1162
 5517 02c7 2E       		.uleb128 .LEHE103-.LEHB103
 5518 02c8 8005     		.uleb128 .L547-.LFB1162
 5519 02ca 00       		.uleb128 0
 5520 02cb EC04     		.uleb128 .LEHB104-.LFB1162
 5521 02cd 05       		.uleb128 .LEHE104-.LEHB104
 5522 02ce 9804     		.uleb128 .L543-.LFB1162
 5523 02d0 00       		.uleb128 0
 5524              	.LLSDACSE1162:
 5525 02d1 01       		.byte	0x1
 5526 02d2 00       		.byte	0
 5527 02d3 00       		.align 4
 5528 02d4 00000000 		.long	0
 5529              	
 5530              	.LLSDATT1162:
 5531              		.text
 5533              		.section	.text.unlikely
 5534              	.LCOLDE141:
 5535              		.text
 5536              	.LHOTE141:
 5537              		.section	.rodata.str1.1
 5538              	.LC142:
 5539 00b8 48656C6C 		.string	"Hello"
 5539      6F00
 5540              		.section	.text.unlikely
 5541              		.align 2
 5542              	.LCOLDB143:
 5543              		.text
 5544              	.LHOTB143:
 5545              		.align 2
 5546 2cca 660F1F44 		.p2align 4,,15
 5546      0000
 5548              	_ZNK12_GLOBAL__N_153TestCheckEqualsWithStringsWorksOnContentsWithALiteral7RunImplEv:
 5549              	.LFB1158:
 5550              		.cfi_startproc
 5551              		.cfi_personality 0x3,__gxx_personality_v0
 5552              		.cfi_lsda 0x3,.LLSDA1158
 5553 2cd0 53       		pushq	%rbx
 5554              		.cfi_def_cfa_offset 16
 5555              		.cfi_offset 3, -16
 5556 2cd1 31F6     		xorl	%esi, %esi
 5557 2cd3 4883EC60 		subq	$96, %rsp
 5558              		.cfi_def_cfa_offset 112
 5559 2cd7 488D7C24 		leaq	16(%rsp), %rdi
 5559      10
 5560 2cdc 64488B04 		movq	%fs:40, %rax
 5560      25280000 
 5560      00
 5561 2ce5 48894424 		movq	%rax, 88(%rsp)
 5561      58
 5562 2cea 31C0     		xorl	%eax, %eax
 5563              	.LEHB105:
 5564 2cec E8000000 		call	_ZN8UnitTest11TestResultsC1EPNS_12TestReporterE
 5564      00
 5565 2cf1 B9000000 		movl	$.LC72, %ecx
 5565      00
 5566 2cf6 488D7C24 		leaq	48(%rsp), %rdi
 5566      30
 5567 2cfb 4531C0   		xorl	%r8d, %r8d
 5568 2cfe 4889CA   		movq	%rcx, %rdx
 5569 2d01 4889CE   		movq	%rcx, %rsi
 5570 2d04 E8000000 		call	_ZN8UnitTest11TestDetailsC1EPKcS2_S2_i
 5570      00
 5571 2d09 488D4C24 		leaq	48(%rsp), %rcx
 5571      30
 5572 2d0e 488D7C24 		leaq	16(%rsp), %rdi
 5572      10
 5573 2d13 BA000000 		movl	$_ZN12_GLOBAL__N_14txt1E, %edx
 5573      00
 5574 2d18 BE000000 		movl	$.LC142, %esi
 5574      00
 5575 2d1d E8000000 		call	_ZN8UnitTest10CheckEqualERNS_11TestResultsEPKcS3_RKNS_11TestDetailsE
 5575      00
 5576              	.LEHE105:
 5577              	.LEHB106:
 5578 2d22 E8000000 		call	_ZN8UnitTest11CurrentTest7DetailsEv
 5578      00
 5579 2d27 488B30   		movq	(%rax), %rsi
 5580 2d2a 488D7C24 		leaq	48(%rsp), %rdi
 5580      30
 5581 2d2f BA460000 		movl	$70, %edx
 5581      00
 5582 2d34 E8000000 		call	_ZN8UnitTest11TestDetailsC1ERKS0_i
 5582      00
 5583 2d39 488D7C24 		leaq	16(%rsp), %rdi
 5583      10
 5584 2d3e E8000000 		call	_ZNK8UnitTest11TestResults15GetFailureCountEv
 5584      00
 5585 2d43 8944240C 		movl	%eax, 12(%rsp)
 5586 2d47 C7442408 		movl	$0, 8(%rsp)
 5586      00000000 
 5587 2d4f E8000000 		call	_ZN8UnitTest11CurrentTest7ResultsEv
 5587      00
 5588 2d54 488B38   		movq	(%rax), %rdi
 5589 2d57 488D4C24 		leaq	48(%rsp), %rcx
 5589      30
 5590 2d5c 488D5424 		leaq	12(%rsp), %rdx
 5590      0C
 5591 2d61 488D7424 		leaq	8(%rsp), %rsi
 5591      08
 5592 2d66 E8000000 		call	_ZN8UnitTest10CheckEqualIiiEEvRNS_11TestResultsERKT_RKT0_RKNS_11TestDetailsE
 5592      00
 5593              	.LEHE106:
 5594              	.L554:
 5595 2d6b 488B4424 		movq	88(%rsp), %rax
 5595      58
 5596 2d70 64483304 		xorq	%fs:40, %rax
 5596      25280000 
 5596      00
 5597 2d79 7506     		jne	.L562
 5598 2d7b 4883C460 		addq	$96, %rsp
 5599              		.cfi_remember_state
 5600              		.cfi_def_cfa_offset 16
 5601 2d7f 5B       		popq	%rbx
 5602              		.cfi_def_cfa_offset 8
 5603 2d80 C3       		ret
 5604              	.L562:
 5605              		.cfi_restore_state
 5606 2d81 E8000000 		call	__stack_chk_fail
 5606      00
 5607              	.L559:
 5608 2d86 4889C7   		movq	%rax, %rdi
 5609 2d89 E8000000 		call	__cxa_begin_catch
 5609      00
 5610              	.LEHB107:
 5611 2d8e E8000000 		call	_ZN8UnitTest11CurrentTest7DetailsEv
 5611      00
 5612 2d93 488B30   		movq	(%rax), %rsi
 5613 2d96 488D7C24 		leaq	48(%rsp), %rdi
 5613      30
 5614 2d9b BA460000 		movl	$70, %edx
 5614      00
 5615 2da0 E8000000 		call	_ZN8UnitTest11TestDetailsC1ERKS0_i
 5615      00
 5616 2da5 E8000000 		call	_ZN8UnitTest11CurrentTest7ResultsEv
 5616      00
 5617 2daa 488B38   		movq	(%rax), %rdi
 5618 2dad 488D7424 		leaq	48(%rsp), %rsi
 5618      30
 5619 2db2 BA000000 		movl	$.LC125, %edx
 5619      00
 5620 2db7 E8000000 		call	_ZN8UnitTest11TestResults13OnTestFailureERKNS_11TestDetailsEPKc
 5620      00
 5621              	.LEHE107:
 5622              	.LEHB108:
 5623 2dbc E8000000 		call	__cxa_end_catch
 5623      00
 5624              	.LEHE108:
 5625 2dc1 EBA8     		jmp	.L554
 5626              	.L560:
 5627 2dc3 4889C3   		movq	%rax, %rbx
 5628 2dc6 E8000000 		call	__cxa_end_catch
 5628      00
 5629 2dcb 4889DF   		movq	%rbx, %rdi
 5630              	.LEHB109:
 5631 2dce E8000000 		call	_Unwind_Resume
 5631      00
 5632              	.LEHE109:
 5633              		.cfi_endproc
 5634              	.LFE1158:
 5635              		.section	.gcc_except_table
 5636              		.align 4
 5637              	.LLSDA1158:
 5638 02d8 FF       		.byte	0xff
 5639 02d9 03       		.byte	0x3
 5640 02da 21       		.uleb128 .LLSDATT1158-.LLSDATTD1158
 5641              	.LLSDATTD1158:
 5642 02db 01       		.byte	0x1
 5643 02dc 19       		.uleb128 .LLSDACSE1158-.LLSDACSB1158
 5644              	.LLSDACSB1158:
 5645 02dd 1C       		.uleb128 .LEHB105-.LFB1158
 5646 02de 36       		.uleb128 .LEHE105-.LEHB105
 5647 02df 00       		.uleb128 0
 5648 02e0 00       		.uleb128 0
 5649 02e1 52       		.uleb128 .LEHB106-.LFB1158
 5650 02e2 49       		.uleb128 .LEHE106-.LEHB106
 5651 02e3 B601     		.uleb128 .L559-.LFB1158
 5652 02e5 01       		.uleb128 0x1
 5653 02e6 BE01     		.uleb128 .LEHB107-.LFB1158
 5654 02e8 2E       		.uleb128 .LEHE107-.LEHB107
 5655 02e9 F301     		.uleb128 .L560-.LFB1158
 5656 02eb 00       		.uleb128 0
 5657 02ec EC01     		.uleb128 .LEHB108-.LFB1158
 5658 02ee 05       		.uleb128 .LEHE108-.LEHB108
 5659 02ef 00       		.uleb128 0
 5660 02f0 00       		.uleb128 0
 5661 02f1 FE01     		.uleb128 .LEHB109-.LFB1158
 5662 02f3 05       		.uleb128 .LEHE109-.LEHB109
 5663 02f4 00       		.uleb128 0
 5664 02f5 00       		.uleb128 0
 5665              	.LLSDACSE1158:
 5666 02f6 01       		.byte	0x1
 5667 02f7 00       		.byte	0
 5668              		.align 4
 5669 02f8 00000000 		.long	0
 5670              	
 5671              	.LLSDATT1158:
 5672              		.text
 5674              		.section	.text.unlikely
 5675              	.LCOLDE143:
 5676              		.text
 5677              	.LHOTE143:
 5678              		.section	.text.unlikely
 5679              		.align 2
 5680              	.LCOLDB144:
 5681              		.text
 5682              	.LHOTB144:
 5683 2dd3 90       		.align 2
 5684 2dd4 6690662E 		.p2align 4,,15
 5684      0F1F8400 
 5684      00000000 
 5686              	_ZNK12_GLOBAL__N_154TestCheckEqualsWithStringsWorksOnContentsConstNonConst7RunImplEv:
 5687              	.LFB1154:
 5688              		.cfi_startproc
 5689              		.cfi_personality 0x3,__gxx_personality_v0
 5690              		.cfi_lsda 0x3,.LLSDA1154
 5691 2de0 53       		pushq	%rbx
 5692              		.cfi_def_cfa_offset 16
 5693              		.cfi_offset 3, -16
 5694 2de1 31F6     		xorl	%esi, %esi
 5695 2de3 4883EC60 		subq	$96, %rsp
 5696              		.cfi_def_cfa_offset 112
 5697 2de7 488D7C24 		leaq	16(%rsp), %rdi
 5697      10
 5698 2dec 64488B04 		movq	%fs:40, %rax
 5698      25280000 
 5698      00
 5699 2df5 48894424 		movq	%rax, 88(%rsp)
 5699      58
 5700 2dfa 31C0     		xorl	%eax, %eax
 5701              	.LEHB110:
 5702 2dfc E8000000 		call	_ZN8UnitTest11TestResultsC1EPNS_12TestReporterE
 5702      00
 5703 2e01 B9000000 		movl	$.LC72, %ecx
 5703      00
 5704 2e06 488D7C24 		leaq	48(%rsp), %rdi
 5704      30
 5705 2e0b 4531C0   		xorl	%r8d, %r8d
 5706 2e0e 4889CA   		movq	%rcx, %rdx
 5707 2e11 4889CE   		movq	%rcx, %rsi
 5708 2e14 E8000000 		call	_ZN8UnitTest11TestDetailsC1EPKcS2_S2_i
 5708      00
 5709 2e19 488D4C24 		leaq	48(%rsp), %rcx
 5709      30
 5710 2e1e 488D7C24 		leaq	16(%rsp), %rdi
 5710      10
 5711 2e23 BA000000 		movl	$_ZN12_GLOBAL__N_14txt2E, %edx
 5711      00
 5712 2e28 BE000000 		movl	$_ZN12_GLOBAL__N_14txt1E, %esi
 5712      00
 5713 2e2d E8000000 		call	_ZN8UnitTest10CheckEqualERNS_11TestResultsEPKcPcRKNS_11TestDetailsE
 5713      00
 5714              	.LEHE110:
 5715              	.LEHB111:
 5716 2e32 E8000000 		call	_ZN8UnitTest11CurrentTest7DetailsEv
 5716      00
 5717 2e37 488B30   		movq	(%rax), %rsi
 5718 2e3a 488D7C24 		leaq	48(%rsp), %rdi
 5718      30
 5719 2e3f BA3E0000 		movl	$62, %edx
 5719      00
 5720 2e44 E8000000 		call	_ZN8UnitTest11TestDetailsC1ERKS0_i
 5720      00
 5721 2e49 488D7C24 		leaq	16(%rsp), %rdi
 5721      10
 5722 2e4e E8000000 		call	_ZNK8UnitTest11TestResults15GetFailureCountEv
 5722      00
 5723 2e53 8944240C 		movl	%eax, 12(%rsp)
 5724 2e57 C7442408 		movl	$0, 8(%rsp)
 5724      00000000 
 5725 2e5f E8000000 		call	_ZN8UnitTest11CurrentTest7ResultsEv
 5725      00
 5726 2e64 488B38   		movq	(%rax), %rdi
 5727 2e67 488D4C24 		leaq	48(%rsp), %rcx
 5727      30
 5728 2e6c 488D5424 		leaq	12(%rsp), %rdx
 5728      0C
 5729 2e71 488D7424 		leaq	8(%rsp), %rsi
 5729      08
 5730 2e76 E8000000 		call	_ZN8UnitTest10CheckEqualIiiEEvRNS_11TestResultsERKT_RKT0_RKNS_11TestDetailsE
 5730      00
 5731              	.LEHE111:
 5732              	.L563:
 5733 2e7b 488B4424 		movq	88(%rsp), %rax
 5733      58
 5734 2e80 64483304 		xorq	%fs:40, %rax
 5734      25280000 
 5734      00
 5735 2e89 7506     		jne	.L571
 5736 2e8b 4883C460 		addq	$96, %rsp
 5737              		.cfi_remember_state
 5738              		.cfi_def_cfa_offset 16
 5739 2e8f 5B       		popq	%rbx
 5740              		.cfi_def_cfa_offset 8
 5741 2e90 C3       		ret
 5742              	.L571:
 5743              		.cfi_restore_state
 5744 2e91 E8000000 		call	__stack_chk_fail
 5744      00
 5745              	.L568:
 5746 2e96 4889C7   		movq	%rax, %rdi
 5747 2e99 E8000000 		call	__cxa_begin_catch
 5747      00
 5748              	.LEHB112:
 5749 2e9e E8000000 		call	_ZN8UnitTest11CurrentTest7DetailsEv
 5749      00
 5750 2ea3 488B30   		movq	(%rax), %rsi
 5751 2ea6 488D7C24 		leaq	48(%rsp), %rdi
 5751      30
 5752 2eab BA3E0000 		movl	$62, %edx
 5752      00
 5753 2eb0 E8000000 		call	_ZN8UnitTest11TestDetailsC1ERKS0_i
 5753      00
 5754 2eb5 E8000000 		call	_ZN8UnitTest11CurrentTest7ResultsEv
 5754      00
 5755 2eba 488B38   		movq	(%rax), %rdi
 5756 2ebd 488D7424 		leaq	48(%rsp), %rsi
 5756      30
 5757 2ec2 BA000000 		movl	$.LC125, %edx
 5757      00
 5758 2ec7 E8000000 		call	_ZN8UnitTest11TestResults13OnTestFailureERKNS_11TestDetailsEPKc
 5758      00
 5759              	.LEHE112:
 5760              	.LEHB113:
 5761 2ecc E8000000 		call	__cxa_end_catch
 5761      00
 5762              	.LEHE113:
 5763 2ed1 EBA8     		jmp	.L563
 5764              	.L569:
 5765 2ed3 4889C3   		movq	%rax, %rbx
 5766 2ed6 E8000000 		call	__cxa_end_catch
 5766      00
 5767 2edb 4889DF   		movq	%rbx, %rdi
 5768              	.LEHB114:
 5769 2ede E8000000 		call	_Unwind_Resume
 5769      00
 5770              	.LEHE114:
 5771              		.cfi_endproc
 5772              	.LFE1154:
 5773              		.section	.gcc_except_table
 5774              		.align 4
 5775              	.LLSDA1154:
 5776 02fc FF       		.byte	0xff
 5777 02fd 03       		.byte	0x3
 5778 02fe 21       		.uleb128 .LLSDATT1154-.LLSDATTD1154
 5779              	.LLSDATTD1154:
 5780 02ff 01       		.byte	0x1
 5781 0300 19       		.uleb128 .LLSDACSE1154-.LLSDACSB1154
 5782              	.LLSDACSB1154:
 5783 0301 1C       		.uleb128 .LEHB110-.LFB1154
 5784 0302 36       		.uleb128 .LEHE110-.LEHB110
 5785 0303 00       		.uleb128 0
 5786 0304 00       		.uleb128 0
 5787 0305 52       		.uleb128 .LEHB111-.LFB1154
 5788 0306 49       		.uleb128 .LEHE111-.LEHB111
 5789 0307 B601     		.uleb128 .L568-.LFB1154
 5790 0309 01       		.uleb128 0x1
 5791 030a BE01     		.uleb128 .LEHB112-.LFB1154
 5792 030c 2E       		.uleb128 .LEHE112-.LEHB112
 5793 030d F301     		.uleb128 .L569-.LFB1154
 5794 030f 00       		.uleb128 0
 5795 0310 EC01     		.uleb128 .LEHB113-.LFB1154
 5796 0312 05       		.uleb128 .LEHE113-.LEHB113
 5797 0313 00       		.uleb128 0
 5798 0314 00       		.uleb128 0
 5799 0315 FE01     		.uleb128 .LEHB114-.LFB1154
 5800 0317 05       		.uleb128 .LEHE114-.LEHB114
 5801 0318 00       		.uleb128 0
 5802 0319 00       		.uleb128 0
 5803              	.LLSDACSE1154:
 5804 031a 01       		.byte	0x1
 5805 031b 00       		.byte	0
 5806              		.align 4
 5807 031c 00000000 		.long	0
 5808              	
 5809              	.LLSDATT1154:
 5810              		.text
 5812              		.section	.text.unlikely
 5813              	.LCOLDE144:
 5814              		.text
 5815              	.LHOTE144:
 5816              		.section	.text.unlikely
 5817              		.align 2
 5818              	.LCOLDB145:
 5819              		.text
 5820              	.LHOTB145:
 5821 2ee3 90       		.align 2
 5822 2ee4 6690662E 		.p2align 4,,15
 5822      0F1F8400 
 5822      00000000 
 5824              	_ZNK12_GLOBAL__N_154TestCheckEqualsWithStringsWorksOnContentsNonConstConst7RunImplEv:
 5825              	.LFB1150:
 5826              		.cfi_startproc
 5827              		.cfi_personality 0x3,__gxx_personality_v0
 5828              		.cfi_lsda 0x3,.LLSDA1150
 5829 2ef0 53       		pushq	%rbx
 5830              		.cfi_def_cfa_offset 16
 5831              		.cfi_offset 3, -16
 5832 2ef1 31F6     		xorl	%esi, %esi
 5833 2ef3 4883EC60 		subq	$96, %rsp
 5834              		.cfi_def_cfa_offset 112
 5835 2ef7 488D7C24 		leaq	16(%rsp), %rdi
 5835      10
 5836 2efc 64488B04 		movq	%fs:40, %rax
 5836      25280000 
 5836      00
 5837 2f05 48894424 		movq	%rax, 88(%rsp)
 5837      58
 5838 2f0a 31C0     		xorl	%eax, %eax
 5839              	.LEHB115:
 5840 2f0c E8000000 		call	_ZN8UnitTest11TestResultsC1EPNS_12TestReporterE
 5840      00
 5841 2f11 B9000000 		movl	$.LC72, %ecx
 5841      00
 5842 2f16 488D7C24 		leaq	48(%rsp), %rdi
 5842      30
 5843 2f1b 4531C0   		xorl	%r8d, %r8d
 5844 2f1e 4889CA   		movq	%rcx, %rdx
 5845 2f21 4889CE   		movq	%rcx, %rsi
 5846 2f24 E8000000 		call	_ZN8UnitTest11TestDetailsC1EPKcS2_S2_i
 5846      00
 5847 2f29 488D4C24 		leaq	48(%rsp), %rcx
 5847      30
 5848 2f2e 488D7C24 		leaq	16(%rsp), %rdi
 5848      10
 5849 2f33 BA000000 		movl	$_ZN12_GLOBAL__N_14txt2E, %edx
 5849      00
 5850 2f38 BE000000 		movl	$_ZN12_GLOBAL__N_14txt1E, %esi
 5850      00
 5851 2f3d E8000000 		call	_ZN8UnitTest10CheckEqualERNS_11TestResultsEPcPKcRKNS_11TestDetailsE
 5851      00
 5852              	.LEHE115:
 5853              	.LEHB116:
 5854 2f42 E8000000 		call	_ZN8UnitTest11CurrentTest7DetailsEv
 5854      00
 5855 2f47 488B30   		movq	(%rax), %rsi
 5856 2f4a 488D7C24 		leaq	48(%rsp), %rdi
 5856      30
 5857 2f4f BA350000 		movl	$53, %edx
 5857      00
 5858 2f54 E8000000 		call	_ZN8UnitTest11TestDetailsC1ERKS0_i
 5858      00
 5859 2f59 488D7C24 		leaq	16(%rsp), %rdi
 5859      10
 5860 2f5e E8000000 		call	_ZNK8UnitTest11TestResults15GetFailureCountEv
 5860      00
 5861 2f63 8944240C 		movl	%eax, 12(%rsp)
 5862 2f67 C7442408 		movl	$0, 8(%rsp)
 5862      00000000 
 5863 2f6f E8000000 		call	_ZN8UnitTest11CurrentTest7ResultsEv
 5863      00
 5864 2f74 488B38   		movq	(%rax), %rdi
 5865 2f77 488D4C24 		leaq	48(%rsp), %rcx
 5865      30
 5866 2f7c 488D5424 		leaq	12(%rsp), %rdx
 5866      0C
 5867 2f81 488D7424 		leaq	8(%rsp), %rsi
 5867      08
 5868 2f86 E8000000 		call	_ZN8UnitTest10CheckEqualIiiEEvRNS_11TestResultsERKT_RKT0_RKNS_11TestDetailsE
 5868      00
 5869              	.LEHE116:
 5870              	.L572:
 5871 2f8b 488B4424 		movq	88(%rsp), %rax
 5871      58
 5872 2f90 64483304 		xorq	%fs:40, %rax
 5872      25280000 
 5872      00
 5873 2f99 7506     		jne	.L580
 5874 2f9b 4883C460 		addq	$96, %rsp
 5875              		.cfi_remember_state
 5876              		.cfi_def_cfa_offset 16
 5877 2f9f 5B       		popq	%rbx
 5878              		.cfi_def_cfa_offset 8
 5879 2fa0 C3       		ret
 5880              	.L580:
 5881              		.cfi_restore_state
 5882 2fa1 E8000000 		call	__stack_chk_fail
 5882      00
 5883              	.L577:
 5884 2fa6 4889C7   		movq	%rax, %rdi
 5885 2fa9 E8000000 		call	__cxa_begin_catch
 5885      00
 5886              	.LEHB117:
 5887 2fae E8000000 		call	_ZN8UnitTest11CurrentTest7DetailsEv
 5887      00
 5888 2fb3 488B30   		movq	(%rax), %rsi
 5889 2fb6 488D7C24 		leaq	48(%rsp), %rdi
 5889      30
 5890 2fbb BA350000 		movl	$53, %edx
 5890      00
 5891 2fc0 E8000000 		call	_ZN8UnitTest11TestDetailsC1ERKS0_i
 5891      00
 5892 2fc5 E8000000 		call	_ZN8UnitTest11CurrentTest7ResultsEv
 5892      00
 5893 2fca 488B38   		movq	(%rax), %rdi
 5894 2fcd 488D7424 		leaq	48(%rsp), %rsi
 5894      30
 5895 2fd2 BA000000 		movl	$.LC125, %edx
 5895      00
 5896 2fd7 E8000000 		call	_ZN8UnitTest11TestResults13OnTestFailureERKNS_11TestDetailsEPKc
 5896      00
 5897              	.LEHE117:
 5898              	.LEHB118:
 5899 2fdc E8000000 		call	__cxa_end_catch
 5899      00
 5900              	.LEHE118:
 5901 2fe1 EBA8     		jmp	.L572
 5902              	.L578:
 5903 2fe3 4889C3   		movq	%rax, %rbx
 5904 2fe6 E8000000 		call	__cxa_end_catch
 5904      00
 5905 2feb 4889DF   		movq	%rbx, %rdi
 5906              	.LEHB119:
 5907 2fee E8000000 		call	_Unwind_Resume
 5907      00
 5908              	.LEHE119:
 5909              		.cfi_endproc
 5910              	.LFE1150:
 5911              		.section	.gcc_except_table
 5912              		.align 4
 5913              	.LLSDA1150:
 5914 0320 FF       		.byte	0xff
 5915 0321 03       		.byte	0x3
 5916 0322 21       		.uleb128 .LLSDATT1150-.LLSDATTD1150
 5917              	.LLSDATTD1150:
 5918 0323 01       		.byte	0x1
 5919 0324 19       		.uleb128 .LLSDACSE1150-.LLSDACSB1150
 5920              	.LLSDACSB1150:
 5921 0325 1C       		.uleb128 .LEHB115-.LFB1150
 5922 0326 36       		.uleb128 .LEHE115-.LEHB115
 5923 0327 00       		.uleb128 0
 5924 0328 00       		.uleb128 0
 5925 0329 52       		.uleb128 .LEHB116-.LFB1150
 5926 032a 49       		.uleb128 .LEHE116-.LEHB116
 5927 032b B601     		.uleb128 .L577-.LFB1150
 5928 032d 01       		.uleb128 0x1
 5929 032e BE01     		.uleb128 .LEHB117-.LFB1150
 5930 0330 2E       		.uleb128 .LEHE117-.LEHB117
 5931 0331 F301     		.uleb128 .L578-.LFB1150
 5932 0333 00       		.uleb128 0
 5933 0334 EC01     		.uleb128 .LEHB118-.LFB1150
 5934 0336 05       		.uleb128 .LEHE118-.LEHB118
 5935 0337 00       		.uleb128 0
 5936 0338 00       		.uleb128 0
 5937 0339 FE01     		.uleb128 .LEHB119-.LFB1150
 5938 033b 05       		.uleb128 .LEHE119-.LEHB119
 5939 033c 00       		.uleb128 0
 5940 033d 00       		.uleb128 0
 5941              	.LLSDACSE1150:
 5942 033e 01       		.byte	0x1
 5943 033f 00       		.byte	0
 5944              		.align 4
 5945 0340 00000000 		.long	0
 5946              	
 5947              	.LLSDATT1150:
 5948              		.text
 5950              		.section	.text.unlikely
 5951              	.LCOLDE145:
 5952              		.text
 5953              	.LHOTE145:
 5954              		.section	.text.unlikely
 5955              		.align 2
 5956              	.LCOLDB146:
 5957              		.text
 5958              	.LHOTB146:
 5959 2ff3 90       		.align 2
 5960 2ff4 6690662E 		.p2align 4,,15
 5960      0F1F8400 
 5960      00000000 
 5962              	_ZNK12_GLOBAL__N_151TestCheckEqualsWithStringsWorksOnContentsConstConst7RunImplEv:
 5963              	.LFB1146:
 5964              		.cfi_startproc
 5965              		.cfi_personality 0x3,__gxx_personality_v0
 5966              		.cfi_lsda 0x3,.LLSDA1146
 5967 3000 53       		pushq	%rbx
 5968              		.cfi_def_cfa_offset 16
 5969              		.cfi_offset 3, -16
 5970 3001 31F6     		xorl	%esi, %esi
 5971 3003 4883EC60 		subq	$96, %rsp
 5972              		.cfi_def_cfa_offset 112
 5973 3007 488D7C24 		leaq	16(%rsp), %rdi
 5973      10
 5974 300c 64488B04 		movq	%fs:40, %rax
 5974      25280000 
 5974      00
 5975 3015 48894424 		movq	%rax, 88(%rsp)
 5975      58
 5976 301a 31C0     		xorl	%eax, %eax
 5977              	.LEHB120:
 5978 301c E8000000 		call	_ZN8UnitTest11TestResultsC1EPNS_12TestReporterE
 5978      00
 5979 3021 B9000000 		movl	$.LC72, %ecx
 5979      00
 5980 3026 488D7C24 		leaq	48(%rsp), %rdi
 5980      30
 5981 302b 4531C0   		xorl	%r8d, %r8d
 5982 302e 4889CA   		movq	%rcx, %rdx
 5983 3031 4889CE   		movq	%rcx, %rsi
 5984 3034 E8000000 		call	_ZN8UnitTest11TestDetailsC1EPKcS2_S2_i
 5984      00
 5985 3039 488D4C24 		leaq	48(%rsp), %rcx
 5985      30
 5986 303e 488D7C24 		leaq	16(%rsp), %rdi
 5986      10
 5987 3043 BA000000 		movl	$_ZN12_GLOBAL__N_14txt2E, %edx
 5987      00
 5988 3048 BE000000 		movl	$_ZN12_GLOBAL__N_14txt1E, %esi
 5988      00
 5989 304d E8000000 		call	_ZN8UnitTest10CheckEqualERNS_11TestResultsEPcS2_RKNS_11TestDetailsE
 5989      00
 5990              	.LEHE120:
 5991              	.LEHB121:
 5992 3052 E8000000 		call	_ZN8UnitTest11CurrentTest7DetailsEv
 5992      00
 5993 3057 488B30   		movq	(%rax), %rsi
 5994 305a 488D7C24 		leaq	48(%rsp), %rdi
 5994      30
 5995 305f BA2C0000 		movl	$44, %edx
 5995      00
 5996 3064 E8000000 		call	_ZN8UnitTest11TestDetailsC1ERKS0_i
 5996      00
 5997 3069 488D7C24 		leaq	16(%rsp), %rdi
 5997      10
 5998 306e E8000000 		call	_ZNK8UnitTest11TestResults15GetFailureCountEv
 5998      00
 5999 3073 8944240C 		movl	%eax, 12(%rsp)
 6000 3077 C7442408 		movl	$0, 8(%rsp)
 6000      00000000 
 6001 307f E8000000 		call	_ZN8UnitTest11CurrentTest7ResultsEv
 6001      00
 6002 3084 488B38   		movq	(%rax), %rdi
 6003 3087 488D4C24 		leaq	48(%rsp), %rcx
 6003      30
 6004 308c 488D5424 		leaq	12(%rsp), %rdx
 6004      0C
 6005 3091 488D7424 		leaq	8(%rsp), %rsi
 6005      08
 6006 3096 E8000000 		call	_ZN8UnitTest10CheckEqualIiiEEvRNS_11TestResultsERKT_RKT0_RKNS_11TestDetailsE
 6006      00
 6007              	.LEHE121:
 6008              	.L581:
 6009 309b 488B4424 		movq	88(%rsp), %rax
 6009      58
 6010 30a0 64483304 		xorq	%fs:40, %rax
 6010      25280000 
 6010      00
 6011 30a9 7506     		jne	.L589
 6012 30ab 4883C460 		addq	$96, %rsp
 6013              		.cfi_remember_state
 6014              		.cfi_def_cfa_offset 16
 6015 30af 5B       		popq	%rbx
 6016              		.cfi_def_cfa_offset 8
 6017 30b0 C3       		ret
 6018              	.L589:
 6019              		.cfi_restore_state
 6020 30b1 E8000000 		call	__stack_chk_fail
 6020      00
 6021              	.L586:
 6022 30b6 4889C7   		movq	%rax, %rdi
 6023 30b9 E8000000 		call	__cxa_begin_catch
 6023      00
 6024              	.LEHB122:
 6025 30be E8000000 		call	_ZN8UnitTest11CurrentTest7DetailsEv
 6025      00
 6026 30c3 488B30   		movq	(%rax), %rsi
 6027 30c6 488D7C24 		leaq	48(%rsp), %rdi
 6027      30
 6028 30cb BA2C0000 		movl	$44, %edx
 6028      00
 6029 30d0 E8000000 		call	_ZN8UnitTest11TestDetailsC1ERKS0_i
 6029      00
 6030 30d5 E8000000 		call	_ZN8UnitTest11CurrentTest7ResultsEv
 6030      00
 6031 30da 488B38   		movq	(%rax), %rdi
 6032 30dd 488D7424 		leaq	48(%rsp), %rsi
 6032      30
 6033 30e2 BA000000 		movl	$.LC125, %edx
 6033      00
 6034 30e7 E8000000 		call	_ZN8UnitTest11TestResults13OnTestFailureERKNS_11TestDetailsEPKc
 6034      00
 6035              	.LEHE122:
 6036              	.LEHB123:
 6037 30ec E8000000 		call	__cxa_end_catch
 6037      00
 6038              	.LEHE123:
 6039 30f1 EBA8     		jmp	.L581
 6040              	.L587:
 6041 30f3 4889C3   		movq	%rax, %rbx
 6042 30f6 E8000000 		call	__cxa_end_catch
 6042      00
 6043 30fb 4889DF   		movq	%rbx, %rdi
 6044              	.LEHB124:
 6045 30fe E8000000 		call	_Unwind_Resume
 6045      00
 6046              	.LEHE124:
 6047              		.cfi_endproc
 6048              	.LFE1146:
 6049              		.section	.gcc_except_table
 6050              		.align 4
 6051              	.LLSDA1146:
 6052 0344 FF       		.byte	0xff
 6053 0345 03       		.byte	0x3
 6054 0346 21       		.uleb128 .LLSDATT1146-.LLSDATTD1146
 6055              	.LLSDATTD1146:
 6056 0347 01       		.byte	0x1
 6057 0348 19       		.uleb128 .LLSDACSE1146-.LLSDACSB1146
 6058              	.LLSDACSB1146:
 6059 0349 1C       		.uleb128 .LEHB120-.LFB1146
 6060 034a 36       		.uleb128 .LEHE120-.LEHB120
 6061 034b 00       		.uleb128 0
 6062 034c 00       		.uleb128 0
 6063 034d 52       		.uleb128 .LEHB121-.LFB1146
 6064 034e 49       		.uleb128 .LEHE121-.LEHB121
 6065 034f B601     		.uleb128 .L586-.LFB1146
 6066 0351 01       		.uleb128 0x1
 6067 0352 BE01     		.uleb128 .LEHB122-.LFB1146
 6068 0354 2E       		.uleb128 .LEHE122-.LEHB122
 6069 0355 F301     		.uleb128 .L587-.LFB1146
 6070 0357 00       		.uleb128 0
 6071 0358 EC01     		.uleb128 .LEHB123-.LFB1146
 6072 035a 05       		.uleb128 .LEHE123-.LEHB123
 6073 035b 00       		.uleb128 0
 6074 035c 00       		.uleb128 0
 6075 035d FE01     		.uleb128 .LEHB124-.LFB1146
 6076 035f 05       		.uleb128 .LEHE124-.LEHB124
 6077 0360 00       		.uleb128 0
 6078 0361 00       		.uleb128 0
 6079              	.LLSDACSE1146:
 6080 0362 01       		.byte	0x1
 6081 0363 00       		.byte	0
 6082              		.align 4
 6083 0364 00000000 		.long	0
 6084              	
 6085              	.LLSDATT1146:
 6086              		.text
 6088              		.section	.text.unlikely
 6089              	.LCOLDE146:
 6090              		.text
 6091              	.LHOTE146:
 6092              		.section	.text.unlikely
 6093              		.align 2
 6094              	.LCOLDB147:
 6095              		.text
 6096              	.LHOTB147:
 6097 3103 90       		.align 2
 6098 3104 6690662E 		.p2align 4,,15
 6098      0F1F8400 
 6098      00000000 
 6100              	_ZNK12_GLOBAL__N_157TestCheckEqualsWithStringsWorksOnContentsNonConstNonConst7RunImplEv:
 6101              	.LFB1142:
 6102              		.cfi_startproc
 6103              		.cfi_personality 0x3,__gxx_personality_v0
 6104              		.cfi_lsda 0x3,.LLSDA1142
 6105 3110 53       		pushq	%rbx
 6106              		.cfi_def_cfa_offset 16
 6107              		.cfi_offset 3, -16
 6108 3111 31F6     		xorl	%esi, %esi
 6109 3113 4883EC60 		subq	$96, %rsp
 6110              		.cfi_def_cfa_offset 112
 6111 3117 488D7C24 		leaq	16(%rsp), %rdi
 6111      10
 6112 311c 64488B04 		movq	%fs:40, %rax
 6112      25280000 
 6112      00
 6113 3125 48894424 		movq	%rax, 88(%rsp)
 6113      58
 6114 312a 31C0     		xorl	%eax, %eax
 6115              	.LEHB125:
 6116 312c E8000000 		call	_ZN8UnitTest11TestResultsC1EPNS_12TestReporterE
 6116      00
 6117 3131 B9000000 		movl	$.LC72, %ecx
 6117      00
 6118 3136 488D7C24 		leaq	48(%rsp), %rdi
 6118      30
 6119 313b 4531C0   		xorl	%r8d, %r8d
 6120 313e 4889CA   		movq	%rcx, %rdx
 6121 3141 4889CE   		movq	%rcx, %rsi
 6122 3144 E8000000 		call	_ZN8UnitTest11TestDetailsC1EPKcS2_S2_i
 6122      00
 6123 3149 488D4C24 		leaq	48(%rsp), %rcx
 6123      30
 6124 314e 488D7C24 		leaq	16(%rsp), %rdi
 6124      10
 6125 3153 BA000000 		movl	$_ZN12_GLOBAL__N_14txt2E, %edx
 6125      00
 6126 3158 BE000000 		movl	$_ZN12_GLOBAL__N_14txt1E, %esi
 6126      00
 6127 315d E8000000 		call	_ZN8UnitTest10CheckEqualERNS_11TestResultsEPKcS3_RKNS_11TestDetailsE
 6127      00
 6128              	.LEHE125:
 6129              	.LEHB126:
 6130 3162 E8000000 		call	_ZN8UnitTest11CurrentTest7DetailsEv
 6130      00
 6131 3167 488B30   		movq	(%rax), %rsi
 6132 316a 488D7C24 		leaq	48(%rsp), %rdi
 6132      30
 6133 316f BA230000 		movl	$35, %edx
 6133      00
 6134 3174 E8000000 		call	_ZN8UnitTest11TestDetailsC1ERKS0_i
 6134      00
 6135 3179 488D7C24 		leaq	16(%rsp), %rdi
 6135      10
 6136 317e E8000000 		call	_ZNK8UnitTest11TestResults15GetFailureCountEv
 6136      00
 6137 3183 8944240C 		movl	%eax, 12(%rsp)
 6138 3187 C7442408 		movl	$0, 8(%rsp)
 6138      00000000 
 6139 318f E8000000 		call	_ZN8UnitTest11CurrentTest7ResultsEv
 6139      00
 6140 3194 488B38   		movq	(%rax), %rdi
 6141 3197 488D4C24 		leaq	48(%rsp), %rcx
 6141      30
 6142 319c 488D5424 		leaq	12(%rsp), %rdx
 6142      0C
 6143 31a1 488D7424 		leaq	8(%rsp), %rsi
 6143      08
 6144 31a6 E8000000 		call	_ZN8UnitTest10CheckEqualIiiEEvRNS_11TestResultsERKT_RKT0_RKNS_11TestDetailsE
 6144      00
 6145              	.LEHE126:
 6146              	.L590:
 6147 31ab 488B4424 		movq	88(%rsp), %rax
 6147      58
 6148 31b0 64483304 		xorq	%fs:40, %rax
 6148      25280000 
 6148      00
 6149 31b9 7506     		jne	.L598
 6150 31bb 4883C460 		addq	$96, %rsp
 6151              		.cfi_remember_state
 6152              		.cfi_def_cfa_offset 16
 6153 31bf 5B       		popq	%rbx
 6154              		.cfi_def_cfa_offset 8
 6155 31c0 C3       		ret
 6156              	.L598:
 6157              		.cfi_restore_state
 6158 31c1 E8000000 		call	__stack_chk_fail
 6158      00
 6159              	.L595:
 6160 31c6 4889C7   		movq	%rax, %rdi
 6161 31c9 E8000000 		call	__cxa_begin_catch
 6161      00
 6162              	.LEHB127:
 6163 31ce E8000000 		call	_ZN8UnitTest11CurrentTest7DetailsEv
 6163      00
 6164 31d3 488B30   		movq	(%rax), %rsi
 6165 31d6 488D7C24 		leaq	48(%rsp), %rdi
 6165      30
 6166 31db BA230000 		movl	$35, %edx
 6166      00
 6167 31e0 E8000000 		call	_ZN8UnitTest11TestDetailsC1ERKS0_i
 6167      00
 6168 31e5 E8000000 		call	_ZN8UnitTest11CurrentTest7ResultsEv
 6168      00
 6169 31ea 488B38   		movq	(%rax), %rdi
 6170 31ed 488D7424 		leaq	48(%rsp), %rsi
 6170      30
 6171 31f2 BA000000 		movl	$.LC125, %edx
 6171      00
 6172 31f7 E8000000 		call	_ZN8UnitTest11TestResults13OnTestFailureERKNS_11TestDetailsEPKc
 6172      00
 6173              	.LEHE127:
 6174              	.LEHB128:
 6175 31fc E8000000 		call	__cxa_end_catch
 6175      00
 6176              	.LEHE128:
 6177 3201 EBA8     		jmp	.L590
 6178              	.L596:
 6179 3203 4889C3   		movq	%rax, %rbx
 6180 3206 E8000000 		call	__cxa_end_catch
 6180      00
 6181 320b 4889DF   		movq	%rbx, %rdi
 6182              	.LEHB129:
 6183 320e E8000000 		call	_Unwind_Resume
 6183      00
 6184              	.LEHE129:
 6185              		.cfi_endproc
 6186              	.LFE1142:
 6187              		.section	.gcc_except_table
 6188              		.align 4
 6189              	.LLSDA1142:
 6190 0368 FF       		.byte	0xff
 6191 0369 03       		.byte	0x3
 6192 036a 21       		.uleb128 .LLSDATT1142-.LLSDATTD1142
 6193              	.LLSDATTD1142:
 6194 036b 01       		.byte	0x1
 6195 036c 19       		.uleb128 .LLSDACSE1142-.LLSDACSB1142
 6196              	.LLSDACSB1142:
 6197 036d 1C       		.uleb128 .LEHB125-.LFB1142
 6198 036e 36       		.uleb128 .LEHE125-.LEHB125
 6199 036f 00       		.uleb128 0
 6200 0370 00       		.uleb128 0
 6201 0371 52       		.uleb128 .LEHB126-.LFB1142
 6202 0372 49       		.uleb128 .LEHE126-.LEHB126
 6203 0373 B601     		.uleb128 .L595-.LFB1142
 6204 0375 01       		.uleb128 0x1
 6205 0376 BE01     		.uleb128 .LEHB127-.LFB1142
 6206 0378 2E       		.uleb128 .LEHE127-.LEHB127
 6207 0379 F301     		.uleb128 .L596-.LFB1142
 6208 037b 00       		.uleb128 0
 6209 037c EC01     		.uleb128 .LEHB128-.LFB1142
 6210 037e 05       		.uleb128 .LEHE128-.LEHB128
 6211 037f 00       		.uleb128 0
 6212 0380 00       		.uleb128 0
 6213 0381 FE01     		.uleb128 .LEHB129-.LFB1142
 6214 0383 05       		.uleb128 .LEHE129-.LEHB129
 6215 0384 00       		.uleb128 0
 6216 0385 00       		.uleb128 0
 6217              	.LLSDACSE1142:
 6218 0386 01       		.byte	0x1
 6219 0387 00       		.byte	0
 6220              		.align 4
 6221 0388 00000000 		.long	0
 6222              	
 6223              	.LLSDATT1142:
 6224              		.text
 6226              		.section	.text.unlikely
 6227              	.LCOLDE147:
 6228              		.text
 6229              	.LHOTE147:
 6230              		.section	.text.unlikely
 6231              		.align 2
 6232              	.LCOLDB148:
 6233              		.text
 6234              	.LHOTB148:
 6235 3213 90       		.align 2
 6236 3214 6690662E 		.p2align 4,,15
 6236      0F1F8400 
 6236      00000000 
 6238              	_ZNK12_GLOBAL__N_149TestCheckEqualsWithStringsFailsOnDifferentStrings7RunImplEv:
 6239              	.LFB1138:
 6240              		.cfi_startproc
 6241              		.cfi_personality 0x3,__gxx_personality_v0
 6242              		.cfi_lsda 0x3,.LLSDA1138
 6243 3220 53       		pushq	%rbx
 6244              		.cfi_def_cfa_offset 16
 6245              		.cfi_offset 3, -16
 6246 3221 BA6F0000 		movl	$111, %edx
 6246      00
 6247 3226 31F6     		xorl	%esi, %esi
 6248 3228 4883EC70 		subq	$112, %rsp
 6249              		.cfi_def_cfa_offset 128
 6250 322c 488D7C24 		leaq	16(%rsp), %rdi
 6250      10
 6251 3231 66895424 		movw	%dx, 100(%rsp)
 6251      64
 6252 3236 C7442450 		movl	$1819043144, 80(%rsp)
 6252      48656C6C 
 6253 323e 64488B04 		movq	%fs:40, %rax
 6253      25280000 
 6253      00
 6254 3247 48894424 		movq	%rax, 104(%rsp)
 6254      68
 6255 324c 31C0     		xorl	%eax, %eax
 6256 324e B86F0000 		movl	$111, %eax
 6256      00
 6257 3253 C7442460 		movl	$1819042120, 96(%rsp)
 6257      48616C6C 
 6258 325b 66894424 		movw	%ax, 84(%rsp)
 6258      54
 6259              	.LEHB130:
 6260 3260 E8000000 		call	_ZN8UnitTest11TestResultsC1EPNS_12TestReporterE
 6260      00
 6261 3265 B9000000 		movl	$.LC72, %ecx
 6261      00
 6262 326a 488D7C24 		leaq	48(%rsp), %rdi
 6262      30
 6263 326f 4531C0   		xorl	%r8d, %r8d
 6264 3272 4889CA   		movq	%rcx, %rdx
 6265 3275 4889CE   		movq	%rcx, %rsi
 6266 3278 E8000000 		call	_ZN8UnitTest11TestDetailsC1EPKcS2_S2_i
 6266      00
 6267 327d 488D4C24 		leaq	48(%rsp), %rcx
 6267      30
 6268 3282 488D5424 		leaq	96(%rsp), %rdx
 6268      60
 6269 3287 488D7424 		leaq	80(%rsp), %rsi
 6269      50
 6270 328c 488D7C24 		leaq	16(%rsp), %rdi
 6270      10
 6271 3291 E8000000 		call	_ZN8UnitTest10CheckEqualERNS_11TestResultsEPcS2_RKNS_11TestDetailsE
 6271      00
 6272              	.LEHE130:
 6273              	.LEHB131:
 6274 3296 E8000000 		call	_ZN8UnitTest11CurrentTest7DetailsEv
 6274      00
 6275 329b 488B30   		movq	(%rax), %rsi
 6276 329e 488D7C24 		leaq	48(%rsp), %rdi
 6276      30
 6277 32a3 BA170000 		movl	$23, %edx
 6277      00
 6278 32a8 E8000000 		call	_ZN8UnitTest11TestDetailsC1ERKS0_i
 6278      00
 6279 32ad 488D7C24 		leaq	16(%rsp), %rdi
 6279      10
 6280 32b2 E8000000 		call	_ZNK8UnitTest11TestResults15GetFailureCountEv
 6280      00
 6281 32b7 8944240C 		movl	%eax, 12(%rsp)
 6282 32bb C7442408 		movl	$1, 8(%rsp)
 6282      01000000 
 6283 32c3 E8000000 		call	_ZN8UnitTest11CurrentTest7ResultsEv
 6283      00
 6284 32c8 488B38   		movq	(%rax), %rdi
 6285 32cb 488D4C24 		leaq	48(%rsp), %rcx
 6285      30
 6286 32d0 488D5424 		leaq	12(%rsp), %rdx
 6286      0C
 6287 32d5 488D7424 		leaq	8(%rsp), %rsi
 6287      08
 6288 32da E8000000 		call	_ZN8UnitTest10CheckEqualIiiEEvRNS_11TestResultsERKT_RKT0_RKNS_11TestDetailsE
 6288      00
 6289              	.LEHE131:
 6290              	.L599:
 6291 32df 488B4424 		movq	104(%rsp), %rax
 6291      68
 6292 32e4 64483304 		xorq	%fs:40, %rax
 6292      25280000 
 6292      00
 6293 32ed 7506     		jne	.L607
 6294 32ef 4883C470 		addq	$112, %rsp
 6295              		.cfi_remember_state
 6296              		.cfi_def_cfa_offset 16
 6297 32f3 5B       		popq	%rbx
 6298              		.cfi_def_cfa_offset 8
 6299 32f4 C3       		ret
 6300              	.L607:
 6301              		.cfi_restore_state
 6302 32f5 E8000000 		call	__stack_chk_fail
 6302      00
 6303              	.L604:
 6304 32fa 4889C7   		movq	%rax, %rdi
 6305 32fd E8000000 		call	__cxa_begin_catch
 6305      00
 6306              	.LEHB132:
 6307 3302 E8000000 		call	_ZN8UnitTest11CurrentTest7DetailsEv
 6307      00
 6308 3307 488B30   		movq	(%rax), %rsi
 6309 330a 488D7C24 		leaq	48(%rsp), %rdi
 6309      30
 6310 330f BA170000 		movl	$23, %edx
 6310      00
 6311 3314 E8000000 		call	_ZN8UnitTest11TestDetailsC1ERKS0_i
 6311      00
 6312 3319 E8000000 		call	_ZN8UnitTest11CurrentTest7ResultsEv
 6312      00
 6313 331e 488B38   		movq	(%rax), %rdi
 6314 3321 488D7424 		leaq	48(%rsp), %rsi
 6314      30
 6315 3326 BA000000 		movl	$.LC122, %edx
 6315      00
 6316 332b E8000000 		call	_ZN8UnitTest11TestResults13OnTestFailureERKNS_11TestDetailsEPKc
 6316      00
 6317              	.LEHE132:
 6318              	.LEHB133:
 6319 3330 E8000000 		call	__cxa_end_catch
 6319      00
 6320              	.LEHE133:
 6321 3335 EBA8     		jmp	.L599
 6322              	.L605:
 6323 3337 4889C3   		movq	%rax, %rbx
 6324 333a E8000000 		call	__cxa_end_catch
 6324      00
 6325 333f 4889DF   		movq	%rbx, %rdi
 6326              	.LEHB134:
 6327 3342 E8000000 		call	_Unwind_Resume
 6327      00
 6328              	.LEHE134:
 6329              		.cfi_endproc
 6330              	.LFE1138:
 6331              		.section	.gcc_except_table
 6332              		.align 4
 6333              	.LLSDA1138:
 6334 038c FF       		.byte	0xff
 6335 038d 03       		.byte	0x3
 6336 038e 21       		.uleb128 .LLSDATT1138-.LLSDATTD1138
 6337              	.LLSDATTD1138:
 6338 038f 01       		.byte	0x1
 6339 0390 19       		.uleb128 .LLSDACSE1138-.LLSDACSB1138
 6340              	.LLSDACSB1138:
 6341 0391 40       		.uleb128 .LEHB130-.LFB1138
 6342 0392 36       		.uleb128 .LEHE130-.LEHB130
 6343 0393 00       		.uleb128 0
 6344 0394 00       		.uleb128 0
 6345 0395 76       		.uleb128 .LEHB131-.LFB1138
 6346 0396 49       		.uleb128 .LEHE131-.LEHB131
 6347 0397 DA01     		.uleb128 .L604-.LFB1138
 6348 0399 01       		.uleb128 0x1
 6349 039a E201     		.uleb128 .LEHB132-.LFB1138
 6350 039c 2E       		.uleb128 .LEHE132-.LEHB132
 6351 039d 9702     		.uleb128 .L605-.LFB1138
 6352 039f 00       		.uleb128 0
 6353 03a0 9002     		.uleb128 .LEHB133-.LFB1138
 6354 03a2 05       		.uleb128 .LEHE133-.LEHB133
 6355 03a3 00       		.uleb128 0
 6356 03a4 00       		.uleb128 0
 6357 03a5 A202     		.uleb128 .LEHB134-.LFB1138
 6358 03a7 05       		.uleb128 .LEHE134-.LEHB134
 6359 03a8 00       		.uleb128 0
 6360 03a9 00       		.uleb128 0
 6361              	.LLSDACSE1138:
 6362 03aa 01       		.byte	0x1
 6363 03ab 00       		.byte	0
 6364              		.align 4
 6365 03ac 00000000 		.long	0
 6366              	
 6367              	.LLSDATT1138:
 6368              		.text
 6370              		.section	.text.unlikely
 6371              	.LCOLDE148:
 6372              		.text
 6373              	.LHOTE148:
 6374              		.section	.rodata.str1.1
 6375              	.LC149:
 6376 00be 61727261 		.string	"arrayCloseSuite"
 6376      79436C6F 
 6376      73655375 
 6376      69746500 
 6377              	.LC150:
 6378 00ce 61727261 		.string	"arrayCloseTest"
 6378      79436C6F 
 6378      73655465 
 6378      737400
 6379              		.section	.rodata.str1.8
 6380 05da 00000000 		.align 8
 6380      0000
 6381              	.LC151:
 6382 05e0 556E6861 		.string	"Unhandled exception in CHECK_EQUAL(\"arrayCloseTest\", reporter.lastFailedTest)"
 6382      6E646C65 
 6382      64206578 
 6382      63657074 
 6382      696F6E20 
 6383 062e 0000     		.align 8
 6384              	.LC152:
 6385 0630 556E6861 		.string	"Unhandled exception in CHECK_EQUAL(\"arrayCloseSuite\", reporter.lastFailedSuite)"
 6385      6E646C65 
 6385      64206578 
 6385      63657074 
 6385      696F6E20 
 6386              		.align 8
 6387              	.LC153:
 6388 0680 556E6861 		.string	"Unhandled exception in CHECK_EQUAL(1337, reporter.lastFailedLine)"
 6388      6E646C65 
 6388      64206578 
 6388      63657074 
 6388      696F6E20 
 6389              		.section	.text.unlikely
 6390              		.align 2
 6391              	.LCOLDB154:
 6392              		.text
 6393              	.LHOTB154:
 6394 3347 90       		.align 2
 6395 3348 0F1F8400 		.p2align 4,,15
 6395      00000000 
 6397              	_ZNK12_GLOBAL__N_141TestCheckArrayCloseFailureIncludesDetails7RunImplEv:
 6398              	.LFB1218:
 6399              		.cfi_startproc
 6400              		.cfi_personality 0x3,__gxx_personality_v0
 6401              		.cfi_lsda 0x3,.LLSDA1218
 6402 3350 53       		pushq	%rbx
 6403              		.cfi_def_cfa_offset 16
 6404              		.cfi_offset 3, -16
 6405 3351 4881ECD0 		subq	$2256, %rsp
 6405      080000
 6406              		.cfi_def_cfa_offset 2272
 6407 3358 488DB424 		leaq	144(%rsp), %rsi
 6407      90000000 
 6408 3360 488D7C24 		leaq	48(%rsp), %rdi
 6408      30
 6409 3365 48C78424 		movq	$_ZTV17RecordingReporter+16, 144(%rsp)
 6409      90000000 
 6409      00000000 
 6410 3371 64488B04 		movq	%fs:40, %rax
 6410      25280000 
 6410      00
 6411 337a 48898424 		movq	%rax, 2248(%rsp)
 6411      C8080000 
 6412 3382 31C0     		xorl	%eax, %eax
 6413 3384 C7842498 		movl	$0, 152(%rsp)
 6413      00000000 
 6413      000000
 6414 338f C784249C 		movl	$0, 668(%rsp)
 6414      02000000 
 6414      000000
 6415 339a C78424A0 		movl	$0, 928(%rsp)
 6415      03000000 
 6415      000000
 6416 33a5 C78424A4 		movl	$0, 1700(%rsp)
 6416      06000000 
 6416      000000
 6417 33b0 C78424A8 		movl	$0x00000000, 2216(%rsp)
 6417      08000000 
 6417      000000
 6418 33bb C78424AC 		movl	$0, 2220(%rsp)
 6418      08000000 
 6418      000000
 6419 33c6 C78424B0 		movl	$0, 2224(%rsp)
 6419      08000000 
 6419      000000
 6420 33d1 C78424B4 		movl	$0, 2228(%rsp)
 6420      08000000 
 6420      000000
 6421 33dc C78424B8 		movl	$0x00000000, 2232(%rsp)
 6421      08000000 
 6421      000000
 6422 33e7 C684249C 		movb	$0, 156(%rsp)
 6422      00000000 
 6423 33ef C684249C 		movb	$0, 412(%rsp)
 6423      01000000 
 6424 33f7 C68424A0 		movb	$0, 672(%rsp)
 6424      02000000 
 6425 33ff C68424A4 		movb	$0, 932(%rsp)
 6425      03000000 
 6426 3407 C68424A4 		movb	$0, 1188(%rsp)
 6426      04000000 
 6427 340f C68424A4 		movb	$0, 1444(%rsp)
 6427      05000000 
 6428 3417 C68424A8 		movb	$0, 1704(%rsp)
 6428      06000000 
 6429 341f C68424A8 		movb	$0, 1960(%rsp)
 6429      07000000 
 6430              	.LEHB135:
 6431 3427 E8000000 		call	_ZN8UnitTest11TestResultsC1EPNS_12TestReporterE
 6431      00
 6432 342c 488D7C24 		leaq	80(%rsp), %rdi
 6432      50
 6433 3431 41B83905 		movl	$1337, %r8d
 6433      0000
 6434 3437 B9000000 		movl	$.LC99, %ecx
 6434      00
 6435 343c BA000000 		movl	$.LC149, %edx
 6435      00
 6436 3441 BE000000 		movl	$.LC150, %esi
 6436      00
 6437 3446 E8000000 		call	_ZN8UnitTest11TestDetailsC1EPKcS2_S2_i
 6437      00
 6438 344b 4C8D4424 		leaq	80(%rsp), %r8
 6438      50
 6439 3450 488D4C24 		leaq	112(%rsp), %rcx
 6439      70
 6440 3455 488D5424 		leaq	32(%rsp), %rdx
 6440      20
 6441 345a 488D7424 		leaq	16(%rsp), %rsi
 6441      10
 6442 345f 488D7C24 		leaq	48(%rsp), %rdi
 6442      30
 6443 3464 C7442410 		movl	$0x3f800000, 16(%rsp)
 6443      0000803F 
 6444 346c C7442414 		movl	$0x3fc00000, 20(%rsp)
 6444      0000C03F 
 6445 3474 C7442418 		movl	$0x40000000, 24(%rsp)
 6445      00000040 
 6446 347c C7442420 		movl	$0x3f8147ae, 32(%rsp)
 6446      AE47813F 
 6447 3484 C7442424 		movl	$0x3fc147ae, 36(%rsp)
 6447      AE47C13F 
 6448 348c C7442428 		movl	$0x4000a3d7, 40(%rsp)
 6448      D7A30040 
 6449 3494 C7442470 		movl	$0x3a83126f, 112(%rsp)
 6449      6F12833A 
 6450 349c E8AFE5FF 		call	_ZN8UnitTest15CheckArrayCloseIA3_fS1_fEEvRNS_11TestResultsERKT_RKT0_iRKT1_RKNS_11TestDetailsE
 6450      FF
 6451              	.LEHE135:
 6452              	.LEHB136:
 6453 34a1 E8000000 		call	_ZN8UnitTest11CurrentTest7DetailsEv
 6453      00
 6454 34a6 488B30   		movq	(%rax), %rsi
 6455 34a9 488D7C24 		leaq	112(%rsp), %rdi
 6455      70
 6456 34ae BAE90000 		movl	$233, %edx
 6456      00
 6457 34b3 E8000000 		call	_ZN8UnitTest11TestDetailsC1ERKS0_i
 6457      00
 6458 34b8 E8000000 		call	_ZN8UnitTest11CurrentTest7ResultsEv
 6458      00
 6459 34bd 488D9C24 		leaq	144(%rsp), %rbx
 6459      90000000 
 6460 34c5 488B38   		movq	(%rax), %rdi
 6461 34c8 488D4C24 		leaq	112(%rsp), %rcx
 6461      70
 6462 34cd BE000000 		movl	$.LC150, %esi
 6462      00
 6463 34d2 488D9314 		leaq	1044(%rbx), %rdx
 6463      040000
 6464 34d9 E8000000 		call	_ZN8UnitTest10CheckEqualERNS_11TestResultsEPKcPcRKNS_11TestDetailsE
 6464      00
 6465              	.LEHE136:
 6466              	.L612:
 6467              	.LEHB137:
 6468 34de E8000000 		call	_ZN8UnitTest11CurrentTest7DetailsEv
 6468      00
 6469 34e3 488B30   		movq	(%rax), %rsi
 6470 34e6 488D7C24 		leaq	112(%rsp), %rdi
 6470      70
 6471 34eb BAEA0000 		movl	$234, %edx
 6471      00
 6472 34f0 E8000000 		call	_ZN8UnitTest11TestDetailsC1ERKS0_i
 6472      00
 6473 34f5 E8000000 		call	_ZN8UnitTest11CurrentTest7ResultsEv
 6473      00
 6474 34fa 488D9C24 		leaq	144(%rsp), %rbx
 6474      90000000 
 6475 3502 488B38   		movq	(%rax), %rdi
 6476 3505 488D4C24 		leaq	112(%rsp), %rcx
 6476      70
 6477 350a BE000000 		movl	$.LC149, %esi
 6477      00
 6478 350f 488D9314 		leaq	788(%rbx), %rdx
 6478      030000
 6479 3516 E8000000 		call	_ZN8UnitTest10CheckEqualERNS_11TestResultsEPKcPcRKNS_11TestDetailsE
 6479      00
 6480              	.LEHE137:
 6481              	.L615:
 6482              	.LEHB138:
 6483 351b E8000000 		call	_ZN8UnitTest11CurrentTest7DetailsEv
 6483      00
 6484 3520 488B30   		movq	(%rax), %rsi
 6485 3523 488D7C24 		leaq	112(%rsp), %rdi
 6485      70
 6486 3528 BAEB0000 		movl	$235, %edx
 6486      00
 6487 352d E8000000 		call	_ZN8UnitTest11TestDetailsC1ERKS0_i
 6487      00
 6488 3532 E8000000 		call	_ZN8UnitTest11CurrentTest7ResultsEv
 6488      00
 6489 3537 488D9C24 		leaq	144(%rsp), %rbx
 6489      90000000 
 6490 353f 488B38   		movq	(%rax), %rdi
 6491 3542 488D4C24 		leaq	112(%rsp), %rcx
 6491      70
 6492 3547 BE000000 		movl	$.LC99, %esi
 6492      00
 6493 354c 488D9310 		leaq	528(%rbx), %rdx
 6493      020000
 6494 3553 E8000000 		call	_ZN8UnitTest10CheckEqualERNS_11TestResultsEPKcPcRKNS_11TestDetailsE
 6494      00
 6495              	.LEHE138:
 6496              	.L618:
 6497              	.LEHB139:
 6498 3558 E8000000 		call	_ZN8UnitTest11CurrentTest7DetailsEv
 6498      00
 6499 355d 488B30   		movq	(%rax), %rsi
 6500 3560 488D7C24 		leaq	112(%rsp), %rdi
 6500      70
 6501 3565 BAEC0000 		movl	$236, %edx
 6501      00
 6502 356a E8000000 		call	_ZN8UnitTest11TestDetailsC1ERKS0_i
 6502      00
 6503 356f C744240C 		movl	$1337, 12(%rsp)
 6503      39050000 
 6504 3577 E8000000 		call	_ZN8UnitTest11CurrentTest7ResultsEv
 6504      00
 6505 357c 488D9C24 		leaq	144(%rsp), %rbx
 6505      90000000 
 6506 3584 488B38   		movq	(%rax), %rdi
 6507 3587 488D4C24 		leaq	112(%rsp), %rcx
 6507      70
 6508 358c 488D7424 		leaq	12(%rsp), %rsi
 6508      0C
 6509 3591 488D9310 		leaq	784(%rbx), %rdx
 6509      030000
 6510 3598 E8000000 		call	_ZN8UnitTest10CheckEqualIiiEEvRNS_11TestResultsERKT_RKT0_RKNS_11TestDetailsE
 6510      00
 6511              	.LEHE139:
 6512              	.L621:
 6513 359d 488DBC24 		leaq	144(%rsp), %rdi
 6513      90000000 
 6514 35a5 48C78424 		movq	$_ZTV17RecordingReporter+16, 144(%rsp)
 6514      90000000 
 6514      00000000 
 6515              	.LEHB140:
 6516 35b1 E8000000 		call	_ZN8UnitTest12TestReporterD2Ev
 6516      00
 6517              	.LEHE140:
 6518 35b6 488B8424 		movq	2248(%rsp), %rax
 6518      C8080000 
 6519 35be 64483304 		xorq	%fs:40, %rax
 6519      25280000 
 6519      00
 6520 35c7 7509     		jne	.L635
 6521 35c9 4881C4D0 		addq	$2256, %rsp
 6521      080000
 6522              		.cfi_remember_state
 6523              		.cfi_def_cfa_offset 16
 6524 35d0 5B       		popq	%rbx
 6525              		.cfi_def_cfa_offset 8
 6526 35d1 C3       		ret
 6527              	.L635:
 6528              		.cfi_restore_state
 6529 35d2 E8000000 		call	__stack_chk_fail
 6529      00
 6530              	.L630:
 6531 35d7 4889C7   		movq	%rax, %rdi
 6532 35da E8000000 		call	__cxa_begin_catch
 6532      00
 6533              	.LEHB141:
 6534 35df E8000000 		call	_ZN8UnitTest11CurrentTest7DetailsEv
 6534      00
 6535 35e4 488B30   		movq	(%rax), %rsi
 6536 35e7 488D7C24 		leaq	112(%rsp), %rdi
 6536      70
 6537 35ec BAEC0000 		movl	$236, %edx
 6537      00
 6538 35f1 E8000000 		call	_ZN8UnitTest11TestDetailsC1ERKS0_i
 6538      00
 6539 35f6 E8000000 		call	_ZN8UnitTest11CurrentTest7ResultsEv
 6539      00
 6540 35fb 488B38   		movq	(%rax), %rdi
 6541 35fe 488D7424 		leaq	112(%rsp), %rsi
 6541      70
 6542 3603 BA000000 		movl	$.LC153, %edx
 6542      00
 6543 3608 E8000000 		call	_ZN8UnitTest11TestResults13OnTestFailureERKNS_11TestDetailsEPKc
 6543      00
 6544              	.LEHE141:
 6545              	.LEHB142:
 6546 360d E8000000 		call	__cxa_end_catch
 6546      00
 6547              	.LEHE142:
 6548 3612 EB89     		jmp	.L621
 6549              	.L628:
 6550 3614 4889C7   		movq	%rax, %rdi
 6551 3617 E8000000 		call	__cxa_begin_catch
 6551      00
 6552              	.LEHB143:
 6553 361c E8000000 		call	_ZN8UnitTest11CurrentTest7DetailsEv
 6553      00
 6554 3621 488B30   		movq	(%rax), %rsi
 6555 3624 488D7C24 		leaq	112(%rsp), %rdi
 6555      70
 6556 3629 BAEB0000 		movl	$235, %edx
 6556      00
 6557 362e E8000000 		call	_ZN8UnitTest11TestDetailsC1ERKS0_i
 6557      00
 6558 3633 E8000000 		call	_ZN8UnitTest11CurrentTest7ResultsEv
 6558      00
 6559 3638 488B38   		movq	(%rax), %rdi
 6560 363b 488D7424 		leaq	112(%rsp), %rsi
 6560      70
 6561 3640 BA000000 		movl	$.LC119, %edx
 6561      00
 6562 3645 E8000000 		call	_ZN8UnitTest11TestResults13OnTestFailureERKNS_11TestDetailsEPKc
 6562      00
 6563              	.LEHE143:
 6564              	.LEHB144:
 6565 364a E8000000 		call	__cxa_end_catch
 6565      00
 6566              	.LEHE144:
 6567 364f E904FFFF 		jmp	.L618
 6567      FF
 6568              	.L624:
 6569 3654 4889C7   		movq	%rax, %rdi
 6570 3657 E8000000 		call	__cxa_begin_catch
 6570      00
 6571              	.LEHB145:
 6572 365c E8000000 		call	_ZN8UnitTest11CurrentTest7DetailsEv
 6572      00
 6573 3661 488B30   		movq	(%rax), %rsi
 6574 3664 488D7C24 		leaq	112(%rsp), %rdi
 6574      70
 6575 3669 BAE90000 		movl	$233, %edx
 6575      00
 6576 366e E8000000 		call	_ZN8UnitTest11TestDetailsC1ERKS0_i
 6576      00
 6577 3673 E8000000 		call	_ZN8UnitTest11CurrentTest7ResultsEv
 6577      00
 6578 3678 488B38   		movq	(%rax), %rdi
 6579 367b 488D7424 		leaq	112(%rsp), %rsi
 6579      70
 6580 3680 BA000000 		movl	$.LC151, %edx
 6580      00
 6581 3685 E8000000 		call	_ZN8UnitTest11TestResults13OnTestFailureERKNS_11TestDetailsEPKc
 6581      00
 6582              	.LEHE145:
 6583              	.LEHB146:
 6584 368a E8000000 		call	__cxa_end_catch
 6584      00
 6585              	.LEHE146:
 6586 368f E94AFEFF 		jmp	.L612
 6586      FF
 6587              	.L626:
 6588 3694 4889C7   		movq	%rax, %rdi
 6589 3697 E8000000 		call	__cxa_begin_catch
 6589      00
 6590              	.LEHB147:
 6591 369c E8000000 		call	_ZN8UnitTest11CurrentTest7DetailsEv
 6591      00
 6592 36a1 488B30   		movq	(%rax), %rsi
 6593 36a4 488D7C24 		leaq	112(%rsp), %rdi
 6593      70
 6594 36a9 BAEA0000 		movl	$234, %edx
 6594      00
 6595 36ae E8000000 		call	_ZN8UnitTest11TestDetailsC1ERKS0_i
 6595      00
 6596 36b3 E8000000 		call	_ZN8UnitTest11CurrentTest7ResultsEv
 6596      00
 6597 36b8 488B38   		movq	(%rax), %rdi
 6598 36bb 488D7424 		leaq	112(%rsp), %rsi
 6598      70
 6599 36c0 BA000000 		movl	$.LC152, %edx
 6599      00
 6600 36c5 E8000000 		call	_ZN8UnitTest11TestResults13OnTestFailureERKNS_11TestDetailsEPKc
 6600      00
 6601              	.LEHE147:
 6602              	.LEHB148:
 6603 36ca E8000000 		call	__cxa_end_catch
 6603      00
 6604              	.LEHE148:
 6605 36cf E947FEFF 		jmp	.L615
 6605      FF
 6606              	.L623:
 6607 36d4 4889C3   		movq	%rax, %rbx
 6608              	.L610:
 6609 36d7 488DBC24 		leaq	144(%rsp), %rdi
 6609      90000000 
 6610 36df 48C78424 		movq	$_ZTV17RecordingReporter+16, 144(%rsp)
 6610      90000000 
 6610      00000000 
 6611 36eb E8000000 		call	_ZN8UnitTest12TestReporterD2Ev
 6611      00
 6612 36f0 4889DF   		movq	%rbx, %rdi
 6613              	.LEHB149:
 6614 36f3 E8000000 		call	_Unwind_Resume
 6614      00
 6615              	.LEHE149:
 6616              	.L631:
 6617 36f8 4889C3   		movq	%rax, %rbx
 6618 36fb E8000000 		call	__cxa_end_catch
 6618      00
 6619 3700 EBD5     		jmp	.L610
 6620              	.L625:
 6621 3702 4889C3   		movq	%rax, %rbx
 6622 3705 E8000000 		call	__cxa_end_catch
 6622      00
 6623 370a EBCB     		jmp	.L610
 6624              	.L629:
 6625 370c 4889C3   		movq	%rax, %rbx
 6626 370f E8000000 		call	__cxa_end_catch
 6626      00
 6627 3714 EBC1     		jmp	.L610
 6628              	.L627:
 6629 3716 4889C3   		movq	%rax, %rbx
 6630 3719 E8000000 		call	__cxa_end_catch
 6630      00
 6631 371e EBB7     		jmp	.L610
 6632              		.cfi_endproc
 6633              	.LFE1218:
 6634              		.section	.gcc_except_table
 6635              		.align 4
 6636              	.LLSDA1218:
 6637 03b0 FF       		.byte	0xff
 6638 03b1 03       		.byte	0x3
 6639 03b2 61       		.uleb128 .LLSDATT1218-.LLSDATTD1218
 6640              	.LLSDATTD1218:
 6641 03b3 01       		.byte	0x1
 6642 03b4 58       		.uleb128 .LLSDACSE1218-.LLSDACSB1218
 6643              	.LLSDACSB1218:
 6644 03b5 D701     		.uleb128 .LEHB135-.LFB1218
 6645 03b7 7A       		.uleb128 .LEHE135-.LEHB135
 6646 03b8 8407     		.uleb128 .L623-.LFB1218
 6647 03ba 00       		.uleb128 0
 6648 03bb D102     		.uleb128 .LEHB136-.LFB1218
 6649 03bd 3D       		.uleb128 .LEHE136-.LEHB136
 6650 03be 8406     		.uleb128 .L624-.LFB1218
 6651 03c0 01       		.uleb128 0x1
 6652 03c1 8E03     		.uleb128 .LEHB137-.LFB1218
 6653 03c3 3D       		.uleb128 .LEHE137-.LEHB137
 6654 03c4 C406     		.uleb128 .L626-.LFB1218
 6655 03c6 01       		.uleb128 0x1
 6656 03c7 CB03     		.uleb128 .LEHB138-.LFB1218
 6657 03c9 3D       		.uleb128 .LEHE138-.LEHB138
 6658 03ca C405     		.uleb128 .L628-.LFB1218
 6659 03cc 01       		.uleb128 0x1
 6660 03cd 8804     		.uleb128 .LEHB139-.LFB1218
 6661 03cf 45       		.uleb128 .LEHE139-.LEHB139
 6662 03d0 8705     		.uleb128 .L630-.LFB1218
 6663 03d2 01       		.uleb128 0x1
 6664 03d3 E104     		.uleb128 .LEHB140-.LFB1218
 6665 03d5 05       		.uleb128 .LEHE140-.LEHB140
 6666 03d6 00       		.uleb128 0
 6667 03d7 00       		.uleb128 0
 6668 03d8 8F05     		.uleb128 .LEHB141-.LFB1218
 6669 03da 2E       		.uleb128 .LEHE141-.LEHB141
 6670 03db A807     		.uleb128 .L631-.LFB1218
 6671 03dd 00       		.uleb128 0
 6672 03de BD05     		.uleb128 .LEHB142-.LFB1218
 6673 03e0 05       		.uleb128 .LEHE142-.LEHB142
 6674 03e1 8407     		.uleb128 .L623-.LFB1218
 6675 03e3 00       		.uleb128 0
 6676 03e4 CC05     		.uleb128 .LEHB143-.LFB1218
 6677 03e6 2E       		.uleb128 .LEHE143-.LEHB143
 6678 03e7 BC07     		.uleb128 .L629-.LFB1218
 6679 03e9 00       		.uleb128 0
 6680 03ea FA05     		.uleb128 .LEHB144-.LFB1218
 6681 03ec 05       		.uleb128 .LEHE144-.LEHB144
 6682 03ed 8407     		.uleb128 .L623-.LFB1218
 6683 03ef 00       		.uleb128 0
 6684 03f0 8C06     		.uleb128 .LEHB145-.LFB1218
 6685 03f2 2E       		.uleb128 .LEHE145-.LEHB145
 6686 03f3 B207     		.uleb128 .L625-.LFB1218
 6687 03f5 00       		.uleb128 0
 6688 03f6 BA06     		.uleb128 .LEHB146-.LFB1218
 6689 03f8 05       		.uleb128 .LEHE146-.LEHB146
 6690 03f9 8407     		.uleb128 .L623-.LFB1218
 6691 03fb 00       		.uleb128 0
 6692 03fc CC06     		.uleb128 .LEHB147-.LFB1218
 6693 03fe 2E       		.uleb128 .LEHE147-.LEHB147
 6694 03ff C607     		.uleb128 .L627-.LFB1218
 6695 0401 00       		.uleb128 0
 6696 0402 FA06     		.uleb128 .LEHB148-.LFB1218
 6697 0404 05       		.uleb128 .LEHE148-.LEHB148
 6698 0405 8407     		.uleb128 .L623-.LFB1218
 6699 0407 00       		.uleb128 0
 6700 0408 A307     		.uleb128 .LEHB149-.LFB1218
 6701 040a 05       		.uleb128 .LEHE149-.LEHB149
 6702 040b 00       		.uleb128 0
 6703 040c 00       		.uleb128 0
 6704              	.LLSDACSE1218:
 6705 040d 01       		.byte	0x1
 6706 040e 00       		.byte	0
 6707 040f 00       		.align 4
 6708 0410 00000000 		.long	0
 6709              	
 6710              	.LLSDATT1218:
 6711              		.text
 6713              		.section	.text.unlikely
 6714              	.LCOLDE154:
 6715              		.text
 6716              	.LHOTE154:
 6717              		.section	.text.unlikely
 6718              		.align 2
 6719              	.LCOLDB155:
 6720              		.text
 6721              	.LHOTB155:
 6722              		.align 2
 6723              		.p2align 4,,15
 6725              	_ZNK12_GLOBAL__N_124TestCheckArrayCloseFalse7RunImplEv:
 6726              	.LFB1214:
 6727              		.cfi_startproc
 6728              		.cfi_personality 0x3,__gxx_personality_v0
 6729              		.cfi_lsda 0x3,.LLSDA1214
 6730 3720 53       		pushq	%rbx
 6731              		.cfi_def_cfa_offset 16
 6732              		.cfi_offset 3, -16
 6733 3721 31F6     		xorl	%esi, %esi
 6734 3723 4883C480 		addq	$-128, %rsp
 6735              		.cfi_def_cfa_offset 144
 6736 3727 488D7C24 		leaq	48(%rsp), %rdi
 6736      30
 6737 372c 64488B04 		movq	%fs:40, %rax
 6737      25280000 
 6737      00
 6738 3735 48894424 		movq	%rax, 120(%rsp)
 6738      78
 6739 373a 31C0     		xorl	%eax, %eax
 6740              	.LEHB150:
 6741 373c E8000000 		call	_ZN8UnitTest11TestResultsC1EPNS_12TestReporterE
 6741      00
 6742 3741 B9000000 		movl	$.LC72, %ecx
 6742      00
 6743 3746 488D7C24 		leaq	80(%rsp), %rdi
 6743      50
 6744 374b 4531C0   		xorl	%r8d, %r8d
 6745 374e 4889CA   		movq	%rcx, %rdx
 6746 3751 4889CE   		movq	%rcx, %rsi
 6747 3754 C7442410 		movl	$0x3f800000, 16(%rsp)
 6747      0000803F 
 6748 375c C7442414 		movl	$0x3fc00000, 20(%rsp)
 6748      0000C03F 
 6749 3764 C7442418 		movl	$0x40000000, 24(%rsp)
 6749      00000040 
 6750 376c C7442420 		movl	$0x3f8147ae, 32(%rsp)
 6750      AE47813F 
 6751 3774 C7442424 		movl	$0x3fc147ae, 36(%rsp)
 6751      AE47C13F 
 6752 377c C7442428 		movl	$0x4000a3d7, 40(%rsp)
 6752      D7A30040 
 6753 3784 E8000000 		call	_ZN8UnitTest11TestDetailsC1EPKcS2_S2_i
 6753      00
 6754 3789 4C8D4424 		leaq	80(%rsp), %r8
 6754      50
 6755 378e 488D4C24 		leaq	12(%rsp), %rcx
 6755      0C
 6756 3793 488D5424 		leaq	32(%rsp), %rdx
 6756      20
 6757 3798 488D7424 		leaq	16(%rsp), %rsi
 6757      10
 6758 379d 488D7C24 		leaq	48(%rsp), %rdi
 6758      30
 6759 37a2 C744240C 		movl	$0x3a83126f, 12(%rsp)
 6759      6F12833A 
 6760 37aa E8A1E2FF 		call	_ZN8UnitTest15CheckArrayCloseIA3_fS1_fEEvRNS_11TestResultsERKT_RKT0_iRKT1_RKNS_11TestDetailsE
 6760      FF
 6761              	.LEHE150:
 6762              	.LEHB151:
 6763 37af E8000000 		call	_ZN8UnitTest11CurrentTest7DetailsEv
 6763      00
 6764 37b4 488B30   		movq	(%rax), %rsi
 6765 37b7 488D7C24 		leaq	80(%rsp), %rdi
 6765      50
 6766 37bc BADC0000 		movl	$220, %edx
 6766      00
 6767 37c1 E8000000 		call	_ZN8UnitTest11TestDetailsC1ERKS0_i
 6767      00
 6768 37c6 488D7C24 		leaq	48(%rsp), %rdi
 6768      30
 6769 37cb E8000000 		call	_ZNK8UnitTest11TestResults15GetFailureCountEv
 6769      00
 6770 37d0 8944240C 		movl	%eax, 12(%rsp)
 6771 37d4 C7442408 		movl	$1, 8(%rsp)
 6771      01000000 
 6772 37dc E8000000 		call	_ZN8UnitTest11CurrentTest7ResultsEv
 6772      00
 6773 37e1 488B38   		movq	(%rax), %rdi
 6774 37e4 488D4C24 		leaq	80(%rsp), %rcx
 6774      50
 6775 37e9 488D5424 		leaq	12(%rsp), %rdx
 6775      0C
 6776 37ee 488D7424 		leaq	8(%rsp), %rsi
 6776      08
 6777 37f3 E8000000 		call	_ZN8UnitTest10CheckEqualIiiEEvRNS_11TestResultsERKT_RKT0_RKNS_11TestDetailsE
 6777      00
 6778              	.LEHE151:
 6779              	.L636:
 6780 37f8 488B4424 		movq	120(%rsp), %rax
 6780      78
 6781 37fd 64483304 		xorq	%fs:40, %rax
 6781      25280000 
 6781      00
 6782 3806 7506     		jne	.L644
 6783 3808 4883EC80 		subq	$-128, %rsp
 6784              		.cfi_remember_state
 6785              		.cfi_def_cfa_offset 16
 6786 380c 5B       		popq	%rbx
 6787              		.cfi_def_cfa_offset 8
 6788 380d C3       		ret
 6789              	.L644:
 6790              		.cfi_restore_state
 6791 380e E8000000 		call	__stack_chk_fail
 6791      00
 6792              	.L641:
 6793 3813 4889C7   		movq	%rax, %rdi
 6794 3816 E8000000 		call	__cxa_begin_catch
 6794      00
 6795              	.LEHB152:
 6796 381b E8000000 		call	_ZN8UnitTest11CurrentTest7DetailsEv
 6796      00
 6797 3820 488B30   		movq	(%rax), %rsi
 6798 3823 488D7C24 		leaq	80(%rsp), %rdi
 6798      50
 6799 3828 BADC0000 		movl	$220, %edx
 6799      00
 6800 382d E8000000 		call	_ZN8UnitTest11TestDetailsC1ERKS0_i
 6800      00
 6801 3832 E8000000 		call	_ZN8UnitTest11CurrentTest7ResultsEv
 6801      00
 6802 3837 488B38   		movq	(%rax), %rdi
 6803 383a 488D7424 		leaq	80(%rsp), %rsi
 6803      50
 6804 383f BA000000 		movl	$.LC122, %edx
 6804      00
 6805 3844 E8000000 		call	_ZN8UnitTest11TestResults13OnTestFailureERKNS_11TestDetailsEPKc
 6805      00
 6806              	.LEHE152:
 6807              	.LEHB153:
 6808 3849 E8000000 		call	__cxa_end_catch
 6808      00
 6809              	.LEHE153:
 6810 384e EBA8     		jmp	.L636
 6811              	.L642:
 6812 3850 4889C3   		movq	%rax, %rbx
 6813 3853 E8000000 		call	__cxa_end_catch
 6813      00
 6814 3858 4889DF   		movq	%rbx, %rdi
 6815              	.LEHB154:
 6816 385b E8000000 		call	_Unwind_Resume
 6816      00
 6817              	.LEHE154:
 6818              		.cfi_endproc
 6819              	.LFE1214:
 6820              		.section	.gcc_except_table
 6821              		.align 4
 6822              	.LLSDA1214:
 6823 0414 FF       		.byte	0xff
 6824 0415 03       		.byte	0x3
 6825 0416 25       		.uleb128 .LLSDATT1214-.LLSDATTD1214
 6826              	.LLSDATTD1214:
 6827 0417 01       		.byte	0x1
 6828 0418 1A       		.uleb128 .LLSDACSE1214-.LLSDACSB1214
 6829              	.LLSDACSB1214:
 6830 0419 1C       		.uleb128 .LEHB150-.LFB1214
 6831 041a 73       		.uleb128 .LEHE150-.LEHB150
 6832 041b 00       		.uleb128 0
 6833 041c 00       		.uleb128 0
 6834 041d 8F01     		.uleb128 .LEHB151-.LFB1214
 6835 041f 49       		.uleb128 .LEHE151-.LEHB151
 6836 0420 F301     		.uleb128 .L641-.LFB1214
 6837 0422 01       		.uleb128 0x1
 6838 0423 FB01     		.uleb128 .LEHB152-.LFB1214
 6839 0425 2E       		.uleb128 .LEHE152-.LEHB152
 6840 0426 B002     		.uleb128 .L642-.LFB1214
 6841 0428 00       		.uleb128 0
 6842 0429 A902     		.uleb128 .LEHB153-.LFB1214
 6843 042b 05       		.uleb128 .LEHE153-.LEHB153
 6844 042c 00       		.uleb128 0
 6845 042d 00       		.uleb128 0
 6846 042e BB02     		.uleb128 .LEHB154-.LFB1214
 6847 0430 05       		.uleb128 .LEHE154-.LEHB154
 6848 0431 00       		.uleb128 0
 6849 0432 00       		.uleb128 0
 6850              	.LLSDACSE1214:
 6851 0433 01       		.byte	0x1
 6852 0434 00       		.byte	0
 6853 0435 000000   		.align 4
 6854 0438 00000000 		.long	0
 6855              	
 6856              	.LLSDATT1214:
 6857              		.text
 6859              		.section	.text.unlikely
 6860              	.LCOLDE155:
 6861              		.text
 6862              	.LHOTE155:
 6863              		.section	.text.unlikely
 6864              		.align 2
 6865              	.LCOLDB156:
 6866              		.text
 6867              	.LHOTB156:
 6868              		.align 2
 6869              		.p2align 4,,15
 6871              	_ZNK12_GLOBAL__N_123TestCheckArrayCloseTrue7RunImplEv:
 6872              	.LFB1210:
 6873              		.cfi_startproc
 6874              		.cfi_personality 0x3,__gxx_personality_v0
 6875              		.cfi_lsda 0x3,.LLSDA1210
 6876 3860 53       		pushq	%rbx
 6877              		.cfi_def_cfa_offset 16
 6878              		.cfi_offset 3, -16
 6879 3861 31F6     		xorl	%esi, %esi
 6880 3863 4883C480 		addq	$-128, %rsp
 6881              		.cfi_def_cfa_offset 144
 6882 3867 488D7C24 		leaq	48(%rsp), %rdi
 6882      30
 6883 386c 64488B04 		movq	%fs:40, %rax
 6883      25280000 
 6883      00
 6884 3875 48894424 		movq	%rax, 120(%rsp)
 6884      78
 6885 387a 31C0     		xorl	%eax, %eax
 6886              	.LEHB155:
 6887 387c E8000000 		call	_ZN8UnitTest11TestResultsC1EPNS_12TestReporterE
 6887      00
 6888 3881 B9000000 		movl	$.LC72, %ecx
 6888      00
 6889 3886 488D7C24 		leaq	80(%rsp), %rdi
 6889      50
 6890 388b 4531C0   		xorl	%r8d, %r8d
 6891 388e 4889CA   		movq	%rcx, %rdx
 6892 3891 4889CE   		movq	%rcx, %rsi
 6893 3894 C7442410 		movl	$0x3f800000, 16(%rsp)
 6893      0000803F 
 6894 389c C7442414 		movl	$0x3fc00000, 20(%rsp)
 6894      0000C03F 
 6895 38a4 C7442418 		movl	$0x40000000, 24(%rsp)
 6895      00000040 
 6896 38ac C7442420 		movl	$0x3f8147ae, 32(%rsp)
 6896      AE47813F 
 6897 38b4 C7442424 		movl	$0x3fc147ae, 36(%rsp)
 6897      AE47C13F 
 6898 38bc C7442428 		movl	$0x4000a3d7, 40(%rsp)
 6898      D7A30040 
 6899 38c4 E8000000 		call	_ZN8UnitTest11TestDetailsC1EPKcS2_S2_i
 6899      00
 6900 38c9 4C8D4424 		leaq	80(%rsp), %r8
 6900      50
 6901 38ce 488D4C24 		leaq	12(%rsp), %rcx
 6901      0C
 6902 38d3 488D5424 		leaq	32(%rsp), %rdx
 6902      20
 6903 38d8 488D7424 		leaq	16(%rsp), %rsi
 6903      10
 6904 38dd 488D7C24 		leaq	48(%rsp), %rdi
 6904      30
 6905 38e2 C744240C 		movl	$0x3ca3d70a, 12(%rsp)
 6905      0AD7A33C 
 6906 38ea E861E1FF 		call	_ZN8UnitTest15CheckArrayCloseIA3_fS1_fEEvRNS_11TestResultsERKT_RKT0_iRKT1_RKNS_11TestDetailsE
 6906      FF
 6907              	.LEHE155:
 6908              	.LEHB156:
 6909 38ef E8000000 		call	_ZN8UnitTest11CurrentTest7DetailsEv
 6909      00
 6910 38f4 488B30   		movq	(%rax), %rsi
 6911 38f7 488D7C24 		leaq	80(%rsp), %rdi
 6911      50
 6912 38fc BAD20000 		movl	$210, %edx
 6912      00
 6913 3901 E8000000 		call	_ZN8UnitTest11TestDetailsC1ERKS0_i
 6913      00
 6914 3906 488D7C24 		leaq	48(%rsp), %rdi
 6914      30
 6915 390b E8000000 		call	_ZNK8UnitTest11TestResults15GetFailureCountEv
 6915      00
 6916 3910 8944240C 		movl	%eax, 12(%rsp)
 6917 3914 C7442408 		movl	$0, 8(%rsp)
 6917      00000000 
 6918 391c E8000000 		call	_ZN8UnitTest11CurrentTest7ResultsEv
 6918      00
 6919 3921 488B38   		movq	(%rax), %rdi
 6920 3924 488D4C24 		leaq	80(%rsp), %rcx
 6920      50
 6921 3929 488D5424 		leaq	12(%rsp), %rdx
 6921      0C
 6922 392e 488D7424 		leaq	8(%rsp), %rsi
 6922      08
 6923 3933 E8000000 		call	_ZN8UnitTest10CheckEqualIiiEEvRNS_11TestResultsERKT_RKT0_RKNS_11TestDetailsE
 6923      00
 6924              	.LEHE156:
 6925              	.L645:
 6926 3938 488B4424 		movq	120(%rsp), %rax
 6926      78
 6927 393d 64483304 		xorq	%fs:40, %rax
 6927      25280000 
 6927      00
 6928 3946 7506     		jne	.L653
 6929 3948 4883EC80 		subq	$-128, %rsp
 6930              		.cfi_remember_state
 6931              		.cfi_def_cfa_offset 16
 6932 394c 5B       		popq	%rbx
 6933              		.cfi_def_cfa_offset 8
 6934 394d C3       		ret
 6935              	.L653:
 6936              		.cfi_restore_state
 6937 394e E8000000 		call	__stack_chk_fail
 6937      00
 6938              	.L650:
 6939 3953 4889C7   		movq	%rax, %rdi
 6940 3956 E8000000 		call	__cxa_begin_catch
 6940      00
 6941              	.LEHB157:
 6942 395b E8000000 		call	_ZN8UnitTest11CurrentTest7DetailsEv
 6942      00
 6943 3960 488B30   		movq	(%rax), %rsi
 6944 3963 488D7C24 		leaq	80(%rsp), %rdi
 6944      50
 6945 3968 BAD20000 		movl	$210, %edx
 6945      00
 6946 396d E8000000 		call	_ZN8UnitTest11TestDetailsC1ERKS0_i
 6946      00
 6947 3972 E8000000 		call	_ZN8UnitTest11CurrentTest7ResultsEv
 6947      00
 6948 3977 488B38   		movq	(%rax), %rdi
 6949 397a 488D7424 		leaq	80(%rsp), %rsi
 6949      50
 6950 397f BA000000 		movl	$.LC125, %edx
 6950      00
 6951 3984 E8000000 		call	_ZN8UnitTest11TestResults13OnTestFailureERKNS_11TestDetailsEPKc
 6951      00
 6952              	.LEHE157:
 6953              	.LEHB158:
 6954 3989 E8000000 		call	__cxa_end_catch
 6954      00
 6955              	.LEHE158:
 6956 398e EBA8     		jmp	.L645
 6957              	.L651:
 6958 3990 4889C3   		movq	%rax, %rbx
 6959 3993 E8000000 		call	__cxa_end_catch
 6959      00
 6960 3998 4889DF   		movq	%rbx, %rdi
 6961              	.LEHB159:
 6962 399b E8000000 		call	_Unwind_Resume
 6962      00
 6963              	.LEHE159:
 6964              		.cfi_endproc
 6965              	.LFE1210:
 6966              		.section	.gcc_except_table
 6967              		.align 4
 6968              	.LLSDA1210:
 6969 043c FF       		.byte	0xff
 6970 043d 03       		.byte	0x3
 6971 043e 25       		.uleb128 .LLSDATT1210-.LLSDATTD1210
 6972              	.LLSDATTD1210:
 6973 043f 01       		.byte	0x1
 6974 0440 1A       		.uleb128 .LLSDACSE1210-.LLSDACSB1210
 6975              	.LLSDACSB1210:
 6976 0441 1C       		.uleb128 .LEHB155-.LFB1210
 6977 0442 73       		.uleb128 .LEHE155-.LEHB155
 6978 0443 00       		.uleb128 0
 6979 0444 00       		.uleb128 0
 6980 0445 8F01     		.uleb128 .LEHB156-.LFB1210
 6981 0447 49       		.uleb128 .LEHE156-.LEHB156
 6982 0448 F301     		.uleb128 .L650-.LFB1210
 6983 044a 01       		.uleb128 0x1
 6984 044b FB01     		.uleb128 .LEHB157-.LFB1210
 6985 044d 2E       		.uleb128 .LEHE157-.LEHB157
 6986 044e B002     		.uleb128 .L651-.LFB1210
 6987 0450 00       		.uleb128 0
 6988 0451 A902     		.uleb128 .LEHB158-.LFB1210
 6989 0453 05       		.uleb128 .LEHE158-.LEHB158
 6990 0454 00       		.uleb128 0
 6991 0455 00       		.uleb128 0
 6992 0456 BB02     		.uleb128 .LEHB159-.LFB1210
 6993 0458 05       		.uleb128 .LEHE159-.LEHB159
 6994 0459 00       		.uleb128 0
 6995 045a 00       		.uleb128 0
 6996              	.LLSDACSE1210:
 6997 045b 01       		.byte	0x1
 6998 045c 00       		.byte	0
 6999 045d 000000   		.align 4
 7000 0460 00000000 		.long	0
 7001              	
 7002              	.LLSDATT1210:
 7003              		.text
 7005              		.section	.text.unlikely
 7006              	.LCOLDE156:
 7007              		.text
 7008              	.LHOTE156:
 7009              		.section	.text.unlikely
 7010              		.align 2
 7011              	.LCOLDB157:
 7012              		.text
 7013              	.LHOTB157:
 7014              		.align 2
 7015              		.p2align 4,,15
 7017              	_ZNK12_GLOBAL__N_124TestCheckArrayEqualFalse7RunImplEv:
 7018              	.LFB1206:
 7019              		.cfi_startproc
 7020              		.cfi_personality 0x3,__gxx_personality_v0
 7021              		.cfi_lsda 0x3,.LLSDA1206
 7022 39a0 53       		pushq	%rbx
 7023              		.cfi_def_cfa_offset 16
 7024              		.cfi_offset 3, -16
 7025 39a1 31F6     		xorl	%esi, %esi
 7026 39a3 4883C480 		addq	$-128, %rsp
 7027              		.cfi_def_cfa_offset 144
 7028 39a7 488D7C24 		leaq	48(%rsp), %rdi
 7028      30
 7029 39ac 64488B04 		movq	%fs:40, %rax
 7029      25280000 
 7029      00
 7030 39b5 48894424 		movq	%rax, 120(%rsp)
 7030      78
 7031 39ba 31C0     		xorl	%eax, %eax
 7032              	.LEHB160:
 7033 39bc E8000000 		call	_ZN8UnitTest11TestResultsC1EPNS_12TestReporterE
 7033      00
 7034 39c1 B9000000 		movl	$.LC72, %ecx
 7034      00
 7035 39c6 488D7C24 		leaq	80(%rsp), %rdi
 7035      50
 7036 39cb 4531C0   		xorl	%r8d, %r8d
 7037 39ce 4889CA   		movq	%rcx, %rdx
 7038 39d1 4889CE   		movq	%rcx, %rsi
 7039 39d4 C7442410 		movl	$1, 16(%rsp)
 7039      01000000 
 7040 39dc C7442414 		movl	$2, 20(%rsp)
 7040      02000000 
 7041 39e4 C7442418 		movl	$3, 24(%rsp)
 7041      03000000 
 7042 39ec C7442420 		movl	$1, 32(%rsp)
 7042      01000000 
 7043 39f4 C7442424 		movl	$2, 36(%rsp)
 7043      02000000 
 7044 39fc C7442428 		movl	$2, 40(%rsp)
 7044      02000000 
 7045 3a04 E8000000 		call	_ZN8UnitTest11TestDetailsC1EPKcS2_S2_i
 7045      00
 7046 3a09 488D4C24 		leaq	80(%rsp), %rcx
 7046      50
 7047 3a0e 488D5424 		leaq	32(%rsp), %rdx
 7047      20
 7048 3a13 488D7424 		leaq	16(%rsp), %rsi
 7048      10
 7049 3a18 488D7C24 		leaq	48(%rsp), %rdi
 7049      30
 7050 3a1d E8BEDCFF 		call	_ZN8UnitTest15CheckArrayEqualIA3_iS1_EEvRNS_11TestResultsERKT_RKT0_iRKNS_11TestDetailsE.const
 7050      FF
 7051              	.LEHE160:
 7052              	.LEHB161:
 7053 3a22 E8000000 		call	_ZN8UnitTest11CurrentTest7DetailsEv
 7053      00
 7054 3a27 488B30   		movq	(%rax), %rsi
 7055 3a2a 488D7C24 		leaq	80(%rsp), %rdi
 7055      50
 7056 3a2f BAC80000 		movl	$200, %edx
 7056      00
 7057 3a34 E8000000 		call	_ZN8UnitTest11TestDetailsC1ERKS0_i
 7057      00
 7058 3a39 488D7C24 		leaq	48(%rsp), %rdi
 7058      30
 7059 3a3e E8000000 		call	_ZNK8UnitTest11TestResults15GetFailureCountEv
 7059      00
 7060 3a43 8944240C 		movl	%eax, 12(%rsp)
 7061 3a47 C7442408 		movl	$1, 8(%rsp)
 7061      01000000 
 7062 3a4f E8000000 		call	_ZN8UnitTest11CurrentTest7ResultsEv
 7062      00
 7063 3a54 488B38   		movq	(%rax), %rdi
 7064 3a57 488D4C24 		leaq	80(%rsp), %rcx
 7064      50
 7065 3a5c 488D5424 		leaq	12(%rsp), %rdx
 7065      0C
 7066 3a61 488D7424 		leaq	8(%rsp), %rsi
 7066      08
 7067 3a66 E8000000 		call	_ZN8UnitTest10CheckEqualIiiEEvRNS_11TestResultsERKT_RKT0_RKNS_11TestDetailsE
 7067      00
 7068              	.LEHE161:
 7069              	.L654:
 7070 3a6b 488B4424 		movq	120(%rsp), %rax
 7070      78
 7071 3a70 64483304 		xorq	%fs:40, %rax
 7071      25280000 
 7071      00
 7072 3a79 7506     		jne	.L662
 7073 3a7b 4883EC80 		subq	$-128, %rsp
 7074              		.cfi_remember_state
 7075              		.cfi_def_cfa_offset 16
 7076 3a7f 5B       		popq	%rbx
 7077              		.cfi_def_cfa_offset 8
 7078 3a80 C3       		ret
 7079              	.L662:
 7080              		.cfi_restore_state
 7081 3a81 E8000000 		call	__stack_chk_fail
 7081      00
 7082              	.L659:
 7083 3a86 4889C7   		movq	%rax, %rdi
 7084 3a89 E8000000 		call	__cxa_begin_catch
 7084      00
 7085              	.LEHB162:
 7086 3a8e E8000000 		call	_ZN8UnitTest11CurrentTest7DetailsEv
 7086      00
 7087 3a93 488B30   		movq	(%rax), %rsi
 7088 3a96 488D7C24 		leaq	80(%rsp), %rdi
 7088      50
 7089 3a9b BAC80000 		movl	$200, %edx
 7089      00
 7090 3aa0 E8000000 		call	_ZN8UnitTest11TestDetailsC1ERKS0_i
 7090      00
 7091 3aa5 E8000000 		call	_ZN8UnitTest11CurrentTest7ResultsEv
 7091      00
 7092 3aaa 488B38   		movq	(%rax), %rdi
 7093 3aad 488D7424 		leaq	80(%rsp), %rsi
 7093      50
 7094 3ab2 BA000000 		movl	$.LC122, %edx
 7094      00
 7095 3ab7 E8000000 		call	_ZN8UnitTest11TestResults13OnTestFailureERKNS_11TestDetailsEPKc
 7095      00
 7096              	.LEHE162:
 7097              	.LEHB163:
 7098 3abc E8000000 		call	__cxa_end_catch
 7098      00
 7099              	.LEHE163:
 7100 3ac1 EBA8     		jmp	.L654
 7101              	.L660:
 7102 3ac3 4889C3   		movq	%rax, %rbx
 7103 3ac6 E8000000 		call	__cxa_end_catch
 7103      00
 7104 3acb 4889DF   		movq	%rbx, %rdi
 7105              	.LEHB164:
 7106 3ace E8000000 		call	_Unwind_Resume
 7106      00
 7107              	.LEHE164:
 7108              		.cfi_endproc
 7109              	.LFE1206:
 7110              		.section	.gcc_except_table
 7111              		.align 4
 7112              	.LLSDA1206:
 7113 0464 FF       		.byte	0xff
 7114 0465 03       		.byte	0x3
 7115 0466 25       		.uleb128 .LLSDATT1206-.LLSDATTD1206
 7116              	.LLSDATTD1206:
 7117 0467 01       		.byte	0x1
 7118 0468 1A       		.uleb128 .LLSDACSE1206-.LLSDACSB1206
 7119              	.LLSDACSB1206:
 7120 0469 1C       		.uleb128 .LEHB160-.LFB1206
 7121 046a 66       		.uleb128 .LEHE160-.LEHB160
 7122 046b 00       		.uleb128 0
 7123 046c 00       		.uleb128 0
 7124 046d 8201     		.uleb128 .LEHB161-.LFB1206
 7125 046f 49       		.uleb128 .LEHE161-.LEHB161
 7126 0470 E601     		.uleb128 .L659-.LFB1206
 7127 0472 01       		.uleb128 0x1
 7128 0473 EE01     		.uleb128 .LEHB162-.LFB1206
 7129 0475 2E       		.uleb128 .LEHE162-.LEHB162
 7130 0476 A302     		.uleb128 .L660-.LFB1206
 7131 0478 00       		.uleb128 0
 7132 0479 9C02     		.uleb128 .LEHB163-.LFB1206
 7133 047b 05       		.uleb128 .LEHE163-.LEHB163
 7134 047c 00       		.uleb128 0
 7135 047d 00       		.uleb128 0
 7136 047e AE02     		.uleb128 .LEHB164-.LFB1206
 7137 0480 05       		.uleb128 .LEHE164-.LEHB164
 7138 0481 00       		.uleb128 0
 7139 0482 00       		.uleb128 0
 7140              	.LLSDACSE1206:
 7141 0483 01       		.byte	0x1
 7142 0484 00       		.byte	0
 7143 0485 000000   		.align 4
 7144 0488 00000000 		.long	0
 7145              	
 7146              	.LLSDATT1206:
 7147              		.text
 7149              		.section	.text.unlikely
 7150              	.LCOLDE157:
 7151              		.text
 7152              	.LHOTE157:
 7153              		.section	.text.unlikely
 7154              		.align 2
 7155              	.LCOLDB158:
 7156              		.text
 7157              	.LHOTB158:
 7158 3ad3 90       		.align 2
 7159 3ad4 6690662E 		.p2align 4,,15
 7159      0F1F8400 
 7159      00000000 
 7161              	_ZNK12_GLOBAL__N_123TestCheckArrayEqualTrue7RunImplEv:
 7162              	.LFB1202:
 7163              		.cfi_startproc
 7164              		.cfi_personality 0x3,__gxx_personality_v0
 7165              		.cfi_lsda 0x3,.LLSDA1202
 7166 3ae0 53       		pushq	%rbx
 7167              		.cfi_def_cfa_offset 16
 7168              		.cfi_offset 3, -16
 7169 3ae1 31F6     		xorl	%esi, %esi
 7170 3ae3 4883EC70 		subq	$112, %rsp
 7171              		.cfi_def_cfa_offset 128
 7172 3ae7 488D7C24 		leaq	32(%rsp), %rdi
 7172      20
 7173 3aec 64488B04 		movq	%fs:40, %rax
 7173      25280000 
 7173      00
 7174 3af5 48894424 		movq	%rax, 104(%rsp)
 7174      68
 7175 3afa 31C0     		xorl	%eax, %eax
 7176              	.LEHB165:
 7177 3afc E8000000 		call	_ZN8UnitTest11TestResultsC1EPNS_12TestReporterE
 7177      00
 7178 3b01 B9000000 		movl	$.LC72, %ecx
 7178      00
 7179 3b06 488D7C24 		leaq	64(%rsp), %rdi
 7179      40
 7180 3b0b 4531C0   		xorl	%r8d, %r8d
 7181 3b0e 4889CA   		movq	%rcx, %rdx
 7182 3b11 4889CE   		movq	%rcx, %rsi
 7183 3b14 C7442410 		movl	$1, 16(%rsp)
 7183      01000000 
 7184 3b1c C7442414 		movl	$2, 20(%rsp)
 7184      02000000 
 7185 3b24 C7442418 		movl	$3, 24(%rsp)
 7185      03000000 
 7186 3b2c E8000000 		call	_ZN8UnitTest11TestDetailsC1EPKcS2_S2_i
 7186      00
 7187 3b31 488D5424 		leaq	16(%rsp), %rdx
 7187      10
 7188 3b36 488D4C24 		leaq	64(%rsp), %rcx
 7188      40
 7189 3b3b 488D7C24 		leaq	32(%rsp), %rdi
 7189      20
 7190 3b40 4889D6   		movq	%rdx, %rsi
 7191 3b43 E898DBFF 		call	_ZN8UnitTest15CheckArrayEqualIA3_iS1_EEvRNS_11TestResultsERKT_RKT0_iRKNS_11TestDetailsE.const
 7191      FF
 7192              	.LEHE165:
 7193              	.LEHB166:
 7194 3b48 E8000000 		call	_ZN8UnitTest11CurrentTest7DetailsEv
 7194      00
 7195 3b4d 488B30   		movq	(%rax), %rsi
 7196 3b50 488D7C24 		leaq	64(%rsp), %rdi
 7196      40
 7197 3b55 BABE0000 		movl	$190, %edx
 7197      00
 7198 3b5a E8000000 		call	_ZN8UnitTest11TestDetailsC1ERKS0_i
 7198      00
 7199 3b5f 488D7C24 		leaq	32(%rsp), %rdi
 7199      20
 7200 3b64 E8000000 		call	_ZNK8UnitTest11TestResults15GetFailureCountEv
 7200      00
 7201 3b69 8944240C 		movl	%eax, 12(%rsp)
 7202 3b6d C7442408 		movl	$0, 8(%rsp)
 7202      00000000 
 7203 3b75 E8000000 		call	_ZN8UnitTest11CurrentTest7ResultsEv
 7203      00
 7204 3b7a 488B38   		movq	(%rax), %rdi
 7205 3b7d 488D4C24 		leaq	64(%rsp), %rcx
 7205      40
 7206 3b82 488D5424 		leaq	12(%rsp), %rdx
 7206      0C
 7207 3b87 488D7424 		leaq	8(%rsp), %rsi
 7207      08
 7208 3b8c E8000000 		call	_ZN8UnitTest10CheckEqualIiiEEvRNS_11TestResultsERKT_RKT0_RKNS_11TestDetailsE
 7208      00
 7209              	.LEHE166:
 7210              	.L663:
 7211 3b91 488B4424 		movq	104(%rsp), %rax
 7211      68
 7212 3b96 64483304 		xorq	%fs:40, %rax
 7212      25280000 
 7212      00
 7213 3b9f 7506     		jne	.L671
 7214 3ba1 4883C470 		addq	$112, %rsp
 7215              		.cfi_remember_state
 7216              		.cfi_def_cfa_offset 16
 7217 3ba5 5B       		popq	%rbx
 7218              		.cfi_def_cfa_offset 8
 7219 3ba6 C3       		ret
 7220              	.L671:
 7221              		.cfi_restore_state
 7222 3ba7 E8000000 		call	__stack_chk_fail
 7222      00
 7223              	.L668:
 7224 3bac 4889C7   		movq	%rax, %rdi
 7225 3baf E8000000 		call	__cxa_begin_catch
 7225      00
 7226              	.LEHB167:
 7227 3bb4 E8000000 		call	_ZN8UnitTest11CurrentTest7DetailsEv
 7227      00
 7228 3bb9 488B30   		movq	(%rax), %rsi
 7229 3bbc 488D7C24 		leaq	64(%rsp), %rdi
 7229      40
 7230 3bc1 BABE0000 		movl	$190, %edx
 7230      00
 7231 3bc6 E8000000 		call	_ZN8UnitTest11TestDetailsC1ERKS0_i
 7231      00
 7232 3bcb E8000000 		call	_ZN8UnitTest11CurrentTest7ResultsEv
 7232      00
 7233 3bd0 488B38   		movq	(%rax), %rdi
 7234 3bd3 488D7424 		leaq	64(%rsp), %rsi
 7234      40
 7235 3bd8 BA000000 		movl	$.LC125, %edx
 7235      00
 7236 3bdd E8000000 		call	_ZN8UnitTest11TestResults13OnTestFailureERKNS_11TestDetailsEPKc
 7236      00
 7237              	.LEHE167:
 7238              	.LEHB168:
 7239 3be2 E8000000 		call	__cxa_end_catch
 7239      00
 7240              	.LEHE168:
 7241 3be7 EBA8     		jmp	.L663
 7242              	.L669:
 7243 3be9 4889C3   		movq	%rax, %rbx
 7244 3bec E8000000 		call	__cxa_end_catch
 7244      00
 7245 3bf1 4889DF   		movq	%rbx, %rdi
 7246              	.LEHB169:
 7247 3bf4 E8000000 		call	_Unwind_Resume
 7247      00
 7248              	.LEHE169:
 7249              		.cfi_endproc
 7250              	.LFE1202:
 7251              		.section	.gcc_except_table
 7252              		.align 4
 7253              	.LLSDA1202:
 7254 048c FF       		.byte	0xff
 7255 048d 03       		.byte	0x3
 7256 048e 21       		.uleb128 .LLSDATT1202-.LLSDATTD1202
 7257              	.LLSDATTD1202:
 7258 048f 01       		.byte	0x1
 7259 0490 19       		.uleb128 .LLSDACSE1202-.LLSDACSB1202
 7260              	.LLSDACSB1202:
 7261 0491 1C       		.uleb128 .LEHB165-.LFB1202
 7262 0492 4C       		.uleb128 .LEHE165-.LEHB165
 7263 0493 00       		.uleb128 0
 7264 0494 00       		.uleb128 0
 7265 0495 68       		.uleb128 .LEHB166-.LFB1202
 7266 0496 49       		.uleb128 .LEHE166-.LEHB166
 7267 0497 CC01     		.uleb128 .L668-.LFB1202
 7268 0499 01       		.uleb128 0x1
 7269 049a D401     		.uleb128 .LEHB167-.LFB1202
 7270 049c 2E       		.uleb128 .LEHE167-.LEHB167
 7271 049d 8902     		.uleb128 .L669-.LFB1202
 7272 049f 00       		.uleb128 0
 7273 04a0 8202     		.uleb128 .LEHB168-.LFB1202
 7274 04a2 05       		.uleb128 .LEHE168-.LEHB168
 7275 04a3 00       		.uleb128 0
 7276 04a4 00       		.uleb128 0
 7277 04a5 9402     		.uleb128 .LEHB169-.LFB1202
 7278 04a7 05       		.uleb128 .LEHE169-.LEHB169
 7279 04a8 00       		.uleb128 0
 7280 04a9 00       		.uleb128 0
 7281              	.LLSDACSE1202:
 7282 04aa 01       		.byte	0x1
 7283 04ab 00       		.byte	0
 7284              		.align 4
 7285 04ac 00000000 		.long	0
 7286              	
 7287              	.LLSDATT1202:
 7288              		.text
 7290              		.section	.text.unlikely
 7291              	.LCOLDE158:
 7292              		.text
 7293              	.LHOTE158:
 7294              		.section	.text.unlikely
 7295              		.align 2
 7296              	.LCOLDB161:
 7297              		.text
 7298              	.LHOTB161:
 7299 3bf9 90       		.align 2
 7300 3bfa 660F1F44 		.p2align 4,,15
 7300      0000
 7302              	_ZNK12_GLOBAL__N_139TestCheckCloseWithNaNAgainstItselfFails7RunImplEv:
 7303              	.LFB1186:
 7304              		.cfi_startproc
 7305              		.cfi_personality 0x3,__gxx_personality_v0
 7306              		.cfi_lsda 0x3,.LLSDA1186
 7307 3c00 53       		pushq	%rbx
 7308              		.cfi_def_cfa_offset 16
 7309              		.cfi_offset 3, -16
 7310 3c01 31F6     		xorl	%esi, %esi
 7311 3c03 4881ECC0 		subq	$448, %rsp
 7311      010000
 7312              		.cfi_def_cfa_offset 464
 7313 3c0a 488D7C24 		leaq	16(%rsp), %rdi
 7313      10
 7314 3c0f 488D9C24 		leaq	176(%rsp), %rbx
 7314      B0000000 
 7315 3c17 64488B04 		movq	%fs:40, %rax
 7315      25280000 
 7315      00
 7316 3c20 48898424 		movq	%rax, 440(%rsp)
 7316      B8010000 
 7317 3c28 31C0     		xorl	%eax, %eax
 7318              	.LEHB170:
 7319 3c2a E8000000 		call	_ZN8UnitTest11TestResultsC1EPNS_12TestReporterE
 7319      00
 7320 3c2f B9000000 		movl	$.LC72, %ecx
 7320      00
 7321 3c34 488D7C24 		leaq	48(%rsp), %rdi
 7321      30
 7322 3c39 4531C0   		xorl	%r8d, %r8d
 7323 3c3c 4889CE   		movq	%rcx, %rsi
 7324 3c3f 4889CA   		movq	%rcx, %rdx
 7325 3c42 E8000000 		call	_ZN8UnitTest11TestDetailsC1EPKcS2_S2_i
 7325      00
 7326              	.LEHE170:
 7327 3c47 4889DF   		movq	%rbx, %rdi
 7328 3c4a E8000000 		call	_ZNSt8ios_baseC2Ev
 7328      00
 7329 3c4f 31F6     		xorl	%esi, %esi
 7330 3c51 4889DF   		movq	%rbx, %rdi
 7331 3c54 48C78424 		movq	$0, 392(%rsp)
 7331      88010000 
 7331      00000000 
 7332 3c60 C6842490 		movb	$0, 400(%rsp)
 7332      01000000 
 7333 3c68 C6842491 		movb	$0, 401(%rsp)
 7333      01000000 
 7334 3c70 48C78424 		movq	$0, 408(%rsp)
 7334      98010000 
 7334      00000000 
 7335 3c7c 48C78424 		movq	$0, 416(%rsp)
 7335      A0010000 
 7335      00000000 
 7336 3c88 48C78424 		movq	$0, 424(%rsp)
 7336      A8010000 
 7336      00000000 
 7337 3c94 48C78424 		movq	$0, 432(%rsp)
 7337      B0010000 
 7337      00000000 
 7338 3ca0 48C74424 		movq	$_ZTCN8UnitTest15MemoryOutStreamE0_So+24, 80(%rsp)
 7338      50000000 
 7338      00
 7339 3ca9 48C78424 		movq	$_ZTCN8UnitTest15MemoryOutStreamE0_So+64, 176(%rsp)
 7339      B0000000 
 7339      00000000 
 7340              	.LEHB171:
 7341 3cb5 E8000000 		call	_ZNSt9basic_iosIcSt11char_traitsIcEE4initEPSt15basic_streambufIcS1_E
 7341      00
 7342              	.LEHE171:
 7343 3cba 488DBC24 		leaq	144(%rsp), %rdi
 7343      90000000 
 7344 3cc2 48C74424 		movq	$_ZTCN8UnitTest15MemoryOutStreamE0_St19basic_ostringstreamIcSt11char_traitsIcESaIcEE+24, 80(%
 7344      50000000 
 7344      00
 7345 3ccb 48C78424 		movq	$_ZTCN8UnitTest15MemoryOutStreamE0_St19basic_ostringstreamIcSt11char_traitsIcESaIcEE+64, 176(
 7345      B0000000 
 7345      00000000 
 7346 3cd7 48C74424 		movq	$_ZTVSt15basic_streambufIcSt11char_traitsIcEE+16, 88(%rsp)
 7346      58000000 
 7346      00
 7347 3ce0 48C74424 		movq	$0, 96(%rsp)
 7347      60000000 
 7347      00
 7348 3ce9 48C74424 		movq	$0, 104(%rsp)
 7348      68000000 
 7348      00
 7349 3cf2 48C74424 		movq	$0, 112(%rsp)
 7349      70000000 
 7349      00
 7350 3cfb 48C74424 		movq	$0, 120(%rsp)
 7350      78000000 
 7350      00
 7351 3d04 48C78424 		movq	$0, 128(%rsp)
 7351      80000000 
 7351      00000000 
 7352 3d10 48C78424 		movq	$0, 136(%rsp)
 7352      88000000 
 7352      00000000 
 7353 3d1c E8000000 		call	_ZNSt6localeC1Ev
 7353      00
 7354 3d21 488B4424 		movq	80(%rsp), %rax
 7354      50
 7355 3d26 488D7C24 		leaq	80(%rsp), %rdi
 7355      50
 7356 3d2b 488D7424 		leaq	88(%rsp), %rsi
 7356      58
 7357 3d30 48C74424 		movq	$_ZTVSt15basic_stringbufIcSt11char_traitsIcESaIcEE+16, 88(%rsp)
 7357      58000000 
 7357      00
 7358 3d39 C7842498 		movl	$16, 152(%rsp)
 7358      00000010 
 7358      000000
 7359 3d44 48C78424 		movq	$_ZNSs4_Rep20_S_empty_rep_storageE+24, 160(%rsp)
 7359      A0000000 
 7359      00000000 
 7360 3d50 480378E8 		addq	-24(%rax), %rdi
 7361              	.LEHB172:
 7362 3d54 E8000000 		call	_ZNSt9basic_iosIcSt11char_traitsIcEE4initEPSt15basic_streambufIcS1_E
 7362      00
 7363              	.LEHE172:
 7364 3d59 488D7C24 		leaq	80(%rsp), %rdi
 7364      50
 7365 3d5e BA090000 		movl	$9, %edx
 7365      00
 7366 3d63 BE000000 		movl	$.LC73, %esi
 7366      00
 7367 3d68 48C74424 		movq	$_ZTVN8UnitTest15MemoryOutStreamE+24, 80(%rsp)
 7367      50000000 
 7367      00
 7368 3d71 48C78424 		movq	$_ZTVN8UnitTest15MemoryOutStreamE+64, 176(%rsp)
 7368      B0000000 
 7368      00000000 
 7369 3d7d 48C78424 		movq	$_ZNSs4_Rep20_S_empty_rep_storageE+24, 168(%rsp)
 7369      A8000000 
 7369      00000000 
 7370              	.LEHB173:
 7371 3d89 E8000000 		call	_ZSt16__ostream_insertIcSt11char_traitsIcEERSt13basic_ostreamIT_T0_ES6_PKS3_l
 7371      00
 7372 3d8e F20F1005 		movsd	.LC159(%rip), %xmm0
 7372      00000000 
 7373 3d96 488D7C24 		leaq	80(%rsp), %rdi
 7373      50
 7374 3d9b E8000000 		call	_ZNSo9_M_insertIdEERSoT_
 7374      00
 7375 3da0 BA050000 		movl	$5, %edx
 7375      00
 7376 3da5 BE000000 		movl	$.LC75, %esi
 7376      00
 7377 3daa 4889C7   		movq	%rax, %rdi
 7378 3dad 4889C3   		movq	%rax, %rbx
 7379 3db0 E8000000 		call	_ZSt16__ostream_insertIcSt11char_traitsIcEERSt13basic_ostreamIT_T0_ES6_PKS3_l
 7379      00
 7380 3db5 F20F1005 		movsd	.LC160(%rip), %xmm0
 7380      00000000 
 7381 3dbd 4889DF   		movq	%rbx, %rdi
 7382 3dc0 E8000000 		call	_ZNSo9_M_insertIdEERSoT_
 7382      00
 7383 3dc5 BA090000 		movl	$9, %edx
 7383      00
 7384 3dca BE000000 		movl	$.LC77, %esi
 7384      00
 7385 3dcf 4889C7   		movq	%rax, %rdi
 7386 3dd2 4889C3   		movq	%rax, %rbx
 7387 3dd5 E8000000 		call	_ZSt16__ostream_insertIcSt11char_traitsIcEERSt13basic_ostreamIT_T0_ES6_PKS3_l
 7387      00
 7388 3dda F20F1005 		movsd	.LC159(%rip), %xmm0
 7388      00000000 
 7389 3de2 4889DF   		movq	%rbx, %rdi
 7390 3de5 E8000000 		call	_ZNSo9_M_insertIdEERSoT_
 7390      00
 7391 3dea 488D7C24 		leaq	80(%rsp), %rdi
 7391      50
 7392 3def E8000000 		call	_ZNK8UnitTest15MemoryOutStream7GetTextEv
 7392      00
 7393 3df4 488D7424 		leaq	48(%rsp), %rsi
 7393      30
 7394 3df9 488D7C24 		leaq	16(%rsp), %rdi
 7394      10
 7395 3dfe 4889C2   		movq	%rax, %rdx
 7396 3e01 E8000000 		call	_ZN8UnitTest11TestResults13OnTestFailureERKNS_11TestDetailsEPKc
 7396      00
 7397              	.LEHE173:
 7398 3e06 488B8424 		movq	168(%rsp), %rax
 7398      A8000000 
 7399 3e0e 48C74424 		movq	$_ZTVN8UnitTest15MemoryOutStreamE+24, 80(%rsp)
 7399      50000000 
 7399      00
 7400 3e17 48C78424 		movq	$_ZTVN8UnitTest15MemoryOutStreamE+64, 176(%rsp)
 7400      B0000000 
 7400      00000000 
 7401 3e23 488D78E8 		leaq	-24(%rax), %rdi
 7402 3e27 4881FF00 		cmpq	$_ZNSs4_Rep20_S_empty_rep_storageE, %rdi
 7402      000000
 7403 3e2e 0F85D400 		jne	.L705
 7403      0000
 7404              	.L678:
 7405 3e34 488B8424 		movq	160(%rsp), %rax
 7405      A0000000 
 7406 3e3c 48C74424 		movq	$_ZTCN8UnitTest15MemoryOutStreamE0_St19basic_ostringstreamIcSt11char_traitsIcESaIcEE+24, 80(%
 7406      50000000 
 7406      00
 7407 3e45 48C78424 		movq	$_ZTCN8UnitTest15MemoryOutStreamE0_St19basic_ostringstreamIcSt11char_traitsIcESaIcEE+64, 176(
 7407      B0000000 
 7407      00000000 
 7408 3e51 48C74424 		movq	$_ZTVSt15basic_stringbufIcSt11char_traitsIcESaIcEE+16, 88(%rsp)
 7408      58000000 
 7408      00
 7409 3e5a 488D78E8 		leaq	-24(%rax), %rdi
 7410 3e5e 4881FF00 		cmpq	$_ZNSs4_Rep20_S_empty_rep_storageE, %rdi
 7410      000000
 7411 3e65 0F85CD00 		jne	.L706
 7411      0000
 7412              	.L683:
 7413 3e6b 488DBC24 		leaq	144(%rsp), %rdi
 7413      90000000 
 7414 3e73 48C74424 		movq	$_ZTVSt15basic_streambufIcSt11char_traitsIcEE+16, 88(%rsp)
 7414      58000000 
 7414      00
 7415 3e7c E8000000 		call	_ZNSt6localeD1Ev
 7415      00
 7416 3e81 488DBC24 		leaq	176(%rsp), %rdi
 7416      B0000000 
 7417 3e89 48C78424 		movq	$_ZTVSt9basic_iosIcSt11char_traitsIcEE+16, 176(%rsp)
 7417      B0000000 
 7417      00000000 
 7418              	.LEHB174:
 7419 3e95 E8000000 		call	_ZNSt8ios_baseD2Ev
 7419      00
 7420              	.LEHE174:
 7421              	.LEHB175:
 7422 3e9a E8000000 		call	_ZN8UnitTest11CurrentTest7DetailsEv
 7422      00
 7423 3e9f 488B30   		movq	(%rax), %rsi
 7424 3ea2 488D7C24 		leaq	48(%rsp), %rdi
 7424      30
 7425 3ea7 BA8F0000 		movl	$143, %edx
 7425      00
 7426 3eac E8000000 		call	_ZN8UnitTest11TestDetailsC1ERKS0_i
 7426      00
 7427 3eb1 488D7C24 		leaq	16(%rsp), %rdi
 7427      10
 7428 3eb6 E8000000 		call	_ZNK8UnitTest11TestResults15GetFailureCountEv
 7428      00
 7429 3ebb 8944240C 		movl	%eax, 12(%rsp)
 7430 3ebf C7442408 		movl	$1, 8(%rsp)
 7430      01000000 
 7431 3ec7 E8000000 		call	_ZN8UnitTest11CurrentTest7ResultsEv
 7431      00
 7432 3ecc 488B38   		movq	(%rax), %rdi
 7433 3ecf 488D4C24 		leaq	48(%rsp), %rcx
 7433      30
 7434 3ed4 488D5424 		leaq	12(%rsp), %rdx
 7434      0C
 7435 3ed9 488D7424 		leaq	8(%rsp), %rsi
 7435      08
 7436 3ede E8000000 		call	_ZN8UnitTest10CheckEqualIiiEEvRNS_11TestResultsERKT_RKT0_RKNS_11TestDetailsE
 7436      00
 7437              	.LEHE175:
 7438              	.L672:
 7439 3ee3 488B8424 		movq	440(%rsp), %rax
 7439      B8010000 
 7440 3eeb 64483304 		xorq	%fs:40, %rax
 7440      25280000 
 7440      00
 7441 3ef4 0F858B00 		jne	.L707
 7441      0000
 7442 3efa 4881C4C0 		addq	$448, %rsp
 7442      010000
 7443              		.cfi_remember_state
 7444              		.cfi_def_cfa_offset 16
 7445 3f01 5B       		popq	%rbx
 7446              		.cfi_def_cfa_offset 8
 7447 3f02 C3       		ret
 7448              		.p2align 4,,10
 7449 3f03 0F1F4400 		.p2align 3
 7449      00
 7450              	.L705:
 7451              		.cfi_restore_state
 7452 3f08 BA000000 		movl	$_ZL28__gthrw___pthread_key_createPjPFvPvE, %edx
 7452      00
 7453 3f0d 4885D2   		testq	%rdx, %rdx
 7454 3f10 7456     		je	.L679
 7455 3f12 BAFFFFFF 		movl	$-1, %edx
 7455      FF
 7456 3f17 F00FC150 		lock xaddl	%edx, -8(%rax)
 7456      F8
 7457 3f1c 89D0     		movl	%edx, %eax
 7458              	.L680:
 7459 3f1e 85C0     		testl	%eax, %eax
 7460 3f20 0F8F0EFF 		jg	.L678
 7460      FFFF
 7461 3f26 488D7424 		leaq	12(%rsp), %rsi
 7461      0C
 7462 3f2b E8000000 		call	_ZNSs4_Rep10_M_destroyERKSaIcE
 7462      00
 7463 3f30 E9FFFEFF 		jmp	.L678
 7463      FF
 7464              		.p2align 4,,10
 7465 3f35 0F1F00   		.p2align 3
 7466              	.L706:
 7467 3f38 BA000000 		movl	$_ZL28__gthrw___pthread_key_createPjPFvPvE, %edx
 7467      00
 7468 3f3d 4885D2   		testq	%rdx, %rdx
 7469 3f40 7436     		je	.L684
 7470 3f42 BAFFFFFF 		movl	$-1, %edx
 7470      FF
 7471 3f47 F00FC150 		lock xaddl	%edx, -8(%rax)
 7471      F8
 7472 3f4c 89D0     		movl	%edx, %eax
 7473              	.L685:
 7474 3f4e 85C0     		testl	%eax, %eax
 7475 3f50 0F8F15FF 		jg	.L683
 7475      FFFF
 7476 3f56 488D7424 		leaq	12(%rsp), %rsi
 7476      0C
 7477 3f5b E8000000 		call	_ZNSs4_Rep10_M_destroyERKSaIcE
 7477      00
 7478 3f60 E906FFFF 		jmp	.L683
 7478      FF
 7479              		.p2align 4,,10
 7480 3f65 0F1F00   		.p2align 3
 7481              	.L679:
 7482 3f68 8B50F8   		movl	-8(%rax), %edx
 7483 3f6b 8D4AFF   		leal	-1(%rdx), %ecx
 7484 3f6e 8948F8   		movl	%ecx, -8(%rax)
 7485 3f71 89D0     		movl	%edx, %eax
 7486 3f73 EBA9     		jmp	.L680
 7487              		.p2align 4,,10
 7488 3f75 0F1F00   		.p2align 3
 7489              	.L684:
 7490 3f78 8B50F8   		movl	-8(%rax), %edx
 7491 3f7b 8D4AFF   		leal	-1(%rdx), %ecx
 7492 3f7e 8948F8   		movl	%ecx, -8(%rax)
 7493 3f81 89D0     		movl	%edx, %eax
 7494 3f83 EBC9     		jmp	.L685
 7495              	.L707:
 7496 3f85 E8000000 		call	__stack_chk_fail
 7496      00
 7497              	.L695:
 7498 3f8a 488D7C24 		leaq	80(%rsp), %rdi
 7498      50
 7499 3f8f 4889C3   		movq	%rax, %rbx
 7500 3f92 E8000000 		call	_ZN8UnitTest15MemoryOutStreamD1Ev
 7500      00
 7501 3f97 4889DF   		movq	%rbx, %rdi
 7502              	.LEHB176:
 7503 3f9a E8000000 		call	_Unwind_Resume
 7503      00
 7504              	.LEHE176:
 7505              	.L697:
 7506 3f9f 488D7C24 		leaq	88(%rsp), %rdi
 7506      58
 7507 3fa4 4889C3   		movq	%rax, %rbx
 7508 3fa7 E8000000 		call	_ZNSt15basic_stringbufIcSt11char_traitsIcESaIcEED1Ev
 7508      00
 7509              	.L675:
 7510 3fac 488DBC24 		leaq	176(%rsp), %rdi
 7510      B0000000 
 7511 3fb4 48C78424 		movq	$_ZTVSt9basic_iosIcSt11char_traitsIcEE+16, 176(%rsp)
 7511      B0000000 
 7511      00000000 
 7512 3fc0 E8000000 		call	_ZNSt8ios_baseD2Ev
 7512      00
 7513 3fc5 4889DF   		movq	%rbx, %rdi
 7514              	.LEHB177:
 7515 3fc8 E8000000 		call	_Unwind_Resume
 7515      00
 7516              	.LEHE177:
 7517              	.L693:
 7518 3fcd 4889C7   		movq	%rax, %rdi
 7519 3fd0 E8000000 		call	__cxa_begin_catch
 7519      00
 7520              	.LEHB178:
 7521 3fd5 E8000000 		call	_ZN8UnitTest11CurrentTest7DetailsEv
 7521      00
 7522 3fda 488B30   		movq	(%rax), %rsi
 7523 3fdd 488D7C24 		leaq	48(%rsp), %rdi
 7523      30
 7524 3fe2 BA8F0000 		movl	$143, %edx
 7524      00
 7525 3fe7 E8000000 		call	_ZN8UnitTest11TestDetailsC1ERKS0_i
 7525      00
 7526 3fec E8000000 		call	_ZN8UnitTest11CurrentTest7ResultsEv
 7526      00
 7527 3ff1 488B38   		movq	(%rax), %rdi
 7528 3ff4 488D7424 		leaq	48(%rsp), %rsi
 7528      30
 7529 3ff9 BA000000 		movl	$.LC122, %edx
 7529      00
 7530 3ffe E8000000 		call	_ZN8UnitTest11TestResults13OnTestFailureERKNS_11TestDetailsEPKc
 7530      00
 7531              	.LEHE178:
 7532              	.LEHB179:
 7533 4003 E8000000 		call	__cxa_end_catch
 7533      00
 7534              	.LEHE179:
 7535 4008 E9D6FEFF 		jmp	.L672
 7535      FF
 7536              	.L696:
 7537 400d 4889C3   		movq	%rax, %rbx
 7538 4010 EB9A     		jmp	.L675
 7539              	.L694:
 7540 4012 4889C3   		movq	%rax, %rbx
 7541 4015 E8000000 		call	__cxa_end_catch
 7541      00
 7542 401a 4889DF   		movq	%rbx, %rdi
 7543              	.LEHB180:
 7544 401d E8000000 		call	_Unwind_Resume
 7544      00
 7545              	.LEHE180:
 7546              		.cfi_endproc
 7547              	.LFE1186:
 7548              		.section	.gcc_except_table
 7549              		.align 4
 7550              	.LLSDA1186:
 7551 04b0 FF       		.byte	0xff
 7552 04b1 03       		.byte	0x3
 7553 04b2 45       		.uleb128 .LLSDATT1186-.LLSDATTD1186
 7554              	.LLSDATTD1186:
 7555 04b3 01       		.byte	0x1
 7556 04b4 3B       		.uleb128 .LLSDACSE1186-.LLSDACSB1186
 7557              	.LLSDACSB1186:
 7558 04b5 2A       		.uleb128 .LEHB170-.LFB1186
 7559 04b6 1D       		.uleb128 .LEHE170-.LEHB170
 7560 04b7 00       		.uleb128 0
 7561 04b8 00       		.uleb128 0
 7562 04b9 B501     		.uleb128 .LEHB171-.LFB1186
 7563 04bb 05       		.uleb128 .LEHE171-.LEHB171
 7564 04bc 8D08     		.uleb128 .L696-.LFB1186
 7565 04be 00       		.uleb128 0
 7566 04bf D402     		.uleb128 .LEHB172-.LFB1186
 7567 04c1 05       		.uleb128 .LEHE172-.LEHB172
 7568 04c2 9F07     		.uleb128 .L697-.LFB1186
 7569 04c4 00       		.uleb128 0
 7570 04c5 8903     		.uleb128 .LEHB173-.LFB1186
 7571 04c7 7D       		.uleb128 .LEHE173-.LEHB173
 7572 04c8 8A07     		.uleb128 .L695-.LFB1186
 7573 04ca 00       		.uleb128 0
 7574 04cb 9505     		.uleb128 .LEHB174-.LFB1186
 7575 04cd 05       		.uleb128 .LEHE174-.LEHB174
 7576 04ce 00       		.uleb128 0
 7577 04cf 00       		.uleb128 0
 7578 04d0 9A05     		.uleb128 .LEHB175-.LFB1186
 7579 04d2 49       		.uleb128 .LEHE175-.LEHB175
 7580 04d3 CD07     		.uleb128 .L693-.LFB1186
 7581 04d5 01       		.uleb128 0x1
 7582 04d6 9A07     		.uleb128 .LEHB176-.LFB1186
 7583 04d8 05       		.uleb128 .LEHE176-.LEHB176
 7584 04d9 00       		.uleb128 0
 7585 04da 00       		.uleb128 0
 7586 04db C807     		.uleb128 .LEHB177-.LFB1186
 7587 04dd 05       		.uleb128 .LEHE177-.LEHB177
 7588 04de 00       		.uleb128 0
 7589 04df 00       		.uleb128 0
 7590 04e0 D507     		.uleb128 .LEHB178-.LFB1186
 7591 04e2 2E       		.uleb128 .LEHE178-.LEHB178
 7592 04e3 9208     		.uleb128 .L694-.LFB1186
 7593 04e5 00       		.uleb128 0
 7594 04e6 8308     		.uleb128 .LEHB179-.LFB1186
 7595 04e8 05       		.uleb128 .LEHE179-.LEHB179
 7596 04e9 00       		.uleb128 0
 7597 04ea 00       		.uleb128 0
 7598 04eb 9D08     		.uleb128 .LEHB180-.LFB1186
 7599 04ed 05       		.uleb128 .LEHE180-.LEHB180
 7600 04ee 00       		.uleb128 0
 7601 04ef 00       		.uleb128 0
 7602              	.LLSDACSE1186:
 7603 04f0 01       		.byte	0x1
 7604 04f1 00       		.byte	0
 7605 04f2 0000     		.align 4
 7606 04f4 00000000 		.long	0
 7607              	
 7608              	.LLSDATT1186:
 7609              		.text
 7611              		.section	.text.unlikely
 7612              	.LCOLDE161:
 7613              		.text
 7614              	.LHOTE161:
 7615              		.section	.text.unlikely
 7616              		.align 2
 7617              	.LCOLDB163:
 7618              		.text
 7619              	.LHOTB163:
 7620              		.align 2
 7621 4022 0F1F4000 		.p2align 4,,15
 7621      662E0F1F 
 7621      84000000 
 7621      0000
 7623              	_ZNK12_GLOBAL__N_126TestCheckCloseWithNaNFails7RunImplEv:
 7624              	.LFB1182:
 7625              		.cfi_startproc
 7626              		.cfi_personality 0x3,__gxx_personality_v0
 7627              		.cfi_lsda 0x3,.LLSDA1182
 7628 4030 53       		pushq	%rbx
 7629              		.cfi_def_cfa_offset 16
 7630              		.cfi_offset 3, -16
 7631 4031 31F6     		xorl	%esi, %esi
 7632 4033 4881ECC0 		subq	$448, %rsp
 7632      010000
 7633              		.cfi_def_cfa_offset 464
 7634 403a 488D7C24 		leaq	16(%rsp), %rdi
 7634      10
 7635 403f 488D9C24 		leaq	176(%rsp), %rbx
 7635      B0000000 
 7636 4047 64488B04 		movq	%fs:40, %rax
 7636      25280000 
 7636      00
 7637 4050 48898424 		movq	%rax, 440(%rsp)
 7637      B8010000 
 7638 4058 31C0     		xorl	%eax, %eax
 7639              	.LEHB181:
 7640 405a E8000000 		call	_ZN8UnitTest11TestResultsC1EPNS_12TestReporterE
 7640      00
 7641 405f B9000000 		movl	$.LC72, %ecx
 7641      00
 7642 4064 488D7C24 		leaq	48(%rsp), %rdi
 7642      30
 7643 4069 4531C0   		xorl	%r8d, %r8d
 7644 406c 4889CE   		movq	%rcx, %rsi
 7645 406f 4889CA   		movq	%rcx, %rdx
 7646 4072 E8000000 		call	_ZN8UnitTest11TestDetailsC1EPKcS2_S2_i
 7646      00
 7647              	.LEHE181:
 7648 4077 4889DF   		movq	%rbx, %rdi
 7649 407a E8000000 		call	_ZNSt8ios_baseC2Ev
 7649      00
 7650 407f 31F6     		xorl	%esi, %esi
 7651 4081 4889DF   		movq	%rbx, %rdi
 7652 4084 48C78424 		movq	$0, 392(%rsp)
 7652      88010000 
 7652      00000000 
 7653 4090 C6842490 		movb	$0, 400(%rsp)
 7653      01000000 
 7654 4098 C6842491 		movb	$0, 401(%rsp)
 7654      01000000 
 7655 40a0 48C78424 		movq	$0, 408(%rsp)
 7655      98010000 
 7655      00000000 
 7656 40ac 48C78424 		movq	$0, 416(%rsp)
 7656      A0010000 
 7656      00000000 
 7657 40b8 48C78424 		movq	$0, 424(%rsp)
 7657      A8010000 
 7657      00000000 
 7658 40c4 48C78424 		movq	$0, 432(%rsp)
 7658      B0010000 
 7658      00000000 
 7659 40d0 48C74424 		movq	$_ZTCN8UnitTest15MemoryOutStreamE0_So+24, 80(%rsp)
 7659      50000000 
 7659      00
 7660 40d9 48C78424 		movq	$_ZTCN8UnitTest15MemoryOutStreamE0_So+64, 176(%rsp)
 7660      B0000000 
 7660      00000000 
 7661              	.LEHB182:
 7662 40e5 E8000000 		call	_ZNSt9basic_iosIcSt11char_traitsIcEE4initEPSt15basic_streambufIcS1_E
 7662      00
 7663              	.LEHE182:
 7664 40ea 488DBC24 		leaq	144(%rsp), %rdi
 7664      90000000 
 7665 40f2 48C74424 		movq	$_ZTCN8UnitTest15MemoryOutStreamE0_St19basic_ostringstreamIcSt11char_traitsIcESaIcEE+24, 80(%
 7665      50000000 
 7665      00
 7666 40fb 48C78424 		movq	$_ZTCN8UnitTest15MemoryOutStreamE0_St19basic_ostringstreamIcSt11char_traitsIcESaIcEE+64, 176(
 7666      B0000000 
 7666      00000000 
 7667 4107 48C74424 		movq	$_ZTVSt15basic_streambufIcSt11char_traitsIcEE+16, 88(%rsp)
 7667      58000000 
 7667      00
 7668 4110 48C74424 		movq	$0, 96(%rsp)
 7668      60000000 
 7668      00
 7669 4119 48C74424 		movq	$0, 104(%rsp)
 7669      68000000 
 7669      00
 7670 4122 48C74424 		movq	$0, 112(%rsp)
 7670      70000000 
 7670      00
 7671 412b 48C74424 		movq	$0, 120(%rsp)
 7671      78000000 
 7671      00
 7672 4134 48C78424 		movq	$0, 128(%rsp)
 7672      80000000 
 7672      00000000 
 7673 4140 48C78424 		movq	$0, 136(%rsp)
 7673      88000000 
 7673      00000000 
 7674 414c E8000000 		call	_ZNSt6localeC1Ev
 7674      00
 7675 4151 488B4424 		movq	80(%rsp), %rax
 7675      50
 7676 4156 488D7C24 		leaq	80(%rsp), %rdi
 7676      50
 7677 415b 488D7424 		leaq	88(%rsp), %rsi
 7677      58
 7678 4160 48C74424 		movq	$_ZTVSt15basic_stringbufIcSt11char_traitsIcESaIcEE+16, 88(%rsp)
 7678      58000000 
 7678      00
 7679 4169 C7842498 		movl	$16, 152(%rsp)
 7679      00000010 
 7679      000000
 7680 4174 48C78424 		movq	$_ZNSs4_Rep20_S_empty_rep_storageE+24, 160(%rsp)
 7680      A0000000 
 7680      00000000 
 7681 4180 480378E8 		addq	-24(%rax), %rdi
 7682              	.LEHB183:
 7683 4184 E8000000 		call	_ZNSt9basic_iosIcSt11char_traitsIcEE4initEPSt15basic_streambufIcS1_E
 7683      00
 7684              	.LEHE183:
 7685 4189 488D7C24 		leaq	80(%rsp), %rdi
 7685      50
 7686 418e BA090000 		movl	$9, %edx
 7686      00
 7687 4193 BE000000 		movl	$.LC73, %esi
 7687      00
 7688 4198 48C74424 		movq	$_ZTVN8UnitTest15MemoryOutStreamE+24, 80(%rsp)
 7688      50000000 
 7688      00
 7689 41a1 48C78424 		movq	$_ZTVN8UnitTest15MemoryOutStreamE+64, 176(%rsp)
 7689      B0000000 
 7689      00000000 
 7690 41ad 48C78424 		movq	$_ZNSs4_Rep20_S_empty_rep_storageE+24, 168(%rsp)
 7690      A8000000 
 7690      00000000 
 7691              	.LEHB184:
 7692 41b9 E8000000 		call	_ZSt16__ostream_insertIcSt11char_traitsIcEERSt13basic_ostreamIT_T0_ES6_PKS3_l
 7692      00
 7693 41be F20F1005 		movsd	.LC162(%rip), %xmm0
 7693      00000000 
 7694 41c6 488D7C24 		leaq	80(%rsp), %rdi
 7694      50
 7695 41cb E8000000 		call	_ZNSo9_M_insertIdEERSoT_
 7695      00
 7696 41d0 BA050000 		movl	$5, %edx
 7696      00
 7697 41d5 BE000000 		movl	$.LC75, %esi
 7697      00
 7698 41da 4889C7   		movq	%rax, %rdi
 7699 41dd 4889C3   		movq	%rax, %rbx
 7700 41e0 E8000000 		call	_ZSt16__ostream_insertIcSt11char_traitsIcEERSt13basic_ostreamIT_T0_ES6_PKS3_l
 7700      00
 7701 41e5 F20F1005 		movsd	.LC160(%rip), %xmm0
 7701      00000000 
 7702 41ed 4889DF   		movq	%rbx, %rdi
 7703 41f0 E8000000 		call	_ZNSo9_M_insertIdEERSoT_
 7703      00
 7704 41f5 BA090000 		movl	$9, %edx
 7704      00
 7705 41fa BE000000 		movl	$.LC77, %esi
 7705      00
 7706 41ff 4889C7   		movq	%rax, %rdi
 7707 4202 4889C3   		movq	%rax, %rbx
 7708 4205 E8000000 		call	_ZSt16__ostream_insertIcSt11char_traitsIcEERSt13basic_ostreamIT_T0_ES6_PKS3_l
 7708      00
 7709 420a F20F1005 		movsd	.LC159(%rip), %xmm0
 7709      00000000 
 7710 4212 4889DF   		movq	%rbx, %rdi
 7711 4215 E8000000 		call	_ZNSo9_M_insertIdEERSoT_
 7711      00
 7712 421a 488D7C24 		leaq	80(%rsp), %rdi
 7712      50
 7713 421f E8000000 		call	_ZNK8UnitTest15MemoryOutStream7GetTextEv
 7713      00
 7714 4224 488D7424 		leaq	48(%rsp), %rsi
 7714      30
 7715 4229 488D7C24 		leaq	16(%rsp), %rdi
 7715      10
 7716 422e 4889C2   		movq	%rax, %rdx
 7717 4231 E8000000 		call	_ZN8UnitTest11TestResults13OnTestFailureERKNS_11TestDetailsEPKc
 7717      00
 7718              	.LEHE184:
 7719 4236 488B8424 		movq	168(%rsp), %rax
 7719      A8000000 
 7720 423e 48C74424 		movq	$_ZTVN8UnitTest15MemoryOutStreamE+24, 80(%rsp)
 7720      50000000 
 7720      00
 7721 4247 48C78424 		movq	$_ZTVN8UnitTest15MemoryOutStreamE+64, 176(%rsp)
 7721      B0000000 
 7721      00000000 
 7722 4253 488D78E8 		leaq	-24(%rax), %rdi
 7723 4257 4881FF00 		cmpq	$_ZNSs4_Rep20_S_empty_rep_storageE, %rdi
 7723      000000
 7724 425e 0F85D400 		jne	.L746
 7724      0000
 7725              	.L719:
 7726 4264 488B8424 		movq	160(%rsp), %rax
 7726      A0000000 
 7727 426c 48C74424 		movq	$_ZTCN8UnitTest15MemoryOutStreamE0_St19basic_ostringstreamIcSt11char_traitsIcESaIcEE+24, 80(%
 7727      50000000 
 7727      00
 7728 4275 48C78424 		movq	$_ZTCN8UnitTest15MemoryOutStreamE0_St19basic_ostringstreamIcSt11char_traitsIcESaIcEE+64, 176(
 7728      B0000000 
 7728      00000000 
 7729 4281 48C74424 		movq	$_ZTVSt15basic_stringbufIcSt11char_traitsIcESaIcEE+16, 88(%rsp)
 7729      58000000 
 7729      00
 7730 428a 488D78E8 		leaq	-24(%rax), %rdi
 7731 428e 4881FF00 		cmpq	$_ZNSs4_Rep20_S_empty_rep_storageE, %rdi
 7731      000000
 7732 4295 0F85CD00 		jne	.L747
 7732      0000
 7733              	.L724:
 7734 429b 488DBC24 		leaq	144(%rsp), %rdi
 7734      90000000 
 7735 42a3 48C74424 		movq	$_ZTVSt15basic_streambufIcSt11char_traitsIcEE+16, 88(%rsp)
 7735      58000000 
 7735      00
 7736 42ac E8000000 		call	_ZNSt6localeD1Ev
 7736      00
 7737 42b1 488DBC24 		leaq	176(%rsp), %rdi
 7737      B0000000 
 7738 42b9 48C78424 		movq	$_ZTVSt9basic_iosIcSt11char_traitsIcEE+16, 176(%rsp)
 7738      B0000000 
 7738      00000000 
 7739              	.LEHB185:
 7740 42c5 E8000000 		call	_ZNSt8ios_baseD2Ev
 7740      00
 7741              	.LEHE185:
 7742              	.LEHB186:
 7743 42ca E8000000 		call	_ZN8UnitTest11CurrentTest7DetailsEv
 7743      00
 7744 42cf 488B30   		movq	(%rax), %rsi
 7745 42d2 488D7C24 		leaq	48(%rsp), %rdi
 7745      30
 7746 42d7 BA820000 		movl	$130, %edx
 7746      00
 7747 42dc E8000000 		call	_ZN8UnitTest11TestDetailsC1ERKS0_i
 7747      00
 7748 42e1 488D7C24 		leaq	16(%rsp), %rdi
 7748      10
 7749 42e6 E8000000 		call	_ZNK8UnitTest11TestResults15GetFailureCountEv
 7749      00
 7750 42eb 8944240C 		movl	%eax, 12(%rsp)
 7751 42ef C7442408 		movl	$1, 8(%rsp)
 7751      01000000 
 7752 42f7 E8000000 		call	_ZN8UnitTest11CurrentTest7ResultsEv
 7752      00
 7753 42fc 488B38   		movq	(%rax), %rdi
 7754 42ff 488D4C24 		leaq	48(%rsp), %rcx
 7754      30
 7755 4304 488D5424 		leaq	12(%rsp), %rdx
 7755      0C
 7756 4309 488D7424 		leaq	8(%rsp), %rsi
 7756      08
 7757 430e E8000000 		call	_ZN8UnitTest10CheckEqualIiiEEvRNS_11TestResultsERKT_RKT0_RKNS_11TestDetailsE
 7757      00
 7758              	.LEHE186:
 7759              	.L708:
 7760 4313 488B8424 		movq	440(%rsp), %rax
 7760      B8010000 
 7761 431b 64483304 		xorq	%fs:40, %rax
 7761      25280000 
 7761      00
 7762 4324 0F858B00 		jne	.L748
 7762      0000
 7763 432a 4881C4C0 		addq	$448, %rsp
 7763      010000
 7764              		.cfi_remember_state
 7765              		.cfi_def_cfa_offset 16
 7766 4331 5B       		popq	%rbx
 7767              		.cfi_def_cfa_offset 8
 7768 4332 C3       		ret
 7769              		.p2align 4,,10
 7770 4333 0F1F4400 		.p2align 3
 7770      00
 7771              	.L746:
 7772              		.cfi_restore_state
 7773 4338 BA000000 		movl	$_ZL28__gthrw___pthread_key_createPjPFvPvE, %edx
 7773      00
 7774 433d 4885D2   		testq	%rdx, %rdx
 7775 4340 7456     		je	.L720
 7776 4342 BAFFFFFF 		movl	$-1, %edx
 7776      FF
 7777 4347 F00FC150 		lock xaddl	%edx, -8(%rax)
 7777      F8
 7778 434c 89D0     		movl	%edx, %eax
 7779              	.L721:
 7780 434e 85C0     		testl	%eax, %eax
 7781 4350 0F8F0EFF 		jg	.L719
 7781      FFFF
 7782 4356 488D7424 		leaq	12(%rsp), %rsi
 7782      0C
 7783 435b E8000000 		call	_ZNSs4_Rep10_M_destroyERKSaIcE
 7783      00
 7784 4360 E9FFFEFF 		jmp	.L719
 7784      FF
 7785              		.p2align 4,,10
 7786 4365 0F1F00   		.p2align 3
 7787              	.L747:
 7788 4368 BA000000 		movl	$_ZL28__gthrw___pthread_key_createPjPFvPvE, %edx
 7788      00
 7789 436d 4885D2   		testq	%rdx, %rdx
 7790 4370 7436     		je	.L725
 7791 4372 BAFFFFFF 		movl	$-1, %edx
 7791      FF
 7792 4377 F00FC150 		lock xaddl	%edx, -8(%rax)
 7792      F8
 7793 437c 89D0     		movl	%edx, %eax
 7794              	.L726:
 7795 437e 85C0     		testl	%eax, %eax
 7796 4380 0F8F15FF 		jg	.L724
 7796      FFFF
 7797 4386 488D7424 		leaq	12(%rsp), %rsi
 7797      0C
 7798 438b E8000000 		call	_ZNSs4_Rep10_M_destroyERKSaIcE
 7798      00
 7799 4390 E906FFFF 		jmp	.L724
 7799      FF
 7800              		.p2align 4,,10
 7801 4395 0F1F00   		.p2align 3
 7802              	.L720:
 7803 4398 8B50F8   		movl	-8(%rax), %edx
 7804 439b 8D4AFF   		leal	-1(%rdx), %ecx
 7805 439e 8948F8   		movl	%ecx, -8(%rax)
 7806 43a1 89D0     		movl	%edx, %eax
 7807 43a3 EBA9     		jmp	.L721
 7808              		.p2align 4,,10
 7809 43a5 0F1F00   		.p2align 3
 7810              	.L725:
 7811 43a8 8B50F8   		movl	-8(%rax), %edx
 7812 43ab 8D4AFF   		leal	-1(%rdx), %ecx
 7813 43ae 8948F8   		movl	%ecx, -8(%rax)
 7814 43b1 89D0     		movl	%edx, %eax
 7815 43b3 EBC9     		jmp	.L726
 7816              	.L748:
 7817 43b5 E8000000 		call	__stack_chk_fail
 7817      00
 7818              	.L736:
 7819 43ba 488D7C24 		leaq	80(%rsp), %rdi
 7819      50
 7820 43bf 4889C3   		movq	%rax, %rbx
 7821 43c2 E8000000 		call	_ZN8UnitTest15MemoryOutStreamD1Ev
 7821      00
 7822 43c7 4889DF   		movq	%rbx, %rdi
 7823              	.LEHB187:
 7824 43ca E8000000 		call	_Unwind_Resume
 7824      00
 7825              	.LEHE187:
 7826              	.L738:
 7827 43cf 488D7C24 		leaq	88(%rsp), %rdi
 7827      58
 7828 43d4 4889C3   		movq	%rax, %rbx
 7829 43d7 E8000000 		call	_ZNSt15basic_stringbufIcSt11char_traitsIcESaIcEED1Ev
 7829      00
 7830              	.L716:
 7831 43dc 488DBC24 		leaq	176(%rsp), %rdi
 7831      B0000000 
 7832 43e4 48C78424 		movq	$_ZTVSt9basic_iosIcSt11char_traitsIcEE+16, 176(%rsp)
 7832      B0000000 
 7832      00000000 
 7833 43f0 E8000000 		call	_ZNSt8ios_baseD2Ev
 7833      00
 7834 43f5 4889DF   		movq	%rbx, %rdi
 7835              	.LEHB188:
 7836 43f8 E8000000 		call	_Unwind_Resume
 7836      00
 7837              	.LEHE188:
 7838              	.L734:
 7839 43fd 4889C7   		movq	%rax, %rdi
 7840 4400 E8000000 		call	__cxa_begin_catch
 7840      00
 7841              	.LEHB189:
 7842 4405 E8000000 		call	_ZN8UnitTest11CurrentTest7DetailsEv
 7842      00
 7843 440a 488B30   		movq	(%rax), %rsi
 7844 440d 488D7C24 		leaq	48(%rsp), %rdi
 7844      30
 7845 4412 BA820000 		movl	$130, %edx
 7845      00
 7846 4417 E8000000 		call	_ZN8UnitTest11TestDetailsC1ERKS0_i
 7846      00
 7847 441c E8000000 		call	_ZN8UnitTest11CurrentTest7ResultsEv
 7847      00
 7848 4421 488B38   		movq	(%rax), %rdi
 7849 4424 488D7424 		leaq	48(%rsp), %rsi
 7849      30
 7850 4429 BA000000 		movl	$.LC122, %edx
 7850      00
 7851 442e E8000000 		call	_ZN8UnitTest11TestResults13OnTestFailureERKNS_11TestDetailsEPKc
 7851      00
 7852              	.LEHE189:
 7853              	.LEHB190:
 7854 4433 E8000000 		call	__cxa_end_catch
 7854      00
 7855              	.LEHE190:
 7856 4438 E9D6FEFF 		jmp	.L708
 7856      FF
 7857              	.L737:
 7858 443d 4889C3   		movq	%rax, %rbx
 7859 4440 EB9A     		jmp	.L716
 7860              	.L735:
 7861 4442 4889C3   		movq	%rax, %rbx
 7862 4445 E8000000 		call	__cxa_end_catch
 7862      00
 7863 444a 4889DF   		movq	%rbx, %rdi
 7864              	.LEHB191:
 7865 444d E8000000 		call	_Unwind_Resume
 7865      00
 7866              	.LEHE191:
 7867              		.cfi_endproc
 7868              	.LFE1182:
 7869              		.section	.gcc_except_table
 7870              		.align 4
 7871              	.LLSDA1182:
 7872 04f8 FF       		.byte	0xff
 7873 04f9 03       		.byte	0x3
 7874 04fa 45       		.uleb128 .LLSDATT1182-.LLSDATTD1182
 7875              	.LLSDATTD1182:
 7876 04fb 01       		.byte	0x1
 7877 04fc 3B       		.uleb128 .LLSDACSE1182-.LLSDACSB1182
 7878              	.LLSDACSB1182:
 7879 04fd 2A       		.uleb128 .LEHB181-.LFB1182
 7880 04fe 1D       		.uleb128 .LEHE181-.LEHB181
 7881 04ff 00       		.uleb128 0
 7882 0500 00       		.uleb128 0
 7883 0501 B501     		.uleb128 .LEHB182-.LFB1182
 7884 0503 05       		.uleb128 .LEHE182-.LEHB182
 7885 0504 8D08     		.uleb128 .L737-.LFB1182
 7886 0506 00       		.uleb128 0
 7887 0507 D402     		.uleb128 .LEHB183-.LFB1182
 7888 0509 05       		.uleb128 .LEHE183-.LEHB183
 7889 050a 9F07     		.uleb128 .L738-.LFB1182
 7890 050c 00       		.uleb128 0
 7891 050d 8903     		.uleb128 .LEHB184-.LFB1182
 7892 050f 7D       		.uleb128 .LEHE184-.LEHB184
 7893 0510 8A07     		.uleb128 .L736-.LFB1182
 7894 0512 00       		.uleb128 0
 7895 0513 9505     		.uleb128 .LEHB185-.LFB1182
 7896 0515 05       		.uleb128 .LEHE185-.LEHB185
 7897 0516 00       		.uleb128 0
 7898 0517 00       		.uleb128 0
 7899 0518 9A05     		.uleb128 .LEHB186-.LFB1182
 7900 051a 49       		.uleb128 .LEHE186-.LEHB186
 7901 051b CD07     		.uleb128 .L734-.LFB1182
 7902 051d 01       		.uleb128 0x1
 7903 051e 9A07     		.uleb128 .LEHB187-.LFB1182
 7904 0520 05       		.uleb128 .LEHE187-.LEHB187
 7905 0521 00       		.uleb128 0
 7906 0522 00       		.uleb128 0
 7907 0523 C807     		.uleb128 .LEHB188-.LFB1182
 7908 0525 05       		.uleb128 .LEHE188-.LEHB188
 7909 0526 00       		.uleb128 0
 7910 0527 00       		.uleb128 0
 7911 0528 D507     		.uleb128 .LEHB189-.LFB1182
 7912 052a 2E       		.uleb128 .LEHE189-.LEHB189
 7913 052b 9208     		.uleb128 .L735-.LFB1182
 7914 052d 00       		.uleb128 0
 7915 052e 8308     		.uleb128 .LEHB190-.LFB1182
 7916 0530 05       		.uleb128 .LEHE190-.LEHB190
 7917 0531 00       		.uleb128 0
 7918 0532 00       		.uleb128 0
 7919 0533 9D08     		.uleb128 .LEHB191-.LFB1182
 7920 0535 05       		.uleb128 .LEHE191-.LEHB191
 7921 0536 00       		.uleb128 0
 7922 0537 00       		.uleb128 0
 7923              	.LLSDACSE1182:
 7924 0538 01       		.byte	0x1
 7925 0539 00       		.byte	0
 7926 053a 0000     		.align 4
 7927 053c 00000000 		.long	0
 7928              	
 7929              	.LLSDATT1182:
 7930              		.text
 7932              		.section	.text.unlikely
 7933              	.LCOLDE163:
 7934              		.text
 7935              	.LHOTE163:
 7936              		.section	.text.unlikely
 7937              		.align 2
 7938              	.LCOLDB165:
 7939              		.text
 7940              	.LHOTB165:
 7941              		.align 2
 7942 4452 0F1F4000 		.p2align 4,,15
 7942      662E0F1F 
 7942      84000000 
 7942      0000
 7944              	_ZNK12_GLOBAL__N_119TestCheckCloseFalse7RunImplEv:
 7945              	.LFB1174:
 7946              		.cfi_startproc
 7947              		.cfi_personality 0x3,__gxx_personality_v0
 7948              		.cfi_lsda 0x3,.LLSDA1174
 7949 4460 53       		pushq	%rbx
 7950              		.cfi_def_cfa_offset 16
 7951              		.cfi_offset 3, -16
 7952 4461 31F6     		xorl	%esi, %esi
 7953 4463 4881ECC0 		subq	$448, %rsp
 7953      010000
 7954              		.cfi_def_cfa_offset 464
 7955 446a 488D7C24 		leaq	16(%rsp), %rdi
 7955      10
 7956 446f 488D9C24 		leaq	176(%rsp), %rbx
 7956      B0000000 
 7957 4477 64488B04 		movq	%fs:40, %rax
 7957      25280000 
 7957      00
 7958 4480 48898424 		movq	%rax, 440(%rsp)
 7958      B8010000 
 7959 4488 31C0     		xorl	%eax, %eax
 7960              	.LEHB192:
 7961 448a E8000000 		call	_ZN8UnitTest11TestResultsC1EPNS_12TestReporterE
 7961      00
 7962 448f B9000000 		movl	$.LC72, %ecx
 7962      00
 7963 4494 488D7C24 		leaq	48(%rsp), %rdi
 7963      30
 7964 4499 4531C0   		xorl	%r8d, %r8d
 7965 449c 4889CE   		movq	%rcx, %rsi
 7966 449f 4889CA   		movq	%rcx, %rdx
 7967 44a2 E8000000 		call	_ZN8UnitTest11TestDetailsC1EPKcS2_S2_i
 7967      00
 7968              	.LEHE192:
 7969 44a7 4889DF   		movq	%rbx, %rdi
 7970 44aa E8000000 		call	_ZNSt8ios_baseC2Ev
 7970      00
 7971 44af 31F6     		xorl	%esi, %esi
 7972 44b1 4889DF   		movq	%rbx, %rdi
 7973 44b4 48C78424 		movq	$0, 392(%rsp)
 7973      88010000 
 7973      00000000 
 7974 44c0 C6842490 		movb	$0, 400(%rsp)
 7974      01000000 
 7975 44c8 C6842491 		movb	$0, 401(%rsp)
 7975      01000000 
 7976 44d0 48C78424 		movq	$0, 408(%rsp)
 7976      98010000 
 7976      00000000 
 7977 44dc 48C78424 		movq	$0, 416(%rsp)
 7977      A0010000 
 7977      00000000 
 7978 44e8 48C78424 		movq	$0, 424(%rsp)
 7978      A8010000 
 7978      00000000 
 7979 44f4 48C78424 		movq	$0, 432(%rsp)
 7979      B0010000 
 7979      00000000 
 7980 4500 48C74424 		movq	$_ZTCN8UnitTest15MemoryOutStreamE0_So+24, 80(%rsp)
 7980      50000000 
 7980      00
 7981 4509 48C78424 		movq	$_ZTCN8UnitTest15MemoryOutStreamE0_So+64, 176(%rsp)
 7981      B0000000 
 7981      00000000 
 7982              	.LEHB193:
 7983 4515 E8000000 		call	_ZNSt9basic_iosIcSt11char_traitsIcEE4initEPSt15basic_streambufIcS1_E
 7983      00
 7984              	.LEHE193:
 7985 451a 488DBC24 		leaq	144(%rsp), %rdi
 7985      90000000 
 7986 4522 48C74424 		movq	$_ZTCN8UnitTest15MemoryOutStreamE0_St19basic_ostringstreamIcSt11char_traitsIcESaIcEE+24, 80(%
 7986      50000000 
 7986      00
 7987 452b 48C78424 		movq	$_ZTCN8UnitTest15MemoryOutStreamE0_St19basic_ostringstreamIcSt11char_traitsIcESaIcEE+64, 176(
 7987      B0000000 
 7987      00000000 
 7988 4537 48C74424 		movq	$_ZTVSt15basic_streambufIcSt11char_traitsIcEE+16, 88(%rsp)
 7988      58000000 
 7988      00
 7989 4540 48C74424 		movq	$0, 96(%rsp)
 7989      60000000 
 7989      00
 7990 4549 48C74424 		movq	$0, 104(%rsp)
 7990      68000000 
 7990      00
 7991 4552 48C74424 		movq	$0, 112(%rsp)
 7991      70000000 
 7991      00
 7992 455b 48C74424 		movq	$0, 120(%rsp)
 7992      78000000 
 7992      00
 7993 4564 48C78424 		movq	$0, 128(%rsp)
 7993      80000000 
 7993      00000000 
 7994 4570 48C78424 		movq	$0, 136(%rsp)
 7994      88000000 
 7994      00000000 
 7995 457c E8000000 		call	_ZNSt6localeC1Ev
 7995      00
 7996 4581 488B4424 		movq	80(%rsp), %rax
 7996      50
 7997 4586 488D7C24 		leaq	80(%rsp), %rdi
 7997      50
 7998 458b 488D7424 		leaq	88(%rsp), %rsi
 7998      58
 7999 4590 48C74424 		movq	$_ZTVSt15basic_stringbufIcSt11char_traitsIcESaIcEE+16, 88(%rsp)
 7999      58000000 
 7999      00
 8000 4599 C7842498 		movl	$16, 152(%rsp)
 8000      00000010 
 8000      000000
 8001 45a4 48C78424 		movq	$_ZNSs4_Rep20_S_empty_rep_storageE+24, 160(%rsp)
 8001      A0000000 
 8001      00000000 
 8002 45b0 480378E8 		addq	-24(%rax), %rdi
 8003              	.LEHB194:
 8004 45b4 E8000000 		call	_ZNSt9basic_iosIcSt11char_traitsIcEE4initEPSt15basic_streambufIcS1_E
 8004      00
 8005              	.LEHE194:
 8006 45b9 488D7C24 		leaq	80(%rsp), %rdi
 8006      50
 8007 45be BA090000 		movl	$9, %edx
 8007      00
 8008 45c3 BE000000 		movl	$.LC73, %esi
 8008      00
 8009 45c8 48C74424 		movq	$_ZTVN8UnitTest15MemoryOutStreamE+24, 80(%rsp)
 8009      50000000 
 8009      00
 8010 45d1 48C78424 		movq	$_ZTVN8UnitTest15MemoryOutStreamE+64, 176(%rsp)
 8010      B0000000 
 8010      00000000 
 8011 45dd 48C78424 		movq	$_ZNSs4_Rep20_S_empty_rep_storageE+24, 168(%rsp)
 8011      A8000000 
 8011      00000000 
 8012              	.LEHB195:
 8013 45e9 E8000000 		call	_ZSt16__ostream_insertIcSt11char_traitsIcEERSt13basic_ostreamIT_T0_ES6_PKS3_l
 8013      00
 8014 45ee F20F1005 		movsd	.LC164(%rip), %xmm0
 8014      00000000 
 8015 45f6 488D7C24 		leaq	80(%rsp), %rdi
 8015      50
 8016 45fb E8000000 		call	_ZNSo9_M_insertIdEERSoT_
 8016      00
 8017 4600 BA050000 		movl	$5, %edx
 8017      00
 8018 4605 BE000000 		movl	$.LC75, %esi
 8018      00
 8019 460a 4889C7   		movq	%rax, %rdi
 8020 460d 4889C3   		movq	%rax, %rbx
 8021 4610 E8000000 		call	_ZSt16__ostream_insertIcSt11char_traitsIcEERSt13basic_ostreamIT_T0_ES6_PKS3_l
 8021      00
 8022 4615 F20F1005 		movsd	.LC160(%rip), %xmm0
 8022      00000000 
 8023 461d 4889DF   		movq	%rbx, %rdi
 8024 4620 E8000000 		call	_ZNSo9_M_insertIdEERSoT_
 8024      00
 8025 4625 BA090000 		movl	$9, %edx
 8025      00
 8026 462a BE000000 		movl	$.LC77, %esi
 8026      00
 8027 462f 4889C7   		movq	%rax, %rdi
 8028 4632 4889C3   		movq	%rax, %rbx
 8029 4635 E8000000 		call	_ZSt16__ostream_insertIcSt11char_traitsIcEERSt13basic_ostreamIT_T0_ES6_PKS3_l
 8029      00
 8030 463a F20F1005 		movsd	.LC162(%rip), %xmm0
 8030      00000000 
 8031 4642 4889DF   		movq	%rbx, %rdi
 8032 4645 E8000000 		call	_ZNSo9_M_insertIdEERSoT_
 8032      00
 8033 464a 488D7C24 		leaq	80(%rsp), %rdi
 8033      50
 8034 464f E8000000 		call	_ZNK8UnitTest15MemoryOutStream7GetTextEv
 8034      00
 8035 4654 488D7424 		leaq	48(%rsp), %rsi
 8035      30
 8036 4659 488D7C24 		leaq	16(%rsp), %rdi
 8036      10
 8037 465e 4889C2   		movq	%rax, %rdx
 8038 4661 E8000000 		call	_ZN8UnitTest11TestResults13OnTestFailureERKNS_11TestDetailsEPKc
 8038      00
 8039              	.LEHE195:
 8040 4666 488B8424 		movq	168(%rsp), %rax
 8040      A8000000 
 8041 466e 48C74424 		movq	$_ZTVN8UnitTest15MemoryOutStreamE+24, 80(%rsp)
 8041      50000000 
 8041      00
 8042 4677 48C78424 		movq	$_ZTVN8UnitTest15MemoryOutStreamE+64, 176(%rsp)
 8042      B0000000 
 8042      00000000 
 8043 4683 488D78E8 		leaq	-24(%rax), %rdi
 8044 4687 4881FF00 		cmpq	$_ZNSs4_Rep20_S_empty_rep_storageE, %rdi
 8044      000000
 8045 468e 0F85D400 		jne	.L782
 8045      0000
 8046              	.L755:
 8047 4694 488B8424 		movq	160(%rsp), %rax
 8047      A0000000 
 8048 469c 48C74424 		movq	$_ZTCN8UnitTest15MemoryOutStreamE0_St19basic_ostringstreamIcSt11char_traitsIcESaIcEE+24, 80(%
 8048      50000000 
 8048      00
 8049 46a5 48C78424 		movq	$_ZTCN8UnitTest15MemoryOutStreamE0_St19basic_ostringstreamIcSt11char_traitsIcESaIcEE+64, 176(
 8049      B0000000 
 8049      00000000 
 8050 46b1 48C74424 		movq	$_ZTVSt15basic_stringbufIcSt11char_traitsIcESaIcEE+16, 88(%rsp)
 8050      58000000 
 8050      00
 8051 46ba 488D78E8 		leaq	-24(%rax), %rdi
 8052 46be 4881FF00 		cmpq	$_ZNSs4_Rep20_S_empty_rep_storageE, %rdi
 8052      000000
 8053 46c5 0F85CD00 		jne	.L783
 8053      0000
 8054              	.L760:
 8055 46cb 488DBC24 		leaq	144(%rsp), %rdi
 8055      90000000 
 8056 46d3 48C74424 		movq	$_ZTVSt15basic_streambufIcSt11char_traitsIcEE+16, 88(%rsp)
 8056      58000000 
 8056      00
 8057 46dc E8000000 		call	_ZNSt6localeD1Ev
 8057      00
 8058 46e1 488DBC24 		leaq	176(%rsp), %rdi
 8058      B0000000 
 8059 46e9 48C78424 		movq	$_ZTVSt9basic_iosIcSt11char_traitsIcEE+16, 176(%rsp)
 8059      B0000000 
 8059      00000000 
 8060              	.LEHB196:
 8061 46f5 E8000000 		call	_ZNSt8ios_baseD2Ev
 8061      00
 8062              	.LEHE196:
 8063              	.LEHB197:
 8064 46fa E8000000 		call	_ZN8UnitTest11CurrentTest7DetailsEv
 8064      00
 8065 46ff 488B30   		movq	(%rax), %rsi
 8066 4702 488D7C24 		leaq	48(%rsp), %rdi
 8066      30
 8067 4707 BA6E0000 		movl	$110, %edx
 8067      00
 8068 470c E8000000 		call	_ZN8UnitTest11TestDetailsC1ERKS0_i
 8068      00
 8069 4711 488D7C24 		leaq	16(%rsp), %rdi
 8069      10
 8070 4716 E8000000 		call	_ZNK8UnitTest11TestResults15GetFailureCountEv
 8070      00
 8071 471b 8944240C 		movl	%eax, 12(%rsp)
 8072 471f C7442408 		movl	$1, 8(%rsp)
 8072      01000000 
 8073 4727 E8000000 		call	_ZN8UnitTest11CurrentTest7ResultsEv
 8073      00
 8074 472c 488B38   		movq	(%rax), %rdi
 8075 472f 488D4C24 		leaq	48(%rsp), %rcx
 8075      30
 8076 4734 488D5424 		leaq	12(%rsp), %rdx
 8076      0C
 8077 4739 488D7424 		leaq	8(%rsp), %rsi
 8077      08
 8078 473e E8000000 		call	_ZN8UnitTest10CheckEqualIiiEEvRNS_11TestResultsERKT_RKT0_RKNS_11TestDetailsE
 8078      00
 8079              	.LEHE197:
 8080              	.L749:
 8081 4743 488B8424 		movq	440(%rsp), %rax
 8081      B8010000 
 8082 474b 64483304 		xorq	%fs:40, %rax
 8082      25280000 
 8082      00
 8083 4754 0F858B00 		jne	.L784
 8083      0000
 8084 475a 4881C4C0 		addq	$448, %rsp
 8084      010000
 8085              		.cfi_remember_state
 8086              		.cfi_def_cfa_offset 16
 8087 4761 5B       		popq	%rbx
 8088              		.cfi_def_cfa_offset 8
 8089 4762 C3       		ret
 8090              		.p2align 4,,10
 8091 4763 0F1F4400 		.p2align 3
 8091      00
 8092              	.L782:
 8093              		.cfi_restore_state
 8094 4768 BA000000 		movl	$_ZL28__gthrw___pthread_key_createPjPFvPvE, %edx
 8094      00
 8095 476d 4885D2   		testq	%rdx, %rdx
 8096 4770 7456     		je	.L756
 8097 4772 BAFFFFFF 		movl	$-1, %edx
 8097      FF
 8098 4777 F00FC150 		lock xaddl	%edx, -8(%rax)
 8098      F8
 8099 477c 89D0     		movl	%edx, %eax
 8100              	.L757:
 8101 477e 85C0     		testl	%eax, %eax
 8102 4780 0F8F0EFF 		jg	.L755
 8102      FFFF
 8103 4786 488D7424 		leaq	12(%rsp), %rsi
 8103      0C
 8104 478b E8000000 		call	_ZNSs4_Rep10_M_destroyERKSaIcE
 8104      00
 8105 4790 E9FFFEFF 		jmp	.L755
 8105      FF
 8106              		.p2align 4,,10
 8107 4795 0F1F00   		.p2align 3
 8108              	.L783:
 8109 4798 BA000000 		movl	$_ZL28__gthrw___pthread_key_createPjPFvPvE, %edx
 8109      00
 8110 479d 4885D2   		testq	%rdx, %rdx
 8111 47a0 7436     		je	.L761
 8112 47a2 BAFFFFFF 		movl	$-1, %edx
 8112      FF
 8113 47a7 F00FC150 		lock xaddl	%edx, -8(%rax)
 8113      F8
 8114 47ac 89D0     		movl	%edx, %eax
 8115              	.L762:
 8116 47ae 85C0     		testl	%eax, %eax
 8117 47b0 0F8F15FF 		jg	.L760
 8117      FFFF
 8118 47b6 488D7424 		leaq	12(%rsp), %rsi
 8118      0C
 8119 47bb E8000000 		call	_ZNSs4_Rep10_M_destroyERKSaIcE
 8119      00
 8120 47c0 E906FFFF 		jmp	.L760
 8120      FF
 8121              		.p2align 4,,10
 8122 47c5 0F1F00   		.p2align 3
 8123              	.L756:
 8124 47c8 8B50F8   		movl	-8(%rax), %edx
 8125 47cb 8D4AFF   		leal	-1(%rdx), %ecx
 8126 47ce 8948F8   		movl	%ecx, -8(%rax)
 8127 47d1 89D0     		movl	%edx, %eax
 8128 47d3 EBA9     		jmp	.L757
 8129              		.p2align 4,,10
 8130 47d5 0F1F00   		.p2align 3
 8131              	.L761:
 8132 47d8 8B50F8   		movl	-8(%rax), %edx
 8133 47db 8D4AFF   		leal	-1(%rdx), %ecx
 8134 47de 8948F8   		movl	%ecx, -8(%rax)
 8135 47e1 89D0     		movl	%edx, %eax
 8136 47e3 EBC9     		jmp	.L762
 8137              	.L784:
 8138 47e5 E8000000 		call	__stack_chk_fail
 8138      00
 8139              	.L772:
 8140 47ea 488D7C24 		leaq	80(%rsp), %rdi
 8140      50
 8141 47ef 4889C3   		movq	%rax, %rbx
 8142 47f2 E8000000 		call	_ZN8UnitTest15MemoryOutStreamD1Ev
 8142      00
 8143 47f7 4889DF   		movq	%rbx, %rdi
 8144              	.LEHB198:
 8145 47fa E8000000 		call	_Unwind_Resume
 8145      00
 8146              	.LEHE198:
 8147              	.L774:
 8148 47ff 488D7C24 		leaq	88(%rsp), %rdi
 8148      58
 8149 4804 4889C3   		movq	%rax, %rbx
 8150 4807 E8000000 		call	_ZNSt15basic_stringbufIcSt11char_traitsIcESaIcEED1Ev
 8150      00
 8151              	.L752:
 8152 480c 488DBC24 		leaq	176(%rsp), %rdi
 8152      B0000000 
 8153 4814 48C78424 		movq	$_ZTVSt9basic_iosIcSt11char_traitsIcEE+16, 176(%rsp)
 8153      B0000000 
 8153      00000000 
 8154 4820 E8000000 		call	_ZNSt8ios_baseD2Ev
 8154      00
 8155 4825 4889DF   		movq	%rbx, %rdi
 8156              	.LEHB199:
 8157 4828 E8000000 		call	_Unwind_Resume
 8157      00
 8158              	.LEHE199:
 8159              	.L770:
 8160 482d 4889C7   		movq	%rax, %rdi
 8161 4830 E8000000 		call	__cxa_begin_catch
 8161      00
 8162              	.LEHB200:
 8163 4835 E8000000 		call	_ZN8UnitTest11CurrentTest7DetailsEv
 8163      00
 8164 483a 488B30   		movq	(%rax), %rsi
 8165 483d 488D7C24 		leaq	48(%rsp), %rdi
 8165      30
 8166 4842 BA6E0000 		movl	$110, %edx
 8166      00
 8167 4847 E8000000 		call	_ZN8UnitTest11TestDetailsC1ERKS0_i
 8167      00
 8168 484c E8000000 		call	_ZN8UnitTest11CurrentTest7ResultsEv
 8168      00
 8169 4851 488B38   		movq	(%rax), %rdi
 8170 4854 488D7424 		leaq	48(%rsp), %rsi
 8170      30
 8171 4859 BA000000 		movl	$.LC122, %edx
 8171      00
 8172 485e E8000000 		call	_ZN8UnitTest11TestResults13OnTestFailureERKNS_11TestDetailsEPKc
 8172      00
 8173              	.LEHE200:
 8174              	.LEHB201:
 8175 4863 E8000000 		call	__cxa_end_catch
 8175      00
 8176              	.LEHE201:
 8177 4868 E9D6FEFF 		jmp	.L749
 8177      FF
 8178              	.L773:
 8179 486d 4889C3   		movq	%rax, %rbx
 8180 4870 EB9A     		jmp	.L752
 8181              	.L771:
 8182 4872 4889C3   		movq	%rax, %rbx
 8183 4875 E8000000 		call	__cxa_end_catch
 8183      00
 8184 487a 4889DF   		movq	%rbx, %rdi
 8185              	.LEHB202:
 8186 487d E8000000 		call	_Unwind_Resume
 8186      00
 8187              	.LEHE202:
 8188              		.cfi_endproc
 8189              	.LFE1174:
 8190              		.section	.gcc_except_table
 8191              		.align 4
 8192              	.LLSDA1174:
 8193 0540 FF       		.byte	0xff
 8194 0541 03       		.byte	0x3
 8195 0542 45       		.uleb128 .LLSDATT1174-.LLSDATTD1174
 8196              	.LLSDATTD1174:
 8197 0543 01       		.byte	0x1
 8198 0544 3B       		.uleb128 .LLSDACSE1174-.LLSDACSB1174
 8199              	.LLSDACSB1174:
 8200 0545 2A       		.uleb128 .LEHB192-.LFB1174
 8201 0546 1D       		.uleb128 .LEHE192-.LEHB192
 8202 0547 00       		.uleb128 0
 8203 0548 00       		.uleb128 0
 8204 0549 B501     		.uleb128 .LEHB193-.LFB1174
 8205 054b 05       		.uleb128 .LEHE193-.LEHB193
 8206 054c 8D08     		.uleb128 .L773-.LFB1174
 8207 054e 00       		.uleb128 0
 8208 054f D402     		.uleb128 .LEHB194-.LFB1174
 8209 0551 05       		.uleb128 .LEHE194-.LEHB194
 8210 0552 9F07     		.uleb128 .L774-.LFB1174
 8211 0554 00       		.uleb128 0
 8212 0555 8903     		.uleb128 .LEHB195-.LFB1174
 8213 0557 7D       		.uleb128 .LEHE195-.LEHB195
 8214 0558 8A07     		.uleb128 .L772-.LFB1174
 8215 055a 00       		.uleb128 0
 8216 055b 9505     		.uleb128 .LEHB196-.LFB1174
 8217 055d 05       		.uleb128 .LEHE196-.LEHB196
 8218 055e 00       		.uleb128 0
 8219 055f 00       		.uleb128 0
 8220 0560 9A05     		.uleb128 .LEHB197-.LFB1174
 8221 0562 49       		.uleb128 .LEHE197-.LEHB197
 8222 0563 CD07     		.uleb128 .L770-.LFB1174
 8223 0565 01       		.uleb128 0x1
 8224 0566 9A07     		.uleb128 .LEHB198-.LFB1174
 8225 0568 05       		.uleb128 .LEHE198-.LEHB198
 8226 0569 00       		.uleb128 0
 8227 056a 00       		.uleb128 0
 8228 056b C807     		.uleb128 .LEHB199-.LFB1174
 8229 056d 05       		.uleb128 .LEHE199-.LEHB199
 8230 056e 00       		.uleb128 0
 8231 056f 00       		.uleb128 0
 8232 0570 D507     		.uleb128 .LEHB200-.LFB1174
 8233 0572 2E       		.uleb128 .LEHE200-.LEHB200
 8234 0573 9208     		.uleb128 .L771-.LFB1174
 8235 0575 00       		.uleb128 0
 8236 0576 8308     		.uleb128 .LEHB201-.LFB1174
 8237 0578 05       		.uleb128 .LEHE201-.LEHB201
 8238 0579 00       		.uleb128 0
 8239 057a 00       		.uleb128 0
 8240 057b 9D08     		.uleb128 .LEHB202-.LFB1174
 8241 057d 05       		.uleb128 .LEHE202-.LEHB202
 8242 057e 00       		.uleb128 0
 8243 057f 00       		.uleb128 0
 8244              	.LLSDACSE1174:
 8245 0580 01       		.byte	0x1
 8246 0581 00       		.byte	0
 8247 0582 0000     		.align 4
 8248 0584 00000000 		.long	0
 8249              	
 8250              	.LLSDATT1174:
 8251              		.text
 8253              		.section	.text.unlikely
 8254              	.LCOLDE165:
 8255              		.text
 8256              	.LHOTE165:
 8257              		.section	.text.unlikely
 8258              		.align 2
 8259              	.LCOLDB166:
 8260              		.text
 8261              	.LHOTB166:
 8262              		.align 2
 8263 4882 0F1F4000 		.p2align 4,,15
 8263      662E0F1F 
 8263      84000000 
 8263      0000
 8265              	_ZNK12_GLOBAL__N_118TestCheckCloseTrue7RunImplEv:
 8266              	.LFB1170:
 8267              		.cfi_startproc
 8268              		.cfi_personality 0x3,__gxx_personality_v0
 8269              		.cfi_lsda 0x3,.LLSDA1170
 8270 4890 53       		pushq	%rbx
 8271              		.cfi_def_cfa_offset 16
 8272              		.cfi_offset 3, -16
 8273 4891 31F6     		xorl	%esi, %esi
 8274 4893 4883EC60 		subq	$96, %rsp
 8275              		.cfi_def_cfa_offset 112
 8276 4897 488D7C24 		leaq	16(%rsp), %rdi
 8276      10
 8277 489c 64488B04 		movq	%fs:40, %rax
 8277      25280000 
 8277      00
 8278 48a5 48894424 		movq	%rax, 88(%rsp)
 8278      58
 8279 48aa 31C0     		xorl	%eax, %eax
 8280              	.LEHB203:
 8281 48ac E8000000 		call	_ZN8UnitTest11TestResultsC1EPNS_12TestReporterE
 8281      00
 8282 48b1 B9000000 		movl	$.LC72, %ecx
 8282      00
 8283 48b6 488D7C24 		leaq	48(%rsp), %rdi
 8283      30
 8284 48bb 4531C0   		xorl	%r8d, %r8d
 8285 48be 4889CA   		movq	%rcx, %rdx
 8286 48c1 4889CE   		movq	%rcx, %rsi
 8287 48c4 E8000000 		call	_ZN8UnitTest11TestDetailsC1EPKcS2_S2_i
 8287      00
 8288              	.LEHE203:
 8289              	.LEHB204:
 8290 48c9 E8000000 		call	_ZN8UnitTest11CurrentTest7DetailsEv
 8290      00
 8291 48ce 488B30   		movq	(%rax), %rsi
 8292 48d1 488D7C24 		leaq	48(%rsp), %rdi
 8292      30
 8293 48d6 BA670000 		movl	$103, %edx
 8293      00
 8294 48db E8000000 		call	_ZN8UnitTest11TestDetailsC1ERKS0_i
 8294      00
 8295 48e0 488D7C24 		leaq	16(%rsp), %rdi
 8295      10
 8296 48e5 E8000000 		call	_ZNK8UnitTest11TestResults15GetFailureCountEv
 8296      00
 8297 48ea 8944240C 		movl	%eax, 12(%rsp)
 8298 48ee C7442408 		movl	$0, 8(%rsp)
 8298      00000000 
 8299 48f6 E8000000 		call	_ZN8UnitTest11CurrentTest7ResultsEv
 8299      00
 8300 48fb 488B38   		movq	(%rax), %rdi
 8301 48fe 488D4C24 		leaq	48(%rsp), %rcx
 8301      30
 8302 4903 488D5424 		leaq	12(%rsp), %rdx
 8302      0C
 8303 4908 488D7424 		leaq	8(%rsp), %rsi
 8303      08
 8304 490d E8000000 		call	_ZN8UnitTest10CheckEqualIiiEEvRNS_11TestResultsERKT_RKT0_RKNS_11TestDetailsE
 8304      00
 8305              	.LEHE204:
 8306              	.L785:
 8307 4912 488B4424 		movq	88(%rsp), %rax
 8307      58
 8308 4917 64483304 		xorq	%fs:40, %rax
 8308      25280000 
 8308      00
 8309 4920 7506     		jne	.L793
 8310 4922 4883C460 		addq	$96, %rsp
 8311              		.cfi_remember_state
 8312              		.cfi_def_cfa_offset 16
 8313 4926 5B       		popq	%rbx
 8314              		.cfi_def_cfa_offset 8
 8315 4927 C3       		ret
 8316              	.L793:
 8317              		.cfi_restore_state
 8318 4928 E8000000 		call	__stack_chk_fail
 8318      00
 8319              	.L790:
 8320 492d 4889C7   		movq	%rax, %rdi
 8321 4930 E8000000 		call	__cxa_begin_catch
 8321      00
 8322              	.LEHB205:
 8323 4935 E8000000 		call	_ZN8UnitTest11CurrentTest7DetailsEv
 8323      00
 8324 493a 488B30   		movq	(%rax), %rsi
 8325 493d 488D7C24 		leaq	48(%rsp), %rdi
 8325      30
 8326 4942 BA670000 		movl	$103, %edx
 8326      00
 8327 4947 E8000000 		call	_ZN8UnitTest11TestDetailsC1ERKS0_i
 8327      00
 8328 494c E8000000 		call	_ZN8UnitTest11CurrentTest7ResultsEv
 8328      00
 8329 4951 488B38   		movq	(%rax), %rdi
 8330 4954 488D7424 		leaq	48(%rsp), %rsi
 8330      30
 8331 4959 BA000000 		movl	$.LC125, %edx
 8331      00
 8332 495e E8000000 		call	_ZN8UnitTest11TestResults13OnTestFailureERKNS_11TestDetailsEPKc
 8332      00
 8333              	.LEHE205:
 8334              	.LEHB206:
 8335 4963 E8000000 		call	__cxa_end_catch
 8335      00
 8336              	.LEHE206:
 8337 4968 EBA8     		jmp	.L785
 8338              	.L791:
 8339 496a 4889C3   		movq	%rax, %rbx
 8340 496d E8000000 		call	__cxa_end_catch
 8340      00
 8341 4972 4889DF   		movq	%rbx, %rdi
 8342              	.LEHB207:
 8343 4975 E8000000 		call	_Unwind_Resume
 8343      00
 8344              	.LEHE207:
 8345              		.cfi_endproc
 8346              	.LFE1170:
 8347              		.section	.gcc_except_table
 8348              		.align 4
 8349              	.LLSDA1170:
 8350 0588 FF       		.byte	0xff
 8351 0589 03       		.byte	0x3
 8352 058a 21       		.uleb128 .LLSDATT1170-.LLSDATTD1170
 8353              	.LLSDATTD1170:
 8354 058b 01       		.byte	0x1
 8355 058c 19       		.uleb128 .LLSDACSE1170-.LLSDACSB1170
 8356              	.LLSDACSB1170:
 8357 058d 1C       		.uleb128 .LEHB203-.LFB1170
 8358 058e 1D       		.uleb128 .LEHE203-.LEHB203
 8359 058f 00       		.uleb128 0
 8360 0590 00       		.uleb128 0
 8361 0591 39       		.uleb128 .LEHB204-.LFB1170
 8362 0592 49       		.uleb128 .LEHE204-.LEHB204
 8363 0593 9D01     		.uleb128 .L790-.LFB1170
 8364 0595 01       		.uleb128 0x1
 8365 0596 A501     		.uleb128 .LEHB205-.LFB1170
 8366 0598 2E       		.uleb128 .LEHE205-.LEHB205
 8367 0599 DA01     		.uleb128 .L791-.LFB1170
 8368 059b 00       		.uleb128 0
 8369 059c D301     		.uleb128 .LEHB206-.LFB1170
 8370 059e 05       		.uleb128 .LEHE206-.LEHB206
 8371 059f 00       		.uleb128 0
 8372 05a0 00       		.uleb128 0
 8373 05a1 E501     		.uleb128 .LEHB207-.LFB1170
 8374 05a3 05       		.uleb128 .LEHE207-.LEHB207
 8375 05a4 00       		.uleb128 0
 8376 05a5 00       		.uleb128 0
 8377              	.LLSDACSE1170:
 8378 05a6 01       		.byte	0x1
 8379 05a7 00       		.byte	0
 8380              		.align 4
 8381 05a8 00000000 		.long	0
 8382              	
 8383              	.LLSDATT1170:
 8384              		.text
 8386              		.section	.text.unlikely
 8387              	.LCOLDE166:
 8388              		.text
 8389              	.LHOTE166:
 8390              		.section	.text.unlikely
 8391              		.align 2
 8392              	.LCOLDB167:
 8393              		.text
 8394              	.LHOTB167:
 8395              		.align 2
 8396 497a 660F1F44 		.p2align 4,,15
 8396      0000
 8398              	_ZNK12_GLOBAL__N_147TestCheckCloseWithZeroEpsilonWorksForSameNumber7RunImplEv:
 8399              	.LFB1178:
 8400              		.cfi_startproc
 8401              		.cfi_personality 0x3,__gxx_personality_v0
 8402              		.cfi_lsda 0x3,.LLSDA1178
 8403 4980 53       		pushq	%rbx
 8404              		.cfi_def_cfa_offset 16
 8405              		.cfi_offset 3, -16
 8406 4981 31F6     		xorl	%esi, %esi
 8407 4983 4883EC60 		subq	$96, %rsp
 8408              		.cfi_def_cfa_offset 112
 8409 4987 488D7C24 		leaq	16(%rsp), %rdi
 8409      10
 8410 498c 64488B04 		movq	%fs:40, %rax
 8410      25280000 
 8410      00
 8411 4995 48894424 		movq	%rax, 88(%rsp)
 8411      58
 8412 499a 31C0     		xorl	%eax, %eax
 8413              	.LEHB208:
 8414 499c E8000000 		call	_ZN8UnitTest11TestResultsC1EPNS_12TestReporterE
 8414      00
 8415 49a1 B9000000 		movl	$.LC72, %ecx
 8415      00
 8416 49a6 488D7C24 		leaq	48(%rsp), %rdi
 8416      30
 8417 49ab 4531C0   		xorl	%r8d, %r8d
 8418 49ae 4889CA   		movq	%rcx, %rdx
 8419 49b1 4889CE   		movq	%rcx, %rsi
 8420 49b4 E8000000 		call	_ZN8UnitTest11TestDetailsC1EPKcS2_S2_i
 8420      00
 8421              	.LEHE208:
 8422              	.LEHB209:
 8423 49b9 E8000000 		call	_ZN8UnitTest11CurrentTest7DetailsEv
 8423      00
 8424 49be 488B30   		movq	(%rax), %rsi
 8425 49c1 488D7C24 		leaq	48(%rsp), %rdi
 8425      30
 8426 49c6 BA750000 		movl	$117, %edx
 8426      00
 8427 49cb E8000000 		call	_ZN8UnitTest11TestDetailsC1ERKS0_i
 8427      00
 8428 49d0 488D7C24 		leaq	16(%rsp), %rdi
 8428      10
 8429 49d5 E8000000 		call	_ZNK8UnitTest11TestResults15GetFailureCountEv
 8429      00
 8430 49da 8944240C 		movl	%eax, 12(%rsp)
 8431 49de C7442408 		movl	$0, 8(%rsp)
 8431      00000000 
 8432 49e6 E8000000 		call	_ZN8UnitTest11CurrentTest7ResultsEv
 8432      00
 8433 49eb 488B38   		movq	(%rax), %rdi
 8434 49ee 488D4C24 		leaq	48(%rsp), %rcx
 8434      30
 8435 49f3 488D5424 		leaq	12(%rsp), %rdx
 8435      0C
 8436 49f8 488D7424 		leaq	8(%rsp), %rsi
 8436      08
 8437 49fd E8000000 		call	_ZN8UnitTest10CheckEqualIiiEEvRNS_11TestResultsERKT_RKT0_RKNS_11TestDetailsE
 8437      00
 8438              	.LEHE209:
 8439              	.L794:
 8440 4a02 488B4424 		movq	88(%rsp), %rax
 8440      58
 8441 4a07 64483304 		xorq	%fs:40, %rax
 8441      25280000 
 8441      00
 8442 4a10 7506     		jne	.L802
 8443 4a12 4883C460 		addq	$96, %rsp
 8444              		.cfi_remember_state
 8445              		.cfi_def_cfa_offset 16
 8446 4a16 5B       		popq	%rbx
 8447              		.cfi_def_cfa_offset 8
 8448 4a17 C3       		ret
 8449              	.L802:
 8450              		.cfi_restore_state
 8451 4a18 E8000000 		call	__stack_chk_fail
 8451      00
 8452              	.L799:
 8453 4a1d 4889C7   		movq	%rax, %rdi
 8454 4a20 E8000000 		call	__cxa_begin_catch
 8454      00
 8455              	.LEHB210:
 8456 4a25 E8000000 		call	_ZN8UnitTest11CurrentTest7DetailsEv
 8456      00
 8457 4a2a 488B30   		movq	(%rax), %rsi
 8458 4a2d 488D7C24 		leaq	48(%rsp), %rdi
 8458      30
 8459 4a32 BA750000 		movl	$117, %edx
 8459      00
 8460 4a37 E8000000 		call	_ZN8UnitTest11TestDetailsC1ERKS0_i
 8460      00
 8461 4a3c E8000000 		call	_ZN8UnitTest11CurrentTest7ResultsEv
 8461      00
 8462 4a41 488B38   		movq	(%rax), %rdi
 8463 4a44 488D7424 		leaq	48(%rsp), %rsi
 8463      30
 8464 4a49 BA000000 		movl	$.LC125, %edx
 8464      00
 8465 4a4e E8000000 		call	_ZN8UnitTest11TestResults13OnTestFailureERKNS_11TestDetailsEPKc
 8465      00
 8466              	.LEHE210:
 8467              	.LEHB211:
 8468 4a53 E8000000 		call	__cxa_end_catch
 8468      00
 8469              	.LEHE211:
 8470 4a58 EBA8     		jmp	.L794
 8471              	.L800:
 8472 4a5a 4889C3   		movq	%rax, %rbx
 8473 4a5d E8000000 		call	__cxa_end_catch
 8473      00
 8474 4a62 4889DF   		movq	%rbx, %rdi
 8475              	.LEHB212:
 8476 4a65 E8000000 		call	_Unwind_Resume
 8476      00
 8477              	.LEHE212:
 8478              		.cfi_endproc
 8479              	.LFE1178:
 8480              		.section	.gcc_except_table
 8481              		.align 4
 8482              	.LLSDA1178:
 8483 05ac FF       		.byte	0xff
 8484 05ad 03       		.byte	0x3
 8485 05ae 21       		.uleb128 .LLSDATT1178-.LLSDATTD1178
 8486              	.LLSDATTD1178:
 8487 05af 01       		.byte	0x1
 8488 05b0 19       		.uleb128 .LLSDACSE1178-.LLSDACSB1178
 8489              	.LLSDACSB1178:
 8490 05b1 1C       		.uleb128 .LEHB208-.LFB1178
 8491 05b2 1D       		.uleb128 .LEHE208-.LEHB208
 8492 05b3 00       		.uleb128 0
 8493 05b4 00       		.uleb128 0
 8494 05b5 39       		.uleb128 .LEHB209-.LFB1178
 8495 05b6 49       		.uleb128 .LEHE209-.LEHB209
 8496 05b7 9D01     		.uleb128 .L799-.LFB1178
 8497 05b9 01       		.uleb128 0x1
 8498 05ba A501     		.uleb128 .LEHB210-.LFB1178
 8499 05bc 2E       		.uleb128 .LEHE210-.LEHB210
 8500 05bd DA01     		.uleb128 .L800-.LFB1178
 8501 05bf 00       		.uleb128 0
 8502 05c0 D301     		.uleb128 .LEHB211-.LFB1178
 8503 05c2 05       		.uleb128 .LEHE211-.LEHB211
 8504 05c3 00       		.uleb128 0
 8505 05c4 00       		.uleb128 0
 8506 05c5 E501     		.uleb128 .LEHB212-.LFB1178
 8507 05c7 05       		.uleb128 .LEHE212-.LEHB212
 8508 05c8 00       		.uleb128 0
 8509 05c9 00       		.uleb128 0
 8510              	.LLSDACSE1178:
 8511 05ca 01       		.byte	0x1
 8512 05cb 00       		.byte	0
 8513              		.align 4
 8514 05cc 00000000 		.long	0
 8515              	
 8516              	.LLSDATT1178:
 8517              		.text
 8519              		.section	.text.unlikely
 8520              	.LCOLDE167:
 8521              		.text
 8522              	.LHOTE167:
 8523              		.section	.text.unlikely._ZN8UnitTest10CheckCloseIiifEEvRNS_11TestResultsERKT_RKT0_RKT1_RKNS_11Test
 8524              	.LCOLDB168:
 8525              		.section	.text._ZN8UnitTest10CheckCloseIiifEEvRNS_11TestResultsERKT_RKT0_RKT1_RKNS_11TestDetailsE,
 8526              	.LHOTB168:
 8527              		.p2align 4,,15
 8528              		.weak	_ZN8UnitTest10CheckCloseIiifEEvRNS_11TestResultsERKT_RKT0_RKT1_RKNS_11TestDetailsE
 8530              	_ZN8UnitTest10CheckCloseIiifEEvRNS_11TestResultsERKT_RKT0_RKT1_RKNS_11TestDetailsE:
 8531              	.LFB1271:
 8532              		.cfi_startproc
 8533              		.cfi_personality 0x3,__gxx_personality_v0
 8534              		.cfi_lsda 0x3,.LLSDA1271
 8535 0000 4157     		pushq	%r15
 8536              		.cfi_def_cfa_offset 16
 8537              		.cfi_offset 15, -16
 8538 0002 660FEFC0 		pxor	%xmm0, %xmm0
 8539 0006 4156     		pushq	%r14
 8540              		.cfi_def_cfa_offset 24
 8541              		.cfi_offset 14, -24
 8542 0008 4155     		pushq	%r13
 8543              		.cfi_def_cfa_offset 32
 8544              		.cfi_offset 13, -32
 8545 000a 4989FE   		movq	%rdi, %r14
 8546 000d 4154     		pushq	%r12
 8547              		.cfi_def_cfa_offset 40
 8548              		.cfi_offset 12, -40
 8549 000f 55       		pushq	%rbp
 8550              		.cfi_def_cfa_offset 48
 8551              		.cfi_offset 6, -48
 8552 0010 4989CC   		movq	%rcx, %r12
 8553 0013 53       		pushq	%rbx
 8554              		.cfi_def_cfa_offset 56
 8555              		.cfi_offset 3, -56
 8556 0014 660FEFC9 		pxor	%xmm1, %xmm1
 8557 0018 4889F3   		movq	%rsi, %rbx
 8558 001b 4889D5   		movq	%rdx, %rbp
 8559 001e 4D89C7   		movq	%r8, %r15
 8560 0021 4881EC98 		subq	$408, %rsp
 8560      010000
 8561              		.cfi_def_cfa_offset 464
 8562 0028 F30F2A06 		cvtsi2ss	(%rsi), %xmm0
 8563 002c F30F2A0A 		cvtsi2ss	(%rdx), %xmm1
 8564 0030 F30F1011 		movss	(%rcx), %xmm2
 8565 0034 64488B04 		movq	%fs:40, %rax
 8565      25280000 
 8565      00
 8566 003d 48898424 		movq	%rax, 392(%rsp)
 8566      88010000 
 8567 0045 31C0     		xorl	%eax, %eax
 8568 0047 0F28D8   		movaps	%xmm0, %xmm3
 8569 004a F30F5CDA 		subss	%xmm2, %xmm3
 8570 004e 0F2ECB   		ucomiss	%xmm3, %xmm1
 8571 0051 720D     		jb	.L804
 8572 0053 F30F58C2 		addss	%xmm2, %xmm0
 8573 0057 0F2EC1   		ucomiss	%xmm1, %xmm0
 8574 005a 0F834302 		jnb	.L803
 8574      0000
 8575              	.L804:
 8576 0060 4C8DAC24 		leaq	128(%rsp), %r13
 8576      80000000 
 8577 0068 4C89EF   		movq	%r13, %rdi
 8578 006b E8000000 		call	_ZNSt8ios_baseC2Ev
 8578      00
 8579 0070 31F6     		xorl	%esi, %esi
 8580 0072 4C89EF   		movq	%r13, %rdi
 8581 0075 48C78424 		movq	$0, 344(%rsp)
 8581      58010000 
 8581      00000000 
 8582 0081 C6842460 		movb	$0, 352(%rsp)
 8582      01000000 
 8583 0089 C6842461 		movb	$0, 353(%rsp)
 8583      01000000 
 8584 0091 48C78424 		movq	$0, 360(%rsp)
 8584      68010000 
 8584      00000000 
 8585 009d 48C78424 		movq	$0, 368(%rsp)
 8585      70010000 
 8585      00000000 
 8586 00a9 48C78424 		movq	$0, 376(%rsp)
 8586      78010000 
 8586      00000000 
 8587 00b5 48C78424 		movq	$0, 384(%rsp)
 8587      80010000 
 8587      00000000 
 8588 00c1 48C74424 		movq	$_ZTCN8UnitTest15MemoryOutStreamE0_So+24, 32(%rsp)
 8588      20000000 
 8588      00
 8589 00ca 48C78424 		movq	$_ZTCN8UnitTest15MemoryOutStreamE0_So+64, 128(%rsp)
 8589      80000000 
 8589      00000000 
 8590              	.LEHB213:
 8591 00d6 E8000000 		call	_ZNSt9basic_iosIcSt11char_traitsIcEE4initEPSt15basic_streambufIcS1_E
 8591      00
 8592              	.LEHE213:
 8593 00db 488D7C24 		leaq	96(%rsp), %rdi
 8593      60
 8594 00e0 48C74424 		movq	$_ZTCN8UnitTest15MemoryOutStreamE0_St19basic_ostringstreamIcSt11char_traitsIcESaIcEE+24, 32(%
 8594      20000000 
 8594      00
 8595 00e9 48C78424 		movq	$_ZTCN8UnitTest15MemoryOutStreamE0_St19basic_ostringstreamIcSt11char_traitsIcESaIcEE+64, 128(
 8595      80000000 
 8595      00000000 
 8596 00f5 48C74424 		movq	$_ZTVSt15basic_streambufIcSt11char_traitsIcEE+16, 40(%rsp)
 8596      28000000 
 8596      00
 8597 00fe 48C74424 		movq	$0, 48(%rsp)
 8597      30000000 
 8597      00
 8598 0107 48C74424 		movq	$0, 56(%rsp)
 8598      38000000 
 8598      00
 8599 0110 48C74424 		movq	$0, 64(%rsp)
 8599      40000000 
 8599      00
 8600 0119 48C74424 		movq	$0, 72(%rsp)
 8600      48000000 
 8600      00
 8601 0122 48C74424 		movq	$0, 80(%rsp)
 8601      50000000 
 8601      00
 8602 012b 48C74424 		movq	$0, 88(%rsp)
 8602      58000000 
 8602      00
 8603 0134 E8000000 		call	_ZNSt6localeC1Ev
 8603      00
 8604 0139 488B4424 		movq	32(%rsp), %rax
 8604      20
 8605 013e 488D7C24 		leaq	32(%rsp), %rdi
 8605      20
 8606 0143 488D7424 		leaq	40(%rsp), %rsi
 8606      28
 8607 0148 48C74424 		movq	$_ZTVSt15basic_stringbufIcSt11char_traitsIcESaIcEE+16, 40(%rsp)
 8607      28000000 
 8607      00
 8608 0151 C7442468 		movl	$16, 104(%rsp)
 8608      10000000 
 8609 0159 48C74424 		movq	$_ZNSs4_Rep20_S_empty_rep_storageE+24, 112(%rsp)
 8609      70000000 
 8609      00
 8610 0162 480378E8 		addq	-24(%rax), %rdi
 8611              	.LEHB214:
 8612 0166 E8000000 		call	_ZNSt9basic_iosIcSt11char_traitsIcEE4initEPSt15basic_streambufIcS1_E
 8612      00
 8613              	.LEHE214:
 8614 016b 488D7C24 		leaq	32(%rsp), %rdi
 8614      20
 8615 0170 F3410F10 		movss	(%r12), %xmm4
 8615      2424
 8616 0176 BA090000 		movl	$9, %edx
 8616      00
 8617 017b BE000000 		movl	$.LC73, %esi
 8617      00
 8618 0180 48C74424 		movq	$_ZTVN8UnitTest15MemoryOutStreamE+24, 32(%rsp)
 8618      20000000 
 8618      00
 8619 0189 48C78424 		movq	$_ZTVN8UnitTest15MemoryOutStreamE+64, 128(%rsp)
 8619      80000000 
 8619      00000000 
 8620 0195 48C74424 		movq	$_ZNSs4_Rep20_S_empty_rep_storageE+24, 120(%rsp)
 8620      78000000 
 8620      00
 8621 019e F30F1164 		movss	%xmm4, 12(%rsp)
 8621      240C
 8622 01a4 8B6D00   		movl	0(%rbp), %ebp
 8623 01a7 8B1B     		movl	(%rbx), %ebx
 8624              	.LEHB215:
 8625 01a9 E8000000 		call	_ZSt16__ostream_insertIcSt11char_traitsIcEERSt13basic_ostreamIT_T0_ES6_PKS3_l
 8625      00
 8626 01ae 488D7C24 		leaq	32(%rsp), %rdi
 8626      20
 8627 01b3 89DE     		movl	%ebx, %esi
 8628 01b5 E8000000 		call	_ZNSolsEi
 8628      00
 8629 01ba BA050000 		movl	$5, %edx
 8629      00
 8630 01bf BE000000 		movl	$.LC75, %esi
 8630      00
 8631 01c4 4889C7   		movq	%rax, %rdi
 8632 01c7 4889C3   		movq	%rax, %rbx
 8633 01ca E8000000 		call	_ZSt16__ostream_insertIcSt11char_traitsIcEERSt13basic_ostreamIT_T0_ES6_PKS3_l
 8633      00
 8634 01cf 660FEFC0 		pxor	%xmm0, %xmm0
 8635 01d3 4889DF   		movq	%rbx, %rdi
 8636 01d6 F30F5A44 		cvtss2sd	12(%rsp), %xmm0
 8636      240C
 8637 01dc E8000000 		call	_ZNSo9_M_insertIdEERSoT_
 8637      00
 8638 01e1 BA090000 		movl	$9, %edx
 8638      00
 8639 01e6 BE000000 		movl	$.LC77, %esi
 8639      00
 8640 01eb 4889C7   		movq	%rax, %rdi
 8641 01ee 4889C3   		movq	%rax, %rbx
 8642 01f1 E8000000 		call	_ZSt16__ostream_insertIcSt11char_traitsIcEERSt13basic_ostreamIT_T0_ES6_PKS3_l
 8642      00
 8643 01f6 89EE     		movl	%ebp, %esi
 8644 01f8 4889DF   		movq	%rbx, %rdi
 8645 01fb E8000000 		call	_ZNSolsEi
 8645      00
 8646 0200 488D7C24 		leaq	32(%rsp), %rdi
 8646      20
 8647 0205 E8000000 		call	_ZNK8UnitTest15MemoryOutStream7GetTextEv
 8647      00
 8648 020a 4889C2   		movq	%rax, %rdx
 8649 020d 4C89FE   		movq	%r15, %rsi
 8650 0210 4C89F7   		movq	%r14, %rdi
 8651 0213 E8000000 		call	_ZN8UnitTest11TestResults13OnTestFailureERKNS_11TestDetailsEPKc
 8651      00
 8652              	.LEHE215:
 8653 0218 488B4424 		movq	120(%rsp), %rax
 8653      78
 8654 021d 48C74424 		movq	$_ZTVN8UnitTest15MemoryOutStreamE+24, 32(%rsp)
 8654      20000000 
 8654      00
 8655 0226 48C78424 		movq	$_ZTVN8UnitTest15MemoryOutStreamE+64, 128(%rsp)
 8655      80000000 
 8655      00000000 
 8656 0232 488D78E8 		leaq	-24(%rax), %rdi
 8657 0236 4881FF00 		cmpq	$_ZNSs4_Rep20_S_empty_rep_storageE, %rdi
 8657      000000
 8658 023d 0F858D00 		jne	.L835
 8658      0000
 8659              	.L812:
 8660 0243 488B4424 		movq	112(%rsp), %rax
 8660      70
 8661 0248 48C74424 		movq	$_ZTCN8UnitTest15MemoryOutStreamE0_St19basic_ostringstreamIcSt11char_traitsIcESaIcEE+24, 32(%
 8661      20000000 
 8661      00
 8662 0251 48C78424 		movq	$_ZTCN8UnitTest15MemoryOutStreamE0_St19basic_ostringstreamIcSt11char_traitsIcESaIcEE+64, 128(
 8662      80000000 
 8662      00000000 
 8663 025d 48C74424 		movq	$_ZTVSt15basic_stringbufIcSt11char_traitsIcESaIcEE+16, 40(%rsp)
 8663      28000000 
 8663      00
 8664 0266 488D78E8 		leaq	-24(%rax), %rdi
 8665 026a 4881FF00 		cmpq	$_ZNSs4_Rep20_S_empty_rep_storageE, %rdi
 8665      000000
 8666 0271 0F858900 		jne	.L836
 8666      0000
 8667              	.L817:
 8668 0277 488D7C24 		leaq	96(%rsp), %rdi
 8668      60
 8669 027c 48C74424 		movq	$_ZTVSt15basic_streambufIcSt11char_traitsIcEE+16, 40(%rsp)
 8669      28000000 
 8669      00
 8670 0285 E8000000 		call	_ZNSt6localeD1Ev
 8670      00
 8671 028a 488DBC24 		leaq	128(%rsp), %rdi
 8671      80000000 
 8672 0292 48C78424 		movq	$_ZTVSt9basic_iosIcSt11char_traitsIcEE+16, 128(%rsp)
 8672      80000000 
 8672      00000000 
 8673              	.LEHB216:
 8674 029e E8000000 		call	_ZNSt8ios_baseD2Ev
 8674      00
 8675              	.LEHE216:
 8676              	.L803:
 8677 02a3 488B8424 		movq	392(%rsp), %rax
 8677      88010000 
 8678 02ab 64483304 		xorq	%fs:40, %rax
 8678      25280000 
 8678      00
 8679 02b4 0F859300 		jne	.L837
 8679      0000
 8680 02ba 4881C498 		addq	$408, %rsp
 8680      010000
 8681              		.cfi_remember_state
 8682              		.cfi_def_cfa_offset 56
 8683 02c1 5B       		popq	%rbx
 8684              		.cfi_def_cfa_offset 48
 8685 02c2 5D       		popq	%rbp
 8686              		.cfi_def_cfa_offset 40
 8687 02c3 415C     		popq	%r12
 8688              		.cfi_def_cfa_offset 32
 8689 02c5 415D     		popq	%r13
 8690              		.cfi_def_cfa_offset 24
 8691 02c7 415E     		popq	%r14
 8692              		.cfi_def_cfa_offset 16
 8693 02c9 415F     		popq	%r15
 8694              		.cfi_def_cfa_offset 8
 8695 02cb C3       		ret
 8696 02cc 0F1F4000 		.p2align 4,,10
 8697              		.p2align 3
 8698              	.L835:
 8699              		.cfi_restore_state
 8700 02d0 BA000000 		movl	$_ZL28__gthrw___pthread_key_createPjPFvPvE, %edx
 8700      00
 8701 02d5 4885D2   		testq	%rdx, %rdx
 8702 02d8 7456     		je	.L813
 8703 02da BAFFFFFF 		movl	$-1, %edx
 8703      FF
 8704 02df F00FC150 		lock xaddl	%edx, -8(%rax)
 8704      F8
 8705 02e4 89D0     		movl	%edx, %eax
 8706              	.L814:
 8707 02e6 85C0     		testl	%eax, %eax
 8708 02e8 0F8F55FF 		jg	.L812
 8708      FFFF
 8709 02ee 488D7424 		leaq	31(%rsp), %rsi
 8709      1F
 8710 02f3 E8000000 		call	_ZNSs4_Rep10_M_destroyERKSaIcE
 8710      00
 8711 02f8 E946FFFF 		jmp	.L812
 8711      FF
 8712 02fd 0F1F00   		.p2align 4,,10
 8713              		.p2align 3
 8714              	.L836:
 8715 0300 BA000000 		movl	$_ZL28__gthrw___pthread_key_createPjPFvPvE, %edx
 8715      00
 8716 0305 4885D2   		testq	%rdx, %rdx
 8717 0308 7436     		je	.L818
 8718 030a BAFFFFFF 		movl	$-1, %edx
 8718      FF
 8719 030f F00FC150 		lock xaddl	%edx, -8(%rax)
 8719      F8
 8720 0314 89D0     		movl	%edx, %eax
 8721              	.L819:
 8722 0316 85C0     		testl	%eax, %eax
 8723 0318 0F8F59FF 		jg	.L817
 8723      FFFF
 8724 031e 488D7424 		leaq	31(%rsp), %rsi
 8724      1F
 8725 0323 E8000000 		call	_ZNSs4_Rep10_M_destroyERKSaIcE
 8725      00
 8726 0328 E94AFFFF 		jmp	.L817
 8726      FF
 8727 032d 0F1F00   		.p2align 4,,10
 8728              		.p2align 3
 8729              	.L813:
 8730 0330 8B50F8   		movl	-8(%rax), %edx
 8731 0333 8D4AFF   		leal	-1(%rdx), %ecx
 8732 0336 8948F8   		movl	%ecx, -8(%rax)
 8733 0339 89D0     		movl	%edx, %eax
 8734 033b EBA9     		jmp	.L814
 8735 033d 0F1F00   		.p2align 4,,10
 8736              		.p2align 3
 8737              	.L818:
 8738 0340 8B50F8   		movl	-8(%rax), %edx
 8739 0343 8D4AFF   		leal	-1(%rdx), %ecx
 8740 0346 8948F8   		movl	%ecx, -8(%rax)
 8741 0349 89D0     		movl	%edx, %eax
 8742 034b EBC9     		jmp	.L819
 8743              	.L837:
 8744 034d E8000000 		call	__stack_chk_fail
 8744      00
 8745              	.L824:
 8746 0352 4889C3   		movq	%rax, %rbx
 8747 0355 EB0A     		jmp	.L821
 8748              	.L826:
 8749 0357 4889C3   		movq	%rax, %rbx
 8750 035a EB17     		jmp	.L808
 8751              	.L825:
 8752 035c 4889C3   		movq	%rax, %rbx
 8753 035f EB1C     		jmp	.L809
 8754              	.L821:
 8755 0361 488D7C24 		leaq	32(%rsp), %rdi
 8755      20
 8756 0366 E8000000 		call	_ZN8UnitTest15MemoryOutStreamD1Ev
 8756      00
 8757 036b 4889DF   		movq	%rbx, %rdi
 8758              	.LEHB217:
 8759 036e E8000000 		call	_Unwind_Resume
 8759      00
 8760              	.LEHE217:
 8761              	.L808:
 8762 0373 488D7C24 		leaq	40(%rsp), %rdi
 8762      28
 8763 0378 E8000000 		call	_ZNSt15basic_stringbufIcSt11char_traitsIcESaIcEED1Ev
 8763      00
 8764              	.L809:
 8765 037d 488DBC24 		leaq	128(%rsp), %rdi
 8765      80000000 
 8766 0385 48C78424 		movq	$_ZTVSt9basic_iosIcSt11char_traitsIcEE+16, 128(%rsp)
 8766      80000000 
 8766      00000000 
 8767 0391 E8000000 		call	_ZNSt8ios_baseD2Ev
 8767      00
 8768 0396 4889DF   		movq	%rbx, %rdi
 8769              	.LEHB218:
 8770 0399 E8000000 		call	_Unwind_Resume
 8770      00
 8771              	.LEHE218:
 8772              		.cfi_endproc
 8773              	.LFE1271:
 8774              		.section	.gcc_except_table
 8775              	.LLSDA1271:
 8776 05d0 FF       		.byte	0xff
 8777 05d1 FF       		.byte	0xff
 8778 05d2 01       		.byte	0x1
 8779 05d3 21       		.uleb128 .LLSDACSE1271-.LLSDACSB1271
 8780              	.LLSDACSB1271:
 8781 05d4 D601     		.uleb128 .LEHB213-.LFB1271
 8782 05d6 05       		.uleb128 .LEHE213-.LEHB213
 8783 05d7 DC06     		.uleb128 .L825-.LFB1271
 8784 05d9 00       		.uleb128 0
 8785 05da E602     		.uleb128 .LEHB214-.LFB1271
 8786 05dc 05       		.uleb128 .LEHE214-.LEHB214
 8787 05dd D706     		.uleb128 .L826-.LFB1271
 8788 05df 00       		.uleb128 0
 8789 05e0 A903     		.uleb128 .LEHB215-.LFB1271
 8790 05e2 6F       		.uleb128 .LEHE215-.LEHB215
 8791 05e3 D206     		.uleb128 .L824-.LFB1271
 8792 05e5 00       		.uleb128 0
 8793 05e6 9E05     		.uleb128 .LEHB216-.LFB1271
 8794 05e8 05       		.uleb128 .LEHE216-.LEHB216
 8795 05e9 00       		.uleb128 0
 8796 05ea 00       		.uleb128 0
 8797 05eb EE06     		.uleb128 .LEHB217-.LFB1271
 8798 05ed 05       		.uleb128 .LEHE217-.LEHB217
 8799 05ee 00       		.uleb128 0
 8800 05ef 00       		.uleb128 0
 8801 05f0 9907     		.uleb128 .LEHB218-.LFB1271
 8802 05f2 05       		.uleb128 .LEHE218-.LEHB218
 8803 05f3 00       		.uleb128 0
 8804 05f4 00       		.uleb128 0
 8805              	.LLSDACSE1271:
 8806              		.section	.text._ZN8UnitTest10CheckCloseIiifEEvRNS_11TestResultsERKT_RKT0_RKT1_RKNS_11TestDetailsE,
 8808              		.section	.text.unlikely._ZN8UnitTest10CheckCloseIiifEEvRNS_11TestResultsERKT_RKT0_RKT1_RKNS_11Test
 8809              	.LCOLDE168:
 8810              		.section	.text._ZN8UnitTest10CheckCloseIiifEEvRNS_11TestResultsERKT_RKT0_RKT1_RKNS_11TestDetailsE,
 8811              	.LHOTE168:
 8812              		.section	.rodata.str1.1
 8813              	.LC169:
 8814 00dd 68656164 		.string	"header.h"
 8814      65722E68 
 8814      00
 8815              		.section	.rodata.str1.8
 8816 06c2 00000000 		.align 8
 8816      0000
 8817              	.LC171:
 8818 06c8 556E6861 		.string	"Unhandled exception in CHECK_EQUAL(\"header.h\", reporter.lastFailedFile)"
 8818      6E646C65 
 8818      64206578 
 8818      63657074 
 8818      696F6E20 
 8819              		.align 8
 8820              	.LC172:
 8821 0710 556E6861 		.string	"Unhandled exception in CHECK_EQUAL(10, reporter.lastFailedLine)"
 8821      6E646C65 
 8821      64206578 
 8821      63657074 
 8821      696F6E20 
 8822              		.section	.text.unlikely
 8823              		.align 2
 8824              	.LCOLDB173:
 8825              		.text
 8826              	.LHOTB173:
 8827              		.align 2
 8828 4a6a 660F1F44 		.p2align 4,,15
 8828      0000
 8830              	_ZNK12_GLOBAL__N_136TestCheckCloseFailureIncludesDetails7RunImplEv:
 8831              	.LFB1198:
 8832              		.cfi_startproc
 8833              		.cfi_personality 0x3,__gxx_personality_v0
 8834              		.cfi_lsda 0x3,.LLSDA1198
 8835 4a70 53       		pushq	%rbx
 8836              		.cfi_def_cfa_offset 16
 8837              		.cfi_offset 3, -16
 8838 4a71 4881ECB0 		subq	$2224, %rsp
 8838      080000
 8839              		.cfi_def_cfa_offset 2240
 8840 4a78 488D7424 		leaq	112(%rsp), %rsi
 8840      70
 8841 4a7d 488D7C24 		leaq	16(%rsp), %rdi
 8841      10
 8842 4a82 48C74424 		movq	$_ZTV17RecordingReporter+16, 112(%rsp)
 8842      70000000 
 8842      00
 8843 4a8b 64488B04 		movq	%fs:40, %rax
 8843      25280000 
 8843      00
 8844 4a94 48898424 		movq	%rax, 2216(%rsp)
 8844      A8080000 
 8845 4a9c 31C0     		xorl	%eax, %eax
 8846 4a9e C7442478 		movl	$0, 120(%rsp)
 8846      00000000 
 8847 4aa6 C784247C 		movl	$0, 636(%rsp)
 8847      02000000 
 8847      000000
 8848 4ab1 C7842480 		movl	$0, 896(%rsp)
 8848      03000000 
 8848      000000
 8849 4abc C7842484 		movl	$0, 1668(%rsp)
 8849      06000000 
 8849      000000
 8850 4ac7 C7842488 		movl	$0x00000000, 2184(%rsp)
 8850      08000000 
 8850      000000
 8851 4ad2 C784248C 		movl	$0, 2188(%rsp)
 8851      08000000 
 8851      000000
 8852 4add C7842490 		movl	$0, 2192(%rsp)
 8852      08000000 
 8852      000000
 8853 4ae8 C7842494 		movl	$0, 2196(%rsp)
 8853      08000000 
 8853      000000
 8854 4af3 C7842498 		movl	$0x00000000, 2200(%rsp)
 8854      08000000 
 8854      000000
 8855 4afe C644247C 		movb	$0, 124(%rsp)
 8855      00
 8856 4b03 C684247C 		movb	$0, 380(%rsp)
 8856      01000000 
 8857 4b0b C6842480 		movb	$0, 640(%rsp)
 8857      02000000 
 8858 4b13 C6842484 		movb	$0, 900(%rsp)
 8858      03000000 
 8859 4b1b C6842484 		movb	$0, 1156(%rsp)
 8859      04000000 
 8860 4b23 C6842484 		movb	$0, 1412(%rsp)
 8860      05000000 
 8861 4b2b C6842488 		movb	$0, 1672(%rsp)
 8861      06000000 
 8862 4b33 C6842488 		movb	$0, 1928(%rsp)
 8862      07000000 
 8863              	.LEHB219:
 8864 4b3b E8000000 		call	_ZN8UnitTest11TestResultsC1EPNS_12TestReporterE
 8864      00
 8865 4b40 488D7C24 		leaq	48(%rsp), %rdi
 8865      30
 8866 4b45 41B80A00 		movl	$10, %r8d
 8866      0000
 8867 4b4b B9000000 		movl	$.LC169, %ecx
 8867      00
 8868 4b50 BA000000 		movl	$.LC128, %edx
 8868      00
 8869 4b55 BE000000 		movl	$.LC129, %esi
 8869      00
 8870 4b5a E8000000 		call	_ZN8UnitTest11TestDetailsC1EPKcS2_S2_i
 8870      00
 8871 4b5f 4C8D4424 		leaq	48(%rsp), %r8
 8871      30
 8872 4b64 488D4C24 		leaq	80(%rsp), %rcx
 8872      50
 8873 4b69 488D5424 		leaq	12(%rsp), %rdx
 8873      0C
 8874 4b6e 488D7424 		leaq	8(%rsp), %rsi
 8874      08
 8875 4b73 488D7C24 		leaq	16(%rsp), %rdi
 8875      10
 8876 4b78 C7442450 		movl	$0x3c23d70a, 80(%rsp)
 8876      0AD7233C 
 8877 4b80 C744240C 		movl	$3, 12(%rsp)
 8877      03000000 
 8878 4b88 C7442408 		movl	$2, 8(%rsp)
 8878      02000000 
 8879 4b90 E8000000 		call	_ZN8UnitTest10CheckCloseIiifEEvRNS_11TestResultsERKT_RKT0_RKT1_RKNS_11TestDetailsE
 8879      00
 8880              	.LEHE219:
 8881              	.LEHB220:
 8882 4b95 E8000000 		call	_ZN8UnitTest11CurrentTest7DetailsEv
 8882      00
 8883 4b9a 488B30   		movq	(%rax), %rsi
 8884 4b9d 488D7C24 		leaq	80(%rsp), %rdi
 8884      50
 8885 4ba2 BAB10000 		movl	$177, %edx
 8885      00
 8886 4ba7 E8000000 		call	_ZN8UnitTest11TestDetailsC1ERKS0_i
 8886      00
 8887 4bac E8000000 		call	_ZN8UnitTest11CurrentTest7ResultsEv
 8887      00
 8888 4bb1 488D5C24 		leaq	112(%rsp), %rbx
 8888      70
 8889 4bb6 488B38   		movq	(%rax), %rdi
 8890 4bb9 488D4C24 		leaq	80(%rsp), %rcx
 8890      50
 8891 4bbe BE000000 		movl	$.LC129, %esi
 8891      00
 8892 4bc3 488D9314 		leaq	1044(%rbx), %rdx
 8892      040000
 8893 4bca E8000000 		call	_ZN8UnitTest10CheckEqualERNS_11TestResultsEPKcPcRKNS_11TestDetailsE
 8893      00
 8894              	.LEHE220:
 8895              	.L842:
 8896              	.LEHB221:
 8897 4bcf E8000000 		call	_ZN8UnitTest11CurrentTest7DetailsEv
 8897      00
 8898 4bd4 488B30   		movq	(%rax), %rsi
 8899 4bd7 488D7C24 		leaq	80(%rsp), %rdi
 8899      50
 8900 4bdc BAB20000 		movl	$178, %edx
 8900      00
 8901 4be1 E8000000 		call	_ZN8UnitTest11TestDetailsC1ERKS0_i
 8901      00
 8902 4be6 E8000000 		call	_ZN8UnitTest11CurrentTest7ResultsEv
 8902      00
 8903 4beb 488D5C24 		leaq	112(%rsp), %rbx
 8903      70
 8904 4bf0 488B38   		movq	(%rax), %rdi
 8905 4bf3 488D4C24 		leaq	80(%rsp), %rcx
 8905      50
 8906 4bf8 BE000000 		movl	$.LC128, %esi
 8906      00
 8907 4bfd 488D9314 		leaq	788(%rbx), %rdx
 8907      030000
 8908 4c04 E8000000 		call	_ZN8UnitTest10CheckEqualERNS_11TestResultsEPKcPcRKNS_11TestDetailsE
 8908      00
 8909              	.LEHE221:
 8910              	.L845:
 8911              	.LEHB222:
 8912 4c09 E8000000 		call	_ZN8UnitTest11CurrentTest7DetailsEv
 8912      00
 8913 4c0e 488B30   		movq	(%rax), %rsi
 8914 4c11 488D7C24 		leaq	80(%rsp), %rdi
 8914      50
 8915 4c16 BAB30000 		movl	$179, %edx
 8915      00
 8916 4c1b E8000000 		call	_ZN8UnitTest11TestDetailsC1ERKS0_i
 8916      00
 8917 4c20 E8000000 		call	_ZN8UnitTest11CurrentTest7ResultsEv
 8917      00
 8918 4c25 488D5C24 		leaq	112(%rsp), %rbx
 8918      70
 8919 4c2a 488B38   		movq	(%rax), %rdi
 8920 4c2d 488D4C24 		leaq	80(%rsp), %rcx
 8920      50
 8921 4c32 BE000000 		movl	$.LC169, %esi
 8921      00
 8922 4c37 488D9310 		leaq	528(%rbx), %rdx
 8922      020000
 8923 4c3e E8000000 		call	_ZN8UnitTest10CheckEqualERNS_11TestResultsEPKcPcRKNS_11TestDetailsE
 8923      00
 8924              	.LEHE222:
 8925              	.L848:
 8926              	.LEHB223:
 8927 4c43 E8000000 		call	_ZN8UnitTest11CurrentTest7DetailsEv
 8927      00
 8928 4c48 488B30   		movq	(%rax), %rsi
 8929 4c4b 488D7C24 		leaq	80(%rsp), %rdi
 8929      50
 8930 4c50 BAB40000 		movl	$180, %edx
 8930      00
 8931 4c55 E8000000 		call	_ZN8UnitTest11TestDetailsC1ERKS0_i
 8931      00
 8932 4c5a C744240C 		movl	$10, 12(%rsp)
 8932      0A000000 
 8933 4c62 E8000000 		call	_ZN8UnitTest11CurrentTest7ResultsEv
 8933      00
 8934 4c67 488D5C24 		leaq	112(%rsp), %rbx
 8934      70
 8935 4c6c 488B38   		movq	(%rax), %rdi
 8936 4c6f 488D4C24 		leaq	80(%rsp), %rcx
 8936      50
 8937 4c74 488D7424 		leaq	12(%rsp), %rsi
 8937      0C
 8938 4c79 488D9310 		leaq	784(%rbx), %rdx
 8938      030000
 8939 4c80 E8000000 		call	_ZN8UnitTest10CheckEqualIiiEEvRNS_11TestResultsERKT_RKT0_RKNS_11TestDetailsE
 8939      00
 8940              	.LEHE223:
 8941              	.L851:
 8942 4c85 488D7C24 		leaq	112(%rsp), %rdi
 8942      70
 8943 4c8a 48C74424 		movq	$_ZTV17RecordingReporter+16, 112(%rsp)
 8943      70000000 
 8943      00
 8944              	.LEHB224:
 8945 4c93 E8000000 		call	_ZN8UnitTest12TestReporterD2Ev
 8945      00
 8946              	.LEHE224:
 8947 4c98 488B8424 		movq	2216(%rsp), %rax
 8947      A8080000 
 8948 4ca0 64483304 		xorq	%fs:40, %rax
 8948      25280000 
 8948      00
 8949 4ca9 7509     		jne	.L865
 8950 4cab 4881C4B0 		addq	$2224, %rsp
 8950      080000
 8951              		.cfi_remember_state
 8952              		.cfi_def_cfa_offset 16
 8953 4cb2 5B       		popq	%rbx
 8954              		.cfi_def_cfa_offset 8
 8955 4cb3 C3       		ret
 8956              	.L865:
 8957              		.cfi_restore_state
 8958 4cb4 E8000000 		call	__stack_chk_fail
 8958      00
 8959              	.L860:
 8960 4cb9 4889C7   		movq	%rax, %rdi
 8961 4cbc E8000000 		call	__cxa_begin_catch
 8961      00
 8962              	.LEHB225:
 8963 4cc1 E8000000 		call	_ZN8UnitTest11CurrentTest7DetailsEv
 8963      00
 8964 4cc6 488B30   		movq	(%rax), %rsi
 8965 4cc9 488D7C24 		leaq	80(%rsp), %rdi
 8965      50
 8966 4cce BAB40000 		movl	$180, %edx
 8966      00
 8967 4cd3 E8000000 		call	_ZN8UnitTest11TestDetailsC1ERKS0_i
 8967      00
 8968 4cd8 E8000000 		call	_ZN8UnitTest11CurrentTest7ResultsEv
 8968      00
 8969 4cdd 488B38   		movq	(%rax), %rdi
 8970 4ce0 488D7424 		leaq	80(%rsp), %rsi
 8970      50
 8971 4ce5 BA000000 		movl	$.LC172, %edx
 8971      00
 8972 4cea E8000000 		call	_ZN8UnitTest11TestResults13OnTestFailureERKNS_11TestDetailsEPKc
 8972      00
 8973              	.LEHE225:
 8974              	.LEHB226:
 8975 4cef E8000000 		call	__cxa_end_catch
 8975      00
 8976              	.LEHE226:
 8977 4cf4 EB8F     		jmp	.L851
 8978              	.L858:
 8979 4cf6 4889C7   		movq	%rax, %rdi
 8980 4cf9 E8000000 		call	__cxa_begin_catch
 8980      00
 8981              	.LEHB227:
 8982 4cfe E8000000 		call	_ZN8UnitTest11CurrentTest7DetailsEv
 8982      00
 8983 4d03 488B30   		movq	(%rax), %rsi
 8984 4d06 488D7C24 		leaq	80(%rsp), %rdi
 8984      50
 8985 4d0b BAB30000 		movl	$179, %edx
 8985      00
 8986 4d10 E8000000 		call	_ZN8UnitTest11TestDetailsC1ERKS0_i
 8986      00
 8987 4d15 E8000000 		call	_ZN8UnitTest11CurrentTest7ResultsEv
 8987      00
 8988 4d1a 488B38   		movq	(%rax), %rdi
 8989 4d1d 488D7424 		leaq	80(%rsp), %rsi
 8989      50
 8990 4d22 BA000000 		movl	$.LC171, %edx
 8990      00
 8991 4d27 E8000000 		call	_ZN8UnitTest11TestResults13OnTestFailureERKNS_11TestDetailsEPKc
 8991      00
 8992              	.LEHE227:
 8993              	.LEHB228:
 8994 4d2c E8000000 		call	__cxa_end_catch
 8994      00
 8995              	.LEHE228:
 8996 4d31 E90DFFFF 		jmp	.L848
 8996      FF
 8997              	.L854:
 8998 4d36 4889C7   		movq	%rax, %rdi
 8999 4d39 E8000000 		call	__cxa_begin_catch
 8999      00
 9000              	.LEHB229:
 9001 4d3e E8000000 		call	_ZN8UnitTest11CurrentTest7DetailsEv
 9001      00
 9002 4d43 488B30   		movq	(%rax), %rsi
 9003 4d46 488D7C24 		leaq	80(%rsp), %rdi
 9003      50
 9004 4d4b BAB10000 		movl	$177, %edx
 9004      00
 9005 4d50 E8000000 		call	_ZN8UnitTest11TestDetailsC1ERKS0_i
 9005      00
 9006 4d55 E8000000 		call	_ZN8UnitTest11CurrentTest7ResultsEv
 9006      00
 9007 4d5a 488B38   		movq	(%rax), %rdi
 9008 4d5d 488D7424 		leaq	80(%rsp), %rsi
 9008      50
 9009 4d62 BA000000 		movl	$.LC130, %edx
 9009      00
 9010 4d67 E8000000 		call	_ZN8UnitTest11TestResults13OnTestFailureERKNS_11TestDetailsEPKc
 9010      00
 9011              	.LEHE229:
 9012              	.LEHB230:
 9013 4d6c E8000000 		call	__cxa_end_catch
 9013      00
 9014              	.LEHE230:
 9015 4d71 E959FEFF 		jmp	.L842
 9015      FF
 9016              	.L856:
 9017 4d76 4889C7   		movq	%rax, %rdi
 9018 4d79 E8000000 		call	__cxa_begin_catch
 9018      00
 9019              	.LEHB231:
 9020 4d7e E8000000 		call	_ZN8UnitTest11CurrentTest7DetailsEv
 9020      00
 9021 4d83 488B30   		movq	(%rax), %rsi
 9022 4d86 488D7C24 		leaq	80(%rsp), %rdi
 9022      50
 9023 4d8b BAB20000 		movl	$178, %edx
 9023      00
 9024 4d90 E8000000 		call	_ZN8UnitTest11TestDetailsC1ERKS0_i
 9024      00
 9025 4d95 E8000000 		call	_ZN8UnitTest11CurrentTest7ResultsEv
 9025      00
 9026 4d9a 488B38   		movq	(%rax), %rdi
 9027 4d9d 488D7424 		leaq	80(%rsp), %rsi
 9027      50
 9028 4da2 BA000000 		movl	$.LC131, %edx
 9028      00
 9029 4da7 E8000000 		call	_ZN8UnitTest11TestResults13OnTestFailureERKNS_11TestDetailsEPKc
 9029      00
 9030              	.LEHE231:
 9031              	.LEHB232:
 9032 4dac E8000000 		call	__cxa_end_catch
 9032      00
 9033              	.LEHE232:
 9034 4db1 E953FEFF 		jmp	.L845
 9034      FF
 9035              	.L853:
 9036 4db6 4889C3   		movq	%rax, %rbx
 9037              	.L840:
 9038 4db9 488D7C24 		leaq	112(%rsp), %rdi
 9038      70
 9039 4dbe 48C74424 		movq	$_ZTV17RecordingReporter+16, 112(%rsp)
 9039      70000000 
 9039      00
 9040 4dc7 E8000000 		call	_ZN8UnitTest12TestReporterD2Ev
 9040      00
 9041 4dcc 4889DF   		movq	%rbx, %rdi
 9042              	.LEHB233:
 9043 4dcf E8000000 		call	_Unwind_Resume
 9043      00
 9044              	.LEHE233:
 9045              	.L861:
 9046 4dd4 4889C3   		movq	%rax, %rbx
 9047 4dd7 E8000000 		call	__cxa_end_catch
 9047      00
 9048 4ddc EBDB     		jmp	.L840
 9049              	.L855:
 9050 4dde 4889C3   		movq	%rax, %rbx
 9051 4de1 E8000000 		call	__cxa_end_catch
 9051      00
 9052 4de6 EBD1     		jmp	.L840
 9053              	.L859:
 9054 4de8 4889C3   		movq	%rax, %rbx
 9055 4deb E8000000 		call	__cxa_end_catch
 9055      00
 9056 4df0 EBC7     		jmp	.L840
 9057              	.L857:
 9058 4df2 4889C3   		movq	%rax, %rbx
 9059 4df5 E8000000 		call	__cxa_end_catch
 9059      00
 9060 4dfa EBBD     		jmp	.L840
 9061              		.cfi_endproc
 9062              	.LFE1198:
 9063              		.section	.gcc_except_table
 9064 05f5 000000   		.align 4
 9065              	.LLSDA1198:
 9066 05f8 FF       		.byte	0xff
 9067 05f9 03       		.byte	0x3
 9068 05fa 61       		.uleb128 .LLSDATT1198-.LLSDATTD1198
 9069              	.LLSDATTD1198:
 9070 05fb 01       		.byte	0x1
 9071 05fc 58       		.uleb128 .LLSDACSE1198-.LLSDACSB1198
 9072              	.LLSDACSB1198:
 9073 05fd CB01     		.uleb128 .LEHB219-.LFB1198
 9074 05ff 5A       		.uleb128 .LEHE219-.LEHB219
 9075 0600 C606     		.uleb128 .L853-.LFB1198
 9076 0602 00       		.uleb128 0
 9077 0603 A502     		.uleb128 .LEHB220-.LFB1198
 9078 0605 3A       		.uleb128 .LEHE220-.LEHB220
 9079 0606 C605     		.uleb128 .L854-.LFB1198
 9080 0608 01       		.uleb128 0x1
 9081 0609 DF02     		.uleb128 .LEHB221-.LFB1198
 9082 060b 3A       		.uleb128 .LEHE221-.LEHB221
 9083 060c 8606     		.uleb128 .L856-.LFB1198
 9084 060e 01       		.uleb128 0x1
 9085 060f 9903     		.uleb128 .LEHB222-.LFB1198
 9086 0611 3A       		.uleb128 .LEHE222-.LEHB222
 9087 0612 8605     		.uleb128 .L858-.LFB1198
 9088 0614 01       		.uleb128 0x1
 9089 0615 D303     		.uleb128 .LEHB223-.LFB1198
 9090 0617 42       		.uleb128 .LEHE223-.LEHB223
 9091 0618 C904     		.uleb128 .L860-.LFB1198
 9092 061a 01       		.uleb128 0x1
 9093 061b A304     		.uleb128 .LEHB224-.LFB1198
 9094 061d 05       		.uleb128 .LEHE224-.LEHB224
 9095 061e 00       		.uleb128 0
 9096 061f 00       		.uleb128 0
 9097 0620 D104     		.uleb128 .LEHB225-.LFB1198
 9098 0622 2E       		.uleb128 .LEHE225-.LEHB225
 9099 0623 E406     		.uleb128 .L861-.LFB1198
 9100 0625 00       		.uleb128 0
 9101 0626 FF04     		.uleb128 .LEHB226-.LFB1198
 9102 0628 05       		.uleb128 .LEHE226-.LEHB226
 9103 0629 C606     		.uleb128 .L853-.LFB1198
 9104 062b 00       		.uleb128 0
 9105 062c 8E05     		.uleb128 .LEHB227-.LFB1198
 9106 062e 2E       		.uleb128 .LEHE227-.LEHB227
 9107 062f F806     		.uleb128 .L859-.LFB1198
 9108 0631 00       		.uleb128 0
 9109 0632 BC05     		.uleb128 .LEHB228-.LFB1198
 9110 0634 05       		.uleb128 .LEHE228-.LEHB228
 9111 0635 C606     		.uleb128 .L853-.LFB1198
 9112 0637 00       		.uleb128 0
 9113 0638 CE05     		.uleb128 .LEHB229-.LFB1198
 9114 063a 2E       		.uleb128 .LEHE229-.LEHB229
 9115 063b EE06     		.uleb128 .L855-.LFB1198
 9116 063d 00       		.uleb128 0
 9117 063e FC05     		.uleb128 .LEHB230-.LFB1198
 9118 0640 05       		.uleb128 .LEHE230-.LEHB230
 9119 0641 C606     		.uleb128 .L853-.LFB1198
 9120 0643 00       		.uleb128 0
 9121 0644 8E06     		.uleb128 .LEHB231-.LFB1198
 9122 0646 2E       		.uleb128 .LEHE231-.LEHB231
 9123 0647 8207     		.uleb128 .L857-.LFB1198
 9124 0649 00       		.uleb128 0
 9125 064a BC06     		.uleb128 .LEHB232-.LFB1198
 9126 064c 05       		.uleb128 .LEHE232-.LEHB232
 9127 064d C606     		.uleb128 .L853-.LFB1198
 9128 064f 00       		.uleb128 0
 9129 0650 DF06     		.uleb128 .LEHB233-.LFB1198
 9130 0652 05       		.uleb128 .LEHE233-.LEHB233
 9131 0653 00       		.uleb128 0
 9132 0654 00       		.uleb128 0
 9133              	.LLSDACSE1198:
 9134 0655 01       		.byte	0x1
 9135 0656 00       		.byte	0
 9136 0657 00       		.align 4
 9137 0658 00000000 		.long	0
 9138              	
 9139              	.LLSDATT1198:
 9140              		.text
 9142              		.section	.text.unlikely
 9143              	.LCOLDE173:
 9144              		.text
 9145              	.LHOTE173:
 9146              		.section	.rodata.str1.1
 9147              	.LC174:
 9148 00e6 54657374 		.string	"TestChecks.cpp"
 9148      43686563 
 9148      6B732E63 
 9148      707000
 9149              	.LC175:
 9150 00f5 44656661 		.string	"DefaultSuite"
 9150      756C7453 
 9150      75697465 
 9150      00
 9151              	.LC176:
 9152 0102 43686563 		.string	"CheckEqualWithUnsignedLong"
 9152      6B457175 
 9152      616C5769 
 9152      7468556E 
 9152      7369676E 
 9153              		.section	.rodata.str1.8
 9154              		.align 8
 9155              	.LC177:
 9156 0750 43686563 		.string	"CheckEqualsWithStringsFailsOnDifferentStrings"
 9156      6B457175 
 9156      616C7357 
 9156      69746853 
 9156      7472696E 
 9157 077e 0000     		.align 8
 9158              	.LC178:
 9159 0780 43686563 		.string	"CheckEqualsWithStringsWorksOnContentsNonConstNonConst"
 9159      6B457175 
 9159      616C7357 
 9159      69746853 
 9159      7472696E 
 9160 07b6 0000     		.align 8
 9161              	.LC179:
 9162 07b8 43686563 		.string	"CheckEqualsWithStringsWorksOnContentsConstConst"
 9162      6B457175 
 9162      616C7357 
 9162      69746853 
 9162      7472696E 
 9163              		.align 8
 9164              	.LC180:
 9165 07e8 43686563 		.string	"CheckEqualsWithStringsWorksOnContentsNonConstConst"
 9165      6B457175 
 9165      616C7357 
 9165      69746853 
 9165      7472696E 
 9166 081b 00000000 		.align 8
 9166      00
 9167              	.LC181:
 9168 0820 43686563 		.string	"CheckEqualsWithStringsWorksOnContentsConstNonConst"
 9168      6B457175 
 9168      616C7357 
 9168      69746853 
 9168      7472696E 
 9169 0853 00000000 		.align 8
 9169      00
 9170              	.LC182:
 9171 0858 43686563 		.string	"CheckEqualsWithStringsWorksOnContentsWithALiteral"
 9171      6B457175 
 9171      616C7357 
 9171      69746853 
 9171      7472696E 
 9172 088a 00000000 		.align 8
 9172      0000
 9173              	.LC183:
 9174 0890 43686563 		.string	"CheckEqualFailureIncludesCheckExpectedAndActual"
 9174      6B457175 
 9174      616C4661 
 9174      696C7572 
 9174      65496E63 
 9175              		.align 8
 9176              	.LC184:
 9177 08c0 43686563 		.string	"CheckEqualFailureIncludesDetails"
 9177      6B457175 
 9177      616C4661 
 9177      696C7572 
 9177      65496E63 
 9178              		.section	.rodata.str1.1
 9179              	.LC185:
 9180 011d 43686563 		.string	"CheckCloseTrue"
 9180      6B436C6F 
 9180      73655472 
 9180      756500
 9181              	.LC186:
 9182 012c 43686563 		.string	"CheckCloseFalse"
 9182      6B436C6F 
 9182      73654661 
 9182      6C736500 
 9183              		.section	.rodata.str1.8
 9184 08e1 00000000 		.align 8
 9184      000000
 9185              	.LC187:
 9186 08e8 43686563 		.string	"CheckCloseWithZeroEpsilonWorksForSameNumber"
 9186      6B436C6F 
 9186      73655769 
 9186      74685A65 
 9186      726F4570 
 9187              		.section	.rodata.str1.1
 9188              	.LC188:
 9189 013c 43686563 		.string	"CheckCloseWithNaNFails"
 9189      6B436C6F 
 9189      73655769 
 9189      74684E61 
 9189      4E466169 
 9190              		.section	.rodata.str1.8
 9191 0914 00000000 		.align 8
 9192              	.LC189:
 9193 0918 43686563 		.string	"CheckCloseWithNaNAgainstItselfFails"
 9193      6B436C6F 
 9193      73655769 
 9193      74684E61 
 9193      4E416761 
 9194 093c 00000000 		.align 8
 9195              	.LC190:
 9196 0940 43686563 		.string	"CheckCloseFailureIncludesCheckExpectedAndActual"
 9196      6B436C6F 
 9196      73654661 
 9196      696C7572 
 9196      65496E63 
 9197              		.align 8
 9198              	.LC191:
 9199 0970 43686563 		.string	"CheckCloseFailureIncludesTolerance"
 9199      6B436C6F 
 9199      73654661 
 9199      696C7572 
 9199      65496E63 
 9200 0993 00000000 		.align 8
 9200      00
 9201              	.LC192:
 9202 0998 43686563 		.string	"CheckCloseFailureIncludesDetails"
 9202      6B436C6F 
 9202      73654661 
 9202      696C7572 
 9202      65496E63 
 9203              		.section	.rodata.str1.1
 9204              	.LC193:
 9205 0153 43686563 		.string	"CheckArrayEqualTrue"
 9205      6B417272 
 9205      61794571 
 9205      75616C54 
 9205      72756500 
 9206              	.LC194:
 9207 0167 43686563 		.string	"CheckArrayEqualFalse"
 9207      6B417272 
 9207      61794571 
 9207      75616C46 
 9207      616C7365 
 9208              	.LC195:
 9209 017c 43686563 		.string	"CheckArrayCloseTrue"
 9209      6B417272 
 9209      6179436C 
 9209      6F736554 
 9209      72756500 
 9210              	.LC196:
 9211 0190 43686563 		.string	"CheckArrayCloseFalse"
 9211      6B417272 
 9211      6179436C 
 9211      6F736546 
 9211      616C7365 
 9212              		.section	.rodata.str1.8
 9213 09b9 00000000 		.align 8
 9213      000000
 9214              	.LC197:
 9215 09c0 43686563 		.string	"CheckArrayCloseFailureIncludesDetails"
 9215      6B417272 
 9215      6179436C 
 9215      6F736546 
 9215      61696C75 
 9216              		.section	.rodata.str1.1
 9217              	.LC198:
 9218 01a5 43686563 		.string	"CheckArray2DCloseTrue"
 9218      6B417272 
 9218      61793244 
 9218      436C6F73 
 9218      65547275 
 9219              	.LC199:
 9220 01bb 43686563 		.string	"CheckArray2DCloseFalse"
 9220      6B417272 
 9220      61793244 
 9220      436C6F73 
 9220      6546616C 
 9221              	.LC200:
 9222 01d2 43686563 		.string	"CheckCloseWithDoublesSucceeds"
 9222      6B436C6F 
 9222      73655769 
 9222      7468446F 
 9222      75626C65 
 9223              		.section	.rodata.str1.8
 9224 09e6 0000     		.align 8
 9225              	.LC201:
 9226 09e8 43686563 		.string	"CheckArray2DCloseFailureIncludesDetails"
 9226      6B417272 
 9226      61793244 
 9226      436C6F73 
 9226      65466169 
 9227              		.section	.text.unlikely
 9228              	.LCOLDB202:
 9229              		.section	.text.startup,"ax",@progbits
 9230              	.LHOTB202:
 9231              		.p2align 4,,15
 9233              	_GLOBAL__sub_I_TestChecks.cpp:
 9234              	.LFB1441:
 9235              		.cfi_startproc
 9236 0000 4883EC08 		subq	$8, %rsp
 9237              		.cfi_def_cfa_offset 16
 9238 0004 41B80A00 		movl	$10, %r8d
 9238      0000
 9239 000a B9000000 		movl	$.LC174, %ecx
 9239      00
 9240 000f BA000000 		movl	$.LC175, %edx
 9240      00
 9241 0014 BE000000 		movl	$.LC176, %esi
 9241      00
 9242 0019 BF000000 		movl	$_ZN12_GLOBAL__N_138testCheckEqualWithUnsignedLongInstanceE, %edi
 9242      00
 9243 001e E8000000 		call	_ZN8UnitTest4TestC2EPKcS2_S2_i
 9243      00
 9244 0023 BA000000 		movl	$__dso_handle, %edx
 9244      00
 9245 0028 BE000000 		movl	$_ZN12_GLOBAL__N_138testCheckEqualWithUnsignedLongInstanceE, %esi
 9245      00
 9246 002d BF000000 		movl	$_ZN12_GLOBAL__N_130TestCheckEqualWithUnsignedLongD1Ev, %edi
 9246      00
 9247 0032 48C70500 		movq	$_ZTVN12_GLOBAL__N_130TestCheckEqualWithUnsignedLongE+16, _ZN12_GLOBAL__N_138testCheckEqualWi
 9247      00000000 
 9247      000000
 9248 003d E8000000 		call	__cxa_atexit
 9248      00
 9249 0042 E8000000 		call	_ZN8UnitTest4Test11GetTestListEv
 9249      00
 9250 0047 BA000000 		movl	$_ZN12_GLOBAL__N_138testCheckEqualWithUnsignedLongInstanceE, %edx
 9250      00
 9251 004c 4889C6   		movq	%rax, %rsi
 9252 004f BF000000 		movl	$_ZN12_GLOBAL__N_131adderCheckEqualWithUnsignedLongE, %edi
 9252      00
 9253 0054 E8000000 		call	_ZN8UnitTest9ListAdderC1ERNS_8TestListEPNS_4TestE
 9253      00
 9254 0059 41B81100 		movl	$17, %r8d
 9254      0000
 9255 005f B9000000 		movl	$.LC174, %ecx
 9255      00
 9256 0064 BA000000 		movl	$.LC175, %edx
 9256      00
 9257 0069 BE000000 		movl	$.LC177, %esi
 9257      00
 9258 006e BF000000 		movl	$_ZN12_GLOBAL__N_157testCheckEqualsWithStringsFailsOnDifferentStringsInstanceE, %edi
 9258      00
 9259 0073 E8000000 		call	_ZN8UnitTest4TestC2EPKcS2_S2_i
 9259      00
 9260 0078 BA000000 		movl	$__dso_handle, %edx
 9260      00
 9261 007d BE000000 		movl	$_ZN12_GLOBAL__N_157testCheckEqualsWithStringsFailsOnDifferentStringsInstanceE, %esi
 9261      00
 9262 0082 BF000000 		movl	$_ZN12_GLOBAL__N_149TestCheckEqualsWithStringsFailsOnDifferentStringsD1Ev, %edi
 9262      00
 9263 0087 48C70500 		movq	$_ZTVN12_GLOBAL__N_149TestCheckEqualsWithStringsFailsOnDifferentStringsE+16, _ZN12_GLOBAL__N_
 9263      00000000 
 9263      000000
 9264 0092 E8000000 		call	__cxa_atexit
 9264      00
 9265 0097 E8000000 		call	_ZN8UnitTest4Test11GetTestListEv
 9265      00
 9266 009c BA000000 		movl	$_ZN12_GLOBAL__N_157testCheckEqualsWithStringsFailsOnDifferentStringsInstanceE, %edx
 9266      00
 9267 00a1 4889C6   		movq	%rax, %rsi
 9268 00a4 BF000000 		movl	$_ZN12_GLOBAL__N_150adderCheckEqualsWithStringsFailsOnDifferentStringsE, %edi
 9268      00
 9269 00a9 E8000000 		call	_ZN8UnitTest9ListAdderC1ERNS_8TestListEPNS_4TestE
 9269      00
 9270 00ae 41B81D00 		movl	$29, %r8d
 9270      0000
 9271 00b4 B9000000 		movl	$.LC174, %ecx
 9271      00
 9272 00b9 BA000000 		movl	$.LC175, %edx
 9272      00
 9273 00be BE000000 		movl	$.LC178, %esi
 9273      00
 9274 00c3 BF000000 		movl	$_ZN12_GLOBAL__N_165testCheckEqualsWithStringsWorksOnContentsNonConstNonConstInstanceE, %edi
 9274      00
 9275 00c8 E8000000 		call	_ZN8UnitTest4TestC2EPKcS2_S2_i
 9275      00
 9276 00cd BA000000 		movl	$__dso_handle, %edx
 9276      00
 9277 00d2 BE000000 		movl	$_ZN12_GLOBAL__N_165testCheckEqualsWithStringsWorksOnContentsNonConstNonConstInstanceE, %esi
 9277      00
 9278 00d7 BF000000 		movl	$_ZN12_GLOBAL__N_157TestCheckEqualsWithStringsWorksOnContentsNonConstNonConstD1Ev, %edi
 9278      00
 9279 00dc 48C70500 		movq	$_ZTVN12_GLOBAL__N_157TestCheckEqualsWithStringsWorksOnContentsNonConstNonConstE+16, _ZN12_GL
 9279      00000000 
 9279      000000
 9280 00e7 E8000000 		call	__cxa_atexit
 9280      00
 9281 00ec E8000000 		call	_ZN8UnitTest4Test11GetTestListEv
 9281      00
 9282 00f1 BA000000 		movl	$_ZN12_GLOBAL__N_165testCheckEqualsWithStringsWorksOnContentsNonConstNonConstInstanceE, %edx
 9282      00
 9283 00f6 4889C6   		movq	%rax, %rsi
 9284 00f9 BF000000 		movl	$_ZN12_GLOBAL__N_158adderCheckEqualsWithStringsWorksOnContentsNonConstNonConstE, %edi
 9284      00
 9285 00fe E8000000 		call	_ZN8UnitTest9ListAdderC1ERNS_8TestListEPNS_4TestE
 9285      00
 9286 0103 41B82600 		movl	$38, %r8d
 9286      0000
 9287 0109 B9000000 		movl	$.LC174, %ecx
 9287      00
 9288 010e BA000000 		movl	$.LC175, %edx
 9288      00
 9289 0113 BE000000 		movl	$.LC179, %esi
 9289      00
 9290 0118 BF000000 		movl	$_ZN12_GLOBAL__N_159testCheckEqualsWithStringsWorksOnContentsConstConstInstanceE, %edi
 9290      00
 9291 011d E8000000 		call	_ZN8UnitTest4TestC2EPKcS2_S2_i
 9291      00
 9292 0122 BA000000 		movl	$__dso_handle, %edx
 9292      00
 9293 0127 BE000000 		movl	$_ZN12_GLOBAL__N_159testCheckEqualsWithStringsWorksOnContentsConstConstInstanceE, %esi
 9293      00
 9294 012c BF000000 		movl	$_ZN12_GLOBAL__N_151TestCheckEqualsWithStringsWorksOnContentsConstConstD1Ev, %edi
 9294      00
 9295 0131 48C70500 		movq	$_ZTVN12_GLOBAL__N_151TestCheckEqualsWithStringsWorksOnContentsConstConstE+16, _ZN12_GLOBAL__
 9295      00000000 
 9295      000000
 9296 013c E8000000 		call	__cxa_atexit
 9296      00
 9297 0141 E8000000 		call	_ZN8UnitTest4Test11GetTestListEv
 9297      00
 9298 0146 BA000000 		movl	$_ZN12_GLOBAL__N_159testCheckEqualsWithStringsWorksOnContentsConstConstInstanceE, %edx
 9298      00
 9299 014b 4889C6   		movq	%rax, %rsi
 9300 014e BF000000 		movl	$_ZN12_GLOBAL__N_152adderCheckEqualsWithStringsWorksOnContentsConstConstE, %edi
 9300      00
 9301 0153 E8000000 		call	_ZN8UnitTest9ListAdderC1ERNS_8TestListEPNS_4TestE
 9301      00
 9302 0158 41B82F00 		movl	$47, %r8d
 9302      0000
 9303 015e B9000000 		movl	$.LC174, %ecx
 9303      00
 9304 0163 BA000000 		movl	$.LC175, %edx
 9304      00
 9305 0168 BE000000 		movl	$.LC180, %esi
 9305      00
 9306 016d BF000000 		movl	$_ZN12_GLOBAL__N_162testCheckEqualsWithStringsWorksOnContentsNonConstConstInstanceE, %edi
 9306      00
 9307 0172 E8000000 		call	_ZN8UnitTest4TestC2EPKcS2_S2_i
 9307      00
 9308 0177 BA000000 		movl	$__dso_handle, %edx
 9308      00
 9309 017c BE000000 		movl	$_ZN12_GLOBAL__N_162testCheckEqualsWithStringsWorksOnContentsNonConstConstInstanceE, %esi
 9309      00
 9310 0181 BF000000 		movl	$_ZN12_GLOBAL__N_154TestCheckEqualsWithStringsWorksOnContentsNonConstConstD1Ev, %edi
 9310      00
 9311 0186 48C70500 		movq	$_ZTVN12_GLOBAL__N_154TestCheckEqualsWithStringsWorksOnContentsNonConstConstE+16, _ZN12_GLOBA
 9311      00000000 
 9311      000000
 9312 0191 E8000000 		call	__cxa_atexit
 9312      00
 9313 0196 E8000000 		call	_ZN8UnitTest4Test11GetTestListEv
 9313      00
 9314 019b BA000000 		movl	$_ZN12_GLOBAL__N_162testCheckEqualsWithStringsWorksOnContentsNonConstConstInstanceE, %edx
 9314      00
 9315 01a0 4889C6   		movq	%rax, %rsi
 9316 01a3 BF000000 		movl	$_ZN12_GLOBAL__N_155adderCheckEqualsWithStringsWorksOnContentsNonConstConstE, %edi
 9316      00
 9317 01a8 E8000000 		call	_ZN8UnitTest9ListAdderC1ERNS_8TestListEPNS_4TestE
 9317      00
 9318 01ad 41B83800 		movl	$56, %r8d
 9318      0000
 9319 01b3 B9000000 		movl	$.LC174, %ecx
 9319      00
 9320 01b8 BA000000 		movl	$.LC175, %edx
 9320      00
 9321 01bd BE000000 		movl	$.LC181, %esi
 9321      00
 9322 01c2 BF000000 		movl	$_ZN12_GLOBAL__N_162testCheckEqualsWithStringsWorksOnContentsConstNonConstInstanceE, %edi
 9322      00
 9323 01c7 E8000000 		call	_ZN8UnitTest4TestC2EPKcS2_S2_i
 9323      00
 9324 01cc BA000000 		movl	$__dso_handle, %edx
 9324      00
 9325 01d1 BE000000 		movl	$_ZN12_GLOBAL__N_162testCheckEqualsWithStringsWorksOnContentsConstNonConstInstanceE, %esi
 9325      00
 9326 01d6 BF000000 		movl	$_ZN12_GLOBAL__N_154TestCheckEqualsWithStringsWorksOnContentsConstNonConstD1Ev, %edi
 9326      00
 9327 01db 48C70500 		movq	$_ZTVN12_GLOBAL__N_154TestCheckEqualsWithStringsWorksOnContentsConstNonConstE+16, _ZN12_GLOBA
 9327      00000000 
 9327      000000
 9328 01e6 E8000000 		call	__cxa_atexit
 9328      00
 9329 01eb E8000000 		call	_ZN8UnitTest4Test11GetTestListEv
 9329      00
 9330 01f0 BA000000 		movl	$_ZN12_GLOBAL__N_162testCheckEqualsWithStringsWorksOnContentsConstNonConstInstanceE, %edx
 9330      00
 9331 01f5 4889C6   		movq	%rax, %rsi
 9332 01f8 BF000000 		movl	$_ZN12_GLOBAL__N_155adderCheckEqualsWithStringsWorksOnContentsConstNonConstE, %edi
 9332      00
 9333 01fd E8000000 		call	_ZN8UnitTest9ListAdderC1ERNS_8TestListEPNS_4TestE
 9333      00
 9334 0202 41B84100 		movl	$65, %r8d
 9334      0000
 9335 0208 B9000000 		movl	$.LC174, %ecx
 9335      00
 9336 020d BA000000 		movl	$.LC175, %edx
 9336      00
 9337 0212 BE000000 		movl	$.LC182, %esi
 9337      00
 9338 0217 BF000000 		movl	$_ZN12_GLOBAL__N_161testCheckEqualsWithStringsWorksOnContentsWithALiteralInstanceE, %edi
 9338      00
 9339 021c E8000000 		call	_ZN8UnitTest4TestC2EPKcS2_S2_i
 9339      00
 9340 0221 BA000000 		movl	$__dso_handle, %edx
 9340      00
 9341 0226 BE000000 		movl	$_ZN12_GLOBAL__N_161testCheckEqualsWithStringsWorksOnContentsWithALiteralInstanceE, %esi
 9341      00
 9342 022b BF000000 		movl	$_ZN12_GLOBAL__N_153TestCheckEqualsWithStringsWorksOnContentsWithALiteralD1Ev, %edi
 9342      00
 9343 0230 48C70500 		movq	$_ZTVN12_GLOBAL__N_153TestCheckEqualsWithStringsWorksOnContentsWithALiteralE+16, _ZN12_GLOBAL
 9343      00000000 
 9343      000000
 9344 023b E8000000 		call	__cxa_atexit
 9344      00
 9345 0240 E8000000 		call	_ZN8UnitTest4Test11GetTestListEv
 9345      00
 9346 0245 BA000000 		movl	$_ZN12_GLOBAL__N_161testCheckEqualsWithStringsWorksOnContentsWithALiteralInstanceE, %edx
 9346      00
 9347 024a 4889C6   		movq	%rax, %rsi
 9348 024d BF000000 		movl	$_ZN12_GLOBAL__N_154adderCheckEqualsWithStringsWorksOnContentsWithALiteralE, %edi
 9348      00
 9349 0252 E8000000 		call	_ZN8UnitTest9ListAdderC1ERNS_8TestListEPNS_4TestE
 9349      00
 9350 0257 41B84900 		movl	$73, %r8d
 9350      0000
 9351 025d B9000000 		movl	$.LC174, %ecx
 9351      00
 9352 0262 BA000000 		movl	$.LC175, %edx
 9352      00
 9353 0267 BE000000 		movl	$.LC183, %esi
 9353      00
 9354 026c BF000000 		movl	$_ZN12_GLOBAL__N_159testCheckEqualFailureIncludesCheckExpectedAndActualInstanceE, %edi
 9354      00
 9355 0271 E8000000 		call	_ZN8UnitTest4TestC2EPKcS2_S2_i
 9355      00
 9356 0276 BA000000 		movl	$__dso_handle, %edx
 9356      00
 9357 027b BE000000 		movl	$_ZN12_GLOBAL__N_159testCheckEqualFailureIncludesCheckExpectedAndActualInstanceE, %esi
 9357      00
 9358 0280 BF000000 		movl	$_ZN12_GLOBAL__N_151TestCheckEqualFailureIncludesCheckExpectedAndActualD1Ev, %edi
 9358      00
 9359 0285 48C70500 		movq	$_ZTVN12_GLOBAL__N_151TestCheckEqualFailureIncludesCheckExpectedAndActualE+16, _ZN12_GLOBAL__
 9359      00000000 
 9359      000000
 9360 0290 E8000000 		call	__cxa_atexit
 9360      00
 9361 0295 E8000000 		call	_ZN8UnitTest4Test11GetTestListEv
 9361      00
 9362 029a BA000000 		movl	$_ZN12_GLOBAL__N_159testCheckEqualFailureIncludesCheckExpectedAndActualInstanceE, %edx
 9362      00
 9363 029f 4889C6   		movq	%rax, %rsi
 9364 02a2 BF000000 		movl	$_ZN12_GLOBAL__N_152adderCheckEqualFailureIncludesCheckExpectedAndActualE, %edi
 9364      00
 9365 02a7 E8000000 		call	_ZN8UnitTest9ListAdderC1ERNS_8TestListEPNS_4TestE
 9365      00
 9366 02ac 41B85500 		movl	$85, %r8d
 9366      0000
 9367 02b2 B9000000 		movl	$.LC174, %ecx
 9367      00
 9368 02b7 BA000000 		movl	$.LC175, %edx
 9368      00
 9369 02bc BE000000 		movl	$.LC184, %esi
 9369      00
 9370 02c1 BF000000 		movl	$_ZN12_GLOBAL__N_144testCheckEqualFailureIncludesDetailsInstanceE, %edi
 9370      00
 9371 02c6 E8000000 		call	_ZN8UnitTest4TestC2EPKcS2_S2_i
 9371      00
 9372 02cb BA000000 		movl	$__dso_handle, %edx
 9372      00
 9373 02d0 BE000000 		movl	$_ZN12_GLOBAL__N_144testCheckEqualFailureIncludesDetailsInstanceE, %esi
 9373      00
 9374 02d5 BF000000 		movl	$_ZN12_GLOBAL__N_136TestCheckEqualFailureIncludesDetailsD1Ev, %edi
 9374      00
 9375 02da 48C70500 		movq	$_ZTVN12_GLOBAL__N_136TestCheckEqualFailureIncludesDetailsE+16, _ZN12_GLOBAL__N_144testCheckE
 9375      00000000 
 9375      000000
 9376 02e5 E8000000 		call	__cxa_atexit
 9376      00
 9377 02ea E8000000 		call	_ZN8UnitTest4Test11GetTestListEv
 9377      00
 9378 02ef BA000000 		movl	$_ZN12_GLOBAL__N_144testCheckEqualFailureIncludesDetailsInstanceE, %edx
 9378      00
 9379 02f4 4889C6   		movq	%rax, %rsi
 9380 02f7 BF000000 		movl	$_ZN12_GLOBAL__N_137adderCheckEqualFailureIncludesDetailsE, %edi
 9380      00
 9381 02fc E8000000 		call	_ZN8UnitTest9ListAdderC1ERNS_8TestListEPNS_4TestE
 9381      00
 9382 0301 41B86300 		movl	$99, %r8d
 9382      0000
 9383 0307 B9000000 		movl	$.LC174, %ecx
 9383      00
 9384 030c BA000000 		movl	$.LC175, %edx
 9384      00
 9385 0311 BE000000 		movl	$.LC185, %esi
 9385      00
 9386 0316 BF000000 		movl	$_ZN12_GLOBAL__N_126testCheckCloseTrueInstanceE, %edi
 9386      00
 9387 031b E8000000 		call	_ZN8UnitTest4TestC2EPKcS2_S2_i
 9387      00
 9388 0320 BA000000 		movl	$__dso_handle, %edx
 9388      00
 9389 0325 BE000000 		movl	$_ZN12_GLOBAL__N_126testCheckCloseTrueInstanceE, %esi
 9389      00
 9390 032a BF000000 		movl	$_ZN12_GLOBAL__N_118TestCheckCloseTrueD1Ev, %edi
 9390      00
 9391 032f 48C70500 		movq	$_ZTVN12_GLOBAL__N_118TestCheckCloseTrueE+16, _ZN12_GLOBAL__N_126testCheckCloseTrueInstanceE(
 9391      00000000 
 9391      000000
 9392 033a E8000000 		call	__cxa_atexit
 9392      00
 9393 033f E8000000 		call	_ZN8UnitTest4Test11GetTestListEv
 9393      00
 9394 0344 BA000000 		movl	$_ZN12_GLOBAL__N_126testCheckCloseTrueInstanceE, %edx
 9394      00
 9395 0349 4889C6   		movq	%rax, %rsi
 9396 034c BF000000 		movl	$_ZN12_GLOBAL__N_119adderCheckCloseTrueE, %edi
 9396      00
 9397 0351 E8000000 		call	_ZN8UnitTest9ListAdderC1ERNS_8TestListEPNS_4TestE
 9397      00
 9398 0356 41B86A00 		movl	$106, %r8d
 9398      0000
 9399 035c B9000000 		movl	$.LC174, %ecx
 9399      00
 9400 0361 BA000000 		movl	$.LC175, %edx
 9400      00
 9401 0366 BE000000 		movl	$.LC186, %esi
 9401      00
 9402 036b BF000000 		movl	$_ZN12_GLOBAL__N_127testCheckCloseFalseInstanceE, %edi
 9402      00
 9403 0370 E8000000 		call	_ZN8UnitTest4TestC2EPKcS2_S2_i
 9403      00
 9404 0375 BA000000 		movl	$__dso_handle, %edx
 9404      00
 9405 037a BE000000 		movl	$_ZN12_GLOBAL__N_127testCheckCloseFalseInstanceE, %esi
 9405      00
 9406 037f BF000000 		movl	$_ZN12_GLOBAL__N_119TestCheckCloseFalseD1Ev, %edi
 9406      00
 9407 0384 48C70500 		movq	$_ZTVN12_GLOBAL__N_119TestCheckCloseFalseE+16, _ZN12_GLOBAL__N_127testCheckCloseFalseInstance
 9407      00000000 
 9407      000000
 9408 038f E8000000 		call	__cxa_atexit
 9408      00
 9409 0394 E8000000 		call	_ZN8UnitTest4Test11GetTestListEv
 9409      00
 9410 0399 BA000000 		movl	$_ZN12_GLOBAL__N_127testCheckCloseFalseInstanceE, %edx
 9410      00
 9411 039e 4889C6   		movq	%rax, %rsi
 9412 03a1 BF000000 		movl	$_ZN12_GLOBAL__N_120adderCheckCloseFalseE, %edi
 9412      00
 9413 03a6 E8000000 		call	_ZN8UnitTest9ListAdderC1ERNS_8TestListEPNS_4TestE
 9413      00
 9414 03ab 41B87100 		movl	$113, %r8d
 9414      0000
 9415 03b1 B9000000 		movl	$.LC174, %ecx
 9415      00
 9416 03b6 BA000000 		movl	$.LC175, %edx
 9416      00
 9417 03bb BE000000 		movl	$.LC187, %esi
 9417      00
 9418 03c0 BF000000 		movl	$_ZN12_GLOBAL__N_155testCheckCloseWithZeroEpsilonWorksForSameNumberInstanceE, %edi
 9418      00
 9419 03c5 E8000000 		call	_ZN8UnitTest4TestC2EPKcS2_S2_i
 9419      00
 9420 03ca BA000000 		movl	$__dso_handle, %edx
 9420      00
 9421 03cf BE000000 		movl	$_ZN12_GLOBAL__N_155testCheckCloseWithZeroEpsilonWorksForSameNumberInstanceE, %esi
 9421      00
 9422 03d4 BF000000 		movl	$_ZN12_GLOBAL__N_147TestCheckCloseWithZeroEpsilonWorksForSameNumberD1Ev, %edi
 9422      00
 9423 03d9 48C70500 		movq	$_ZTVN12_GLOBAL__N_147TestCheckCloseWithZeroEpsilonWorksForSameNumberE+16, _ZN12_GLOBAL__N_15
 9423      00000000 
 9423      000000
 9424 03e4 E8000000 		call	__cxa_atexit
 9424      00
 9425 03e9 E8000000 		call	_ZN8UnitTest4Test11GetTestListEv
 9425      00
 9426 03ee BA000000 		movl	$_ZN12_GLOBAL__N_155testCheckCloseWithZeroEpsilonWorksForSameNumberInstanceE, %edx
 9426      00
 9427 03f3 4889C6   		movq	%rax, %rsi
 9428 03f6 BF000000 		movl	$_ZN12_GLOBAL__N_148adderCheckCloseWithZeroEpsilonWorksForSameNumberE, %edi
 9428      00
 9429 03fb E8000000 		call	_ZN8UnitTest9ListAdderC1ERNS_8TestListEPNS_4TestE
 9429      00
 9430 0400 41B87800 		movl	$120, %r8d
 9430      0000
 9431 0406 B9000000 		movl	$.LC174, %ecx
 9431      00
 9432 040b BA000000 		movl	$.LC175, %edx
 9432      00
 9433 0410 BE000000 		movl	$.LC188, %esi
 9433      00
 9434 0415 BF000000 		movl	$_ZN12_GLOBAL__N_134testCheckCloseWithNaNFailsInstanceE, %edi
 9434      00
 9435 041a E8000000 		call	_ZN8UnitTest4TestC2EPKcS2_S2_i
 9435      00
 9436 041f BA000000 		movl	$__dso_handle, %edx
 9436      00
 9437 0424 BE000000 		movl	$_ZN12_GLOBAL__N_134testCheckCloseWithNaNFailsInstanceE, %esi
 9437      00
 9438 0429 BF000000 		movl	$_ZN12_GLOBAL__N_126TestCheckCloseWithNaNFailsD1Ev, %edi
 9438      00
 9439 042e 48C70500 		movq	$_ZTVN12_GLOBAL__N_126TestCheckCloseWithNaNFailsE+16, _ZN12_GLOBAL__N_134testCheckCloseWithNa
 9439      00000000 
 9439      000000
 9440 0439 E8000000 		call	__cxa_atexit
 9440      00
 9441 043e E8000000 		call	_ZN8UnitTest4Test11GetTestListEv
 9441      00
 9442 0443 BA000000 		movl	$_ZN12_GLOBAL__N_134testCheckCloseWithNaNFailsInstanceE, %edx
 9442      00
 9443 0448 4889C6   		movq	%rax, %rsi
 9444 044b BF000000 		movl	$_ZN12_GLOBAL__N_127adderCheckCloseWithNaNFailsE, %edi
 9444      00
 9445 0450 E8000000 		call	_ZN8UnitTest9ListAdderC1ERNS_8TestListEPNS_4TestE
 9445      00
 9446 0455 41B88500 		movl	$133, %r8d
 9446      0000
 9447 045b B9000000 		movl	$.LC174, %ecx
 9447      00
 9448 0460 BA000000 		movl	$.LC175, %edx
 9448      00
 9449 0465 BE000000 		movl	$.LC189, %esi
 9449      00
 9450 046a BF000000 		movl	$_ZN12_GLOBAL__N_147testCheckCloseWithNaNAgainstItselfFailsInstanceE, %edi
 9450      00
 9451 046f E8000000 		call	_ZN8UnitTest4TestC2EPKcS2_S2_i
 9451      00
 9452 0474 BA000000 		movl	$__dso_handle, %edx
 9452      00
 9453 0479 BE000000 		movl	$_ZN12_GLOBAL__N_147testCheckCloseWithNaNAgainstItselfFailsInstanceE, %esi
 9453      00
 9454 047e BF000000 		movl	$_ZN12_GLOBAL__N_139TestCheckCloseWithNaNAgainstItselfFailsD1Ev, %edi
 9454      00
 9455 0483 48C70500 		movq	$_ZTVN12_GLOBAL__N_139TestCheckCloseWithNaNAgainstItselfFailsE+16, _ZN12_GLOBAL__N_147testChe
 9455      00000000 
 9455      000000
 9456 048e E8000000 		call	__cxa_atexit
 9456      00
 9457 0493 E8000000 		call	_ZN8UnitTest4Test11GetTestListEv
 9457      00
 9458 0498 BA000000 		movl	$_ZN12_GLOBAL__N_147testCheckCloseWithNaNAgainstItselfFailsInstanceE, %edx
 9458      00
 9459 049d 4889C6   		movq	%rax, %rsi
 9460 04a0 BF000000 		movl	$_ZN12_GLOBAL__N_140adderCheckCloseWithNaNAgainstItselfFailsE, %edi
 9460      00
 9461 04a5 E8000000 		call	_ZN8UnitTest9ListAdderC1ERNS_8TestListEPNS_4TestE
 9461      00
 9462 04aa 41B89200 		movl	$146, %r8d
 9462      0000
 9463 04b0 B9000000 		movl	$.LC174, %ecx
 9463      00
 9464 04b5 BA000000 		movl	$.LC175, %edx
 9464      00
 9465 04ba BE000000 		movl	$.LC190, %esi
 9465      00
 9466 04bf BF000000 		movl	$_ZN12_GLOBAL__N_159testCheckCloseFailureIncludesCheckExpectedAndActualInstanceE, %edi
 9466      00
 9467 04c4 E8000000 		call	_ZN8UnitTest4TestC2EPKcS2_S2_i
 9467      00
 9468 04c9 BA000000 		movl	$__dso_handle, %edx
 9468      00
 9469 04ce BE000000 		movl	$_ZN12_GLOBAL__N_159testCheckCloseFailureIncludesCheckExpectedAndActualInstanceE, %esi
 9469      00
 9470 04d3 BF000000 		movl	$_ZN12_GLOBAL__N_151TestCheckCloseFailureIncludesCheckExpectedAndActualD1Ev, %edi
 9470      00
 9471 04d8 48C70500 		movq	$_ZTVN12_GLOBAL__N_151TestCheckCloseFailureIncludesCheckExpectedAndActualE+16, _ZN12_GLOBAL__
 9471      00000000 
 9471      000000
 9472 04e3 E8000000 		call	__cxa_atexit
 9472      00
 9473 04e8 E8000000 		call	_ZN8UnitTest4Test11GetTestListEv
 9473      00
 9474 04ed BA000000 		movl	$_ZN12_GLOBAL__N_159testCheckCloseFailureIncludesCheckExpectedAndActualInstanceE, %edx
 9474      00
 9475 04f2 4889C6   		movq	%rax, %rsi
 9476 04f5 BF000000 		movl	$_ZN12_GLOBAL__N_152adderCheckCloseFailureIncludesCheckExpectedAndActualE, %edi
 9476      00
 9477 04fa E8000000 		call	_ZN8UnitTest9ListAdderC1ERNS_8TestListEPNS_4TestE
 9477      00
 9478 04ff 41B89F00 		movl	$159, %r8d
 9478      0000
 9479 0505 B9000000 		movl	$.LC174, %ecx
 9479      00
 9480 050a BA000000 		movl	$.LC175, %edx
 9480      00
 9481 050f BE000000 		movl	$.LC191, %esi
 9481      00
 9482 0514 BF000000 		movl	$_ZN12_GLOBAL__N_146testCheckCloseFailureIncludesToleranceInstanceE, %edi
 9482      00
 9483 0519 E8000000 		call	_ZN8UnitTest4TestC2EPKcS2_S2_i
 9483      00
 9484 051e BA000000 		movl	$__dso_handle, %edx
 9484      00
 9485 0523 BE000000 		movl	$_ZN12_GLOBAL__N_146testCheckCloseFailureIncludesToleranceInstanceE, %esi
 9485      00
 9486 0528 BF000000 		movl	$_ZN12_GLOBAL__N_138TestCheckCloseFailureIncludesToleranceD1Ev, %edi
 9486      00
 9487 052d 48C70500 		movq	$_ZTVN12_GLOBAL__N_138TestCheckCloseFailureIncludesToleranceE+16, _ZN12_GLOBAL__N_146testChec
 9487      00000000 
 9487      000000
 9488 0538 E8000000 		call	__cxa_atexit
 9488      00
 9489 053d E8000000 		call	_ZN8UnitTest4Test11GetTestListEv
 9489      00
 9490 0542 BA000000 		movl	$_ZN12_GLOBAL__N_146testCheckCloseFailureIncludesToleranceInstanceE, %edx
 9490      00
 9491 0547 4889C6   		movq	%rax, %rsi
 9492 054a BF000000 		movl	$_ZN12_GLOBAL__N_139adderCheckCloseFailureIncludesToleranceE, %edi
 9492      00
 9493 054f E8000000 		call	_ZN8UnitTest9ListAdderC1ERNS_8TestListEPNS_4TestE
 9493      00
 9494 0554 41B8A900 		movl	$169, %r8d
 9494      0000
 9495 055a B9000000 		movl	$.LC174, %ecx
 9495      00
 9496 055f BA000000 		movl	$.LC175, %edx
 9496      00
 9497 0564 BE000000 		movl	$.LC192, %esi
 9497      00
 9498 0569 BF000000 		movl	$_ZN12_GLOBAL__N_144testCheckCloseFailureIncludesDetailsInstanceE, %edi
 9498      00
 9499 056e E8000000 		call	_ZN8UnitTest4TestC2EPKcS2_S2_i
 9499      00
 9500 0573 BA000000 		movl	$__dso_handle, %edx
 9500      00
 9501 0578 BE000000 		movl	$_ZN12_GLOBAL__N_144testCheckCloseFailureIncludesDetailsInstanceE, %esi
 9501      00
 9502 057d BF000000 		movl	$_ZN12_GLOBAL__N_136TestCheckCloseFailureIncludesDetailsD1Ev, %edi
 9502      00
 9503 0582 48C70500 		movq	$_ZTVN12_GLOBAL__N_136TestCheckCloseFailureIncludesDetailsE+16, _ZN12_GLOBAL__N_144testCheckC
 9503      00000000 
 9503      000000
 9504 058d E8000000 		call	__cxa_atexit
 9504      00
 9505 0592 E8000000 		call	_ZN8UnitTest4Test11GetTestListEv
 9505      00
 9506 0597 BA000000 		movl	$_ZN12_GLOBAL__N_144testCheckCloseFailureIncludesDetailsInstanceE, %edx
 9506      00
 9507 059c 4889C6   		movq	%rax, %rsi
 9508 059f BF000000 		movl	$_ZN12_GLOBAL__N_137adderCheckCloseFailureIncludesDetailsE, %edi
 9508      00
 9509 05a4 E8000000 		call	_ZN8UnitTest9ListAdderC1ERNS_8TestListEPNS_4TestE
 9509      00
 9510 05a9 41B8B800 		movl	$184, %r8d
 9510      0000
 9511 05af B9000000 		movl	$.LC174, %ecx
 9511      00
 9512 05b4 BA000000 		movl	$.LC175, %edx
 9512      00
 9513 05b9 BE000000 		movl	$.LC193, %esi
 9513      00
 9514 05be BF000000 		movl	$_ZN12_GLOBAL__N_131testCheckArrayEqualTrueInstanceE, %edi
 9514      00
 9515 05c3 E8000000 		call	_ZN8UnitTest4TestC2EPKcS2_S2_i
 9515      00
 9516 05c8 BA000000 		movl	$__dso_handle, %edx
 9516      00
 9517 05cd BE000000 		movl	$_ZN12_GLOBAL__N_131testCheckArrayEqualTrueInstanceE, %esi
 9517      00
 9518 05d2 BF000000 		movl	$_ZN12_GLOBAL__N_123TestCheckArrayEqualTrueD1Ev, %edi
 9518      00
 9519 05d7 48C70500 		movq	$_ZTVN12_GLOBAL__N_123TestCheckArrayEqualTrueE+16, _ZN12_GLOBAL__N_131testCheckArrayEqualTrue
 9519      00000000 
 9519      000000
 9520 05e2 E8000000 		call	__cxa_atexit
 9520      00
 9521 05e7 E8000000 		call	_ZN8UnitTest4Test11GetTestListEv
 9521      00
 9522 05ec BA000000 		movl	$_ZN12_GLOBAL__N_131testCheckArrayEqualTrueInstanceE, %edx
 9522      00
 9523 05f1 4889C6   		movq	%rax, %rsi
 9524 05f4 BF000000 		movl	$_ZN12_GLOBAL__N_124adderCheckArrayEqualTrueE, %edi
 9524      00
 9525 05f9 E8000000 		call	_ZN8UnitTest9ListAdderC1ERNS_8TestListEPNS_4TestE
 9525      00
 9526 05fe 41B8C100 		movl	$193, %r8d
 9526      0000
 9527 0604 B9000000 		movl	$.LC174, %ecx
 9527      00
 9528 0609 BA000000 		movl	$.LC175, %edx
 9528      00
 9529 060e BE000000 		movl	$.LC194, %esi
 9529      00
 9530 0613 BF000000 		movl	$_ZN12_GLOBAL__N_132testCheckArrayEqualFalseInstanceE, %edi
 9530      00
 9531 0618 E8000000 		call	_ZN8UnitTest4TestC2EPKcS2_S2_i
 9531      00
 9532 061d BA000000 		movl	$__dso_handle, %edx
 9532      00
 9533 0622 BE000000 		movl	$_ZN12_GLOBAL__N_132testCheckArrayEqualFalseInstanceE, %esi
 9533      00
 9534 0627 BF000000 		movl	$_ZN12_GLOBAL__N_124TestCheckArrayEqualFalseD1Ev, %edi
 9534      00
 9535 062c 48C70500 		movq	$_ZTVN12_GLOBAL__N_124TestCheckArrayEqualFalseE+16, _ZN12_GLOBAL__N_132testCheckArrayEqualFal
 9535      00000000 
 9535      000000
 9536 0637 E8000000 		call	__cxa_atexit
 9536      00
 9537 063c E8000000 		call	_ZN8UnitTest4Test11GetTestListEv
 9537      00
 9538 0641 BA000000 		movl	$_ZN12_GLOBAL__N_132testCheckArrayEqualFalseInstanceE, %edx
 9538      00
 9539 0646 4889C6   		movq	%rax, %rsi
 9540 0649 BF000000 		movl	$_ZN12_GLOBAL__N_125adderCheckArrayEqualFalseE, %edi
 9540      00
 9541 064e E8000000 		call	_ZN8UnitTest9ListAdderC1ERNS_8TestListEPNS_4TestE
 9541      00
 9542 0653 41B8CB00 		movl	$203, %r8d
 9542      0000
 9543 0659 B9000000 		movl	$.LC174, %ecx
 9543      00
 9544 065e BA000000 		movl	$.LC175, %edx
 9544      00
 9545 0663 BE000000 		movl	$.LC195, %esi
 9545      00
 9546 0668 BF000000 		movl	$_ZN12_GLOBAL__N_131testCheckArrayCloseTrueInstanceE, %edi
 9546      00
 9547 066d E8000000 		call	_ZN8UnitTest4TestC2EPKcS2_S2_i
 9547      00
 9548 0672 BA000000 		movl	$__dso_handle, %edx
 9548      00
 9549 0677 BE000000 		movl	$_ZN12_GLOBAL__N_131testCheckArrayCloseTrueInstanceE, %esi
 9549      00
 9550 067c BF000000 		movl	$_ZN12_GLOBAL__N_123TestCheckArrayCloseTrueD1Ev, %edi
 9550      00
 9551 0681 48C70500 		movq	$_ZTVN12_GLOBAL__N_123TestCheckArrayCloseTrueE+16, _ZN12_GLOBAL__N_131testCheckArrayCloseTrue
 9551      00000000 
 9551      000000
 9552 068c E8000000 		call	__cxa_atexit
 9552      00
 9553 0691 E8000000 		call	_ZN8UnitTest4Test11GetTestListEv
 9553      00
 9554 0696 BA000000 		movl	$_ZN12_GLOBAL__N_131testCheckArrayCloseTrueInstanceE, %edx
 9554      00
 9555 069b 4889C6   		movq	%rax, %rsi
 9556 069e BF000000 		movl	$_ZN12_GLOBAL__N_124adderCheckArrayCloseTrueE, %edi
 9556      00
 9557 06a3 E8000000 		call	_ZN8UnitTest9ListAdderC1ERNS_8TestListEPNS_4TestE
 9557      00
 9558 06a8 41B8D500 		movl	$213, %r8d
 9558      0000
 9559 06ae B9000000 		movl	$.LC174, %ecx
 9559      00
 9560 06b3 BA000000 		movl	$.LC175, %edx
 9560      00
 9561 06b8 BE000000 		movl	$.LC196, %esi
 9561      00
 9562 06bd BF000000 		movl	$_ZN12_GLOBAL__N_132testCheckArrayCloseFalseInstanceE, %edi
 9562      00
 9563 06c2 E8000000 		call	_ZN8UnitTest4TestC2EPKcS2_S2_i
 9563      00
 9564 06c7 BA000000 		movl	$__dso_handle, %edx
 9564      00
 9565 06cc BE000000 		movl	$_ZN12_GLOBAL__N_132testCheckArrayCloseFalseInstanceE, %esi
 9565      00
 9566 06d1 BF000000 		movl	$_ZN12_GLOBAL__N_124TestCheckArrayCloseFalseD1Ev, %edi
 9566      00
 9567 06d6 48C70500 		movq	$_ZTVN12_GLOBAL__N_124TestCheckArrayCloseFalseE+16, _ZN12_GLOBAL__N_132testCheckArrayCloseFal
 9567      00000000 
 9567      000000
 9568 06e1 E8000000 		call	__cxa_atexit
 9568      00
 9569 06e6 E8000000 		call	_ZN8UnitTest4Test11GetTestListEv
 9569      00
 9570 06eb BA000000 		movl	$_ZN12_GLOBAL__N_132testCheckArrayCloseFalseInstanceE, %edx
 9570      00
 9571 06f0 4889C6   		movq	%rax, %rsi
 9572 06f3 BF000000 		movl	$_ZN12_GLOBAL__N_125adderCheckArrayCloseFalseE, %edi
 9572      00
 9573 06f8 E8000000 		call	_ZN8UnitTest9ListAdderC1ERNS_8TestListEPNS_4TestE
 9573      00
 9574 06fd 41B8DF00 		movl	$223, %r8d
 9574      0000
 9575 0703 B9000000 		movl	$.LC174, %ecx
 9575      00
 9576 0708 BA000000 		movl	$.LC175, %edx
 9576      00
 9577 070d BE000000 		movl	$.LC197, %esi
 9577      00
 9578 0712 BF000000 		movl	$_ZN12_GLOBAL__N_149testCheckArrayCloseFailureIncludesDetailsInstanceE, %edi
 9578      00
 9579 0717 E8000000 		call	_ZN8UnitTest4TestC2EPKcS2_S2_i
 9579      00
 9580 071c BA000000 		movl	$__dso_handle, %edx
 9580      00
 9581 0721 BE000000 		movl	$_ZN12_GLOBAL__N_149testCheckArrayCloseFailureIncludesDetailsInstanceE, %esi
 9581      00
 9582 0726 BF000000 		movl	$_ZN12_GLOBAL__N_141TestCheckArrayCloseFailureIncludesDetailsD1Ev, %edi
 9582      00
 9583 072b 48C70500 		movq	$_ZTVN12_GLOBAL__N_141TestCheckArrayCloseFailureIncludesDetailsE+16, _ZN12_GLOBAL__N_149testC
 9583      00000000 
 9583      000000
 9584 0736 E8000000 		call	__cxa_atexit
 9584      00
 9585 073b E8000000 		call	_ZN8UnitTest4Test11GetTestListEv
 9585      00
 9586 0740 BA000000 		movl	$_ZN12_GLOBAL__N_149testCheckArrayCloseFailureIncludesDetailsInstanceE, %edx
 9586      00
 9587 0745 4889C6   		movq	%rax, %rsi
 9588 0748 BF000000 		movl	$_ZN12_GLOBAL__N_142adderCheckArrayCloseFailureIncludesDetailsE, %edi
 9588      00
 9589 074d E8000000 		call	_ZN8UnitTest9ListAdderC1ERNS_8TestListEPNS_4TestE
 9589      00
 9590 0752 41B8F000 		movl	$240, %r8d
 9590      0000
 9591 0758 B9000000 		movl	$.LC174, %ecx
 9591      00
 9592 075d BA000000 		movl	$.LC175, %edx
 9592      00
 9593 0762 BE000000 		movl	$.LC198, %esi
 9593      00
 9594 0767 BF000000 		movl	$_ZN12_GLOBAL__N_133testCheckArray2DCloseTrueInstanceE, %edi
 9594      00
 9595 076c E8000000 		call	_ZN8UnitTest4TestC2EPKcS2_S2_i
 9595      00
 9596 0771 BA000000 		movl	$__dso_handle, %edx
 9596      00
 9597 0776 BE000000 		movl	$_ZN12_GLOBAL__N_133testCheckArray2DCloseTrueInstanceE, %esi
 9597      00
 9598 077b BF000000 		movl	$_ZN12_GLOBAL__N_125TestCheckArray2DCloseTrueD1Ev, %edi
 9598      00
 9599 0780 48C70500 		movq	$_ZTVN12_GLOBAL__N_125TestCheckArray2DCloseTrueE+16, _ZN12_GLOBAL__N_133testCheckArray2DClose
 9599      00000000 
 9599      000000
 9600 078b E8000000 		call	__cxa_atexit
 9600      00
 9601 0790 E8000000 		call	_ZN8UnitTest4Test11GetTestListEv
 9601      00
 9602 0795 BA000000 		movl	$_ZN12_GLOBAL__N_133testCheckArray2DCloseTrueInstanceE, %edx
 9602      00
 9603 079a 4889C6   		movq	%rax, %rsi
 9604 079d BF000000 		movl	$_ZN12_GLOBAL__N_126adderCheckArray2DCloseTrueE, %edi
 9604      00
 9605 07a2 E8000000 		call	_ZN8UnitTest9ListAdderC1ERNS_8TestListEPNS_4TestE
 9605      00
 9606 07a7 41B8FE00 		movl	$254, %r8d
 9606      0000
 9607 07ad B9000000 		movl	$.LC174, %ecx
 9607      00
 9608 07b2 BA000000 		movl	$.LC175, %edx
 9608      00
 9609 07b7 BE000000 		movl	$.LC199, %esi
 9609      00
 9610 07bc BF000000 		movl	$_ZN12_GLOBAL__N_134testCheckArray2DCloseFalseInstanceE, %edi
 9610      00
 9611 07c1 E8000000 		call	_ZN8UnitTest4TestC2EPKcS2_S2_i
 9611      00
 9612 07c6 BA000000 		movl	$__dso_handle, %edx
 9612      00
 9613 07cb BE000000 		movl	$_ZN12_GLOBAL__N_134testCheckArray2DCloseFalseInstanceE, %esi
 9613      00
 9614 07d0 BF000000 		movl	$_ZN12_GLOBAL__N_126TestCheckArray2DCloseFalseD1Ev, %edi
 9614      00
 9615 07d5 48C70500 		movq	$_ZTVN12_GLOBAL__N_126TestCheckArray2DCloseFalseE+16, _ZN12_GLOBAL__N_134testCheckArray2DClos
 9615      00000000 
 9615      000000
 9616 07e0 E8000000 		call	__cxa_atexit
 9616      00
 9617 07e5 E8000000 		call	_ZN8UnitTest4Test11GetTestListEv
 9617      00
 9618 07ea BA000000 		movl	$_ZN12_GLOBAL__N_134testCheckArray2DCloseFalseInstanceE, %edx
 9618      00
 9619 07ef 4889C6   		movq	%rax, %rsi
 9620 07f2 BF000000 		movl	$_ZN12_GLOBAL__N_127adderCheckArray2DCloseFalseE, %edi
 9620      00
 9621 07f7 E8000000 		call	_ZN8UnitTest9ListAdderC1ERNS_8TestListEPNS_4TestE
 9621      00
 9622 07fc 41B80C01 		movl	$268, %r8d
 9622      0000
 9623 0802 B9000000 		movl	$.LC174, %ecx
 9623      00
 9624 0807 BA000000 		movl	$.LC175, %edx
 9624      00
 9625 080c BE000000 		movl	$.LC200, %esi
 9625      00
 9626 0811 BF000000 		movl	$_ZN12_GLOBAL__N_141testCheckCloseWithDoublesSucceedsInstanceE, %edi
 9626      00
 9627 0816 E8000000 		call	_ZN8UnitTest4TestC2EPKcS2_S2_i
 9627      00
 9628 081b BA000000 		movl	$__dso_handle, %edx
 9628      00
 9629 0820 BE000000 		movl	$_ZN12_GLOBAL__N_141testCheckCloseWithDoublesSucceedsInstanceE, %esi
 9629      00
 9630 0825 BF000000 		movl	$_ZN12_GLOBAL__N_133TestCheckCloseWithDoublesSucceedsD1Ev, %edi
 9630      00
 9631 082a 48C70500 		movq	$_ZTVN12_GLOBAL__N_133TestCheckCloseWithDoublesSucceedsE+16, _ZN12_GLOBAL__N_141testCheckClos
 9631      00000000 
 9631      000000
 9632 0835 E8000000 		call	__cxa_atexit
 9632      00
 9633 083a E8000000 		call	_ZN8UnitTest4Test11GetTestListEv
 9633      00
 9634 083f BA000000 		movl	$_ZN12_GLOBAL__N_141testCheckCloseWithDoublesSucceedsInstanceE, %edx
 9634      00
 9635 0844 4889C6   		movq	%rax, %rsi
 9636 0847 BF000000 		movl	$_ZN12_GLOBAL__N_134adderCheckCloseWithDoublesSucceedsE, %edi
 9636      00
 9637 084c E8000000 		call	_ZN8UnitTest9ListAdderC1ERNS_8TestListEPNS_4TestE
 9637      00
 9638 0851 41B81101 		movl	$273, %r8d
 9638      0000
 9639 0857 B9000000 		movl	$.LC174, %ecx
 9639      00
 9640 085c BA000000 		movl	$.LC175, %edx
 9640      00
 9641 0861 BE000000 		movl	$.LC201, %esi
 9641      00
 9642 0866 BF000000 		movl	$_ZN12_GLOBAL__N_151testCheckArray2DCloseFailureIncludesDetailsInstanceE, %edi
 9642      00
 9643 086b E8000000 		call	_ZN8UnitTest4TestC2EPKcS2_S2_i
 9643      00
 9644 0870 BA000000 		movl	$__dso_handle, %edx
 9644      00
 9645 0875 BE000000 		movl	$_ZN12_GLOBAL__N_151testCheckArray2DCloseFailureIncludesDetailsInstanceE, %esi
 9645      00
 9646 087a BF000000 		movl	$_ZN12_GLOBAL__N_143TestCheckArray2DCloseFailureIncludesDetailsD1Ev, %edi
 9646      00
 9647 087f 48C70500 		movq	$_ZTVN12_GLOBAL__N_143TestCheckArray2DCloseFailureIncludesDetailsE+16, _ZN12_GLOBAL__N_151tes
 9647      00000000 
 9647      000000
 9648 088a E8000000 		call	__cxa_atexit
 9648      00
 9649 088f E8000000 		call	_ZN8UnitTest4Test11GetTestListEv
 9649      00
 9650 0894 BA000000 		movl	$_ZN12_GLOBAL__N_151testCheckArray2DCloseFailureIncludesDetailsInstanceE, %edx
 9650      00
 9651 0899 4889C6   		movq	%rax, %rsi
 9652 089c BF000000 		movl	$_ZN12_GLOBAL__N_144adderCheckArray2DCloseFailureIncludesDetailsE, %edi
 9652      00
 9653 08a1 4883C408 		addq	$8, %rsp
 9654              		.cfi_def_cfa_offset 8
 9655 08a5 E9000000 		jmp	_ZN8UnitTest9ListAdderC1ERNS_8TestListEPNS_4TestE
 9655      00
 9656              		.cfi_endproc
 9657              	.LFE1441:
 9659              		.section	.text.unlikely
 9660              	.LCOLDE202:
 9661              		.section	.text.startup
 9662              	.LHOTE202:
 9663              		.section	.init_array,"aw"
 9664              		.align 8
 9665 0000 00000000 		.quad	_GLOBAL__sub_I_TestChecks.cpp
 9665      00000000 
 9666              		.section	.rodata
 9667              		.align 32
 9670              	_ZTSN12_GLOBAL__N_130TestCheckEqualWithUnsignedLongE:
 9671 0000 2A4E3132 		.string	"*N12_GLOBAL__N_130TestCheckEqualWithUnsignedLongE"
 9671      5F474C4F 
 9671      42414C5F 
 9671      5F4E5F31 
 9671      33305465 
 9672 0032 00000000 		.align 64
 9672      00000000 
 9672      00000000 
 9672      0000
 9675              	_ZTSN12_GLOBAL__N_149TestCheckEqualsWithStringsFailsOnDifferentStringsE:
 9676 0040 2A4E3132 		.string	"*N12_GLOBAL__N_149TestCheckEqualsWithStringsFailsOnDifferentStringsE"
 9676      5F474C4F 
 9676      42414C5F 
 9676      5F4E5F31 
 9676      34395465 
 9677 0085 00000000 		.align 64
 9677      00000000 
 9677      00000000 
 9677      00000000 
 9677      00000000 
 9680              	_ZTSN12_GLOBAL__N_157TestCheckEqualsWithStringsWorksOnContentsNonConstNonConstE:
 9681 00c0 2A4E3132 		.string	"*N12_GLOBAL__N_157TestCheckEqualsWithStringsWorksOnContentsNonConstNonConstE"
 9681      5F474C4F 
 9681      42414C5F 
 9681      5F4E5F31 
 9681      35375465 
 9682 010d 00000000 		.align 64
 9682      00000000 
 9682      00000000 
 9682      00000000 
 9682      00000000 
 9685              	_ZTSN12_GLOBAL__N_151TestCheckEqualsWithStringsWorksOnContentsConstConstE:
 9686 0140 2A4E3132 		.string	"*N12_GLOBAL__N_151TestCheckEqualsWithStringsWorksOnContentsConstConstE"
 9686      5F474C4F 
 9686      42414C5F 
 9686      5F4E5F31 
 9686      35315465 
 9687 0187 00000000 		.align 64
 9687      00000000 
 9687      00000000 
 9687      00000000 
 9687      00000000 
 9690              	_ZTSN12_GLOBAL__N_154TestCheckEqualsWithStringsWorksOnContentsNonConstConstE:
 9691 01c0 2A4E3132 		.string	"*N12_GLOBAL__N_154TestCheckEqualsWithStringsWorksOnContentsNonConstConstE"
 9691      5F474C4F 
 9691      42414C5F 
 9691      5F4E5F31 
 9691      35345465 
 9692 020a 00000000 		.align 64
 9692      00000000 
 9692      00000000 
 9692      00000000 
 9692      00000000 
 9695              	_ZTSN12_GLOBAL__N_154TestCheckEqualsWithStringsWorksOnContentsConstNonConstE:
 9696 0240 2A4E3132 		.string	"*N12_GLOBAL__N_154TestCheckEqualsWithStringsWorksOnContentsConstNonConstE"
 9696      5F474C4F 
 9696      42414C5F 
 9696      5F4E5F31 
 9696      35345465 
 9697 028a 00000000 		.align 64
 9697      00000000 
 9697      00000000 
 9697      00000000 
 9697      00000000 
 9700              	_ZTSN12_GLOBAL__N_153TestCheckEqualsWithStringsWorksOnContentsWithALiteralE:
 9701 02c0 2A4E3132 		.string	"*N12_GLOBAL__N_153TestCheckEqualsWithStringsWorksOnContentsWithALiteralE"
 9701      5F474C4F 
 9701      42414C5F 
 9701      5F4E5F31 
 9701      35335465 
 9702 0309 00000000 		.align 64
 9702      00000000 
 9702      00000000 
 9702      00000000 
 9702      00000000 
 9705              	_ZTSN12_GLOBAL__N_151TestCheckEqualFailureIncludesCheckExpectedAndActualE:
 9706 0340 2A4E3132 		.string	"*N12_GLOBAL__N_151TestCheckEqualFailureIncludesCheckExpectedAndActualE"
 9706      5F474C4F 
 9706      42414C5F 
 9706      5F4E5F31 
 9706      35315465 
 9707 0387 00000000 		.align 32
 9707      00000000 
 9707      00000000 
 9707      00000000 
 9707      00000000 
 9710              	_ZTSN12_GLOBAL__N_136TestCheckEqualFailureIncludesDetailsE:
 9711 03a0 2A4E3132 		.string	"*N12_GLOBAL__N_136TestCheckEqualFailureIncludesDetailsE"
 9711      5F474C4F 
 9711      42414C5F 
 9711      5F4E5F31 
 9711      33365465 
 9712 03d8 00000000 		.align 32
 9712      00000000 
 9715              	_ZTSN12_GLOBAL__N_118TestCheckCloseTrueE:
 9716 03e0 2A4E3132 		.string	"*N12_GLOBAL__N_118TestCheckCloseTrueE"
 9716      5F474C4F 
 9716      42414C5F 
 9716      5F4E5F31 
 9716      31385465 
 9717 0406 00000000 		.align 32
 9717      00000000 
 9717      00000000 
 9717      00000000 
 9717      00000000 
 9720              	_ZTSN12_GLOBAL__N_119TestCheckCloseFalseE:
 9721 0420 2A4E3132 		.string	"*N12_GLOBAL__N_119TestCheckCloseFalseE"
 9721      5F474C4F 
 9721      42414C5F 
 9721      5F4E5F31 
 9721      31395465 
 9722 0447 00000000 		.align 64
 9722      00000000 
 9722      00000000 
 9722      00000000 
 9722      00000000 
 9725              	_ZTSN12_GLOBAL__N_147TestCheckCloseWithZeroEpsilonWorksForSameNumberE:
 9726 0480 2A4E3132 		.string	"*N12_GLOBAL__N_147TestCheckCloseWithZeroEpsilonWorksForSameNumberE"
 9726      5F474C4F 
 9726      42414C5F 
 9726      5F4E5F31 
 9726      34375465 
 9727 04c3 00000000 		.align 32
 9727      00000000 
 9727      00000000 
 9727      00000000 
 9727      00000000 
 9730              	_ZTSN12_GLOBAL__N_126TestCheckCloseWithNaNFailsE:
 9731 04e0 2A4E3132 		.string	"*N12_GLOBAL__N_126TestCheckCloseWithNaNFailsE"
 9731      5F474C4F 
 9731      42414C5F 
 9731      5F4E5F31 
 9731      32365465 
 9732 050e 00000000 		.align 32
 9732      00000000 
 9732      00000000 
 9732      00000000 
 9732      0000
 9735              	_ZTSN12_GLOBAL__N_139TestCheckCloseWithNaNAgainstItselfFailsE:
 9736 0520 2A4E3132 		.string	"*N12_GLOBAL__N_139TestCheckCloseWithNaNAgainstItselfFailsE"
 9736      5F474C4F 
 9736      42414C5F 
 9736      5F4E5F31 
 9736      33395465 
 9737 055b 00000000 		.align 64
 9737      00000000 
 9737      00000000 
 9737      00000000 
 9737      00000000 
 9740              	_ZTSN12_GLOBAL__N_151TestCheckCloseFailureIncludesCheckExpectedAndActualE:
 9741 0580 2A4E3132 		.string	"*N12_GLOBAL__N_151TestCheckCloseFailureIncludesCheckExpectedAndActualE"
 9741      5F474C4F 
 9741      42414C5F 
 9741      5F4E5F31 
 9741      35315465 
 9742 05c7 00000000 		.align 32
 9742      00000000 
 9742      00000000 
 9742      00000000 
 9742      00000000 
 9745              	_ZTSN12_GLOBAL__N_138TestCheckCloseFailureIncludesToleranceE:
 9746 05e0 2A4E3132 		.string	"*N12_GLOBAL__N_138TestCheckCloseFailureIncludesToleranceE"
 9746      5F474C4F 
 9746      42414C5F 
 9746      5F4E5F31 
 9746      33385465 
 9747 061a 00000000 		.align 32
 9747      0000
 9750              	_ZTSN12_GLOBAL__N_136TestCheckCloseFailureIncludesDetailsE:
 9751 0620 2A4E3132 		.string	"*N12_GLOBAL__N_136TestCheckCloseFailureIncludesDetailsE"
 9751      5F474C4F 
 9751      42414C5F 
 9751      5F4E5F31 
 9751      33365465 
 9752 0658 00000000 		.align 32
 9752      00000000 
 9755              	_ZTSN12_GLOBAL__N_123TestCheckArrayEqualTrueE:
 9756 0660 2A4E3132 		.string	"*N12_GLOBAL__N_123TestCheckArrayEqualTrueE"
 9756      5F474C4F 
 9756      42414C5F 
 9756      5F4E5F31 
 9756      32335465 
 9757 068b 00000000 		.align 32
 9757      00000000 
 9757      00000000 
 9757      00000000 
 9757      00000000 
 9760              	_ZTSN12_GLOBAL__N_124TestCheckArrayEqualFalseE:
 9761 06a0 2A4E3132 		.string	"*N12_GLOBAL__N_124TestCheckArrayEqualFalseE"
 9761      5F474C4F 
 9761      42414C5F 
 9761      5F4E5F31 
 9761      32345465 
 9762 06cc 00000000 		.align 32
 9762      00000000 
 9762      00000000 
 9762      00000000 
 9762      00000000 
 9765              	_ZTSN12_GLOBAL__N_123TestCheckArrayCloseTrueE:
 9766 06e0 2A4E3132 		.string	"*N12_GLOBAL__N_123TestCheckArrayCloseTrueE"
 9766      5F474C4F 
 9766      42414C5F 
 9766      5F4E5F31 
 9766      32335465 
 9767 070b 00000000 		.align 32
 9767      00000000 
 9767      00000000 
 9767      00000000 
 9767      00000000 
 9770              	_ZTSN12_GLOBAL__N_124TestCheckArrayCloseFalseE:
 9771 0720 2A4E3132 		.string	"*N12_GLOBAL__N_124TestCheckArrayCloseFalseE"
 9771      5F474C4F 
 9771      42414C5F 
 9771      5F4E5F31 
 9771      32345465 
 9772 074c 00000000 		.align 32
 9772      00000000 
 9772      00000000 
 9772      00000000 
 9772      00000000 
 9775              	_ZTSN12_GLOBAL__N_141TestCheckArrayCloseFailureIncludesDetailsE:
 9776 0760 2A4E3132 		.string	"*N12_GLOBAL__N_141TestCheckArrayCloseFailureIncludesDetailsE"
 9776      5F474C4F 
 9776      42414C5F 
 9776      5F4E5F31 
 9776      34315465 
 9777 079d 000000   		.align 32
 9780              	_ZTSN12_GLOBAL__N_125TestCheckArray2DCloseTrueE:
 9781 07a0 2A4E3132 		.string	"*N12_GLOBAL__N_125TestCheckArray2DCloseTrueE"
 9781      5F474C4F 
 9781      42414C5F 
 9781      5F4E5F31 
 9781      32355465 
 9782 07cd 00000000 		.align 32
 9782      00000000 
 9782      00000000 
 9782      00000000 
 9782      000000
 9785              	_ZTSN12_GLOBAL__N_126TestCheckArray2DCloseFalseE:
 9786 07e0 2A4E3132 		.string	"*N12_GLOBAL__N_126TestCheckArray2DCloseFalseE"
 9786      5F474C4F 
 9786      42414C5F 
 9786      5F4E5F31 
 9786      32365465 
 9787 080e 00000000 		.align 32
 9787      00000000 
 9787      00000000 
 9787      00000000 
 9787      0000
 9790              	_ZTSN12_GLOBAL__N_133TestCheckCloseWithDoublesSucceedsE:
 9791 0820 2A4E3132 		.string	"*N12_GLOBAL__N_133TestCheckCloseWithDoublesSucceedsE"
 9791      5F474C4F 
 9791      42414C5F 
 9791      5F4E5F31 
 9791      33335465 
 9792 0855 00000000 		.align 32
 9792      00000000 
 9792      000000
 9795              	_ZTSN12_GLOBAL__N_143TestCheckArray2DCloseFailureIncludesDetailsE:
 9796 0860 2A4E3132 		.string	"*N12_GLOBAL__N_143TestCheckArray2DCloseFailureIncludesDetailsE"
 9796      5F474C4F 
 9796      42414C5F 
 9796      5F4E5F31 
 9796      34335465 
 9797 089f 00       		.align 16
 9800              	_ZTIN12_GLOBAL__N_143TestCheckArray2DCloseFailureIncludesDetailsE:
 9801 08a0 00000000 		.quad	_ZTVN10__cxxabiv120__si_class_type_infoE+16
 9801      00000000 
 9802 08a8 00000000 		.quad	_ZTSN12_GLOBAL__N_143TestCheckArray2DCloseFailureIncludesDetailsE
 9802      00000000 
 9803 08b0 00000000 		.quad	_ZTIN8UnitTest4TestE
 9803      00000000 
 9804 08b8 00000000 		.align 16
 9804      00000000 
 9807              	_ZTIN12_GLOBAL__N_133TestCheckCloseWithDoublesSucceedsE:
 9808 08c0 00000000 		.quad	_ZTVN10__cxxabiv120__si_class_type_infoE+16
 9808      00000000 
 9809 08c8 00000000 		.quad	_ZTSN12_GLOBAL__N_133TestCheckCloseWithDoublesSucceedsE
 9809      00000000 
 9810 08d0 00000000 		.quad	_ZTIN8UnitTest4TestE
 9810      00000000 
 9811 08d8 00000000 		.align 16
 9811      00000000 
 9814              	_ZTIN12_GLOBAL__N_126TestCheckArray2DCloseFalseE:
 9815 08e0 00000000 		.quad	_ZTVN10__cxxabiv120__si_class_type_infoE+16
 9815      00000000 
 9816 08e8 00000000 		.quad	_ZTSN12_GLOBAL__N_126TestCheckArray2DCloseFalseE
 9816      00000000 
 9817 08f0 00000000 		.quad	_ZTIN8UnitTest4TestE
 9817      00000000 
 9818 08f8 00000000 		.align 16
 9818      00000000 
 9821              	_ZTIN12_GLOBAL__N_125TestCheckArray2DCloseTrueE:
 9822 0900 00000000 		.quad	_ZTVN10__cxxabiv120__si_class_type_infoE+16
 9822      00000000 
 9823 0908 00000000 		.quad	_ZTSN12_GLOBAL__N_125TestCheckArray2DCloseTrueE
 9823      00000000 
 9824 0910 00000000 		.quad	_ZTIN8UnitTest4TestE
 9824      00000000 
 9825 0918 00000000 		.align 16
 9825      00000000 
 9828              	_ZTIN12_GLOBAL__N_141TestCheckArrayCloseFailureIncludesDetailsE:
 9829 0920 00000000 		.quad	_ZTVN10__cxxabiv120__si_class_type_infoE+16
 9829      00000000 
 9830 0928 00000000 		.quad	_ZTSN12_GLOBAL__N_141TestCheckArrayCloseFailureIncludesDetailsE
 9830      00000000 
 9831 0930 00000000 		.quad	_ZTIN8UnitTest4TestE
 9831      00000000 
 9832 0938 00000000 		.align 16
 9832      00000000 
 9835              	_ZTIN12_GLOBAL__N_124TestCheckArrayCloseFalseE:
 9836 0940 00000000 		.quad	_ZTVN10__cxxabiv120__si_class_type_infoE+16
 9836      00000000 
 9837 0948 00000000 		.quad	_ZTSN12_GLOBAL__N_124TestCheckArrayCloseFalseE
 9837      00000000 
 9838 0950 00000000 		.quad	_ZTIN8UnitTest4TestE
 9838      00000000 
 9839 0958 00000000 		.align 16
 9839      00000000 
 9842              	_ZTIN12_GLOBAL__N_123TestCheckArrayCloseTrueE:
 9843 0960 00000000 		.quad	_ZTVN10__cxxabiv120__si_class_type_infoE+16
 9843      00000000 
 9844 0968 00000000 		.quad	_ZTSN12_GLOBAL__N_123TestCheckArrayCloseTrueE
 9844      00000000 
 9845 0970 00000000 		.quad	_ZTIN8UnitTest4TestE
 9845      00000000 
 9846 0978 00000000 		.align 16
 9846      00000000 
 9849              	_ZTIN12_GLOBAL__N_124TestCheckArrayEqualFalseE:
 9850 0980 00000000 		.quad	_ZTVN10__cxxabiv120__si_class_type_infoE+16
 9850      00000000 
 9851 0988 00000000 		.quad	_ZTSN12_GLOBAL__N_124TestCheckArrayEqualFalseE
 9851      00000000 
 9852 0990 00000000 		.quad	_ZTIN8UnitTest4TestE
 9852      00000000 
 9853 0998 00000000 		.align 16
 9853      00000000 
 9856              	_ZTIN12_GLOBAL__N_123TestCheckArrayEqualTrueE:
 9857 09a0 00000000 		.quad	_ZTVN10__cxxabiv120__si_class_type_infoE+16
 9857      00000000 
 9858 09a8 00000000 		.quad	_ZTSN12_GLOBAL__N_123TestCheckArrayEqualTrueE
 9858      00000000 
 9859 09b0 00000000 		.quad	_ZTIN8UnitTest4TestE
 9859      00000000 
 9860 09b8 00000000 		.align 16
 9860      00000000 
 9863              	_ZTIN12_GLOBAL__N_136TestCheckCloseFailureIncludesDetailsE:
 9864 09c0 00000000 		.quad	_ZTVN10__cxxabiv120__si_class_type_infoE+16
 9864      00000000 
 9865 09c8 00000000 		.quad	_ZTSN12_GLOBAL__N_136TestCheckCloseFailureIncludesDetailsE
 9865      00000000 
 9866 09d0 00000000 		.quad	_ZTIN8UnitTest4TestE
 9866      00000000 
 9867 09d8 00000000 		.align 16
 9867      00000000 
 9870              	_ZTIN12_GLOBAL__N_138TestCheckCloseFailureIncludesToleranceE:
 9871 09e0 00000000 		.quad	_ZTVN10__cxxabiv120__si_class_type_infoE+16
 9871      00000000 
 9872 09e8 00000000 		.quad	_ZTSN12_GLOBAL__N_138TestCheckCloseFailureIncludesToleranceE
 9872      00000000 
 9873 09f0 00000000 		.quad	_ZTIN8UnitTest4TestE
 9873      00000000 
 9874 09f8 00000000 		.align 16
 9874      00000000 
 9877              	_ZTIN12_GLOBAL__N_151TestCheckCloseFailureIncludesCheckExpectedAndActualE:
 9878 0a00 00000000 		.quad	_ZTVN10__cxxabiv120__si_class_type_infoE+16
 9878      00000000 
 9879 0a08 00000000 		.quad	_ZTSN12_GLOBAL__N_151TestCheckCloseFailureIncludesCheckExpectedAndActualE
 9879      00000000 
 9880 0a10 00000000 		.quad	_ZTIN8UnitTest4TestE
 9880      00000000 
 9881 0a18 00000000 		.align 16
 9881      00000000 
 9884              	_ZTIN12_GLOBAL__N_139TestCheckCloseWithNaNAgainstItselfFailsE:
 9885 0a20 00000000 		.quad	_ZTVN10__cxxabiv120__si_class_type_infoE+16
 9885      00000000 
 9886 0a28 00000000 		.quad	_ZTSN12_GLOBAL__N_139TestCheckCloseWithNaNAgainstItselfFailsE
 9886      00000000 
 9887 0a30 00000000 		.quad	_ZTIN8UnitTest4TestE
 9887      00000000 
 9888 0a38 00000000 		.align 16
 9888      00000000 
 9891              	_ZTIN12_GLOBAL__N_126TestCheckCloseWithNaNFailsE:
 9892 0a40 00000000 		.quad	_ZTVN10__cxxabiv120__si_class_type_infoE+16
 9892      00000000 
 9893 0a48 00000000 		.quad	_ZTSN12_GLOBAL__N_126TestCheckCloseWithNaNFailsE
 9893      00000000 
 9894 0a50 00000000 		.quad	_ZTIN8UnitTest4TestE
 9894      00000000 
 9895 0a58 00000000 		.align 16
 9895      00000000 
 9898              	_ZTIN12_GLOBAL__N_147TestCheckCloseWithZeroEpsilonWorksForSameNumberE:
 9899 0a60 00000000 		.quad	_ZTVN10__cxxabiv120__si_class_type_infoE+16
 9899      00000000 
 9900 0a68 00000000 		.quad	_ZTSN12_GLOBAL__N_147TestCheckCloseWithZeroEpsilonWorksForSameNumberE
 9900      00000000 
 9901 0a70 00000000 		.quad	_ZTIN8UnitTest4TestE
 9901      00000000 
 9902 0a78 00000000 		.align 16
 9902      00000000 
 9905              	_ZTIN12_GLOBAL__N_119TestCheckCloseFalseE:
 9906 0a80 00000000 		.quad	_ZTVN10__cxxabiv120__si_class_type_infoE+16
 9906      00000000 
 9907 0a88 00000000 		.quad	_ZTSN12_GLOBAL__N_119TestCheckCloseFalseE
 9907      00000000 
 9908 0a90 00000000 		.quad	_ZTIN8UnitTest4TestE
 9908      00000000 
 9909 0a98 00000000 		.align 16
 9909      00000000 
 9912              	_ZTIN12_GLOBAL__N_118TestCheckCloseTrueE:
 9913 0aa0 00000000 		.quad	_ZTVN10__cxxabiv120__si_class_type_infoE+16
 9913      00000000 
 9914 0aa8 00000000 		.quad	_ZTSN12_GLOBAL__N_118TestCheckCloseTrueE
 9914      00000000 
 9915 0ab0 00000000 		.quad	_ZTIN8UnitTest4TestE
 9915      00000000 
 9916 0ab8 00000000 		.align 16
 9916      00000000 
 9919              	_ZTIN12_GLOBAL__N_136TestCheckEqualFailureIncludesDetailsE:
 9920 0ac0 00000000 		.quad	_ZTVN10__cxxabiv120__si_class_type_infoE+16
 9920      00000000 
 9921 0ac8 00000000 		.quad	_ZTSN12_GLOBAL__N_136TestCheckEqualFailureIncludesDetailsE
 9921      00000000 
 9922 0ad0 00000000 		.quad	_ZTIN8UnitTest4TestE
 9922      00000000 
 9923 0ad8 00000000 		.align 16
 9923      00000000 
 9926              	_ZTIN12_GLOBAL__N_151TestCheckEqualFailureIncludesCheckExpectedAndActualE:
 9927 0ae0 00000000 		.quad	_ZTVN10__cxxabiv120__si_class_type_infoE+16
 9927      00000000 
 9928 0ae8 00000000 		.quad	_ZTSN12_GLOBAL__N_151TestCheckEqualFailureIncludesCheckExpectedAndActualE
 9928      00000000 
 9929 0af0 00000000 		.quad	_ZTIN8UnitTest4TestE
 9929      00000000 
 9930 0af8 00000000 		.align 16
 9930      00000000 
 9933              	_ZTIN12_GLOBAL__N_153TestCheckEqualsWithStringsWorksOnContentsWithALiteralE:
 9934 0b00 00000000 		.quad	_ZTVN10__cxxabiv120__si_class_type_infoE+16
 9934      00000000 
 9935 0b08 00000000 		.quad	_ZTSN12_GLOBAL__N_153TestCheckEqualsWithStringsWorksOnContentsWithALiteralE
 9935      00000000 
 9936 0b10 00000000 		.quad	_ZTIN8UnitTest4TestE
 9936      00000000 
 9937 0b18 00000000 		.align 16
 9937      00000000 
 9940              	_ZTIN12_GLOBAL__N_154TestCheckEqualsWithStringsWorksOnContentsConstNonConstE:
 9941 0b20 00000000 		.quad	_ZTVN10__cxxabiv120__si_class_type_infoE+16
 9941      00000000 
 9942 0b28 00000000 		.quad	_ZTSN12_GLOBAL__N_154TestCheckEqualsWithStringsWorksOnContentsConstNonConstE
 9942      00000000 
 9943 0b30 00000000 		.quad	_ZTIN8UnitTest4TestE
 9943      00000000 
 9944 0b38 00000000 		.align 16
 9944      00000000 
 9947              	_ZTIN12_GLOBAL__N_154TestCheckEqualsWithStringsWorksOnContentsNonConstConstE:
 9948 0b40 00000000 		.quad	_ZTVN10__cxxabiv120__si_class_type_infoE+16
 9948      00000000 
 9949 0b48 00000000 		.quad	_ZTSN12_GLOBAL__N_154TestCheckEqualsWithStringsWorksOnContentsNonConstConstE
 9949      00000000 
 9950 0b50 00000000 		.quad	_ZTIN8UnitTest4TestE
 9950      00000000 
 9951 0b58 00000000 		.align 16
 9951      00000000 
 9954              	_ZTIN12_GLOBAL__N_151TestCheckEqualsWithStringsWorksOnContentsConstConstE:
 9955 0b60 00000000 		.quad	_ZTVN10__cxxabiv120__si_class_type_infoE+16
 9955      00000000 
 9956 0b68 00000000 		.quad	_ZTSN12_GLOBAL__N_151TestCheckEqualsWithStringsWorksOnContentsConstConstE
 9956      00000000 
 9957 0b70 00000000 		.quad	_ZTIN8UnitTest4TestE
 9957      00000000 
 9958 0b78 00000000 		.align 16
 9958      00000000 
 9961              	_ZTIN12_GLOBAL__N_157TestCheckEqualsWithStringsWorksOnContentsNonConstNonConstE:
 9962 0b80 00000000 		.quad	_ZTVN10__cxxabiv120__si_class_type_infoE+16
 9962      00000000 
 9963 0b88 00000000 		.quad	_ZTSN12_GLOBAL__N_157TestCheckEqualsWithStringsWorksOnContentsNonConstNonConstE
 9963      00000000 
 9964 0b90 00000000 		.quad	_ZTIN8UnitTest4TestE
 9964      00000000 
 9965 0b98 00000000 		.align 16
 9965      00000000 
 9968              	_ZTIN12_GLOBAL__N_149TestCheckEqualsWithStringsFailsOnDifferentStringsE:
 9969 0ba0 00000000 		.quad	_ZTVN10__cxxabiv120__si_class_type_infoE+16
 9969      00000000 
 9970 0ba8 00000000 		.quad	_ZTSN12_GLOBAL__N_149TestCheckEqualsWithStringsFailsOnDifferentStringsE
 9970      00000000 
 9971 0bb0 00000000 		.quad	_ZTIN8UnitTest4TestE
 9971      00000000 
 9972 0bb8 00000000 		.align 16
 9972      00000000 
 9975              	_ZTIN12_GLOBAL__N_130TestCheckEqualWithUnsignedLongE:
 9976 0bc0 00000000 		.quad	_ZTVN10__cxxabiv120__si_class_type_infoE+16
 9976      00000000 
 9977 0bc8 00000000 		.quad	_ZTSN12_GLOBAL__N_130TestCheckEqualWithUnsignedLongE
 9977      00000000 
 9978 0bd0 00000000 		.quad	_ZTIN8UnitTest4TestE
 9978      00000000 
 9979              		.weak	_ZTIN8UnitTest15MemoryOutStreamE
 9980              		.section	.rodata._ZTIN8UnitTest15MemoryOutStreamE,"aG",@progbits,_ZTIN8UnitTest15MemoryOutStreamE,
 9981              		.align 16
 9984              	_ZTIN8UnitTest15MemoryOutStreamE:
 9985 0000 00000000 		.quad	_ZTVN10__cxxabiv120__si_class_type_infoE+16
 9985      00000000 
 9986 0008 00000000 		.quad	_ZTSN8UnitTest15MemoryOutStreamE
 9986      00000000 
 9987 0010 00000000 		.quad	_ZTISt19basic_ostringstreamIcSt11char_traitsIcESaIcEE
 9987      00000000 
 9988              		.weak	_ZTSN8UnitTest15MemoryOutStreamE
 9989              		.section	.rodata._ZTSN8UnitTest15MemoryOutStreamE,"aG",@progbits,_ZTSN8UnitTest15MemoryOutStreamE,
 9990              		.align 16
 9993              	_ZTSN8UnitTest15MemoryOutStreamE:
 9994 0000 4E38556E 		.string	"N8UnitTest15MemoryOutStreamE"
 9994      69745465 
 9994      73743135 
 9994      4D656D6F 
 9994      72794F75 
 9995              		.weak	_ZTI17RecordingReporter
 9996              		.section	.rodata._ZTI17RecordingReporter,"aG",@progbits,_ZTI17RecordingReporter,comdat
 9997              		.align 16
 10000              	_ZTI17RecordingReporter:
 10001 0000 00000000 		.quad	_ZTVN10__cxxabiv120__si_class_type_infoE+16
 10001      00000000 
 10002 0008 00000000 		.quad	_ZTS17RecordingReporter
 10002      00000000 
 10003 0010 00000000 		.quad	_ZTIN8UnitTest12TestReporterE
 10003      00000000 
 10004              		.weak	_ZTS17RecordingReporter
 10005              		.section	.rodata._ZTS17RecordingReporter,"aG",@progbits,_ZTS17RecordingReporter,comdat
 10006              		.align 16
 10009              	_ZTS17RecordingReporter:
 10010 0000 31375265 		.string	"17RecordingReporter"
 10010      636F7264 
 10010      696E6752 
 10010      65706F72 
 10010      74657200 
 10011              		.hidden	_ZTCN8UnitTest15MemoryOutStreamE0_So
 10012              		.weak	_ZTCN8UnitTest15MemoryOutStreamE0_So
 10013              		.section	.rodata._ZTCN8UnitTest15MemoryOutStreamE0_So,"aG",@progbits,_ZTVN8UnitTest15MemoryOutStre
 10014              		.align 64
 10017              	_ZTCN8UnitTest15MemoryOutStreamE0_So:
 10018 0000 60000000 		.quad	96
 10018      00000000 
 10019 0008 00000000 		.quad	0
 10019      00000000 
 10020 0010 00000000 		.quad	_ZTISo
 10020      00000000 
 10021 0018 00000000 		.quad	0
 10021      00000000 
 10022 0020 00000000 		.quad	0
 10022      00000000 
 10023 0028 A0FFFFFF 		.quad	-96
 10023      FFFFFFFF 
 10024 0030 A0FFFFFF 		.quad	-96
 10024      FFFFFFFF 
 10025 0038 00000000 		.quad	_ZTISo
 10025      00000000 
 10026 0040 00000000 		.quad	0
 10026      00000000 
 10027 0048 00000000 		.quad	0
 10027      00000000 
 10028              		.hidden	_ZTCN8UnitTest15MemoryOutStreamE0_St19basic_ostringstreamIcSt11char_traitsIcESaIcEE
 10029              		.weak	_ZTCN8UnitTest15MemoryOutStreamE0_St19basic_ostringstreamIcSt11char_traitsIcESaIcEE
 10030              		.section	.rodata._ZTCN8UnitTest15MemoryOutStreamE0_St19basic_ostringstreamIcSt11char_traitsIcESaIc
 10031              		.align 64
 10034              	_ZTCN8UnitTest15MemoryOutStreamE0_St19basic_ostringstreamIcSt11char_traitsIcESaIcEE:
 10035 0000 60000000 		.quad	96
 10035      00000000 
 10036 0008 00000000 		.quad	0
 10036      00000000 
 10037 0010 00000000 		.quad	_ZTISt19basic_ostringstreamIcSt11char_traitsIcESaIcEE
 10037      00000000 
 10038 0018 00000000 		.quad	0
 10038      00000000 
 10039 0020 00000000 		.quad	0
 10039      00000000 
 10040 0028 A0FFFFFF 		.quad	-96
 10040      FFFFFFFF 
 10041 0030 A0FFFFFF 		.quad	-96
 10041      FFFFFFFF 
 10042 0038 00000000 		.quad	_ZTISt19basic_ostringstreamIcSt11char_traitsIcESaIcEE
 10042      00000000 
 10043 0040 00000000 		.quad	0
 10043      00000000 
 10044 0048 00000000 		.quad	0
 10044      00000000 
 10045              		.weak	_ZTTN8UnitTest15MemoryOutStreamE
 10046              		.section	.rodata._ZTTN8UnitTest15MemoryOutStreamE,"aG",@progbits,_ZTVN8UnitTest15MemoryOutStreamE,
 10047              		.align 32
 10050              	_ZTTN8UnitTest15MemoryOutStreamE:
 10051 0000 00000000 		.quad	_ZTVN8UnitTest15MemoryOutStreamE+24
 10051      00000000 
 10052 0008 00000000 		.quad	_ZTCN8UnitTest15MemoryOutStreamE0_St19basic_ostringstreamIcSt11char_traitsIcESaIcEE+24
 10052      00000000 
 10053 0010 00000000 		.quad	_ZTCN8UnitTest15MemoryOutStreamE0_So+24
 10053      00000000 
 10054 0018 00000000 		.quad	_ZTCN8UnitTest15MemoryOutStreamE0_So+64
 10054      00000000 
 10055 0020 00000000 		.quad	_ZTCN8UnitTest15MemoryOutStreamE0_St19basic_ostringstreamIcSt11char_traitsIcESaIcEE+64
 10055      00000000 
 10056 0028 00000000 		.quad	_ZTVN8UnitTest15MemoryOutStreamE+64
 10056      00000000 
 10057              		.weak	_ZTVN8UnitTest15MemoryOutStreamE
 10058              		.section	.rodata._ZTVN8UnitTest15MemoryOutStreamE,"aG",@progbits,_ZTVN8UnitTest15MemoryOutStreamE,
 10059              		.align 64
 10062              	_ZTVN8UnitTest15MemoryOutStreamE:
 10063 0000 60000000 		.quad	96
 10063      00000000 
 10064 0008 00000000 		.quad	0
 10064      00000000 
 10065 0010 00000000 		.quad	_ZTIN8UnitTest15MemoryOutStreamE
 10065      00000000 
 10066 0018 00000000 		.quad	_ZN8UnitTest15MemoryOutStreamD1Ev
 10066      00000000 
 10067 0020 00000000 		.quad	_ZN8UnitTest15MemoryOutStreamD0Ev
 10067      00000000 
 10068 0028 A0FFFFFF 		.quad	-96
 10068      FFFFFFFF 
 10069 0030 A0FFFFFF 		.quad	-96
 10069      FFFFFFFF 
 10070 0038 00000000 		.quad	_ZTIN8UnitTest15MemoryOutStreamE
 10070      00000000 
 10071 0040 00000000 		.quad	_ZTv0_n24_N8UnitTest15MemoryOutStreamD1Ev
 10071      00000000 
 10072 0048 00000000 		.quad	_ZTv0_n24_N8UnitTest15MemoryOutStreamD0Ev
 10072      00000000 
 10073              		.weak	_ZTV17RecordingReporter
 10074              		.section	.rodata._ZTV17RecordingReporter,"aG",@progbits,_ZTV17RecordingReporter,comdat
 10075              		.align 64
 10078              	_ZTV17RecordingReporter:
 10079 0000 00000000 		.quad	0
 10079      00000000 
 10080 0008 00000000 		.quad	_ZTI17RecordingReporter
 10080      00000000 
 10081 0010 00000000 		.quad	_ZN17RecordingReporterD1Ev
 10081      00000000 
 10082 0018 00000000 		.quad	_ZN17RecordingReporterD0Ev
 10082      00000000 
 10083 0020 00000000 		.quad	_ZN17RecordingReporter15ReportTestStartERKN8UnitTest11TestDetailsE
 10083      00000000 
 10084 0028 00000000 		.quad	_ZN17RecordingReporter13ReportFailureERKN8UnitTest11TestDetailsEPKc
 10084      00000000 
 10085 0030 00000000 		.quad	_ZN17RecordingReporter16ReportTestFinishERKN8UnitTest11TestDetailsEf
 10085      00000000 
 10086 0038 00000000 		.quad	_ZN17RecordingReporter13ReportSummaryEiiif
 10086      00000000 
 10087              		.section	.rodata
 10088 0bd8 00000000 		.align 32
 10088      00000000 
 10091              	_ZTVN12_GLOBAL__N_130TestCheckEqualWithUnsignedLongE:
 10092 0be0 00000000 		.quad	0
 10092      00000000 
 10093 0be8 00000000 		.quad	_ZTIN12_GLOBAL__N_130TestCheckEqualWithUnsignedLongE
 10093      00000000 
 10094 0bf0 00000000 		.quad	_ZN12_GLOBAL__N_130TestCheckEqualWithUnsignedLongD1Ev
 10094      00000000 
 10095 0bf8 00000000 		.quad	_ZN12_GLOBAL__N_130TestCheckEqualWithUnsignedLongD0Ev
 10095      00000000 
 10096 0c00 00000000 		.quad	_ZNK12_GLOBAL__N_130TestCheckEqualWithUnsignedLong7RunImplEv
 10096      00000000 
 10097 0c08 00000000 		.align 32
 10097      00000000 
 10097      00000000 
 10097      00000000 
 10097      00000000 
 10100              	_ZTVN12_GLOBAL__N_149TestCheckEqualsWithStringsFailsOnDifferentStringsE:
 10101 0c20 00000000 		.quad	0
 10101      00000000 
 10102 0c28 00000000 		.quad	_ZTIN12_GLOBAL__N_149TestCheckEqualsWithStringsFailsOnDifferentStringsE
 10102      00000000 
 10103 0c30 00000000 		.quad	_ZN12_GLOBAL__N_149TestCheckEqualsWithStringsFailsOnDifferentStringsD1Ev
 10103      00000000 
 10104 0c38 00000000 		.quad	_ZN12_GLOBAL__N_149TestCheckEqualsWithStringsFailsOnDifferentStringsD0Ev
 10104      00000000 
 10105 0c40 00000000 		.quad	_ZNK12_GLOBAL__N_149TestCheckEqualsWithStringsFailsOnDifferentStrings7RunImplEv
 10105      00000000 
 10106 0c48 00000000 		.align 32
 10106      00000000 
 10106      00000000 
 10106      00000000 
 10106      00000000 
 10109              	_ZTVN12_GLOBAL__N_157TestCheckEqualsWithStringsWorksOnContentsNonConstNonConstE:
 10110 0c60 00000000 		.quad	0
 10110      00000000 
 10111 0c68 00000000 		.quad	_ZTIN12_GLOBAL__N_157TestCheckEqualsWithStringsWorksOnContentsNonConstNonConstE
 10111      00000000 
 10112 0c70 00000000 		.quad	_ZN12_GLOBAL__N_157TestCheckEqualsWithStringsWorksOnContentsNonConstNonConstD1Ev
 10112      00000000 
 10113 0c78 00000000 		.quad	_ZN12_GLOBAL__N_157TestCheckEqualsWithStringsWorksOnContentsNonConstNonConstD0Ev
 10113      00000000 
 10114 0c80 00000000 		.quad	_ZNK12_GLOBAL__N_157TestCheckEqualsWithStringsWorksOnContentsNonConstNonConst7RunImplEv
 10114      00000000 
 10115 0c88 00000000 		.align 32
 10115      00000000 
 10115      00000000 
 10115      00000000 
 10115      00000000 
 10118              	_ZTVN12_GLOBAL__N_151TestCheckEqualsWithStringsWorksOnContentsConstConstE:
 10119 0ca0 00000000 		.quad	0
 10119      00000000 
 10120 0ca8 00000000 		.quad	_ZTIN12_GLOBAL__N_151TestCheckEqualsWithStringsWorksOnContentsConstConstE
 10120      00000000 
 10121 0cb0 00000000 		.quad	_ZN12_GLOBAL__N_151TestCheckEqualsWithStringsWorksOnContentsConstConstD1Ev
 10121      00000000 
 10122 0cb8 00000000 		.quad	_ZN12_GLOBAL__N_151TestCheckEqualsWithStringsWorksOnContentsConstConstD0Ev
 10122      00000000 
 10123 0cc0 00000000 		.quad	_ZNK12_GLOBAL__N_151TestCheckEqualsWithStringsWorksOnContentsConstConst7RunImplEv
 10123      00000000 
 10124 0cc8 00000000 		.align 32
 10124      00000000 
 10124      00000000 
 10124      00000000 
 10124      00000000 
 10127              	_ZTVN12_GLOBAL__N_154TestCheckEqualsWithStringsWorksOnContentsNonConstConstE:
 10128 0ce0 00000000 		.quad	0
 10128      00000000 
 10129 0ce8 00000000 		.quad	_ZTIN12_GLOBAL__N_154TestCheckEqualsWithStringsWorksOnContentsNonConstConstE
 10129      00000000 
 10130 0cf0 00000000 		.quad	_ZN12_GLOBAL__N_154TestCheckEqualsWithStringsWorksOnContentsNonConstConstD1Ev
 10130      00000000 
 10131 0cf8 00000000 		.quad	_ZN12_GLOBAL__N_154TestCheckEqualsWithStringsWorksOnContentsNonConstConstD0Ev
 10131      00000000 
 10132 0d00 00000000 		.quad	_ZNK12_GLOBAL__N_154TestCheckEqualsWithStringsWorksOnContentsNonConstConst7RunImplEv
 10132      00000000 
 10133 0d08 00000000 		.align 32
 10133      00000000 
 10133      00000000 
 10133      00000000 
 10133      00000000 
 10136              	_ZTVN12_GLOBAL__N_154TestCheckEqualsWithStringsWorksOnContentsConstNonConstE:
 10137 0d20 00000000 		.quad	0
 10137      00000000 
 10138 0d28 00000000 		.quad	_ZTIN12_GLOBAL__N_154TestCheckEqualsWithStringsWorksOnContentsConstNonConstE
 10138      00000000 
 10139 0d30 00000000 		.quad	_ZN12_GLOBAL__N_154TestCheckEqualsWithStringsWorksOnContentsConstNonConstD1Ev
 10139      00000000 
 10140 0d38 00000000 		.quad	_ZN12_GLOBAL__N_154TestCheckEqualsWithStringsWorksOnContentsConstNonConstD0Ev
 10140      00000000 
 10141 0d40 00000000 		.quad	_ZNK12_GLOBAL__N_154TestCheckEqualsWithStringsWorksOnContentsConstNonConst7RunImplEv
 10141      00000000 
 10142 0d48 00000000 		.align 32
 10142      00000000 
 10142      00000000 
 10142      00000000 
 10142      00000000 
 10145              	_ZTVN12_GLOBAL__N_153TestCheckEqualsWithStringsWorksOnContentsWithALiteralE:
 10146 0d60 00000000 		.quad	0
 10146      00000000 
 10147 0d68 00000000 		.quad	_ZTIN12_GLOBAL__N_153TestCheckEqualsWithStringsWorksOnContentsWithALiteralE
 10147      00000000 
 10148 0d70 00000000 		.quad	_ZN12_GLOBAL__N_153TestCheckEqualsWithStringsWorksOnContentsWithALiteralD1Ev
 10148      00000000 
 10149 0d78 00000000 		.quad	_ZN12_GLOBAL__N_153TestCheckEqualsWithStringsWorksOnContentsWithALiteralD0Ev
 10149      00000000 
 10150 0d80 00000000 		.quad	_ZNK12_GLOBAL__N_153TestCheckEqualsWithStringsWorksOnContentsWithALiteral7RunImplEv
 10150      00000000 
 10151 0d88 00000000 		.align 32
 10151      00000000 
 10151      00000000 
 10151      00000000 
 10151      00000000 
 10154              	_ZTVN12_GLOBAL__N_151TestCheckEqualFailureIncludesCheckExpectedAndActualE:
 10155 0da0 00000000 		.quad	0
 10155      00000000 
 10156 0da8 00000000 		.quad	_ZTIN12_GLOBAL__N_151TestCheckEqualFailureIncludesCheckExpectedAndActualE
 10156      00000000 
 10157 0db0 00000000 		.quad	_ZN12_GLOBAL__N_151TestCheckEqualFailureIncludesCheckExpectedAndActualD1Ev
 10157      00000000 
 10158 0db8 00000000 		.quad	_ZN12_GLOBAL__N_151TestCheckEqualFailureIncludesCheckExpectedAndActualD0Ev
 10158      00000000 
 10159 0dc0 00000000 		.quad	_ZNK12_GLOBAL__N_151TestCheckEqualFailureIncludesCheckExpectedAndActual7RunImplEv
 10159      00000000 
 10160 0dc8 00000000 		.align 32
 10160      00000000 
 10160      00000000 
 10160      00000000 
 10160      00000000 
 10163              	_ZTVN12_GLOBAL__N_136TestCheckEqualFailureIncludesDetailsE:
 10164 0de0 00000000 		.quad	0
 10164      00000000 
 10165 0de8 00000000 		.quad	_ZTIN12_GLOBAL__N_136TestCheckEqualFailureIncludesDetailsE
 10165      00000000 
 10166 0df0 00000000 		.quad	_ZN12_GLOBAL__N_136TestCheckEqualFailureIncludesDetailsD1Ev
 10166      00000000 
 10167 0df8 00000000 		.quad	_ZN12_GLOBAL__N_136TestCheckEqualFailureIncludesDetailsD0Ev
 10167      00000000 
 10168 0e00 00000000 		.quad	_ZNK12_GLOBAL__N_136TestCheckEqualFailureIncludesDetails7RunImplEv
 10168      00000000 
 10169 0e08 00000000 		.align 32
 10169      00000000 
 10169      00000000 
 10169      00000000 
 10169      00000000 
 10172              	_ZTVN12_GLOBAL__N_118TestCheckCloseTrueE:
 10173 0e20 00000000 		.quad	0
 10173      00000000 
 10174 0e28 00000000 		.quad	_ZTIN12_GLOBAL__N_118TestCheckCloseTrueE
 10174      00000000 
 10175 0e30 00000000 		.quad	_ZN12_GLOBAL__N_118TestCheckCloseTrueD1Ev
 10175      00000000 
 10176 0e38 00000000 		.quad	_ZN12_GLOBAL__N_118TestCheckCloseTrueD0Ev
 10176      00000000 
 10177 0e40 00000000 		.quad	_ZNK12_GLOBAL__N_118TestCheckCloseTrue7RunImplEv
 10177      00000000 
 10178 0e48 00000000 		.align 32
 10178      00000000 
 10178      00000000 
 10178      00000000 
 10178      00000000 
 10181              	_ZTVN12_GLOBAL__N_119TestCheckCloseFalseE:
 10182 0e60 00000000 		.quad	0
 10182      00000000 
 10183 0e68 00000000 		.quad	_ZTIN12_GLOBAL__N_119TestCheckCloseFalseE
 10183      00000000 
 10184 0e70 00000000 		.quad	_ZN12_GLOBAL__N_119TestCheckCloseFalseD1Ev
 10184      00000000 
 10185 0e78 00000000 		.quad	_ZN12_GLOBAL__N_119TestCheckCloseFalseD0Ev
 10185      00000000 
 10186 0e80 00000000 		.quad	_ZNK12_GLOBAL__N_119TestCheckCloseFalse7RunImplEv
 10186      00000000 
 10187 0e88 00000000 		.align 32
 10187      00000000 
 10187      00000000 
 10187      00000000 
 10187      00000000 
 10190              	_ZTVN12_GLOBAL__N_147TestCheckCloseWithZeroEpsilonWorksForSameNumberE:
 10191 0ea0 00000000 		.quad	0
 10191      00000000 
 10192 0ea8 00000000 		.quad	_ZTIN12_GLOBAL__N_147TestCheckCloseWithZeroEpsilonWorksForSameNumberE
 10192      00000000 
 10193 0eb0 00000000 		.quad	_ZN12_GLOBAL__N_147TestCheckCloseWithZeroEpsilonWorksForSameNumberD1Ev
 10193      00000000 
 10194 0eb8 00000000 		.quad	_ZN12_GLOBAL__N_147TestCheckCloseWithZeroEpsilonWorksForSameNumberD0Ev
 10194      00000000 
 10195 0ec0 00000000 		.quad	_ZNK12_GLOBAL__N_147TestCheckCloseWithZeroEpsilonWorksForSameNumber7RunImplEv
 10195      00000000 
 10196 0ec8 00000000 		.align 32
 10196      00000000 
 10196      00000000 
 10196      00000000 
 10196      00000000 
 10199              	_ZTVN12_GLOBAL__N_126TestCheckCloseWithNaNFailsE:
 10200 0ee0 00000000 		.quad	0
 10200      00000000 
 10201 0ee8 00000000 		.quad	_ZTIN12_GLOBAL__N_126TestCheckCloseWithNaNFailsE
 10201      00000000 
 10202 0ef0 00000000 		.quad	_ZN12_GLOBAL__N_126TestCheckCloseWithNaNFailsD1Ev
 10202      00000000 
 10203 0ef8 00000000 		.quad	_ZN12_GLOBAL__N_126TestCheckCloseWithNaNFailsD0Ev
 10203      00000000 
 10204 0f00 00000000 		.quad	_ZNK12_GLOBAL__N_126TestCheckCloseWithNaNFails7RunImplEv
 10204      00000000 
 10205 0f08 00000000 		.align 32
 10205      00000000 
 10205      00000000 
 10205      00000000 
 10205      00000000 
 10208              	_ZTVN12_GLOBAL__N_139TestCheckCloseWithNaNAgainstItselfFailsE:
 10209 0f20 00000000 		.quad	0
 10209      00000000 
 10210 0f28 00000000 		.quad	_ZTIN12_GLOBAL__N_139TestCheckCloseWithNaNAgainstItselfFailsE
 10210      00000000 
 10211 0f30 00000000 		.quad	_ZN12_GLOBAL__N_139TestCheckCloseWithNaNAgainstItselfFailsD1Ev
 10211      00000000 
 10212 0f38 00000000 		.quad	_ZN12_GLOBAL__N_139TestCheckCloseWithNaNAgainstItselfFailsD0Ev
 10212      00000000 
 10213 0f40 00000000 		.quad	_ZNK12_GLOBAL__N_139TestCheckCloseWithNaNAgainstItselfFails7RunImplEv
 10213      00000000 
 10214 0f48 00000000 		.align 32
 10214      00000000 
 10214      00000000 
 10214      00000000 
 10214      00000000 
 10217              	_ZTVN12_GLOBAL__N_151TestCheckCloseFailureIncludesCheckExpectedAndActualE:
 10218 0f60 00000000 		.quad	0
 10218      00000000 
 10219 0f68 00000000 		.quad	_ZTIN12_GLOBAL__N_151TestCheckCloseFailureIncludesCheckExpectedAndActualE
 10219      00000000 
 10220 0f70 00000000 		.quad	_ZN12_GLOBAL__N_151TestCheckCloseFailureIncludesCheckExpectedAndActualD1Ev
 10220      00000000 
 10221 0f78 00000000 		.quad	_ZN12_GLOBAL__N_151TestCheckCloseFailureIncludesCheckExpectedAndActualD0Ev
 10221      00000000 
 10222 0f80 00000000 		.quad	_ZNK12_GLOBAL__N_151TestCheckCloseFailureIncludesCheckExpectedAndActual7RunImplEv
 10222      00000000 
 10223 0f88 00000000 		.align 32
 10223      00000000 
 10223      00000000 
 10223      00000000 
 10223      00000000 
 10226              	_ZTVN12_GLOBAL__N_138TestCheckCloseFailureIncludesToleranceE:
 10227 0fa0 00000000 		.quad	0
 10227      00000000 
 10228 0fa8 00000000 		.quad	_ZTIN12_GLOBAL__N_138TestCheckCloseFailureIncludesToleranceE
 10228      00000000 
 10229 0fb0 00000000 		.quad	_ZN12_GLOBAL__N_138TestCheckCloseFailureIncludesToleranceD1Ev
 10229      00000000 
 10230 0fb8 00000000 		.quad	_ZN12_GLOBAL__N_138TestCheckCloseFailureIncludesToleranceD0Ev
 10230      00000000 
 10231 0fc0 00000000 		.quad	_ZNK12_GLOBAL__N_138TestCheckCloseFailureIncludesTolerance7RunImplEv
 10231      00000000 
 10232 0fc8 00000000 		.align 32
 10232      00000000 
 10232      00000000 
 10232      00000000 
 10232      00000000 
 10235              	_ZTVN12_GLOBAL__N_136TestCheckCloseFailureIncludesDetailsE:
 10236 0fe0 00000000 		.quad	0
 10236      00000000 
 10237 0fe8 00000000 		.quad	_ZTIN12_GLOBAL__N_136TestCheckCloseFailureIncludesDetailsE
 10237      00000000 
 10238 0ff0 00000000 		.quad	_ZN12_GLOBAL__N_136TestCheckCloseFailureIncludesDetailsD1Ev
 10238      00000000 
 10239 0ff8 00000000 		.quad	_ZN12_GLOBAL__N_136TestCheckCloseFailureIncludesDetailsD0Ev
 10239      00000000 
 10240 1000 00000000 		.quad	_ZNK12_GLOBAL__N_136TestCheckCloseFailureIncludesDetails7RunImplEv
 10240      00000000 
 10241 1008 00000000 		.align 32
 10241      00000000 
 10241      00000000 
 10241      00000000 
 10241      00000000 
 10244              	_ZTVN12_GLOBAL__N_123TestCheckArrayEqualTrueE:
 10245 1020 00000000 		.quad	0
 10245      00000000 
 10246 1028 00000000 		.quad	_ZTIN12_GLOBAL__N_123TestCheckArrayEqualTrueE
 10246      00000000 
 10247 1030 00000000 		.quad	_ZN12_GLOBAL__N_123TestCheckArrayEqualTrueD1Ev
 10247      00000000 
 10248 1038 00000000 		.quad	_ZN12_GLOBAL__N_123TestCheckArrayEqualTrueD0Ev
 10248      00000000 
 10249 1040 00000000 		.quad	_ZNK12_GLOBAL__N_123TestCheckArrayEqualTrue7RunImplEv
 10249      00000000 
 10250 1048 00000000 		.align 32
 10250      00000000 
 10250      00000000 
 10250      00000000 
 10250      00000000 
 10253              	_ZTVN12_GLOBAL__N_124TestCheckArrayEqualFalseE:
 10254 1060 00000000 		.quad	0
 10254      00000000 
 10255 1068 00000000 		.quad	_ZTIN12_GLOBAL__N_124TestCheckArrayEqualFalseE
 10255      00000000 
 10256 1070 00000000 		.quad	_ZN12_GLOBAL__N_124TestCheckArrayEqualFalseD1Ev
 10256      00000000 
 10257 1078 00000000 		.quad	_ZN12_GLOBAL__N_124TestCheckArrayEqualFalseD0Ev
 10257      00000000 
 10258 1080 00000000 		.quad	_ZNK12_GLOBAL__N_124TestCheckArrayEqualFalse7RunImplEv
 10258      00000000 
 10259 1088 00000000 		.align 32
 10259      00000000 
 10259      00000000 
 10259      00000000 
 10259      00000000 
 10262              	_ZTVN12_GLOBAL__N_123TestCheckArrayCloseTrueE:
 10263 10a0 00000000 		.quad	0
 10263      00000000 
 10264 10a8 00000000 		.quad	_ZTIN12_GLOBAL__N_123TestCheckArrayCloseTrueE
 10264      00000000 
 10265 10b0 00000000 		.quad	_ZN12_GLOBAL__N_123TestCheckArrayCloseTrueD1Ev
 10265      00000000 
 10266 10b8 00000000 		.quad	_ZN12_GLOBAL__N_123TestCheckArrayCloseTrueD0Ev
 10266      00000000 
 10267 10c0 00000000 		.quad	_ZNK12_GLOBAL__N_123TestCheckArrayCloseTrue7RunImplEv
 10267      00000000 
 10268 10c8 00000000 		.align 32
 10268      00000000 
 10268      00000000 
 10268      00000000 
 10268      00000000 
 10271              	_ZTVN12_GLOBAL__N_124TestCheckArrayCloseFalseE:
 10272 10e0 00000000 		.quad	0
 10272      00000000 
 10273 10e8 00000000 		.quad	_ZTIN12_GLOBAL__N_124TestCheckArrayCloseFalseE
 10273      00000000 
 10274 10f0 00000000 		.quad	_ZN12_GLOBAL__N_124TestCheckArrayCloseFalseD1Ev
 10274      00000000 
 10275 10f8 00000000 		.quad	_ZN12_GLOBAL__N_124TestCheckArrayCloseFalseD0Ev
 10275      00000000 
 10276 1100 00000000 		.quad	_ZNK12_GLOBAL__N_124TestCheckArrayCloseFalse7RunImplEv
 10276      00000000 
 10277 1108 00000000 		.align 32
 10277      00000000 
 10277      00000000 
 10277      00000000 
 10277      00000000 
 10280              	_ZTVN12_GLOBAL__N_141TestCheckArrayCloseFailureIncludesDetailsE:
 10281 1120 00000000 		.quad	0
 10281      00000000 
 10282 1128 00000000 		.quad	_ZTIN12_GLOBAL__N_141TestCheckArrayCloseFailureIncludesDetailsE
 10282      00000000 
 10283 1130 00000000 		.quad	_ZN12_GLOBAL__N_141TestCheckArrayCloseFailureIncludesDetailsD1Ev
 10283      00000000 
 10284 1138 00000000 		.quad	_ZN12_GLOBAL__N_141TestCheckArrayCloseFailureIncludesDetailsD0Ev
 10284      00000000 
 10285 1140 00000000 		.quad	_ZNK12_GLOBAL__N_141TestCheckArrayCloseFailureIncludesDetails7RunImplEv
 10285      00000000 
 10286 1148 00000000 		.align 32
 10286      00000000 
 10286      00000000 
 10286      00000000 
 10286      00000000 
 10289              	_ZTVN12_GLOBAL__N_125TestCheckArray2DCloseTrueE:
 10290 1160 00000000 		.quad	0
 10290      00000000 
 10291 1168 00000000 		.quad	_ZTIN12_GLOBAL__N_125TestCheckArray2DCloseTrueE
 10291      00000000 
 10292 1170 00000000 		.quad	_ZN12_GLOBAL__N_125TestCheckArray2DCloseTrueD1Ev
 10292      00000000 
 10293 1178 00000000 		.quad	_ZN12_GLOBAL__N_125TestCheckArray2DCloseTrueD0Ev
 10293      00000000 
 10294 1180 00000000 		.quad	_ZNK12_GLOBAL__N_125TestCheckArray2DCloseTrue7RunImplEv
 10294      00000000 
 10295 1188 00000000 		.align 32
 10295      00000000 
 10295      00000000 
 10295      00000000 
 10295      00000000 
 10298              	_ZTVN12_GLOBAL__N_126TestCheckArray2DCloseFalseE:
 10299 11a0 00000000 		.quad	0
 10299      00000000 
 10300 11a8 00000000 		.quad	_ZTIN12_GLOBAL__N_126TestCheckArray2DCloseFalseE
 10300      00000000 
 10301 11b0 00000000 		.quad	_ZN12_GLOBAL__N_126TestCheckArray2DCloseFalseD1Ev
 10301      00000000 
 10302 11b8 00000000 		.quad	_ZN12_GLOBAL__N_126TestCheckArray2DCloseFalseD0Ev
 10302      00000000 
 10303 11c0 00000000 		.quad	_ZNK12_GLOBAL__N_126TestCheckArray2DCloseFalse7RunImplEv
 10303      00000000 
 10304 11c8 00000000 		.align 32
 10304      00000000 
 10304      00000000 
 10304      00000000 
 10304      00000000 
 10307              	_ZTVN12_GLOBAL__N_133TestCheckCloseWithDoublesSucceedsE:
 10308 11e0 00000000 		.quad	0
 10308      00000000 
 10309 11e8 00000000 		.quad	_ZTIN12_GLOBAL__N_133TestCheckCloseWithDoublesSucceedsE
 10309      00000000 
 10310 11f0 00000000 		.quad	_ZN12_GLOBAL__N_133TestCheckCloseWithDoublesSucceedsD1Ev
 10310      00000000 
 10311 11f8 00000000 		.quad	_ZN12_GLOBAL__N_133TestCheckCloseWithDoublesSucceedsD0Ev
 10311      00000000 
 10312 1200 00000000 		.quad	_ZNK12_GLOBAL__N_133TestCheckCloseWithDoublesSucceeds7RunImplEv
 10312      00000000 
 10313 1208 00000000 		.align 32
 10313      00000000 
 10313      00000000 
 10313      00000000 
 10313      00000000 
 10316              	_ZTVN12_GLOBAL__N_143TestCheckArray2DCloseFailureIncludesDetailsE:
 10317 1220 00000000 		.quad	0
 10317      00000000 
 10318 1228 00000000 		.quad	_ZTIN12_GLOBAL__N_143TestCheckArray2DCloseFailureIncludesDetailsE
 10318      00000000 
 10319 1230 00000000 		.quad	_ZN12_GLOBAL__N_143TestCheckArray2DCloseFailureIncludesDetailsD1Ev
 10319      00000000 
 10320 1238 00000000 		.quad	_ZN12_GLOBAL__N_143TestCheckArray2DCloseFailureIncludesDetailsD0Ev
 10320      00000000 
 10321 1240 00000000 		.quad	_ZNK12_GLOBAL__N_143TestCheckArray2DCloseFailureIncludesDetails7RunImplEv
 10321      00000000 
 10322              		.local	_ZN12_GLOBAL__N_144adderCheckArray2DCloseFailureIncludesDetailsE
 10323              		.comm	_ZN12_GLOBAL__N_144adderCheckArray2DCloseFailureIncludesDetailsE,1,1
 10324              		.local	_ZN12_GLOBAL__N_151testCheckArray2DCloseFailureIncludesDetailsInstanceE
 10325              		.comm	_ZN12_GLOBAL__N_151testCheckArray2DCloseFailureIncludesDetailsInstanceE,56,32
 10326              		.local	_ZN12_GLOBAL__N_134adderCheckCloseWithDoublesSucceedsE
 10327              		.comm	_ZN12_GLOBAL__N_134adderCheckCloseWithDoublesSucceedsE,1,1
 10328              		.local	_ZN12_GLOBAL__N_141testCheckCloseWithDoublesSucceedsInstanceE
 10329              		.comm	_ZN12_GLOBAL__N_141testCheckCloseWithDoublesSucceedsInstanceE,56,32
 10330              		.local	_ZN12_GLOBAL__N_127adderCheckArray2DCloseFalseE
 10331              		.comm	_ZN12_GLOBAL__N_127adderCheckArray2DCloseFalseE,1,1
 10332              		.local	_ZN12_GLOBAL__N_134testCheckArray2DCloseFalseInstanceE
 10333              		.comm	_ZN12_GLOBAL__N_134testCheckArray2DCloseFalseInstanceE,56,32
 10334              		.local	_ZN12_GLOBAL__N_126adderCheckArray2DCloseTrueE
 10335              		.comm	_ZN12_GLOBAL__N_126adderCheckArray2DCloseTrueE,1,1
 10336              		.local	_ZN12_GLOBAL__N_133testCheckArray2DCloseTrueInstanceE
 10337              		.comm	_ZN12_GLOBAL__N_133testCheckArray2DCloseTrueInstanceE,56,32
 10338              		.local	_ZN12_GLOBAL__N_142adderCheckArrayCloseFailureIncludesDetailsE
 10339              		.comm	_ZN12_GLOBAL__N_142adderCheckArrayCloseFailureIncludesDetailsE,1,1
 10340              		.local	_ZN12_GLOBAL__N_149testCheckArrayCloseFailureIncludesDetailsInstanceE
 10341              		.comm	_ZN12_GLOBAL__N_149testCheckArrayCloseFailureIncludesDetailsInstanceE,56,32
 10342              		.local	_ZN12_GLOBAL__N_125adderCheckArrayCloseFalseE
 10343              		.comm	_ZN12_GLOBAL__N_125adderCheckArrayCloseFalseE,1,1
 10344              		.local	_ZN12_GLOBAL__N_132testCheckArrayCloseFalseInstanceE
 10345              		.comm	_ZN12_GLOBAL__N_132testCheckArrayCloseFalseInstanceE,56,32
 10346              		.local	_ZN12_GLOBAL__N_124adderCheckArrayCloseTrueE
 10347              		.comm	_ZN12_GLOBAL__N_124adderCheckArrayCloseTrueE,1,1
 10348              		.local	_ZN12_GLOBAL__N_131testCheckArrayCloseTrueInstanceE
 10349              		.comm	_ZN12_GLOBAL__N_131testCheckArrayCloseTrueInstanceE,56,32
 10350              		.local	_ZN12_GLOBAL__N_125adderCheckArrayEqualFalseE
 10351              		.comm	_ZN12_GLOBAL__N_125adderCheckArrayEqualFalseE,1,1
 10352              		.local	_ZN12_GLOBAL__N_132testCheckArrayEqualFalseInstanceE
 10353              		.comm	_ZN12_GLOBAL__N_132testCheckArrayEqualFalseInstanceE,56,32
 10354              		.local	_ZN12_GLOBAL__N_124adderCheckArrayEqualTrueE
 10355              		.comm	_ZN12_GLOBAL__N_124adderCheckArrayEqualTrueE,1,1
 10356              		.local	_ZN12_GLOBAL__N_131testCheckArrayEqualTrueInstanceE
 10357              		.comm	_ZN12_GLOBAL__N_131testCheckArrayEqualTrueInstanceE,56,32
 10358              		.local	_ZN12_GLOBAL__N_137adderCheckCloseFailureIncludesDetailsE
 10359              		.comm	_ZN12_GLOBAL__N_137adderCheckCloseFailureIncludesDetailsE,1,1
 10360              		.local	_ZN12_GLOBAL__N_144testCheckCloseFailureIncludesDetailsInstanceE
 10361              		.comm	_ZN12_GLOBAL__N_144testCheckCloseFailureIncludesDetailsInstanceE,56,32
 10362              		.local	_ZN12_GLOBAL__N_139adderCheckCloseFailureIncludesToleranceE
 10363              		.comm	_ZN12_GLOBAL__N_139adderCheckCloseFailureIncludesToleranceE,1,1
 10364              		.local	_ZN12_GLOBAL__N_146testCheckCloseFailureIncludesToleranceInstanceE
 10365              		.comm	_ZN12_GLOBAL__N_146testCheckCloseFailureIncludesToleranceInstanceE,56,32
 10366              		.local	_ZN12_GLOBAL__N_152adderCheckCloseFailureIncludesCheckExpectedAndActualE
 10367              		.comm	_ZN12_GLOBAL__N_152adderCheckCloseFailureIncludesCheckExpectedAndActualE,1,1
 10368              		.local	_ZN12_GLOBAL__N_159testCheckCloseFailureIncludesCheckExpectedAndActualInstanceE
 10369              		.comm	_ZN12_GLOBAL__N_159testCheckCloseFailureIncludesCheckExpectedAndActualInstanceE,56,32
 10370              		.local	_ZN12_GLOBAL__N_140adderCheckCloseWithNaNAgainstItselfFailsE
 10371              		.comm	_ZN12_GLOBAL__N_140adderCheckCloseWithNaNAgainstItselfFailsE,1,1
 10372              		.local	_ZN12_GLOBAL__N_147testCheckCloseWithNaNAgainstItselfFailsInstanceE
 10373              		.comm	_ZN12_GLOBAL__N_147testCheckCloseWithNaNAgainstItselfFailsInstanceE,56,32
 10374              		.local	_ZN12_GLOBAL__N_127adderCheckCloseWithNaNFailsE
 10375              		.comm	_ZN12_GLOBAL__N_127adderCheckCloseWithNaNFailsE,1,1
 10376              		.local	_ZN12_GLOBAL__N_134testCheckCloseWithNaNFailsInstanceE
 10377              		.comm	_ZN12_GLOBAL__N_134testCheckCloseWithNaNFailsInstanceE,56,32
 10378              		.local	_ZN12_GLOBAL__N_148adderCheckCloseWithZeroEpsilonWorksForSameNumberE
 10379              		.comm	_ZN12_GLOBAL__N_148adderCheckCloseWithZeroEpsilonWorksForSameNumberE,1,1
 10380              		.local	_ZN12_GLOBAL__N_155testCheckCloseWithZeroEpsilonWorksForSameNumberInstanceE
 10381              		.comm	_ZN12_GLOBAL__N_155testCheckCloseWithZeroEpsilonWorksForSameNumberInstanceE,56,32
 10382              		.local	_ZN12_GLOBAL__N_120adderCheckCloseFalseE
 10383              		.comm	_ZN12_GLOBAL__N_120adderCheckCloseFalseE,1,1
 10384              		.local	_ZN12_GLOBAL__N_127testCheckCloseFalseInstanceE
 10385              		.comm	_ZN12_GLOBAL__N_127testCheckCloseFalseInstanceE,56,32
 10386              		.local	_ZN12_GLOBAL__N_119adderCheckCloseTrueE
 10387              		.comm	_ZN12_GLOBAL__N_119adderCheckCloseTrueE,1,1
 10388              		.local	_ZN12_GLOBAL__N_126testCheckCloseTrueInstanceE
 10389              		.comm	_ZN12_GLOBAL__N_126testCheckCloseTrueInstanceE,56,32
 10390              		.local	_ZN12_GLOBAL__N_137adderCheckEqualFailureIncludesDetailsE
 10391              		.comm	_ZN12_GLOBAL__N_137adderCheckEqualFailureIncludesDetailsE,1,1
 10392              		.local	_ZN12_GLOBAL__N_144testCheckEqualFailureIncludesDetailsInstanceE
 10393              		.comm	_ZN12_GLOBAL__N_144testCheckEqualFailureIncludesDetailsInstanceE,56,32
 10394              		.local	_ZN12_GLOBAL__N_152adderCheckEqualFailureIncludesCheckExpectedAndActualE
 10395              		.comm	_ZN12_GLOBAL__N_152adderCheckEqualFailureIncludesCheckExpectedAndActualE,1,1
 10396              		.local	_ZN12_GLOBAL__N_159testCheckEqualFailureIncludesCheckExpectedAndActualInstanceE
 10397              		.comm	_ZN12_GLOBAL__N_159testCheckEqualFailureIncludesCheckExpectedAndActualInstanceE,56,32
 10398              		.local	_ZN12_GLOBAL__N_154adderCheckEqualsWithStringsWorksOnContentsWithALiteralE
 10399              		.comm	_ZN12_GLOBAL__N_154adderCheckEqualsWithStringsWorksOnContentsWithALiteralE,1,1
 10400              		.local	_ZN12_GLOBAL__N_161testCheckEqualsWithStringsWorksOnContentsWithALiteralInstanceE
 10401              		.comm	_ZN12_GLOBAL__N_161testCheckEqualsWithStringsWorksOnContentsWithALiteralInstanceE,56,32
 10402              		.local	_ZN12_GLOBAL__N_155adderCheckEqualsWithStringsWorksOnContentsConstNonConstE
 10403              		.comm	_ZN12_GLOBAL__N_155adderCheckEqualsWithStringsWorksOnContentsConstNonConstE,1,1
 10404              		.local	_ZN12_GLOBAL__N_162testCheckEqualsWithStringsWorksOnContentsConstNonConstInstanceE
 10405              		.comm	_ZN12_GLOBAL__N_162testCheckEqualsWithStringsWorksOnContentsConstNonConstInstanceE,56,32
 10406              		.local	_ZN12_GLOBAL__N_155adderCheckEqualsWithStringsWorksOnContentsNonConstConstE
 10407              		.comm	_ZN12_GLOBAL__N_155adderCheckEqualsWithStringsWorksOnContentsNonConstConstE,1,1
 10408              		.local	_ZN12_GLOBAL__N_162testCheckEqualsWithStringsWorksOnContentsNonConstConstInstanceE
 10409              		.comm	_ZN12_GLOBAL__N_162testCheckEqualsWithStringsWorksOnContentsNonConstConstInstanceE,56,32
 10410              		.local	_ZN12_GLOBAL__N_152adderCheckEqualsWithStringsWorksOnContentsConstConstE
 10411              		.comm	_ZN12_GLOBAL__N_152adderCheckEqualsWithStringsWorksOnContentsConstConstE,1,1
 10412              		.local	_ZN12_GLOBAL__N_159testCheckEqualsWithStringsWorksOnContentsConstConstInstanceE
 10413              		.comm	_ZN12_GLOBAL__N_159testCheckEqualsWithStringsWorksOnContentsConstConstInstanceE,56,32
 10414              		.local	_ZN12_GLOBAL__N_158adderCheckEqualsWithStringsWorksOnContentsNonConstNonConstE
 10415              		.comm	_ZN12_GLOBAL__N_158adderCheckEqualsWithStringsWorksOnContentsNonConstNonConstE,1,1
 10416              		.local	_ZN12_GLOBAL__N_165testCheckEqualsWithStringsWorksOnContentsNonConstNonConstInstanceE
 10417              		.comm	_ZN12_GLOBAL__N_165testCheckEqualsWithStringsWorksOnContentsNonConstNonConstInstanceE,56,32
 10418              		.data
 10421              	_ZN12_GLOBAL__N_14txt2E:
 10422 0000 48656C6C 		.string	"Hello"
 10422      6F00
 10425              	_ZN12_GLOBAL__N_14txt1E:
 10426 0006 48656C6C 		.string	"Hello"
 10426      6F00
 10427              		.local	_ZN12_GLOBAL__N_150adderCheckEqualsWithStringsFailsOnDifferentStringsE
 10428              		.comm	_ZN12_GLOBAL__N_150adderCheckEqualsWithStringsFailsOnDifferentStringsE,1,1
 10429              		.local	_ZN12_GLOBAL__N_157testCheckEqualsWithStringsFailsOnDifferentStringsInstanceE
 10430              		.comm	_ZN12_GLOBAL__N_157testCheckEqualsWithStringsFailsOnDifferentStringsInstanceE,56,32
 10431              		.local	_ZN12_GLOBAL__N_131adderCheckEqualWithUnsignedLongE
 10432              		.comm	_ZN12_GLOBAL__N_131adderCheckEqualWithUnsignedLongE,1,1
 10433              		.local	_ZN12_GLOBAL__N_138testCheckEqualWithUnsignedLongInstanceE
 10434              		.comm	_ZN12_GLOBAL__N_138testCheckEqualWithUnsignedLongInstanceE,56,32
 10435              		.weakref	_ZL28__gthrw___pthread_key_createPjPFvPvE,__pthread_key_create
 10436              		.section	.rodata.cst8,"aM",@progbits,8
 10437              		.align 8
 10438              	.LC74:
 10439 0000 000000C0 		.long	3221225472
 10440 0004 CCCCEC3F 		.long	1072483532
 10441              		.align 8
 10442              	.LC76:
 10443 0008 00000040 		.long	1073741824
 10444 000c E17A843F 		.long	1065646817
 10445              		.align 8
 10446              	.LC78:
 10447 0010 000000A0 		.long	2684354560
 10448 0014 9999F13F 		.long	1072798105
 10449              		.align 8
 10450              	.LC159:
 10451 0018 000000E0 		.long	3758096384
 10452 001c FFFFFFFF 		.long	-1
 10453              		.align 8
 10454              	.LC160:
 10455 0020 000000A0 		.long	2684354560
 10456 0024 9999B93F 		.long	1069128089
 10457              		.align 8
 10458              	.LC162:
 10459 0028 00000000 		.long	0
 10460 002c 00000840 		.long	1074266112
 10461              		.align 8
 10462              	.LC164:
 10463 0030 00000080 		.long	2147483648
 10464 0034 C2F50840 		.long	1074329026
 10465              		.hidden	__dso_handle
 10466              		.ident	"GCC: (Ubuntu 4.9.2-10ubuntu13) 4.9.2"
 10467              		.section	.note.GNU-stack,"",@progbits
DEFINED SYMBOLS
                            *ABS*:0000000000000000 TestChecks.cpp
     /tmp/ccJTFade.s:11     .text._ZN17RecordingReporter13ReportSummaryEiiif:0000000000000000 _ZN17RecordingReporter13ReportSummaryEiiif
     /tmp/ccJTFade.s:34     .text:0000000000000000 _ZN12_GLOBAL__N_143TestCheckArray2DCloseFailureIncludesDetailsD2Ev
     /tmp/ccJTFade.s:10316  .rodata:0000000000001220 _ZTVN12_GLOBAL__N_143TestCheckArray2DCloseFailureIncludesDetailsE
     /tmp/ccJTFade.s:34     .text:0000000000000000 _ZN12_GLOBAL__N_143TestCheckArray2DCloseFailureIncludesDetailsD1Ev
     /tmp/ccJTFade.s:55     .text:0000000000000010 _ZN12_GLOBAL__N_133TestCheckCloseWithDoublesSucceedsD2Ev
     /tmp/ccJTFade.s:10307  .rodata:00000000000011e0 _ZTVN12_GLOBAL__N_133TestCheckCloseWithDoublesSucceedsE
     /tmp/ccJTFade.s:55     .text:0000000000000010 _ZN12_GLOBAL__N_133TestCheckCloseWithDoublesSucceedsD1Ev
     /tmp/ccJTFade.s:76     .text:0000000000000020 _ZN12_GLOBAL__N_126TestCheckArray2DCloseFalseD2Ev
     /tmp/ccJTFade.s:10298  .rodata:00000000000011a0 _ZTVN12_GLOBAL__N_126TestCheckArray2DCloseFalseE
     /tmp/ccJTFade.s:76     .text:0000000000000020 _ZN12_GLOBAL__N_126TestCheckArray2DCloseFalseD1Ev
     /tmp/ccJTFade.s:97     .text:0000000000000030 _ZN12_GLOBAL__N_125TestCheckArray2DCloseTrueD2Ev
     /tmp/ccJTFade.s:10289  .rodata:0000000000001160 _ZTVN12_GLOBAL__N_125TestCheckArray2DCloseTrueE
     /tmp/ccJTFade.s:97     .text:0000000000000030 _ZN12_GLOBAL__N_125TestCheckArray2DCloseTrueD1Ev
     /tmp/ccJTFade.s:118    .text:0000000000000040 _ZN12_GLOBAL__N_141TestCheckArrayCloseFailureIncludesDetailsD2Ev
     /tmp/ccJTFade.s:10280  .rodata:0000000000001120 _ZTVN12_GLOBAL__N_141TestCheckArrayCloseFailureIncludesDetailsE
     /tmp/ccJTFade.s:118    .text:0000000000000040 _ZN12_GLOBAL__N_141TestCheckArrayCloseFailureIncludesDetailsD1Ev
     /tmp/ccJTFade.s:139    .text:0000000000000050 _ZN12_GLOBAL__N_124TestCheckArrayCloseFalseD2Ev
     /tmp/ccJTFade.s:10271  .rodata:00000000000010e0 _ZTVN12_GLOBAL__N_124TestCheckArrayCloseFalseE
     /tmp/ccJTFade.s:139    .text:0000000000000050 _ZN12_GLOBAL__N_124TestCheckArrayCloseFalseD1Ev
     /tmp/ccJTFade.s:160    .text:0000000000000060 _ZN12_GLOBAL__N_123TestCheckArrayCloseTrueD2Ev
     /tmp/ccJTFade.s:10262  .rodata:00000000000010a0 _ZTVN12_GLOBAL__N_123TestCheckArrayCloseTrueE
     /tmp/ccJTFade.s:160    .text:0000000000000060 _ZN12_GLOBAL__N_123TestCheckArrayCloseTrueD1Ev
     /tmp/ccJTFade.s:181    .text:0000000000000070 _ZN12_GLOBAL__N_124TestCheckArrayEqualFalseD2Ev
     /tmp/ccJTFade.s:10253  .rodata:0000000000001060 _ZTVN12_GLOBAL__N_124TestCheckArrayEqualFalseE
     /tmp/ccJTFade.s:181    .text:0000000000000070 _ZN12_GLOBAL__N_124TestCheckArrayEqualFalseD1Ev
     /tmp/ccJTFade.s:202    .text:0000000000000080 _ZN12_GLOBAL__N_123TestCheckArrayEqualTrueD2Ev
     /tmp/ccJTFade.s:10244  .rodata:0000000000001020 _ZTVN12_GLOBAL__N_123TestCheckArrayEqualTrueE
     /tmp/ccJTFade.s:202    .text:0000000000000080 _ZN12_GLOBAL__N_123TestCheckArrayEqualTrueD1Ev
     /tmp/ccJTFade.s:223    .text:0000000000000090 _ZN12_GLOBAL__N_136TestCheckCloseFailureIncludesDetailsD2Ev
     /tmp/ccJTFade.s:10235  .rodata:0000000000000fe0 _ZTVN12_GLOBAL__N_136TestCheckCloseFailureIncludesDetailsE
     /tmp/ccJTFade.s:223    .text:0000000000000090 _ZN12_GLOBAL__N_136TestCheckCloseFailureIncludesDetailsD1Ev
     /tmp/ccJTFade.s:244    .text:00000000000000a0 _ZN12_GLOBAL__N_138TestCheckCloseFailureIncludesToleranceD2Ev
     /tmp/ccJTFade.s:10226  .rodata:0000000000000fa0 _ZTVN12_GLOBAL__N_138TestCheckCloseFailureIncludesToleranceE
     /tmp/ccJTFade.s:244    .text:00000000000000a0 _ZN12_GLOBAL__N_138TestCheckCloseFailureIncludesToleranceD1Ev
     /tmp/ccJTFade.s:265    .text:00000000000000b0 _ZN12_GLOBAL__N_151TestCheckCloseFailureIncludesCheckExpectedAndActualD2Ev
     /tmp/ccJTFade.s:10217  .rodata:0000000000000f60 _ZTVN12_GLOBAL__N_151TestCheckCloseFailureIncludesCheckExpectedAndActualE
     /tmp/ccJTFade.s:265    .text:00000000000000b0 _ZN12_GLOBAL__N_151TestCheckCloseFailureIncludesCheckExpectedAndActualD1Ev
     /tmp/ccJTFade.s:286    .text:00000000000000c0 _ZN12_GLOBAL__N_139TestCheckCloseWithNaNAgainstItselfFailsD2Ev
     /tmp/ccJTFade.s:10208  .rodata:0000000000000f20 _ZTVN12_GLOBAL__N_139TestCheckCloseWithNaNAgainstItselfFailsE
     /tmp/ccJTFade.s:286    .text:00000000000000c0 _ZN12_GLOBAL__N_139TestCheckCloseWithNaNAgainstItselfFailsD1Ev
     /tmp/ccJTFade.s:307    .text:00000000000000d0 _ZN12_GLOBAL__N_126TestCheckCloseWithNaNFailsD2Ev
     /tmp/ccJTFade.s:10199  .rodata:0000000000000ee0 _ZTVN12_GLOBAL__N_126TestCheckCloseWithNaNFailsE
     /tmp/ccJTFade.s:307    .text:00000000000000d0 _ZN12_GLOBAL__N_126TestCheckCloseWithNaNFailsD1Ev
     /tmp/ccJTFade.s:328    .text:00000000000000e0 _ZN12_GLOBAL__N_147TestCheckCloseWithZeroEpsilonWorksForSameNumberD2Ev
     /tmp/ccJTFade.s:10190  .rodata:0000000000000ea0 _ZTVN12_GLOBAL__N_147TestCheckCloseWithZeroEpsilonWorksForSameNumberE
     /tmp/ccJTFade.s:328    .text:00000000000000e0 _ZN12_GLOBAL__N_147TestCheckCloseWithZeroEpsilonWorksForSameNumberD1Ev
     /tmp/ccJTFade.s:349    .text:00000000000000f0 _ZN12_GLOBAL__N_119TestCheckCloseFalseD2Ev
     /tmp/ccJTFade.s:10181  .rodata:0000000000000e60 _ZTVN12_GLOBAL__N_119TestCheckCloseFalseE
     /tmp/ccJTFade.s:349    .text:00000000000000f0 _ZN12_GLOBAL__N_119TestCheckCloseFalseD1Ev
     /tmp/ccJTFade.s:370    .text:0000000000000100 _ZN12_GLOBAL__N_118TestCheckCloseTrueD2Ev
     /tmp/ccJTFade.s:10172  .rodata:0000000000000e20 _ZTVN12_GLOBAL__N_118TestCheckCloseTrueE
     /tmp/ccJTFade.s:370    .text:0000000000000100 _ZN12_GLOBAL__N_118TestCheckCloseTrueD1Ev
     /tmp/ccJTFade.s:391    .text:0000000000000110 _ZN12_GLOBAL__N_136TestCheckEqualFailureIncludesDetailsD2Ev
     /tmp/ccJTFade.s:10163  .rodata:0000000000000de0 _ZTVN12_GLOBAL__N_136TestCheckEqualFailureIncludesDetailsE
     /tmp/ccJTFade.s:391    .text:0000000000000110 _ZN12_GLOBAL__N_136TestCheckEqualFailureIncludesDetailsD1Ev
     /tmp/ccJTFade.s:412    .text:0000000000000120 _ZN12_GLOBAL__N_151TestCheckEqualFailureIncludesCheckExpectedAndActualD2Ev
     /tmp/ccJTFade.s:10154  .rodata:0000000000000da0 _ZTVN12_GLOBAL__N_151TestCheckEqualFailureIncludesCheckExpectedAndActualE
     /tmp/ccJTFade.s:412    .text:0000000000000120 _ZN12_GLOBAL__N_151TestCheckEqualFailureIncludesCheckExpectedAndActualD1Ev
     /tmp/ccJTFade.s:433    .text:0000000000000130 _ZN12_GLOBAL__N_153TestCheckEqualsWithStringsWorksOnContentsWithALiteralD2Ev
     /tmp/ccJTFade.s:10145  .rodata:0000000000000d60 _ZTVN12_GLOBAL__N_153TestCheckEqualsWithStringsWorksOnContentsWithALiteralE
     /tmp/ccJTFade.s:433    .text:0000000000000130 _ZN12_GLOBAL__N_153TestCheckEqualsWithStringsWorksOnContentsWithALiteralD1Ev
     /tmp/ccJTFade.s:454    .text:0000000000000140 _ZN12_GLOBAL__N_154TestCheckEqualsWithStringsWorksOnContentsConstNonConstD2Ev
     /tmp/ccJTFade.s:10136  .rodata:0000000000000d20 _ZTVN12_GLOBAL__N_154TestCheckEqualsWithStringsWorksOnContentsConstNonConstE
     /tmp/ccJTFade.s:454    .text:0000000000000140 _ZN12_GLOBAL__N_154TestCheckEqualsWithStringsWorksOnContentsConstNonConstD1Ev
     /tmp/ccJTFade.s:475    .text:0000000000000150 _ZN12_GLOBAL__N_154TestCheckEqualsWithStringsWorksOnContentsNonConstConstD2Ev
     /tmp/ccJTFade.s:10127  .rodata:0000000000000ce0 _ZTVN12_GLOBAL__N_154TestCheckEqualsWithStringsWorksOnContentsNonConstConstE
     /tmp/ccJTFade.s:475    .text:0000000000000150 _ZN12_GLOBAL__N_154TestCheckEqualsWithStringsWorksOnContentsNonConstConstD1Ev
     /tmp/ccJTFade.s:496    .text:0000000000000160 _ZN12_GLOBAL__N_151TestCheckEqualsWithStringsWorksOnContentsConstConstD2Ev
     /tmp/ccJTFade.s:10118  .rodata:0000000000000ca0 _ZTVN12_GLOBAL__N_151TestCheckEqualsWithStringsWorksOnContentsConstConstE
     /tmp/ccJTFade.s:496    .text:0000000000000160 _ZN12_GLOBAL__N_151TestCheckEqualsWithStringsWorksOnContentsConstConstD1Ev
     /tmp/ccJTFade.s:517    .text:0000000000000170 _ZN12_GLOBAL__N_157TestCheckEqualsWithStringsWorksOnContentsNonConstNonConstD2Ev
     /tmp/ccJTFade.s:10109  .rodata:0000000000000c60 _ZTVN12_GLOBAL__N_157TestCheckEqualsWithStringsWorksOnContentsNonConstNonConstE
     /tmp/ccJTFade.s:517    .text:0000000000000170 _ZN12_GLOBAL__N_157TestCheckEqualsWithStringsWorksOnContentsNonConstNonConstD1Ev
     /tmp/ccJTFade.s:538    .text:0000000000000180 _ZN12_GLOBAL__N_149TestCheckEqualsWithStringsFailsOnDifferentStringsD2Ev
     /tmp/ccJTFade.s:10100  .rodata:0000000000000c20 _ZTVN12_GLOBAL__N_149TestCheckEqualsWithStringsFailsOnDifferentStringsE
     /tmp/ccJTFade.s:538    .text:0000000000000180 _ZN12_GLOBAL__N_149TestCheckEqualsWithStringsFailsOnDifferentStringsD1Ev
     /tmp/ccJTFade.s:559    .text:0000000000000190 _ZN12_GLOBAL__N_130TestCheckEqualWithUnsignedLongD2Ev
     /tmp/ccJTFade.s:10091  .rodata:0000000000000be0 _ZTVN12_GLOBAL__N_130TestCheckEqualWithUnsignedLongE
     /tmp/ccJTFade.s:559    .text:0000000000000190 _ZN12_GLOBAL__N_130TestCheckEqualWithUnsignedLongD1Ev
     /tmp/ccJTFade.s:580    .text:00000000000001a0 _ZN12_GLOBAL__N_143TestCheckArray2DCloseFailureIncludesDetailsD0Ev
     /tmp/ccJTFade.s:608    .text:00000000000001c0 _ZN12_GLOBAL__N_133TestCheckCloseWithDoublesSucceedsD0Ev
     /tmp/ccJTFade.s:636    .text:00000000000001e0 _ZN12_GLOBAL__N_126TestCheckArray2DCloseFalseD0Ev
     /tmp/ccJTFade.s:664    .text:0000000000000200 _ZN12_GLOBAL__N_125TestCheckArray2DCloseTrueD0Ev
     /tmp/ccJTFade.s:692    .text:0000000000000220 _ZN12_GLOBAL__N_141TestCheckArrayCloseFailureIncludesDetailsD0Ev
     /tmp/ccJTFade.s:720    .text:0000000000000240 _ZN12_GLOBAL__N_124TestCheckArrayCloseFalseD0Ev
     /tmp/ccJTFade.s:748    .text:0000000000000260 _ZN12_GLOBAL__N_123TestCheckArrayCloseTrueD0Ev
     /tmp/ccJTFade.s:776    .text:0000000000000280 _ZN12_GLOBAL__N_124TestCheckArrayEqualFalseD0Ev
     /tmp/ccJTFade.s:804    .text:00000000000002a0 _ZN12_GLOBAL__N_123TestCheckArrayEqualTrueD0Ev
     /tmp/ccJTFade.s:832    .text:00000000000002c0 _ZN12_GLOBAL__N_136TestCheckCloseFailureIncludesDetailsD0Ev
     /tmp/ccJTFade.s:860    .text:00000000000002e0 _ZN12_GLOBAL__N_138TestCheckCloseFailureIncludesToleranceD0Ev
     /tmp/ccJTFade.s:888    .text:0000000000000300 _ZN12_GLOBAL__N_151TestCheckCloseFailureIncludesCheckExpectedAndActualD0Ev
     /tmp/ccJTFade.s:916    .text:0000000000000320 _ZN12_GLOBAL__N_139TestCheckCloseWithNaNAgainstItselfFailsD0Ev
     /tmp/ccJTFade.s:944    .text:0000000000000340 _ZN12_GLOBAL__N_126TestCheckCloseWithNaNFailsD0Ev
     /tmp/ccJTFade.s:972    .text:0000000000000360 _ZN12_GLOBAL__N_147TestCheckCloseWithZeroEpsilonWorksForSameNumberD0Ev
     /tmp/ccJTFade.s:1000   .text:0000000000000380 _ZN12_GLOBAL__N_119TestCheckCloseFalseD0Ev
     /tmp/ccJTFade.s:1028   .text:00000000000003a0 _ZN12_GLOBAL__N_118TestCheckCloseTrueD0Ev
     /tmp/ccJTFade.s:1056   .text:00000000000003c0 _ZN12_GLOBAL__N_136TestCheckEqualFailureIncludesDetailsD0Ev
     /tmp/ccJTFade.s:1084   .text:00000000000003e0 _ZN12_GLOBAL__N_151TestCheckEqualFailureIncludesCheckExpectedAndActualD0Ev
     /tmp/ccJTFade.s:1112   .text:0000000000000400 _ZN12_GLOBAL__N_153TestCheckEqualsWithStringsWorksOnContentsWithALiteralD0Ev
     /tmp/ccJTFade.s:1140   .text:0000000000000420 _ZN12_GLOBAL__N_154TestCheckEqualsWithStringsWorksOnContentsConstNonConstD0Ev
     /tmp/ccJTFade.s:1168   .text:0000000000000440 _ZN12_GLOBAL__N_154TestCheckEqualsWithStringsWorksOnContentsNonConstConstD0Ev
     /tmp/ccJTFade.s:1196   .text:0000000000000460 _ZN12_GLOBAL__N_151TestCheckEqualsWithStringsWorksOnContentsConstConstD0Ev
     /tmp/ccJTFade.s:1224   .text:0000000000000480 _ZN12_GLOBAL__N_157TestCheckEqualsWithStringsWorksOnContentsNonConstNonConstD0Ev
     /tmp/ccJTFade.s:1252   .text:00000000000004a0 _ZN12_GLOBAL__N_149TestCheckEqualsWithStringsFailsOnDifferentStringsD0Ev
     /tmp/ccJTFade.s:1280   .text:00000000000004c0 _ZN12_GLOBAL__N_130TestCheckEqualWithUnsignedLongD0Ev
     /tmp/ccJTFade.s:1309   .text._ZN17RecordingReporter15ReportTestStartERKN8UnitTest11TestDetailsE:0000000000000000 _ZN17RecordingReporter15ReportTestStartERKN8UnitTest11TestDetailsE
     /tmp/ccJTFade.s:1353   .text._ZN17RecordingReporter13ReportFailureERKN8UnitTest11TestDetailsEPKc:0000000000000000 _ZN17RecordingReporter13ReportFailureERKN8UnitTest11TestDetailsEPKc
     /tmp/ccJTFade.s:1409   .text._ZN17RecordingReporter16ReportTestFinishERKN8UnitTest11TestDetailsEf:0000000000000000 _ZN17RecordingReporter16ReportTestFinishERKN8UnitTest11TestDetailsEf
     /tmp/ccJTFade.s:1457   .text._ZN17RecordingReporterD2Ev:0000000000000000 _ZN17RecordingReporterD2Ev
     /tmp/ccJTFade.s:10078  .rodata._ZTV17RecordingReporter:0000000000000000 _ZTV17RecordingReporter
     /tmp/ccJTFade.s:1457   .text._ZN17RecordingReporterD2Ev:0000000000000000 _ZN17RecordingReporterD1Ev
     /tmp/ccJTFade.s:1480   .text._ZN17RecordingReporterD0Ev:0000000000000000 _ZN17RecordingReporterD0Ev
     /tmp/ccJTFade.s:1509   .text._ZN8UnitTest15MemoryOutStreamD1Ev:0000000000000000 _ZN8UnitTest15MemoryOutStreamD1Ev
     /tmp/ccJTFade.s:10062  .rodata._ZTVN8UnitTest15MemoryOutStreamE:0000000000000000 _ZTVN8UnitTest15MemoryOutStreamE
     /tmp/ccJTFade.s:10034  .rodata._ZTCN8UnitTest15MemoryOutStreamE0_St19basic_ostringstreamIcSt11char_traitsIcESaIcEE:0000000000000000 _ZTCN8UnitTest15MemoryOutStreamE0_St19basic_ostringstreamIcSt11char_traitsIcESaIcEE
     /tmp/ccJTFade.s:1613   .text._ZN8UnitTest15MemoryOutStreamD1Ev:0000000000000130 _ZTv0_n24_N8UnitTest15MemoryOutStreamD1Ev
     /tmp/ccJTFade.s:1633   .text._ZN8UnitTest15MemoryOutStreamD0Ev:0000000000000000 _ZN8UnitTest15MemoryOutStreamD0Ev
     /tmp/ccJTFade.s:1739   .text._ZN8UnitTest15MemoryOutStreamD0Ev:0000000000000130 _ZTv0_n24_N8UnitTest15MemoryOutStreamD0Ev
     /tmp/ccJTFade.s:1759   .text._ZNSt15basic_stringbufIcSt11char_traitsIcESaIcEED2Ev:0000000000000000 _ZNSt15basic_stringbufIcSt11char_traitsIcESaIcEED2Ev
     /tmp/ccJTFade.s:1759   .text._ZNSt15basic_stringbufIcSt11char_traitsIcESaIcEED2Ev:0000000000000000 _ZNSt15basic_stringbufIcSt11char_traitsIcESaIcEED1Ev
     /tmp/ccJTFade.s:1845   .text:00000000000004e0 _ZN8UnitTest17CheckArray2DCloseIA3_A3_fS2_fEEvRNS_11TestResultsERKT_RKT0_iiRKT1_RKNS_11TestDetailsE.constprop.12
     /tmp/ccJTFade.s:10017  .rodata._ZTCN8UnitTest15MemoryOutStreamE0_So:0000000000000000 _ZTCN8UnitTest15MemoryOutStreamE0_So
     /tmp/ccJTFade.s:2314   .text:0000000000000ae0 _ZNK12_GLOBAL__N_151TestCheckCloseFailureIncludesCheckExpectedAndActual7RunImplEv
     /tmp/ccJTFade.s:2721   .text:0000000000001090 _ZNK12_GLOBAL__N_130TestCheckEqualWithUnsignedLong7RunImplEv
     /tmp/ccJTFade.s:2843   .text:0000000000001140 _ZNK12_GLOBAL__N_133TestCheckCloseWithDoublesSucceeds7RunImplEv
     /tmp/ccJTFade.s:2962   .text:00000000000011e0 _ZNK12_GLOBAL__N_138TestCheckCloseFailureIncludesTolerance7RunImplEv
     /tmp/ccJTFade.s:3309   .text:00000000000016e0 _ZN8UnitTest15CheckArrayEqualIA3_iS1_EEvRNS_11TestResultsERKT_RKT0_iRKNS_11TestDetailsE.constprop.14
     /tmp/ccJTFade.s:3593   .text:0000000000001a50 _ZN8UnitTest15CheckArrayCloseIA3_fS1_fEEvRNS_11TestResultsERKT_RKT0_iRKT1_RKNS_11TestDetailsE.constprop.13
     /tmp/ccJTFade.s:3929   .text._ZNSt15basic_stringbufIcSt11char_traitsIcESaIcEED0Ev:0000000000000000 _ZNSt15basic_stringbufIcSt11char_traitsIcESaIcEED0Ev
     /tmp/ccJTFade.s:4001   .text._ZN8UnitTest10CheckEqualIiiEEvRNS_11TestResultsERKT_RKT0_RKNS_11TestDetailsE:0000000000000000 _ZN8UnitTest10CheckEqualIiiEEvRNS_11TestResultsERKT_RKT0_RKNS_11TestDetailsE
     /tmp/ccJTFade.s:4284   .text:0000000000001ec0 _ZNK12_GLOBAL__N_143TestCheckArray2DCloseFailureIncludesDetails7RunImplEv
     /tmp/ccJTFade.s:4628   .text:0000000000002320 _ZNK12_GLOBAL__N_126TestCheckArray2DCloseFalse7RunImplEv
     /tmp/ccJTFade.s:4790   .text:00000000000024f0 _ZNK12_GLOBAL__N_125TestCheckArray2DCloseTrue7RunImplEv
     /tmp/ccJTFade.s:4968   .text:00000000000026c0 _ZNK12_GLOBAL__N_136TestCheckEqualFailureIncludesDetails7RunImplEv
     /tmp/ccJTFade.s:5310   .text:0000000000002a40 _ZNK12_GLOBAL__N_151TestCheckEqualFailureIncludesCheckExpectedAndActual7RunImplEv
     /tmp/ccJTFade.s:5548   .text:0000000000002cd0 _ZNK12_GLOBAL__N_153TestCheckEqualsWithStringsWorksOnContentsWithALiteral7RunImplEv
     /tmp/ccJTFade.s:10425  .data:0000000000000006 _ZN12_GLOBAL__N_14txt1E
     /tmp/ccJTFade.s:5686   .text:0000000000002de0 _ZNK12_GLOBAL__N_154TestCheckEqualsWithStringsWorksOnContentsConstNonConst7RunImplEv
     /tmp/ccJTFade.s:10421  .data:0000000000000000 _ZN12_GLOBAL__N_14txt2E
     /tmp/ccJTFade.s:5824   .text:0000000000002ef0 _ZNK12_GLOBAL__N_154TestCheckEqualsWithStringsWorksOnContentsNonConstConst7RunImplEv
     /tmp/ccJTFade.s:5962   .text:0000000000003000 _ZNK12_GLOBAL__N_151TestCheckEqualsWithStringsWorksOnContentsConstConst7RunImplEv
     /tmp/ccJTFade.s:6100   .text:0000000000003110 _ZNK12_GLOBAL__N_157TestCheckEqualsWithStringsWorksOnContentsNonConstNonConst7RunImplEv
     /tmp/ccJTFade.s:6238   .text:0000000000003220 _ZNK12_GLOBAL__N_149TestCheckEqualsWithStringsFailsOnDifferentStrings7RunImplEv
     /tmp/ccJTFade.s:6397   .text:0000000000003350 _ZNK12_GLOBAL__N_141TestCheckArrayCloseFailureIncludesDetails7RunImplEv
     /tmp/ccJTFade.s:6725   .text:0000000000003720 _ZNK12_GLOBAL__N_124TestCheckArrayCloseFalse7RunImplEv
     /tmp/ccJTFade.s:6871   .text:0000000000003860 _ZNK12_GLOBAL__N_123TestCheckArrayCloseTrue7RunImplEv
     /tmp/ccJTFade.s:7017   .text:00000000000039a0 _ZNK12_GLOBAL__N_124TestCheckArrayEqualFalse7RunImplEv
     /tmp/ccJTFade.s:7161   .text:0000000000003ae0 _ZNK12_GLOBAL__N_123TestCheckArrayEqualTrue7RunImplEv
     /tmp/ccJTFade.s:7302   .text:0000000000003c00 _ZNK12_GLOBAL__N_139TestCheckCloseWithNaNAgainstItselfFails7RunImplEv
     /tmp/ccJTFade.s:7623   .text:0000000000004030 _ZNK12_GLOBAL__N_126TestCheckCloseWithNaNFails7RunImplEv
     /tmp/ccJTFade.s:7944   .text:0000000000004460 _ZNK12_GLOBAL__N_119TestCheckCloseFalse7RunImplEv
     /tmp/ccJTFade.s:8265   .text:0000000000004890 _ZNK12_GLOBAL__N_118TestCheckCloseTrue7RunImplEv
     /tmp/ccJTFade.s:8398   .text:0000000000004980 _ZNK12_GLOBAL__N_147TestCheckCloseWithZeroEpsilonWorksForSameNumber7RunImplEv
     /tmp/ccJTFade.s:8530   .text._ZN8UnitTest10CheckCloseIiifEEvRNS_11TestResultsERKT_RKT0_RKT1_RKNS_11TestDetailsE:0000000000000000 _ZN8UnitTest10CheckCloseIiifEEvRNS_11TestResultsERKT_RKT0_RKT1_RKNS_11TestDetailsE
     /tmp/ccJTFade.s:8830   .text:0000000000004a70 _ZNK12_GLOBAL__N_136TestCheckCloseFailureIncludesDetails7RunImplEv
     /tmp/ccJTFade.s:9233   .text.startup:0000000000000000 _GLOBAL__sub_I_TestChecks.cpp
     /tmp/ccJTFade.s:10434  .bss:0000000000000660 _ZN12_GLOBAL__N_138testCheckEqualWithUnsignedLongInstanceE
     /tmp/ccJTFade.s:10430  .bss:0000000000000658 _ZN12_GLOBAL__N_131adderCheckEqualWithUnsignedLongE
     /tmp/ccJTFade.s:10430  .bss:0000000000000620 _ZN12_GLOBAL__N_157testCheckEqualsWithStringsFailsOnDifferentStringsInstanceE
     /tmp/ccJTFade.s:10417  .bss:0000000000000618 _ZN12_GLOBAL__N_150adderCheckEqualsWithStringsFailsOnDifferentStringsE
     /tmp/ccJTFade.s:10417  .bss:00000000000005e0 _ZN12_GLOBAL__N_165testCheckEqualsWithStringsWorksOnContentsNonConstNonConstInstanceE
     /tmp/ccJTFade.s:10413  .bss:00000000000005d8 _ZN12_GLOBAL__N_158adderCheckEqualsWithStringsWorksOnContentsNonConstNonConstE
     /tmp/ccJTFade.s:10413  .bss:00000000000005a0 _ZN12_GLOBAL__N_159testCheckEqualsWithStringsWorksOnContentsConstConstInstanceE
     /tmp/ccJTFade.s:10409  .bss:0000000000000598 _ZN12_GLOBAL__N_152adderCheckEqualsWithStringsWorksOnContentsConstConstE
     /tmp/ccJTFade.s:10409  .bss:0000000000000560 _ZN12_GLOBAL__N_162testCheckEqualsWithStringsWorksOnContentsNonConstConstInstanceE
     /tmp/ccJTFade.s:10405  .bss:0000000000000558 _ZN12_GLOBAL__N_155adderCheckEqualsWithStringsWorksOnContentsNonConstConstE
     /tmp/ccJTFade.s:10405  .bss:0000000000000520 _ZN12_GLOBAL__N_162testCheckEqualsWithStringsWorksOnContentsConstNonConstInstanceE
     /tmp/ccJTFade.s:10401  .bss:0000000000000518 _ZN12_GLOBAL__N_155adderCheckEqualsWithStringsWorksOnContentsConstNonConstE
     /tmp/ccJTFade.s:10401  .bss:00000000000004e0 _ZN12_GLOBAL__N_161testCheckEqualsWithStringsWorksOnContentsWithALiteralInstanceE
     /tmp/ccJTFade.s:10397  .bss:00000000000004d8 _ZN12_GLOBAL__N_154adderCheckEqualsWithStringsWorksOnContentsWithALiteralE
     /tmp/ccJTFade.s:10397  .bss:00000000000004a0 _ZN12_GLOBAL__N_159testCheckEqualFailureIncludesCheckExpectedAndActualInstanceE
     /tmp/ccJTFade.s:10393  .bss:0000000000000498 _ZN12_GLOBAL__N_152adderCheckEqualFailureIncludesCheckExpectedAndActualE
     /tmp/ccJTFade.s:10393  .bss:0000000000000460 _ZN12_GLOBAL__N_144testCheckEqualFailureIncludesDetailsInstanceE
     /tmp/ccJTFade.s:10389  .bss:0000000000000458 _ZN12_GLOBAL__N_137adderCheckEqualFailureIncludesDetailsE
     /tmp/ccJTFade.s:10389  .bss:0000000000000420 _ZN12_GLOBAL__N_126testCheckCloseTrueInstanceE
     /tmp/ccJTFade.s:10385  .bss:0000000000000418 _ZN12_GLOBAL__N_119adderCheckCloseTrueE
     /tmp/ccJTFade.s:10385  .bss:00000000000003e0 _ZN12_GLOBAL__N_127testCheckCloseFalseInstanceE
     /tmp/ccJTFade.s:10381  .bss:00000000000003d8 _ZN12_GLOBAL__N_120adderCheckCloseFalseE
     /tmp/ccJTFade.s:10381  .bss:00000000000003a0 _ZN12_GLOBAL__N_155testCheckCloseWithZeroEpsilonWorksForSameNumberInstanceE
     /tmp/ccJTFade.s:10377  .bss:0000000000000398 _ZN12_GLOBAL__N_148adderCheckCloseWithZeroEpsilonWorksForSameNumberE
     /tmp/ccJTFade.s:10377  .bss:0000000000000360 _ZN12_GLOBAL__N_134testCheckCloseWithNaNFailsInstanceE
     /tmp/ccJTFade.s:10373  .bss:0000000000000358 _ZN12_GLOBAL__N_127adderCheckCloseWithNaNFailsE
     /tmp/ccJTFade.s:10373  .bss:0000000000000320 _ZN12_GLOBAL__N_147testCheckCloseWithNaNAgainstItselfFailsInstanceE
     /tmp/ccJTFade.s:10369  .bss:0000000000000318 _ZN12_GLOBAL__N_140adderCheckCloseWithNaNAgainstItselfFailsE
     /tmp/ccJTFade.s:10369  .bss:00000000000002e0 _ZN12_GLOBAL__N_159testCheckCloseFailureIncludesCheckExpectedAndActualInstanceE
     /tmp/ccJTFade.s:10365  .bss:00000000000002d8 _ZN12_GLOBAL__N_152adderCheckCloseFailureIncludesCheckExpectedAndActualE
     /tmp/ccJTFade.s:10365  .bss:00000000000002a0 _ZN12_GLOBAL__N_146testCheckCloseFailureIncludesToleranceInstanceE
     /tmp/ccJTFade.s:10361  .bss:0000000000000298 _ZN12_GLOBAL__N_139adderCheckCloseFailureIncludesToleranceE
     /tmp/ccJTFade.s:10361  .bss:0000000000000260 _ZN12_GLOBAL__N_144testCheckCloseFailureIncludesDetailsInstanceE
     /tmp/ccJTFade.s:10357  .bss:0000000000000258 _ZN12_GLOBAL__N_137adderCheckCloseFailureIncludesDetailsE
     /tmp/ccJTFade.s:10357  .bss:0000000000000220 _ZN12_GLOBAL__N_131testCheckArrayEqualTrueInstanceE
     /tmp/ccJTFade.s:10353  .bss:0000000000000218 _ZN12_GLOBAL__N_124adderCheckArrayEqualTrueE
     /tmp/ccJTFade.s:10353  .bss:00000000000001e0 _ZN12_GLOBAL__N_132testCheckArrayEqualFalseInstanceE
     /tmp/ccJTFade.s:10349  .bss:00000000000001d8 _ZN12_GLOBAL__N_125adderCheckArrayEqualFalseE
     /tmp/ccJTFade.s:10349  .bss:00000000000001a0 _ZN12_GLOBAL__N_131testCheckArrayCloseTrueInstanceE
     /tmp/ccJTFade.s:10345  .bss:0000000000000198 _ZN12_GLOBAL__N_124adderCheckArrayCloseTrueE
     /tmp/ccJTFade.s:10345  .bss:0000000000000160 _ZN12_GLOBAL__N_132testCheckArrayCloseFalseInstanceE
     /tmp/ccJTFade.s:10341  .bss:0000000000000158 _ZN12_GLOBAL__N_125adderCheckArrayCloseFalseE
     /tmp/ccJTFade.s:10341  .bss:0000000000000120 _ZN12_GLOBAL__N_149testCheckArrayCloseFailureIncludesDetailsInstanceE
     /tmp/ccJTFade.s:10337  .bss:0000000000000118 _ZN12_GLOBAL__N_142adderCheckArrayCloseFailureIncludesDetailsE
     /tmp/ccJTFade.s:10337  .bss:00000000000000e0 _ZN12_GLOBAL__N_133testCheckArray2DCloseTrueInstanceE
     /tmp/ccJTFade.s:10333  .bss:00000000000000d8 _ZN12_GLOBAL__N_126adderCheckArray2DCloseTrueE
     /tmp/ccJTFade.s:10333  .bss:00000000000000a0 _ZN12_GLOBAL__N_134testCheckArray2DCloseFalseInstanceE
     /tmp/ccJTFade.s:10329  .bss:0000000000000098 _ZN12_GLOBAL__N_127adderCheckArray2DCloseFalseE
     /tmp/ccJTFade.s:10329  .bss:0000000000000060 _ZN12_GLOBAL__N_141testCheckCloseWithDoublesSucceedsInstanceE
     /tmp/ccJTFade.s:10325  .bss:0000000000000058 _ZN12_GLOBAL__N_134adderCheckCloseWithDoublesSucceedsE
     /tmp/ccJTFade.s:10325  .bss:0000000000000020 _ZN12_GLOBAL__N_151testCheckArray2DCloseFailureIncludesDetailsInstanceE
                             .bss:0000000000000000 _ZN12_GLOBAL__N_144adderCheckArray2DCloseFailureIncludesDetailsE
     /tmp/ccJTFade.s:9670   .rodata:0000000000000000 _ZTSN12_GLOBAL__N_130TestCheckEqualWithUnsignedLongE
     /tmp/ccJTFade.s:9675   .rodata:0000000000000040 _ZTSN12_GLOBAL__N_149TestCheckEqualsWithStringsFailsOnDifferentStringsE
     /tmp/ccJTFade.s:9680   .rodata:00000000000000c0 _ZTSN12_GLOBAL__N_157TestCheckEqualsWithStringsWorksOnContentsNonConstNonConstE
     /tmp/ccJTFade.s:9685   .rodata:0000000000000140 _ZTSN12_GLOBAL__N_151TestCheckEqualsWithStringsWorksOnContentsConstConstE
     /tmp/ccJTFade.s:9690   .rodata:00000000000001c0 _ZTSN12_GLOBAL__N_154TestCheckEqualsWithStringsWorksOnContentsNonConstConstE
     /tmp/ccJTFade.s:9695   .rodata:0000000000000240 _ZTSN12_GLOBAL__N_154TestCheckEqualsWithStringsWorksOnContentsConstNonConstE
     /tmp/ccJTFade.s:9700   .rodata:00000000000002c0 _ZTSN12_GLOBAL__N_153TestCheckEqualsWithStringsWorksOnContentsWithALiteralE
     /tmp/ccJTFade.s:9705   .rodata:0000000000000340 _ZTSN12_GLOBAL__N_151TestCheckEqualFailureIncludesCheckExpectedAndActualE
     /tmp/ccJTFade.s:9710   .rodata:00000000000003a0 _ZTSN12_GLOBAL__N_136TestCheckEqualFailureIncludesDetailsE
     /tmp/ccJTFade.s:9715   .rodata:00000000000003e0 _ZTSN12_GLOBAL__N_118TestCheckCloseTrueE
     /tmp/ccJTFade.s:9720   .rodata:0000000000000420 _ZTSN12_GLOBAL__N_119TestCheckCloseFalseE
     /tmp/ccJTFade.s:9725   .rodata:0000000000000480 _ZTSN12_GLOBAL__N_147TestCheckCloseWithZeroEpsilonWorksForSameNumberE
     /tmp/ccJTFade.s:9730   .rodata:00000000000004e0 _ZTSN12_GLOBAL__N_126TestCheckCloseWithNaNFailsE
     /tmp/ccJTFade.s:9735   .rodata:0000000000000520 _ZTSN12_GLOBAL__N_139TestCheckCloseWithNaNAgainstItselfFailsE
     /tmp/ccJTFade.s:9740   .rodata:0000000000000580 _ZTSN12_GLOBAL__N_151TestCheckCloseFailureIncludesCheckExpectedAndActualE
     /tmp/ccJTFade.s:9745   .rodata:00000000000005e0 _ZTSN12_GLOBAL__N_138TestCheckCloseFailureIncludesToleranceE
     /tmp/ccJTFade.s:9750   .rodata:0000000000000620 _ZTSN12_GLOBAL__N_136TestCheckCloseFailureIncludesDetailsE
     /tmp/ccJTFade.s:9755   .rodata:0000000000000660 _ZTSN12_GLOBAL__N_123TestCheckArrayEqualTrueE
     /tmp/ccJTFade.s:9760   .rodata:00000000000006a0 _ZTSN12_GLOBAL__N_124TestCheckArrayEqualFalseE
     /tmp/ccJTFade.s:9765   .rodata:00000000000006e0 _ZTSN12_GLOBAL__N_123TestCheckArrayCloseTrueE
     /tmp/ccJTFade.s:9770   .rodata:0000000000000720 _ZTSN12_GLOBAL__N_124TestCheckArrayCloseFalseE
     /tmp/ccJTFade.s:9775   .rodata:0000000000000760 _ZTSN12_GLOBAL__N_141TestCheckArrayCloseFailureIncludesDetailsE
     /tmp/ccJTFade.s:9780   .rodata:00000000000007a0 _ZTSN12_GLOBAL__N_125TestCheckArray2DCloseTrueE
     /tmp/ccJTFade.s:9785   .rodata:00000000000007e0 _ZTSN12_GLOBAL__N_126TestCheckArray2DCloseFalseE
     /tmp/ccJTFade.s:9790   .rodata:0000000000000820 _ZTSN12_GLOBAL__N_133TestCheckCloseWithDoublesSucceedsE
     /tmp/ccJTFade.s:9795   .rodata:0000000000000860 _ZTSN12_GLOBAL__N_143TestCheckArray2DCloseFailureIncludesDetailsE
     /tmp/ccJTFade.s:9800   .rodata:00000000000008a0 _ZTIN12_GLOBAL__N_143TestCheckArray2DCloseFailureIncludesDetailsE
     /tmp/ccJTFade.s:9807   .rodata:00000000000008c0 _ZTIN12_GLOBAL__N_133TestCheckCloseWithDoublesSucceedsE
     /tmp/ccJTFade.s:9814   .rodata:00000000000008e0 _ZTIN12_GLOBAL__N_126TestCheckArray2DCloseFalseE
     /tmp/ccJTFade.s:9821   .rodata:0000000000000900 _ZTIN12_GLOBAL__N_125TestCheckArray2DCloseTrueE
     /tmp/ccJTFade.s:9828   .rodata:0000000000000920 _ZTIN12_GLOBAL__N_141TestCheckArrayCloseFailureIncludesDetailsE
     /tmp/ccJTFade.s:9835   .rodata:0000000000000940 _ZTIN12_GLOBAL__N_124TestCheckArrayCloseFalseE
     /tmp/ccJTFade.s:9842   .rodata:0000000000000960 _ZTIN12_GLOBAL__N_123TestCheckArrayCloseTrueE
     /tmp/ccJTFade.s:9849   .rodata:0000000000000980 _ZTIN12_GLOBAL__N_124TestCheckArrayEqualFalseE
     /tmp/ccJTFade.s:9856   .rodata:00000000000009a0 _ZTIN12_GLOBAL__N_123TestCheckArrayEqualTrueE
     /tmp/ccJTFade.s:9863   .rodata:00000000000009c0 _ZTIN12_GLOBAL__N_136TestCheckCloseFailureIncludesDetailsE
     /tmp/ccJTFade.s:9870   .rodata:00000000000009e0 _ZTIN12_GLOBAL__N_138TestCheckCloseFailureIncludesToleranceE
     /tmp/ccJTFade.s:9877   .rodata:0000000000000a00 _ZTIN12_GLOBAL__N_151TestCheckCloseFailureIncludesCheckExpectedAndActualE
     /tmp/ccJTFade.s:9884   .rodata:0000000000000a20 _ZTIN12_GLOBAL__N_139TestCheckCloseWithNaNAgainstItselfFailsE
     /tmp/ccJTFade.s:9891   .rodata:0000000000000a40 _ZTIN12_GLOBAL__N_126TestCheckCloseWithNaNFailsE
     /tmp/ccJTFade.s:9898   .rodata:0000000000000a60 _ZTIN12_GLOBAL__N_147TestCheckCloseWithZeroEpsilonWorksForSameNumberE
     /tmp/ccJTFade.s:9905   .rodata:0000000000000a80 _ZTIN12_GLOBAL__N_119TestCheckCloseFalseE
     /tmp/ccJTFade.s:9912   .rodata:0000000000000aa0 _ZTIN12_GLOBAL__N_118TestCheckCloseTrueE
     /tmp/ccJTFade.s:9919   .rodata:0000000000000ac0 _ZTIN12_GLOBAL__N_136TestCheckEqualFailureIncludesDetailsE
     /tmp/ccJTFade.s:9926   .rodata:0000000000000ae0 _ZTIN12_GLOBAL__N_151TestCheckEqualFailureIncludesCheckExpectedAndActualE
     /tmp/ccJTFade.s:9933   .rodata:0000000000000b00 _ZTIN12_GLOBAL__N_153TestCheckEqualsWithStringsWorksOnContentsWithALiteralE
     /tmp/ccJTFade.s:9940   .rodata:0000000000000b20 _ZTIN12_GLOBAL__N_154TestCheckEqualsWithStringsWorksOnContentsConstNonConstE
     /tmp/ccJTFade.s:9947   .rodata:0000000000000b40 _ZTIN12_GLOBAL__N_154TestCheckEqualsWithStringsWorksOnContentsNonConstConstE
     /tmp/ccJTFade.s:9954   .rodata:0000000000000b60 _ZTIN12_GLOBAL__N_151TestCheckEqualsWithStringsWorksOnContentsConstConstE
     /tmp/ccJTFade.s:9961   .rodata:0000000000000b80 _ZTIN12_GLOBAL__N_157TestCheckEqualsWithStringsWorksOnContentsNonConstNonConstE
     /tmp/ccJTFade.s:9968   .rodata:0000000000000ba0 _ZTIN12_GLOBAL__N_149TestCheckEqualsWithStringsFailsOnDifferentStringsE
     /tmp/ccJTFade.s:9975   .rodata:0000000000000bc0 _ZTIN12_GLOBAL__N_130TestCheckEqualWithUnsignedLongE
     /tmp/ccJTFade.s:9984   .rodata._ZTIN8UnitTest15MemoryOutStreamE:0000000000000000 _ZTIN8UnitTest15MemoryOutStreamE
     /tmp/ccJTFade.s:9993   .rodata._ZTSN8UnitTest15MemoryOutStreamE:0000000000000000 _ZTSN8UnitTest15MemoryOutStreamE
     /tmp/ccJTFade.s:10000  .rodata._ZTI17RecordingReporter:0000000000000000 _ZTI17RecordingReporter
     /tmp/ccJTFade.s:10009  .rodata._ZTS17RecordingReporter:0000000000000000 _ZTS17RecordingReporter
     /tmp/ccJTFade.s:10050  .rodata._ZTTN8UnitTest15MemoryOutStreamE:0000000000000000 _ZTTN8UnitTest15MemoryOutStreamE
     /tmp/ccJTFade.s:10438  .rodata.cst8:0000000000000000 .LC74
     /tmp/ccJTFade.s:10442  .rodata.cst8:0000000000000008 .LC76
     /tmp/ccJTFade.s:10446  .rodata.cst8:0000000000000010 .LC78
     /tmp/ccJTFade.s:10450  .rodata.cst8:0000000000000018 .LC159
     /tmp/ccJTFade.s:10454  .rodata.cst8:0000000000000020 .LC160
     /tmp/ccJTFade.s:10458  .rodata.cst8:0000000000000028 .LC162
     /tmp/ccJTFade.s:10462  .rodata.cst8:0000000000000030 .LC164
                           .group:0000000000000000 _ZN17RecordingReporterD5Ev
                           .group:0000000000000000 _ZNSt15basic_stringbufIcSt11char_traitsIcESaIcEED5Ev

UNDEFINED SYMBOLS
_ZN8UnitTest4TestD2Ev
_ZdlPv
__strcpy_chk
_ZN8UnitTest12TestReporterD2Ev
_ZNSs4_Rep20_S_empty_rep_storageE
_ZTVSt15basic_stringbufIcSt11char_traitsIcESaIcEE
_ZTVSt15basic_streambufIcSt11char_traitsIcEE
_ZNSt6localeD1Ev
_ZTVSt9basic_iosIcSt11char_traitsIcEE
_ZNSt8ios_baseD2Ev
_ZNSs4_Rep10_M_destroyERKSaIcE
__stack_chk_fail
__gxx_personality_v0
_ZNSt8ios_baseC2Ev
_ZNSt9basic_iosIcSt11char_traitsIcEE4initEPSt15basic_streambufIcS1_E
_ZNSt6localeC1Ev
_ZSt16__ostream_insertIcSt11char_traitsIcEERSt13basic_ostreamIT_T0_ES6_PKS3_l
_ZNSo9_M_insertIdEERSoT_
_ZNK8UnitTest15MemoryOutStream7GetTextEv
_ZN8UnitTest11TestResults13OnTestFailureERKNS_11TestDetailsEPKc
_Unwind_Resume
_ZN8UnitTest11TestResultsC1EPNS_12TestReporterE
_ZN8UnitTest11TestDetailsC1EPKcS2_S2_i
strstr
_ZN8UnitTest11CurrentTest7DetailsEv
_ZN8UnitTest11TestDetailsC1ERKS0_i
_ZN8UnitTest11CurrentTest7ResultsEv
__cxa_begin_catch
__cxa_end_catch
_ZNSolsEi
_ZN8UnitTest10CheckEqualERNS_11TestResultsEPKcPcRKNS_11TestDetailsE
_ZNK8UnitTest11TestResults15GetFailureCountEv
_ZN8UnitTest10CheckEqualERNS_11TestResultsEPKcS3_RKNS_11TestDetailsE
_ZN8UnitTest10CheckEqualERNS_11TestResultsEPcPKcRKNS_11TestDetailsE
_ZN8UnitTest10CheckEqualERNS_11TestResultsEPcS2_RKNS_11TestDetailsE
_ZN8UnitTest4TestC2EPKcS2_S2_i
__dso_handle
__cxa_atexit
_ZN8UnitTest4Test11GetTestListEv
_ZN8UnitTest9ListAdderC1ERNS_8TestListEPNS_4TestE
_ZTVN10__cxxabiv120__si_class_type_infoE
_ZTIN8UnitTest4TestE
_ZTISt19basic_ostringstreamIcSt11char_traitsIcESaIcEE
_ZTIN8UnitTest12TestReporterE
_ZTISo
__pthread_key_create
