   1              		.file	"testCore.cpp"
   2              		.section	.text.unlikely._ZN17TestCore_testSwapD2Ev,"axG",@progbits,_ZN17TestCore_testSwapD5Ev,comd
   3              		.align 2
   4              	.LCOLDB0:
   5              		.section	.text._ZN17TestCore_testSwapD2Ev,"axG",@progbits,_ZN17TestCore_testSwapD5Ev,comdat
   6              	.LHOTB0:
   7              		.align 2
   8              		.p2align 4,,15
   9              		.weak	_ZN17TestCore_testSwapD2Ev
  11              	_ZN17TestCore_testSwapD2Ev:
  12              	.LFB1391:
  13              		.cfi_startproc
  14 0000 48C70700 		movq	$_ZTV17TestCore_testSwap+16, (%rdi)
  14      000000
  15 0007 E9000000 		jmp	_ZN8UnitTest4TestD2Ev
  15      00
  16              		.cfi_endproc
  17              	.LFE1391:
  19              		.section	.text.unlikely._ZN17TestCore_testSwapD2Ev,"axG",@progbits,_ZN17TestCore_testSwapD5Ev,comd
  20              	.LCOLDE0:
  21              		.section	.text._ZN17TestCore_testSwapD2Ev,"axG",@progbits,_ZN17TestCore_testSwapD5Ev,comdat
  22              	.LHOTE0:
  23              		.weak	_ZN17TestCore_testSwapD1Ev
  24              		.set	_ZN17TestCore_testSwapD1Ev,_ZN17TestCore_testSwapD2Ev
  25              		.section	.text.unlikely._ZN17TestCore_testSwapD0Ev,"axG",@progbits,_ZN17TestCore_testSwapD5Ev,comd
  26              		.align 2
  27              	.LCOLDB1:
  28              		.section	.text._ZN17TestCore_testSwapD0Ev,"axG",@progbits,_ZN17TestCore_testSwapD5Ev,comdat
  29              	.LHOTB1:
  30              		.align 2
  31              		.p2align 4,,15
  32              		.weak	_ZN17TestCore_testSwapD0Ev
  34              	_ZN17TestCore_testSwapD0Ev:
  35              	.LFB1393:
  36              		.cfi_startproc
  37 0000 53       		pushq	%rbx
  38              		.cfi_def_cfa_offset 16
  39              		.cfi_offset 3, -16
  40 0001 4889FB   		movq	%rdi, %rbx
  41 0004 48C70700 		movq	$_ZTV17TestCore_testSwap+16, (%rdi)
  41      000000
  42 000b E8000000 		call	_ZN8UnitTest4TestD2Ev
  42      00
  43 0010 4889DF   		movq	%rbx, %rdi
  44 0013 5B       		popq	%rbx
  45              		.cfi_def_cfa_offset 8
  46 0014 E9000000 		jmp	_ZdlPv
  46      00
  47              		.cfi_endproc
  48              	.LFE1393:
  50              		.section	.text.unlikely._ZN17TestCore_testSwapD0Ev,"axG",@progbits,_ZN17TestCore_testSwapD5Ev,comd
  51              	.LCOLDE1:
  52              		.section	.text._ZN17TestCore_testSwapD0Ev,"axG",@progbits,_ZN17TestCore_testSwapD5Ev,comdat
  53              	.LHOTE1:
  54              		.section	.text.unlikely._ZN28TestCore_testAssignNoReallocD2Ev,"axG",@progbits,_ZN28TestCore_testAs
  55              		.align 2
  56              	.LCOLDB2:
  57              		.section	.text._ZN28TestCore_testAssignNoReallocD2Ev,"axG",@progbits,_ZN28TestCore_testAssignNoRea
  58              	.LHOTB2:
  59              		.align 2
  60              		.p2align 4,,15
  61              		.weak	_ZN28TestCore_testAssignNoReallocD2Ev
  63              	_ZN28TestCore_testAssignNoReallocD2Ev:
  64              	.LFB1395:
  65              		.cfi_startproc
  66 0000 48C70700 		movq	$_ZTV28TestCore_testAssignNoRealloc+16, (%rdi)
  66      000000
  67 0007 E9000000 		jmp	_ZN8UnitTest4TestD2Ev
  67      00
  68              		.cfi_endproc
  69              	.LFE1395:
  71              		.section	.text.unlikely._ZN28TestCore_testAssignNoReallocD2Ev,"axG",@progbits,_ZN28TestCore_testAs
  72              	.LCOLDE2:
  73              		.section	.text._ZN28TestCore_testAssignNoReallocD2Ev,"axG",@progbits,_ZN28TestCore_testAssignNoRea
  74              	.LHOTE2:
  75              		.weak	_ZN28TestCore_testAssignNoReallocD1Ev
  76              		.set	_ZN28TestCore_testAssignNoReallocD1Ev,_ZN28TestCore_testAssignNoReallocD2Ev
  77              		.section	.text.unlikely._ZN28TestCore_testAssignNoReallocD0Ev,"axG",@progbits,_ZN28TestCore_testAs
  78              		.align 2
  79              	.LCOLDB3:
  80              		.section	.text._ZN28TestCore_testAssignNoReallocD0Ev,"axG",@progbits,_ZN28TestCore_testAssignNoRea
  81              	.LHOTB3:
  82              		.align 2
  83              		.p2align 4,,15
  84              		.weak	_ZN28TestCore_testAssignNoReallocD0Ev
  86              	_ZN28TestCore_testAssignNoReallocD0Ev:
  87              	.LFB1397:
  88              		.cfi_startproc
  89 0000 53       		pushq	%rbx
  90              		.cfi_def_cfa_offset 16
  91              		.cfi_offset 3, -16
  92 0001 4889FB   		movq	%rdi, %rbx
  93 0004 48C70700 		movq	$_ZTV28TestCore_testAssignNoRealloc+16, (%rdi)
  93      000000
  94 000b E8000000 		call	_ZN8UnitTest4TestD2Ev
  94      00
  95 0010 4889DF   		movq	%rbx, %rdi
  96 0013 5B       		popq	%rbx
  97              		.cfi_def_cfa_offset 8
  98 0014 E9000000 		jmp	_ZdlPv
  98      00
  99              		.cfi_endproc
 100              	.LFE1397:
 102              		.section	.text.unlikely._ZN28TestCore_testAssignNoReallocD0Ev,"axG",@progbits,_ZN28TestCore_testAs
 103              	.LCOLDE3:
 104              		.section	.text._ZN28TestCore_testAssignNoReallocD0Ev,"axG",@progbits,_ZN28TestCore_testAssignNoRea
 105              	.LHOTE3:
 106              		.section	.text.unlikely._ZN26TestCore_testAssignReallocD2Ev,"axG",@progbits,_ZN26TestCore_testAssi
 107              		.align 2
 108              	.LCOLDB4:
 109              		.section	.text._ZN26TestCore_testAssignReallocD2Ev,"axG",@progbits,_ZN26TestCore_testAssignRealloc
 110              	.LHOTB4:
 111              		.align 2
 112              		.p2align 4,,15
 113              		.weak	_ZN26TestCore_testAssignReallocD2Ev
 115              	_ZN26TestCore_testAssignReallocD2Ev:
 116              	.LFB1399:
 117              		.cfi_startproc
 118 0000 48C70700 		movq	$_ZTV26TestCore_testAssignRealloc+16, (%rdi)
 118      000000
 119 0007 E9000000 		jmp	_ZN8UnitTest4TestD2Ev
 119      00
 120              		.cfi_endproc
 121              	.LFE1399:
 123              		.section	.text.unlikely._ZN26TestCore_testAssignReallocD2Ev,"axG",@progbits,_ZN26TestCore_testAssi
 124              	.LCOLDE4:
 125              		.section	.text._ZN26TestCore_testAssignReallocD2Ev,"axG",@progbits,_ZN26TestCore_testAssignRealloc
 126              	.LHOTE4:
 127              		.weak	_ZN26TestCore_testAssignReallocD1Ev
 128              		.set	_ZN26TestCore_testAssignReallocD1Ev,_ZN26TestCore_testAssignReallocD2Ev
 129              		.section	.text.unlikely._ZN26TestCore_testAssignReallocD0Ev,"axG",@progbits,_ZN26TestCore_testAssi
 130              		.align 2
 131              	.LCOLDB5:
 132              		.section	.text._ZN26TestCore_testAssignReallocD0Ev,"axG",@progbits,_ZN26TestCore_testAssignRealloc
 133              	.LHOTB5:
 134              		.align 2
 135              		.p2align 4,,15
 136              		.weak	_ZN26TestCore_testAssignReallocD0Ev
 138              	_ZN26TestCore_testAssignReallocD0Ev:
 139              	.LFB1401:
 140              		.cfi_startproc
 141 0000 53       		pushq	%rbx
 142              		.cfi_def_cfa_offset 16
 143              		.cfi_offset 3, -16
 144 0001 4889FB   		movq	%rdi, %rbx
 145 0004 48C70700 		movq	$_ZTV26TestCore_testAssignRealloc+16, (%rdi)
 145      000000
 146 000b E8000000 		call	_ZN8UnitTest4TestD2Ev
 146      00
 147 0010 4889DF   		movq	%rbx, %rdi
 148 0013 5B       		popq	%rbx
 149              		.cfi_def_cfa_offset 8
 150 0014 E9000000 		jmp	_ZdlPv
 150      00
 151              		.cfi_endproc
 152              	.LFE1401:
 154              		.section	.text.unlikely._ZN26TestCore_testAssignReallocD0Ev,"axG",@progbits,_ZN26TestCore_testAssi
 155              	.LCOLDE5:
 156              		.section	.text._ZN26TestCore_testAssignReallocD0Ev,"axG",@progbits,_ZN26TestCore_testAssignRealloc
 157              	.LHOTE5:
 158              		.section	.text.unlikely._ZN26TestCore_testCopyConstructD2Ev,"axG",@progbits,_ZN26TestCore_testCopy
 159              		.align 2
 160              	.LCOLDB6:
 161              		.section	.text._ZN26TestCore_testCopyConstructD2Ev,"axG",@progbits,_ZN26TestCore_testCopyConstruct
 162              	.LHOTB6:
 163              		.align 2
 164              		.p2align 4,,15
 165              		.weak	_ZN26TestCore_testCopyConstructD2Ev
 167              	_ZN26TestCore_testCopyConstructD2Ev:
 168              	.LFB1403:
 169              		.cfi_startproc
 170 0000 48C70700 		movq	$_ZTV26TestCore_testCopyConstruct+16, (%rdi)
 170      000000
 171 0007 E9000000 		jmp	_ZN8UnitTest4TestD2Ev
 171      00
 172              		.cfi_endproc
 173              	.LFE1403:
 175              		.section	.text.unlikely._ZN26TestCore_testCopyConstructD2Ev,"axG",@progbits,_ZN26TestCore_testCopy
 176              	.LCOLDE6:
 177              		.section	.text._ZN26TestCore_testCopyConstructD2Ev,"axG",@progbits,_ZN26TestCore_testCopyConstruct
 178              	.LHOTE6:
 179              		.weak	_ZN26TestCore_testCopyConstructD1Ev
 180              		.set	_ZN26TestCore_testCopyConstructD1Ev,_ZN26TestCore_testCopyConstructD2Ev
 181              		.section	.text.unlikely._ZN26TestCore_testCopyConstructD0Ev,"axG",@progbits,_ZN26TestCore_testCopy
 182              		.align 2
 183              	.LCOLDB7:
 184              		.section	.text._ZN26TestCore_testCopyConstructD0Ev,"axG",@progbits,_ZN26TestCore_testCopyConstruct
 185              	.LHOTB7:
 186              		.align 2
 187              		.p2align 4,,15
 188              		.weak	_ZN26TestCore_testCopyConstructD0Ev
 190              	_ZN26TestCore_testCopyConstructD0Ev:
 191              	.LFB1405:
 192              		.cfi_startproc
 193 0000 53       		pushq	%rbx
 194              		.cfi_def_cfa_offset 16
 195              		.cfi_offset 3, -16
 196 0001 4889FB   		movq	%rdi, %rbx
 197 0004 48C70700 		movq	$_ZTV26TestCore_testCopyConstruct+16, (%rdi)
 197      000000
 198 000b E8000000 		call	_ZN8UnitTest4TestD2Ev
 198      00
 199 0010 4889DF   		movq	%rbx, %rdi
 200 0013 5B       		popq	%rbx
 201              		.cfi_def_cfa_offset 8
 202 0014 E9000000 		jmp	_ZdlPv
 202      00
 203              		.cfi_endproc
 204              	.LFE1405:
 206              		.section	.text.unlikely._ZN26TestCore_testCopyConstructD0Ev,"axG",@progbits,_ZN26TestCore_testCopy
 207              	.LCOLDE7:
 208              		.section	.text._ZN26TestCore_testCopyConstructD0Ev,"axG",@progbits,_ZN26TestCore_testCopyConstruct
 209              	.LHOTE7:
 210              		.section	.text.unlikely._ZN23TestCore_testZeroLengthD2Ev,"axG",@progbits,_ZN23TestCore_testZeroLen
 211              		.align 2
 212              	.LCOLDB8:
 213              		.section	.text._ZN23TestCore_testZeroLengthD2Ev,"axG",@progbits,_ZN23TestCore_testZeroLengthD5Ev,c
 214              	.LHOTB8:
 215              		.align 2
 216              		.p2align 4,,15
 217              		.weak	_ZN23TestCore_testZeroLengthD2Ev
 219              	_ZN23TestCore_testZeroLengthD2Ev:
 220              	.LFB1407:
 221              		.cfi_startproc
 222 0000 48C70700 		movq	$_ZTV23TestCore_testZeroLength+16, (%rdi)
 222      000000
 223 0007 E9000000 		jmp	_ZN8UnitTest4TestD2Ev
 223      00
 224              		.cfi_endproc
 225              	.LFE1407:
 227              		.section	.text.unlikely._ZN23TestCore_testZeroLengthD2Ev,"axG",@progbits,_ZN23TestCore_testZeroLen
 228              	.LCOLDE8:
 229              		.section	.text._ZN23TestCore_testZeroLengthD2Ev,"axG",@progbits,_ZN23TestCore_testZeroLengthD5Ev,c
 230              	.LHOTE8:
 231              		.weak	_ZN23TestCore_testZeroLengthD1Ev
 232              		.set	_ZN23TestCore_testZeroLengthD1Ev,_ZN23TestCore_testZeroLengthD2Ev
 233              		.section	.text.unlikely._ZN23TestCore_testZeroLengthD0Ev,"axG",@progbits,_ZN23TestCore_testZeroLen
 234              		.align 2
 235              	.LCOLDB9:
 236              		.section	.text._ZN23TestCore_testZeroLengthD0Ev,"axG",@progbits,_ZN23TestCore_testZeroLengthD5Ev,c
 237              	.LHOTB9:
 238              		.align 2
 239              		.p2align 4,,15
 240              		.weak	_ZN23TestCore_testZeroLengthD0Ev
 242              	_ZN23TestCore_testZeroLengthD0Ev:
 243              	.LFB1409:
 244              		.cfi_startproc
 245 0000 53       		pushq	%rbx
 246              		.cfi_def_cfa_offset 16
 247              		.cfi_offset 3, -16
 248 0001 4889FB   		movq	%rdi, %rbx
 249 0004 48C70700 		movq	$_ZTV23TestCore_testZeroLength+16, (%rdi)
 249      000000
 250 000b E8000000 		call	_ZN8UnitTest4TestD2Ev
 250      00
 251 0010 4889DF   		movq	%rbx, %rdi
 252 0013 5B       		popq	%rbx
 253              		.cfi_def_cfa_offset 8
 254 0014 E9000000 		jmp	_ZdlPv
 254      00
 255              		.cfi_endproc
 256              	.LFE1409:
 258              		.section	.text.unlikely._ZN23TestCore_testZeroLengthD0Ev,"axG",@progbits,_ZN23TestCore_testZeroLen
 259              	.LCOLDE9:
 260              		.section	.text._ZN23TestCore_testZeroLengthD0Ev,"axG",@progbits,_ZN23TestCore_testZeroLengthD5Ev,c
 261              	.LHOTE9:
 262              		.section	.text.unlikely._ZN33TestCore_testStraddledWriteLongBED2Ev,"axG",@progbits,_ZN33TestCore_t
 263              		.align 2
 264              	.LCOLDB10:
 265              		.section	.text._ZN33TestCore_testStraddledWriteLongBED2Ev,"axG",@progbits,_ZN33TestCore_testStradd
 266              	.LHOTB10:
 267              		.align 2
 268              		.p2align 4,,15
 269              		.weak	_ZN33TestCore_testStraddledWriteLongBED2Ev
 271              	_ZN33TestCore_testStraddledWriteLongBED2Ev:
 272              	.LFB1411:
 273              		.cfi_startproc
 274 0000 48C70700 		movq	$_ZTV33TestCore_testStraddledWriteLongBE+16, (%rdi)
 274      000000
 275 0007 E9000000 		jmp	_ZN8UnitTest4TestD2Ev
 275      00
 276              		.cfi_endproc
 277              	.LFE1411:
 279              		.section	.text.unlikely._ZN33TestCore_testStraddledWriteLongBED2Ev,"axG",@progbits,_ZN33TestCore_t
 280              	.LCOLDE10:
 281              		.section	.text._ZN33TestCore_testStraddledWriteLongBED2Ev,"axG",@progbits,_ZN33TestCore_testStradd
 282              	.LHOTE10:
 283              		.weak	_ZN33TestCore_testStraddledWriteLongBED1Ev
 284              		.set	_ZN33TestCore_testStraddledWriteLongBED1Ev,_ZN33TestCore_testStraddledWriteLongBED2Ev
 285              		.section	.text.unlikely._ZN33TestCore_testStraddledWriteLongBED0Ev,"axG",@progbits,_ZN33TestCore_t
 286              		.align 2
 287              	.LCOLDB11:
 288              		.section	.text._ZN33TestCore_testStraddledWriteLongBED0Ev,"axG",@progbits,_ZN33TestCore_testStradd
 289              	.LHOTB11:
 290              		.align 2
 291              		.p2align 4,,15
 292              		.weak	_ZN33TestCore_testStraddledWriteLongBED0Ev
 294              	_ZN33TestCore_testStraddledWriteLongBED0Ev:
 295              	.LFB1413:
 296              		.cfi_startproc
 297 0000 53       		pushq	%rbx
 298              		.cfi_def_cfa_offset 16
 299              		.cfi_offset 3, -16
 300 0001 4889FB   		movq	%rdi, %rbx
 301 0004 48C70700 		movq	$_ZTV33TestCore_testStraddledWriteLongBE+16, (%rdi)
 301      000000
 302 000b E8000000 		call	_ZN8UnitTest4TestD2Ev
 302      00
 303 0010 4889DF   		movq	%rbx, %rdi
 304 0013 5B       		popq	%rbx
 305              		.cfi_def_cfa_offset 8
 306 0014 E9000000 		jmp	_ZdlPv
 306      00
 307              		.cfi_endproc
 308              	.LFE1413:
 310              		.section	.text.unlikely._ZN33TestCore_testStraddledWriteLongBED0Ev,"axG",@progbits,_ZN33TestCore_t
 311              	.LCOLDE11:
 312              		.section	.text._ZN33TestCore_testStraddledWriteLongBED0Ev,"axG",@progbits,_ZN33TestCore_testStradd
 313              	.LHOTE11:
 314              		.section	.text.unlikely._ZN31TestCore_testOutsideWriteLongBED2Ev,"axG",@progbits,_ZN31TestCore_tes
 315              		.align 2
 316              	.LCOLDB12:
 317              		.section	.text._ZN31TestCore_testOutsideWriteLongBED2Ev,"axG",@progbits,_ZN31TestCore_testOutsideW
 318              	.LHOTB12:
 319              		.align 2
 320              		.p2align 4,,15
 321              		.weak	_ZN31TestCore_testOutsideWriteLongBED2Ev
 323              	_ZN31TestCore_testOutsideWriteLongBED2Ev:
 324              	.LFB1415:
 325              		.cfi_startproc
 326 0000 48C70700 		movq	$_ZTV31TestCore_testOutsideWriteLongBE+16, (%rdi)
 326      000000
 327 0007 E9000000 		jmp	_ZN8UnitTest4TestD2Ev
 327      00
 328              		.cfi_endproc
 329              	.LFE1415:
 331              		.section	.text.unlikely._ZN31TestCore_testOutsideWriteLongBED2Ev,"axG",@progbits,_ZN31TestCore_tes
 332              	.LCOLDE12:
 333              		.section	.text._ZN31TestCore_testOutsideWriteLongBED2Ev,"axG",@progbits,_ZN31TestCore_testOutsideW
 334              	.LHOTE12:
 335              		.weak	_ZN31TestCore_testOutsideWriteLongBED1Ev
 336              		.set	_ZN31TestCore_testOutsideWriteLongBED1Ev,_ZN31TestCore_testOutsideWriteLongBED2Ev
 337              		.section	.text.unlikely._ZN31TestCore_testOutsideWriteLongBED0Ev,"axG",@progbits,_ZN31TestCore_tes
 338              		.align 2
 339              	.LCOLDB13:
 340              		.section	.text._ZN31TestCore_testOutsideWriteLongBED0Ev,"axG",@progbits,_ZN31TestCore_testOutsideW
 341              	.LHOTB13:
 342              		.align 2
 343              		.p2align 4,,15
 344              		.weak	_ZN31TestCore_testOutsideWriteLongBED0Ev
 346              	_ZN31TestCore_testOutsideWriteLongBED0Ev:
 347              	.LFB1417:
 348              		.cfi_startproc
 349 0000 53       		pushq	%rbx
 350              		.cfi_def_cfa_offset 16
 351              		.cfi_offset 3, -16
 352 0001 4889FB   		movq	%rdi, %rbx
 353 0004 48C70700 		movq	$_ZTV31TestCore_testOutsideWriteLongBE+16, (%rdi)
 353      000000
 354 000b E8000000 		call	_ZN8UnitTest4TestD2Ev
 354      00
 355 0010 4889DF   		movq	%rbx, %rdi
 356 0013 5B       		popq	%rbx
 357              		.cfi_def_cfa_offset 8
 358 0014 E9000000 		jmp	_ZdlPv
 358      00
 359              		.cfi_endproc
 360              	.LFE1417:
 362              		.section	.text.unlikely._ZN31TestCore_testOutsideWriteLongBED0Ev,"axG",@progbits,_ZN31TestCore_tes
 363              	.LCOLDE13:
 364              		.section	.text._ZN31TestCore_testOutsideWriteLongBED0Ev,"axG",@progbits,_ZN31TestCore_testOutsideW
 365              	.LHOTE13:
 366              		.section	.text.unlikely._ZN30TestCore_testInsideWriteLongBED2Ev,"axG",@progbits,_ZN30TestCore_test
 367              		.align 2
 368              	.LCOLDB14:
 369              		.section	.text._ZN30TestCore_testInsideWriteLongBED2Ev,"axG",@progbits,_ZN30TestCore_testInsideWri
 370              	.LHOTB14:
 371              		.align 2
 372              		.p2align 4,,15
 373              		.weak	_ZN30TestCore_testInsideWriteLongBED2Ev
 375              	_ZN30TestCore_testInsideWriteLongBED2Ev:
 376              	.LFB1419:
 377              		.cfi_startproc
 378 0000 48C70700 		movq	$_ZTV30TestCore_testInsideWriteLongBE+16, (%rdi)
 378      000000
 379 0007 E9000000 		jmp	_ZN8UnitTest4TestD2Ev
 379      00
 380              		.cfi_endproc
 381              	.LFE1419:
 383              		.section	.text.unlikely._ZN30TestCore_testInsideWriteLongBED2Ev,"axG",@progbits,_ZN30TestCore_test
 384              	.LCOLDE14:
 385              		.section	.text._ZN30TestCore_testInsideWriteLongBED2Ev,"axG",@progbits,_ZN30TestCore_testInsideWri
 386              	.LHOTE14:
 387              		.weak	_ZN30TestCore_testInsideWriteLongBED1Ev
 388              		.set	_ZN30TestCore_testInsideWriteLongBED1Ev,_ZN30TestCore_testInsideWriteLongBED2Ev
 389              		.section	.text.unlikely._ZN30TestCore_testInsideWriteLongBED0Ev,"axG",@progbits,_ZN30TestCore_test
 390              		.align 2
 391              	.LCOLDB15:
 392              		.section	.text._ZN30TestCore_testInsideWriteLongBED0Ev,"axG",@progbits,_ZN30TestCore_testInsideWri
 393              	.LHOTB15:
 394              		.align 2
 395              		.p2align 4,,15
 396              		.weak	_ZN30TestCore_testInsideWriteLongBED0Ev
 398              	_ZN30TestCore_testInsideWriteLongBED0Ev:
 399              	.LFB1421:
 400              		.cfi_startproc
 401 0000 53       		pushq	%rbx
 402              		.cfi_def_cfa_offset 16
 403              		.cfi_offset 3, -16
 404 0001 4889FB   		movq	%rdi, %rbx
 405 0004 48C70700 		movq	$_ZTV30TestCore_testInsideWriteLongBE+16, (%rdi)
 405      000000
 406 000b E8000000 		call	_ZN8UnitTest4TestD2Ev
 406      00
 407 0010 4889DF   		movq	%rbx, %rdi
 408 0013 5B       		popq	%rbx
 409              		.cfi_def_cfa_offset 8
 410 0014 E9000000 		jmp	_ZdlPv
 410      00
 411              		.cfi_endproc
 412              	.LFE1421:
 414              		.section	.text.unlikely._ZN30TestCore_testInsideWriteLongBED0Ev,"axG",@progbits,_ZN30TestCore_test
 415              	.LCOLDE15:
 416              		.section	.text._ZN30TestCore_testInsideWriteLongBED0Ev,"axG",@progbits,_ZN30TestCore_testInsideWri
 417              	.LHOTE15:
 418              		.section	.text.unlikely._ZN33TestCore_testStraddledWriteLongLED2Ev,"axG",@progbits,_ZN33TestCore_t
 419              		.align 2
 420              	.LCOLDB16:
 421              		.section	.text._ZN33TestCore_testStraddledWriteLongLED2Ev,"axG",@progbits,_ZN33TestCore_testStradd
 422              	.LHOTB16:
 423              		.align 2
 424              		.p2align 4,,15
 425              		.weak	_ZN33TestCore_testStraddledWriteLongLED2Ev
 427              	_ZN33TestCore_testStraddledWriteLongLED2Ev:
 428              	.LFB1423:
 429              		.cfi_startproc
 430 0000 48C70700 		movq	$_ZTV33TestCore_testStraddledWriteLongLE+16, (%rdi)
 430      000000
 431 0007 E9000000 		jmp	_ZN8UnitTest4TestD2Ev
 431      00
 432              		.cfi_endproc
 433              	.LFE1423:
 435              		.section	.text.unlikely._ZN33TestCore_testStraddledWriteLongLED2Ev,"axG",@progbits,_ZN33TestCore_t
 436              	.LCOLDE16:
 437              		.section	.text._ZN33TestCore_testStraddledWriteLongLED2Ev,"axG",@progbits,_ZN33TestCore_testStradd
 438              	.LHOTE16:
 439              		.weak	_ZN33TestCore_testStraddledWriteLongLED1Ev
 440              		.set	_ZN33TestCore_testStraddledWriteLongLED1Ev,_ZN33TestCore_testStraddledWriteLongLED2Ev
 441              		.section	.text.unlikely._ZN33TestCore_testStraddledWriteLongLED0Ev,"axG",@progbits,_ZN33TestCore_t
 442              		.align 2
 443              	.LCOLDB17:
 444              		.section	.text._ZN33TestCore_testStraddledWriteLongLED0Ev,"axG",@progbits,_ZN33TestCore_testStradd
 445              	.LHOTB17:
 446              		.align 2
 447              		.p2align 4,,15
 448              		.weak	_ZN33TestCore_testStraddledWriteLongLED0Ev
 450              	_ZN33TestCore_testStraddledWriteLongLED0Ev:
 451              	.LFB1425:
 452              		.cfi_startproc
 453 0000 53       		pushq	%rbx
 454              		.cfi_def_cfa_offset 16
 455              		.cfi_offset 3, -16
 456 0001 4889FB   		movq	%rdi, %rbx
 457 0004 48C70700 		movq	$_ZTV33TestCore_testStraddledWriteLongLE+16, (%rdi)
 457      000000
 458 000b E8000000 		call	_ZN8UnitTest4TestD2Ev
 458      00
 459 0010 4889DF   		movq	%rbx, %rdi
 460 0013 5B       		popq	%rbx
 461              		.cfi_def_cfa_offset 8
 462 0014 E9000000 		jmp	_ZdlPv
 462      00
 463              		.cfi_endproc
 464              	.LFE1425:
 466              		.section	.text.unlikely._ZN33TestCore_testStraddledWriteLongLED0Ev,"axG",@progbits,_ZN33TestCore_t
 467              	.LCOLDE17:
 468              		.section	.text._ZN33TestCore_testStraddledWriteLongLED0Ev,"axG",@progbits,_ZN33TestCore_testStradd
 469              	.LHOTE17:
 470              		.section	.text.unlikely._ZN31TestCore_testOutsideWriteLongLED2Ev,"axG",@progbits,_ZN31TestCore_tes
 471              		.align 2
 472              	.LCOLDB18:
 473              		.section	.text._ZN31TestCore_testOutsideWriteLongLED2Ev,"axG",@progbits,_ZN31TestCore_testOutsideW
 474              	.LHOTB18:
 475              		.align 2
 476              		.p2align 4,,15
 477              		.weak	_ZN31TestCore_testOutsideWriteLongLED2Ev
 479              	_ZN31TestCore_testOutsideWriteLongLED2Ev:
 480              	.LFB1427:
 481              		.cfi_startproc
 482 0000 48C70700 		movq	$_ZTV31TestCore_testOutsideWriteLongLE+16, (%rdi)
 482      000000
 483 0007 E9000000 		jmp	_ZN8UnitTest4TestD2Ev
 483      00
 484              		.cfi_endproc
 485              	.LFE1427:
 487              		.section	.text.unlikely._ZN31TestCore_testOutsideWriteLongLED2Ev,"axG",@progbits,_ZN31TestCore_tes
 488              	.LCOLDE18:
 489              		.section	.text._ZN31TestCore_testOutsideWriteLongLED2Ev,"axG",@progbits,_ZN31TestCore_testOutsideW
 490              	.LHOTE18:
 491              		.weak	_ZN31TestCore_testOutsideWriteLongLED1Ev
 492              		.set	_ZN31TestCore_testOutsideWriteLongLED1Ev,_ZN31TestCore_testOutsideWriteLongLED2Ev
 493              		.section	.text.unlikely._ZN31TestCore_testOutsideWriteLongLED0Ev,"axG",@progbits,_ZN31TestCore_tes
 494              		.align 2
 495              	.LCOLDB19:
 496              		.section	.text._ZN31TestCore_testOutsideWriteLongLED0Ev,"axG",@progbits,_ZN31TestCore_testOutsideW
 497              	.LHOTB19:
 498              		.align 2
 499              		.p2align 4,,15
 500              		.weak	_ZN31TestCore_testOutsideWriteLongLED0Ev
 502              	_ZN31TestCore_testOutsideWriteLongLED0Ev:
 503              	.LFB1429:
 504              		.cfi_startproc
 505 0000 53       		pushq	%rbx
 506              		.cfi_def_cfa_offset 16
 507              		.cfi_offset 3, -16
 508 0001 4889FB   		movq	%rdi, %rbx
 509 0004 48C70700 		movq	$_ZTV31TestCore_testOutsideWriteLongLE+16, (%rdi)
 509      000000
 510 000b E8000000 		call	_ZN8UnitTest4TestD2Ev
 510      00
 511 0010 4889DF   		movq	%rbx, %rdi
 512 0013 5B       		popq	%rbx
 513              		.cfi_def_cfa_offset 8
 514 0014 E9000000 		jmp	_ZdlPv
 514      00
 515              		.cfi_endproc
 516              	.LFE1429:
 518              		.section	.text.unlikely._ZN31TestCore_testOutsideWriteLongLED0Ev,"axG",@progbits,_ZN31TestCore_tes
 519              	.LCOLDE19:
 520              		.section	.text._ZN31TestCore_testOutsideWriteLongLED0Ev,"axG",@progbits,_ZN31TestCore_testOutsideW
 521              	.LHOTE19:
 522              		.section	.text.unlikely._ZN30TestCore_testInsideWriteLongLED2Ev,"axG",@progbits,_ZN30TestCore_test
 523              		.align 2
 524              	.LCOLDB20:
 525              		.section	.text._ZN30TestCore_testInsideWriteLongLED2Ev,"axG",@progbits,_ZN30TestCore_testInsideWri
 526              	.LHOTB20:
 527              		.align 2
 528              		.p2align 4,,15
 529              		.weak	_ZN30TestCore_testInsideWriteLongLED2Ev
 531              	_ZN30TestCore_testInsideWriteLongLED2Ev:
 532              	.LFB1431:
 533              		.cfi_startproc
 534 0000 48C70700 		movq	$_ZTV30TestCore_testInsideWriteLongLE+16, (%rdi)
 534      000000
 535 0007 E9000000 		jmp	_ZN8UnitTest4TestD2Ev
 535      00
 536              		.cfi_endproc
 537              	.LFE1431:
 539              		.section	.text.unlikely._ZN30TestCore_testInsideWriteLongLED2Ev,"axG",@progbits,_ZN30TestCore_test
 540              	.LCOLDE20:
 541              		.section	.text._ZN30TestCore_testInsideWriteLongLED2Ev,"axG",@progbits,_ZN30TestCore_testInsideWri
 542              	.LHOTE20:
 543              		.weak	_ZN30TestCore_testInsideWriteLongLED1Ev
 544              		.set	_ZN30TestCore_testInsideWriteLongLED1Ev,_ZN30TestCore_testInsideWriteLongLED2Ev
 545              		.section	.text.unlikely._ZN30TestCore_testInsideWriteLongLED0Ev,"axG",@progbits,_ZN30TestCore_test
 546              		.align 2
 547              	.LCOLDB21:
 548              		.section	.text._ZN30TestCore_testInsideWriteLongLED0Ev,"axG",@progbits,_ZN30TestCore_testInsideWri
 549              	.LHOTB21:
 550              		.align 2
 551              		.p2align 4,,15
 552              		.weak	_ZN30TestCore_testInsideWriteLongLED0Ev
 554              	_ZN30TestCore_testInsideWriteLongLED0Ev:
 555              	.LFB1433:
 556              		.cfi_startproc
 557 0000 53       		pushq	%rbx
 558              		.cfi_def_cfa_offset 16
 559              		.cfi_offset 3, -16
 560 0001 4889FB   		movq	%rdi, %rbx
 561 0004 48C70700 		movq	$_ZTV30TestCore_testInsideWriteLongLE+16, (%rdi)
 561      000000
 562 000b E8000000 		call	_ZN8UnitTest4TestD2Ev
 562      00
 563 0010 4889DF   		movq	%rbx, %rdi
 564 0013 5B       		popq	%rbx
 565              		.cfi_def_cfa_offset 8
 566 0014 E9000000 		jmp	_ZdlPv
 566      00
 567              		.cfi_endproc
 568              	.LFE1433:
 570              		.section	.text.unlikely._ZN30TestCore_testInsideWriteLongLED0Ev,"axG",@progbits,_ZN30TestCore_test
 571              	.LCOLDE21:
 572              		.section	.text._ZN30TestCore_testInsideWriteLongLED0Ev,"axG",@progbits,_ZN30TestCore_testInsideWri
 573              	.LHOTE21:
 574              		.section	.text.unlikely._ZN33TestCore_testStraddledWriteWordBED2Ev,"axG",@progbits,_ZN33TestCore_t
 575              		.align 2
 576              	.LCOLDB22:
 577              		.section	.text._ZN33TestCore_testStraddledWriteWordBED2Ev,"axG",@progbits,_ZN33TestCore_testStradd
 578              	.LHOTB22:
 579              		.align 2
 580              		.p2align 4,,15
 581              		.weak	_ZN33TestCore_testStraddledWriteWordBED2Ev
 583              	_ZN33TestCore_testStraddledWriteWordBED2Ev:
 584              	.LFB1435:
 585              		.cfi_startproc
 586 0000 48C70700 		movq	$_ZTV33TestCore_testStraddledWriteWordBE+16, (%rdi)
 586      000000
 587 0007 E9000000 		jmp	_ZN8UnitTest4TestD2Ev
 587      00
 588              		.cfi_endproc
 589              	.LFE1435:
 591              		.section	.text.unlikely._ZN33TestCore_testStraddledWriteWordBED2Ev,"axG",@progbits,_ZN33TestCore_t
 592              	.LCOLDE22:
 593              		.section	.text._ZN33TestCore_testStraddledWriteWordBED2Ev,"axG",@progbits,_ZN33TestCore_testStradd
 594              	.LHOTE22:
 595              		.weak	_ZN33TestCore_testStraddledWriteWordBED1Ev
 596              		.set	_ZN33TestCore_testStraddledWriteWordBED1Ev,_ZN33TestCore_testStraddledWriteWordBED2Ev
 597              		.section	.text.unlikely._ZN33TestCore_testStraddledWriteWordBED0Ev,"axG",@progbits,_ZN33TestCore_t
 598              		.align 2
 599              	.LCOLDB23:
 600              		.section	.text._ZN33TestCore_testStraddledWriteWordBED0Ev,"axG",@progbits,_ZN33TestCore_testStradd
 601              	.LHOTB23:
 602              		.align 2
 603              		.p2align 4,,15
 604              		.weak	_ZN33TestCore_testStraddledWriteWordBED0Ev
 606              	_ZN33TestCore_testStraddledWriteWordBED0Ev:
 607              	.LFB1437:
 608              		.cfi_startproc
 609 0000 53       		pushq	%rbx
 610              		.cfi_def_cfa_offset 16
 611              		.cfi_offset 3, -16
 612 0001 4889FB   		movq	%rdi, %rbx
 613 0004 48C70700 		movq	$_ZTV33TestCore_testStraddledWriteWordBE+16, (%rdi)
 613      000000
 614 000b E8000000 		call	_ZN8UnitTest4TestD2Ev
 614      00
 615 0010 4889DF   		movq	%rbx, %rdi
 616 0013 5B       		popq	%rbx
 617              		.cfi_def_cfa_offset 8
 618 0014 E9000000 		jmp	_ZdlPv
 618      00
 619              		.cfi_endproc
 620              	.LFE1437:
 622              		.section	.text.unlikely._ZN33TestCore_testStraddledWriteWordBED0Ev,"axG",@progbits,_ZN33TestCore_t
 623              	.LCOLDE23:
 624              		.section	.text._ZN33TestCore_testStraddledWriteWordBED0Ev,"axG",@progbits,_ZN33TestCore_testStradd
 625              	.LHOTE23:
 626              		.section	.text.unlikely._ZN31TestCore_testOutsideWriteWordBED2Ev,"axG",@progbits,_ZN31TestCore_tes
 627              		.align 2
 628              	.LCOLDB24:
 629              		.section	.text._ZN31TestCore_testOutsideWriteWordBED2Ev,"axG",@progbits,_ZN31TestCore_testOutsideW
 630              	.LHOTB24:
 631              		.align 2
 632              		.p2align 4,,15
 633              		.weak	_ZN31TestCore_testOutsideWriteWordBED2Ev
 635              	_ZN31TestCore_testOutsideWriteWordBED2Ev:
 636              	.LFB1439:
 637              		.cfi_startproc
 638 0000 48C70700 		movq	$_ZTV31TestCore_testOutsideWriteWordBE+16, (%rdi)
 638      000000
 639 0007 E9000000 		jmp	_ZN8UnitTest4TestD2Ev
 639      00
 640              		.cfi_endproc
 641              	.LFE1439:
 643              		.section	.text.unlikely._ZN31TestCore_testOutsideWriteWordBED2Ev,"axG",@progbits,_ZN31TestCore_tes
 644              	.LCOLDE24:
 645              		.section	.text._ZN31TestCore_testOutsideWriteWordBED2Ev,"axG",@progbits,_ZN31TestCore_testOutsideW
 646              	.LHOTE24:
 647              		.weak	_ZN31TestCore_testOutsideWriteWordBED1Ev
 648              		.set	_ZN31TestCore_testOutsideWriteWordBED1Ev,_ZN31TestCore_testOutsideWriteWordBED2Ev
 649              		.section	.text.unlikely._ZN31TestCore_testOutsideWriteWordBED0Ev,"axG",@progbits,_ZN31TestCore_tes
 650              		.align 2
 651              	.LCOLDB25:
 652              		.section	.text._ZN31TestCore_testOutsideWriteWordBED0Ev,"axG",@progbits,_ZN31TestCore_testOutsideW
 653              	.LHOTB25:
 654              		.align 2
 655              		.p2align 4,,15
 656              		.weak	_ZN31TestCore_testOutsideWriteWordBED0Ev
 658              	_ZN31TestCore_testOutsideWriteWordBED0Ev:
 659              	.LFB1441:
 660              		.cfi_startproc
 661 0000 53       		pushq	%rbx
 662              		.cfi_def_cfa_offset 16
 663              		.cfi_offset 3, -16
 664 0001 4889FB   		movq	%rdi, %rbx
 665 0004 48C70700 		movq	$_ZTV31TestCore_testOutsideWriteWordBE+16, (%rdi)
 665      000000
 666 000b E8000000 		call	_ZN8UnitTest4TestD2Ev
 666      00
 667 0010 4889DF   		movq	%rbx, %rdi
 668 0013 5B       		popq	%rbx
 669              		.cfi_def_cfa_offset 8
 670 0014 E9000000 		jmp	_ZdlPv
 670      00
 671              		.cfi_endproc
 672              	.LFE1441:
 674              		.section	.text.unlikely._ZN31TestCore_testOutsideWriteWordBED0Ev,"axG",@progbits,_ZN31TestCore_tes
 675              	.LCOLDE25:
 676              		.section	.text._ZN31TestCore_testOutsideWriteWordBED0Ev,"axG",@progbits,_ZN31TestCore_testOutsideW
 677              	.LHOTE25:
 678              		.section	.text.unlikely._ZN30TestCore_testInsideWriteWordBED2Ev,"axG",@progbits,_ZN30TestCore_test
 679              		.align 2
 680              	.LCOLDB26:
 681              		.section	.text._ZN30TestCore_testInsideWriteWordBED2Ev,"axG",@progbits,_ZN30TestCore_testInsideWri
 682              	.LHOTB26:
 683              		.align 2
 684              		.p2align 4,,15
 685              		.weak	_ZN30TestCore_testInsideWriteWordBED2Ev
 687              	_ZN30TestCore_testInsideWriteWordBED2Ev:
 688              	.LFB1443:
 689              		.cfi_startproc
 690 0000 48C70700 		movq	$_ZTV30TestCore_testInsideWriteWordBE+16, (%rdi)
 690      000000
 691 0007 E9000000 		jmp	_ZN8UnitTest4TestD2Ev
 691      00
 692              		.cfi_endproc
 693              	.LFE1443:
 695              		.section	.text.unlikely._ZN30TestCore_testInsideWriteWordBED2Ev,"axG",@progbits,_ZN30TestCore_test
 696              	.LCOLDE26:
 697              		.section	.text._ZN30TestCore_testInsideWriteWordBED2Ev,"axG",@progbits,_ZN30TestCore_testInsideWri
 698              	.LHOTE26:
 699              		.weak	_ZN30TestCore_testInsideWriteWordBED1Ev
 700              		.set	_ZN30TestCore_testInsideWriteWordBED1Ev,_ZN30TestCore_testInsideWriteWordBED2Ev
 701              		.section	.text.unlikely._ZN30TestCore_testInsideWriteWordBED0Ev,"axG",@progbits,_ZN30TestCore_test
 702              		.align 2
 703              	.LCOLDB27:
 704              		.section	.text._ZN30TestCore_testInsideWriteWordBED0Ev,"axG",@progbits,_ZN30TestCore_testInsideWri
 705              	.LHOTB27:
 706              		.align 2
 707              		.p2align 4,,15
 708              		.weak	_ZN30TestCore_testInsideWriteWordBED0Ev
 710              	_ZN30TestCore_testInsideWriteWordBED0Ev:
 711              	.LFB1445:
 712              		.cfi_startproc
 713 0000 53       		pushq	%rbx
 714              		.cfi_def_cfa_offset 16
 715              		.cfi_offset 3, -16
 716 0001 4889FB   		movq	%rdi, %rbx
 717 0004 48C70700 		movq	$_ZTV30TestCore_testInsideWriteWordBE+16, (%rdi)
 717      000000
 718 000b E8000000 		call	_ZN8UnitTest4TestD2Ev
 718      00
 719 0010 4889DF   		movq	%rbx, %rdi
 720 0013 5B       		popq	%rbx
 721              		.cfi_def_cfa_offset 8
 722 0014 E9000000 		jmp	_ZdlPv
 722      00
 723              		.cfi_endproc
 724              	.LFE1445:
 726              		.section	.text.unlikely._ZN30TestCore_testInsideWriteWordBED0Ev,"axG",@progbits,_ZN30TestCore_test
 727              	.LCOLDE27:
 728              		.section	.text._ZN30TestCore_testInsideWriteWordBED0Ev,"axG",@progbits,_ZN30TestCore_testInsideWri
 729              	.LHOTE27:
 730              		.section	.text.unlikely._ZN33TestCore_testStraddledWriteWordLED2Ev,"axG",@progbits,_ZN33TestCore_t
 731              		.align 2
 732              	.LCOLDB28:
 733              		.section	.text._ZN33TestCore_testStraddledWriteWordLED2Ev,"axG",@progbits,_ZN33TestCore_testStradd
 734              	.LHOTB28:
 735              		.align 2
 736              		.p2align 4,,15
 737              		.weak	_ZN33TestCore_testStraddledWriteWordLED2Ev
 739              	_ZN33TestCore_testStraddledWriteWordLED2Ev:
 740              	.LFB1447:
 741              		.cfi_startproc
 742 0000 48C70700 		movq	$_ZTV33TestCore_testStraddledWriteWordLE+16, (%rdi)
 742      000000
 743 0007 E9000000 		jmp	_ZN8UnitTest4TestD2Ev
 743      00
 744              		.cfi_endproc
 745              	.LFE1447:
 747              		.section	.text.unlikely._ZN33TestCore_testStraddledWriteWordLED2Ev,"axG",@progbits,_ZN33TestCore_t
 748              	.LCOLDE28:
 749              		.section	.text._ZN33TestCore_testStraddledWriteWordLED2Ev,"axG",@progbits,_ZN33TestCore_testStradd
 750              	.LHOTE28:
 751              		.weak	_ZN33TestCore_testStraddledWriteWordLED1Ev
 752              		.set	_ZN33TestCore_testStraddledWriteWordLED1Ev,_ZN33TestCore_testStraddledWriteWordLED2Ev
 753              		.section	.text.unlikely._ZN33TestCore_testStraddledWriteWordLED0Ev,"axG",@progbits,_ZN33TestCore_t
 754              		.align 2
 755              	.LCOLDB29:
 756              		.section	.text._ZN33TestCore_testStraddledWriteWordLED0Ev,"axG",@progbits,_ZN33TestCore_testStradd
 757              	.LHOTB29:
 758              		.align 2
 759              		.p2align 4,,15
 760              		.weak	_ZN33TestCore_testStraddledWriteWordLED0Ev
 762              	_ZN33TestCore_testStraddledWriteWordLED0Ev:
 763              	.LFB1449:
 764              		.cfi_startproc
 765 0000 53       		pushq	%rbx
 766              		.cfi_def_cfa_offset 16
 767              		.cfi_offset 3, -16
 768 0001 4889FB   		movq	%rdi, %rbx
 769 0004 48C70700 		movq	$_ZTV33TestCore_testStraddledWriteWordLE+16, (%rdi)
 769      000000
 770 000b E8000000 		call	_ZN8UnitTest4TestD2Ev
 770      00
 771 0010 4889DF   		movq	%rbx, %rdi
 772 0013 5B       		popq	%rbx
 773              		.cfi_def_cfa_offset 8
 774 0014 E9000000 		jmp	_ZdlPv
 774      00
 775              		.cfi_endproc
 776              	.LFE1449:
 778              		.section	.text.unlikely._ZN33TestCore_testStraddledWriteWordLED0Ev,"axG",@progbits,_ZN33TestCore_t
 779              	.LCOLDE29:
 780              		.section	.text._ZN33TestCore_testStraddledWriteWordLED0Ev,"axG",@progbits,_ZN33TestCore_testStradd
 781              	.LHOTE29:
 782              		.section	.text.unlikely._ZN31TestCore_testOutsideWriteWordLED2Ev,"axG",@progbits,_ZN31TestCore_tes
 783              		.align 2
 784              	.LCOLDB30:
 785              		.section	.text._ZN31TestCore_testOutsideWriteWordLED2Ev,"axG",@progbits,_ZN31TestCore_testOutsideW
 786              	.LHOTB30:
 787              		.align 2
 788              		.p2align 4,,15
 789              		.weak	_ZN31TestCore_testOutsideWriteWordLED2Ev
 791              	_ZN31TestCore_testOutsideWriteWordLED2Ev:
 792              	.LFB1451:
 793              		.cfi_startproc
 794 0000 48C70700 		movq	$_ZTV31TestCore_testOutsideWriteWordLE+16, (%rdi)
 794      000000
 795 0007 E9000000 		jmp	_ZN8UnitTest4TestD2Ev
 795      00
 796              		.cfi_endproc
 797              	.LFE1451:
 799              		.section	.text.unlikely._ZN31TestCore_testOutsideWriteWordLED2Ev,"axG",@progbits,_ZN31TestCore_tes
 800              	.LCOLDE30:
 801              		.section	.text._ZN31TestCore_testOutsideWriteWordLED2Ev,"axG",@progbits,_ZN31TestCore_testOutsideW
 802              	.LHOTE30:
 803              		.weak	_ZN31TestCore_testOutsideWriteWordLED1Ev
 804              		.set	_ZN31TestCore_testOutsideWriteWordLED1Ev,_ZN31TestCore_testOutsideWriteWordLED2Ev
 805              		.section	.text.unlikely._ZN31TestCore_testOutsideWriteWordLED0Ev,"axG",@progbits,_ZN31TestCore_tes
 806              		.align 2
 807              	.LCOLDB31:
 808              		.section	.text._ZN31TestCore_testOutsideWriteWordLED0Ev,"axG",@progbits,_ZN31TestCore_testOutsideW
 809              	.LHOTB31:
 810              		.align 2
 811              		.p2align 4,,15
 812              		.weak	_ZN31TestCore_testOutsideWriteWordLED0Ev
 814              	_ZN31TestCore_testOutsideWriteWordLED0Ev:
 815              	.LFB1453:
 816              		.cfi_startproc
 817 0000 53       		pushq	%rbx
 818              		.cfi_def_cfa_offset 16
 819              		.cfi_offset 3, -16
 820 0001 4889FB   		movq	%rdi, %rbx
 821 0004 48C70700 		movq	$_ZTV31TestCore_testOutsideWriteWordLE+16, (%rdi)
 821      000000
 822 000b E8000000 		call	_ZN8UnitTest4TestD2Ev
 822      00
 823 0010 4889DF   		movq	%rbx, %rdi
 824 0013 5B       		popq	%rbx
 825              		.cfi_def_cfa_offset 8
 826 0014 E9000000 		jmp	_ZdlPv
 826      00
 827              		.cfi_endproc
 828              	.LFE1453:
 830              		.section	.text.unlikely._ZN31TestCore_testOutsideWriteWordLED0Ev,"axG",@progbits,_ZN31TestCore_tes
 831              	.LCOLDE31:
 832              		.section	.text._ZN31TestCore_testOutsideWriteWordLED0Ev,"axG",@progbits,_ZN31TestCore_testOutsideW
 833              	.LHOTE31:
 834              		.section	.text.unlikely._ZN30TestCore_testInsideWriteWordLED2Ev,"axG",@progbits,_ZN30TestCore_test
 835              		.align 2
 836              	.LCOLDB32:
 837              		.section	.text._ZN30TestCore_testInsideWriteWordLED2Ev,"axG",@progbits,_ZN30TestCore_testInsideWri
 838              	.LHOTB32:
 839              		.align 2
 840              		.p2align 4,,15
 841              		.weak	_ZN30TestCore_testInsideWriteWordLED2Ev
 843              	_ZN30TestCore_testInsideWriteWordLED2Ev:
 844              	.LFB1455:
 845              		.cfi_startproc
 846 0000 48C70700 		movq	$_ZTV30TestCore_testInsideWriteWordLE+16, (%rdi)
 846      000000
 847 0007 E9000000 		jmp	_ZN8UnitTest4TestD2Ev
 847      00
 848              		.cfi_endproc
 849              	.LFE1455:
 851              		.section	.text.unlikely._ZN30TestCore_testInsideWriteWordLED2Ev,"axG",@progbits,_ZN30TestCore_test
 852              	.LCOLDE32:
 853              		.section	.text._ZN30TestCore_testInsideWriteWordLED2Ev,"axG",@progbits,_ZN30TestCore_testInsideWri
 854              	.LHOTE32:
 855              		.weak	_ZN30TestCore_testInsideWriteWordLED1Ev
 856              		.set	_ZN30TestCore_testInsideWriteWordLED1Ev,_ZN30TestCore_testInsideWriteWordLED2Ev
 857              		.section	.text.unlikely._ZN30TestCore_testInsideWriteWordLED0Ev,"axG",@progbits,_ZN30TestCore_test
 858              		.align 2
 859              	.LCOLDB33:
 860              		.section	.text._ZN30TestCore_testInsideWriteWordLED0Ev,"axG",@progbits,_ZN30TestCore_testInsideWri
 861              	.LHOTB33:
 862              		.align 2
 863              		.p2align 4,,15
 864              		.weak	_ZN30TestCore_testInsideWriteWordLED0Ev
 866              	_ZN30TestCore_testInsideWriteWordLED0Ev:
 867              	.LFB1457:
 868              		.cfi_startproc
 869 0000 53       		pushq	%rbx
 870              		.cfi_def_cfa_offset 16
 871              		.cfi_offset 3, -16
 872 0001 4889FB   		movq	%rdi, %rbx
 873 0004 48C70700 		movq	$_ZTV30TestCore_testInsideWriteWordLE+16, (%rdi)
 873      000000
 874 000b E8000000 		call	_ZN8UnitTest4TestD2Ev
 874      00
 875 0010 4889DF   		movq	%rbx, %rdi
 876 0013 5B       		popq	%rbx
 877              		.cfi_def_cfa_offset 8
 878 0014 E9000000 		jmp	_ZdlPv
 878      00
 879              		.cfi_endproc
 880              	.LFE1457:
 882              		.section	.text.unlikely._ZN30TestCore_testInsideWriteWordLED0Ev,"axG",@progbits,_ZN30TestCore_test
 883              	.LCOLDE33:
 884              		.section	.text._ZN30TestCore_testInsideWriteWordLED0Ev,"axG",@progbits,_ZN30TestCore_testInsideWri
 885              	.LHOTE33:
 886              		.section	.text.unlikely._ZN32TestCore_testStraddledWriteConstD2Ev,"axG",@progbits,_ZN32TestCore_te
 887              		.align 2
 888              	.LCOLDB34:
 889              		.section	.text._ZN32TestCore_testStraddledWriteConstD2Ev,"axG",@progbits,_ZN32TestCore_testStraddl
 890              	.LHOTB34:
 891              		.align 2
 892              		.p2align 4,,15
 893              		.weak	_ZN32TestCore_testStraddledWriteConstD2Ev
 895              	_ZN32TestCore_testStraddledWriteConstD2Ev:
 896              	.LFB1459:
 897              		.cfi_startproc
 898 0000 48C70700 		movq	$_ZTV32TestCore_testStraddledWriteConst+16, (%rdi)
 898      000000
 899 0007 E9000000 		jmp	_ZN8UnitTest4TestD2Ev
 899      00
 900              		.cfi_endproc
 901              	.LFE1459:
 903              		.section	.text.unlikely._ZN32TestCore_testStraddledWriteConstD2Ev,"axG",@progbits,_ZN32TestCore_te
 904              	.LCOLDE34:
 905              		.section	.text._ZN32TestCore_testStraddledWriteConstD2Ev,"axG",@progbits,_ZN32TestCore_testStraddl
 906              	.LHOTE34:
 907              		.weak	_ZN32TestCore_testStraddledWriteConstD1Ev
 908              		.set	_ZN32TestCore_testStraddledWriteConstD1Ev,_ZN32TestCore_testStraddledWriteConstD2Ev
 909              		.section	.text.unlikely._ZN32TestCore_testStraddledWriteConstD0Ev,"axG",@progbits,_ZN32TestCore_te
 910              		.align 2
 911              	.LCOLDB35:
 912              		.section	.text._ZN32TestCore_testStraddledWriteConstD0Ev,"axG",@progbits,_ZN32TestCore_testStraddl
 913              	.LHOTB35:
 914              		.align 2
 915              		.p2align 4,,15
 916              		.weak	_ZN32TestCore_testStraddledWriteConstD0Ev
 918              	_ZN32TestCore_testStraddledWriteConstD0Ev:
 919              	.LFB1461:
 920              		.cfi_startproc
 921 0000 53       		pushq	%rbx
 922              		.cfi_def_cfa_offset 16
 923              		.cfi_offset 3, -16
 924 0001 4889FB   		movq	%rdi, %rbx
 925 0004 48C70700 		movq	$_ZTV32TestCore_testStraddledWriteConst+16, (%rdi)
 925      000000
 926 000b E8000000 		call	_ZN8UnitTest4TestD2Ev
 926      00
 927 0010 4889DF   		movq	%rbx, %rdi
 928 0013 5B       		popq	%rbx
 929              		.cfi_def_cfa_offset 8
 930 0014 E9000000 		jmp	_ZdlPv
 930      00
 931              		.cfi_endproc
 932              	.LFE1461:
 934              		.section	.text.unlikely._ZN32TestCore_testStraddledWriteConstD0Ev,"axG",@progbits,_ZN32TestCore_te
 935              	.LCOLDE35:
 936              		.section	.text._ZN32TestCore_testStraddledWriteConstD0Ev,"axG",@progbits,_ZN32TestCore_testStraddl
 937              	.LHOTE35:
 938              		.section	.text.unlikely._ZN30TestCore_testOutsideWriteConstD2Ev,"axG",@progbits,_ZN30TestCore_test
 939              		.align 2
 940              	.LCOLDB36:
 941              		.section	.text._ZN30TestCore_testOutsideWriteConstD2Ev,"axG",@progbits,_ZN30TestCore_testOutsideWr
 942              	.LHOTB36:
 943              		.align 2
 944              		.p2align 4,,15
 945              		.weak	_ZN30TestCore_testOutsideWriteConstD2Ev
 947              	_ZN30TestCore_testOutsideWriteConstD2Ev:
 948              	.LFB1463:
 949              		.cfi_startproc
 950 0000 48C70700 		movq	$_ZTV30TestCore_testOutsideWriteConst+16, (%rdi)
 950      000000
 951 0007 E9000000 		jmp	_ZN8UnitTest4TestD2Ev
 951      00
 952              		.cfi_endproc
 953              	.LFE1463:
 955              		.section	.text.unlikely._ZN30TestCore_testOutsideWriteConstD2Ev,"axG",@progbits,_ZN30TestCore_test
 956              	.LCOLDE36:
 957              		.section	.text._ZN30TestCore_testOutsideWriteConstD2Ev,"axG",@progbits,_ZN30TestCore_testOutsideWr
 958              	.LHOTE36:
 959              		.weak	_ZN30TestCore_testOutsideWriteConstD1Ev
 960              		.set	_ZN30TestCore_testOutsideWriteConstD1Ev,_ZN30TestCore_testOutsideWriteConstD2Ev
 961              		.section	.text.unlikely._ZN30TestCore_testOutsideWriteConstD0Ev,"axG",@progbits,_ZN30TestCore_test
 962              		.align 2
 963              	.LCOLDB37:
 964              		.section	.text._ZN30TestCore_testOutsideWriteConstD0Ev,"axG",@progbits,_ZN30TestCore_testOutsideWr
 965              	.LHOTB37:
 966              		.align 2
 967              		.p2align 4,,15
 968              		.weak	_ZN30TestCore_testOutsideWriteConstD0Ev
 970              	_ZN30TestCore_testOutsideWriteConstD0Ev:
 971              	.LFB1465:
 972              		.cfi_startproc
 973 0000 53       		pushq	%rbx
 974              		.cfi_def_cfa_offset 16
 975              		.cfi_offset 3, -16
 976 0001 4889FB   		movq	%rdi, %rbx
 977 0004 48C70700 		movq	$_ZTV30TestCore_testOutsideWriteConst+16, (%rdi)
 977      000000
 978 000b E8000000 		call	_ZN8UnitTest4TestD2Ev
 978      00
 979 0010 4889DF   		movq	%rbx, %rdi
 980 0013 5B       		popq	%rbx
 981              		.cfi_def_cfa_offset 8
 982 0014 E9000000 		jmp	_ZdlPv
 982      00
 983              		.cfi_endproc
 984              	.LFE1465:
 986              		.section	.text.unlikely._ZN30TestCore_testOutsideWriteConstD0Ev,"axG",@progbits,_ZN30TestCore_test
 987              	.LCOLDE37:
 988              		.section	.text._ZN30TestCore_testOutsideWriteConstD0Ev,"axG",@progbits,_ZN30TestCore_testOutsideWr
 989              	.LHOTE37:
 990              		.section	.text.unlikely._ZN29TestCore_testInsideWriteConstD2Ev,"axG",@progbits,_ZN29TestCore_testI
 991              		.align 2
 992              	.LCOLDB38:
 993              		.section	.text._ZN29TestCore_testInsideWriteConstD2Ev,"axG",@progbits,_ZN29TestCore_testInsideWrit
 994              	.LHOTB38:
 995              		.align 2
 996              		.p2align 4,,15
 997              		.weak	_ZN29TestCore_testInsideWriteConstD2Ev
 999              	_ZN29TestCore_testInsideWriteConstD2Ev:
 1000              	.LFB1467:
 1001              		.cfi_startproc
 1002 0000 48C70700 		movq	$_ZTV29TestCore_testInsideWriteConst+16, (%rdi)
 1002      000000
 1003 0007 E9000000 		jmp	_ZN8UnitTest4TestD2Ev
 1003      00
 1004              		.cfi_endproc
 1005              	.LFE1467:
 1007              		.section	.text.unlikely._ZN29TestCore_testInsideWriteConstD2Ev,"axG",@progbits,_ZN29TestCore_testI
 1008              	.LCOLDE38:
 1009              		.section	.text._ZN29TestCore_testInsideWriteConstD2Ev,"axG",@progbits,_ZN29TestCore_testInsideWrit
 1010              	.LHOTE38:
 1011              		.weak	_ZN29TestCore_testInsideWriteConstD1Ev
 1012              		.set	_ZN29TestCore_testInsideWriteConstD1Ev,_ZN29TestCore_testInsideWriteConstD2Ev
 1013              		.section	.text.unlikely._ZN29TestCore_testInsideWriteConstD0Ev,"axG",@progbits,_ZN29TestCore_testI
 1014              		.align 2
 1015              	.LCOLDB39:
 1016              		.section	.text._ZN29TestCore_testInsideWriteConstD0Ev,"axG",@progbits,_ZN29TestCore_testInsideWrit
 1017              	.LHOTB39:
 1018              		.align 2
 1019              		.p2align 4,,15
 1020              		.weak	_ZN29TestCore_testInsideWriteConstD0Ev
 1022              	_ZN29TestCore_testInsideWriteConstD0Ev:
 1023              	.LFB1469:
 1024              		.cfi_startproc
 1025 0000 53       		pushq	%rbx
 1026              		.cfi_def_cfa_offset 16
 1027              		.cfi_offset 3, -16
 1028 0001 4889FB   		movq	%rdi, %rbx
 1029 0004 48C70700 		movq	$_ZTV29TestCore_testInsideWriteConst+16, (%rdi)
 1029      000000
 1030 000b E8000000 		call	_ZN8UnitTest4TestD2Ev
 1030      00
 1031 0010 4889DF   		movq	%rbx, %rdi
 1032 0013 5B       		popq	%rbx
 1033              		.cfi_def_cfa_offset 8
 1034 0014 E9000000 		jmp	_ZdlPv
 1034      00
 1035              		.cfi_endproc
 1036              	.LFE1469:
 1038              		.section	.text.unlikely._ZN29TestCore_testInsideWriteConstD0Ev,"axG",@progbits,_ZN29TestCore_testI
 1039              	.LCOLDE39:
 1040              		.section	.text._ZN29TestCore_testInsideWriteConstD0Ev,"axG",@progbits,_ZN29TestCore_testInsideWrit
 1041              	.LHOTE39:
 1042              		.section	.text.unlikely._ZN32TestCore_testStraddledWriteBlockD2Ev,"axG",@progbits,_ZN32TestCore_te
 1043              		.align 2
 1044              	.LCOLDB40:
 1045              		.section	.text._ZN32TestCore_testStraddledWriteBlockD2Ev,"axG",@progbits,_ZN32TestCore_testStraddl
 1046              	.LHOTB40:
 1047              		.align 2
 1048              		.p2align 4,,15
 1049              		.weak	_ZN32TestCore_testStraddledWriteBlockD2Ev
 1051              	_ZN32TestCore_testStraddledWriteBlockD2Ev:
 1052              	.LFB1471:
 1053              		.cfi_startproc
 1054 0000 48C70700 		movq	$_ZTV32TestCore_testStraddledWriteBlock+16, (%rdi)
 1054      000000
 1055 0007 E9000000 		jmp	_ZN8UnitTest4TestD2Ev
 1055      00
 1056              		.cfi_endproc
 1057              	.LFE1471:
 1059              		.section	.text.unlikely._ZN32TestCore_testStraddledWriteBlockD2Ev,"axG",@progbits,_ZN32TestCore_te
 1060              	.LCOLDE40:
 1061              		.section	.text._ZN32TestCore_testStraddledWriteBlockD2Ev,"axG",@progbits,_ZN32TestCore_testStraddl
 1062              	.LHOTE40:
 1063              		.weak	_ZN32TestCore_testStraddledWriteBlockD1Ev
 1064              		.set	_ZN32TestCore_testStraddledWriteBlockD1Ev,_ZN32TestCore_testStraddledWriteBlockD2Ev
 1065              		.section	.text.unlikely._ZN32TestCore_testStraddledWriteBlockD0Ev,"axG",@progbits,_ZN32TestCore_te
 1066              		.align 2
 1067              	.LCOLDB41:
 1068              		.section	.text._ZN32TestCore_testStraddledWriteBlockD0Ev,"axG",@progbits,_ZN32TestCore_testStraddl
 1069              	.LHOTB41:
 1070              		.align 2
 1071              		.p2align 4,,15
 1072              		.weak	_ZN32TestCore_testStraddledWriteBlockD0Ev
 1074              	_ZN32TestCore_testStraddledWriteBlockD0Ev:
 1075              	.LFB1473:
 1076              		.cfi_startproc
 1077 0000 53       		pushq	%rbx
 1078              		.cfi_def_cfa_offset 16
 1079              		.cfi_offset 3, -16
 1080 0001 4889FB   		movq	%rdi, %rbx
 1081 0004 48C70700 		movq	$_ZTV32TestCore_testStraddledWriteBlock+16, (%rdi)
 1081      000000
 1082 000b E8000000 		call	_ZN8UnitTest4TestD2Ev
 1082      00
 1083 0010 4889DF   		movq	%rbx, %rdi
 1084 0013 5B       		popq	%rbx
 1085              		.cfi_def_cfa_offset 8
 1086 0014 E9000000 		jmp	_ZdlPv
 1086      00
 1087              		.cfi_endproc
 1088              	.LFE1473:
 1090              		.section	.text.unlikely._ZN32TestCore_testStraddledWriteBlockD0Ev,"axG",@progbits,_ZN32TestCore_te
 1091              	.LCOLDE41:
 1092              		.section	.text._ZN32TestCore_testStraddledWriteBlockD0Ev,"axG",@progbits,_ZN32TestCore_testStraddl
 1093              	.LHOTE41:
 1094              		.section	.text.unlikely._ZN30TestCore_testOutsideWriteBlockD2Ev,"axG",@progbits,_ZN30TestCore_test
 1095              		.align 2
 1096              	.LCOLDB42:
 1097              		.section	.text._ZN30TestCore_testOutsideWriteBlockD2Ev,"axG",@progbits,_ZN30TestCore_testOutsideWr
 1098              	.LHOTB42:
 1099              		.align 2
 1100              		.p2align 4,,15
 1101              		.weak	_ZN30TestCore_testOutsideWriteBlockD2Ev
 1103              	_ZN30TestCore_testOutsideWriteBlockD2Ev:
 1104              	.LFB1475:
 1105              		.cfi_startproc
 1106 0000 48C70700 		movq	$_ZTV30TestCore_testOutsideWriteBlock+16, (%rdi)
 1106      000000
 1107 0007 E9000000 		jmp	_ZN8UnitTest4TestD2Ev
 1107      00
 1108              		.cfi_endproc
 1109              	.LFE1475:
 1111              		.section	.text.unlikely._ZN30TestCore_testOutsideWriteBlockD2Ev,"axG",@progbits,_ZN30TestCore_test
 1112              	.LCOLDE42:
 1113              		.section	.text._ZN30TestCore_testOutsideWriteBlockD2Ev,"axG",@progbits,_ZN30TestCore_testOutsideWr
 1114              	.LHOTE42:
 1115              		.weak	_ZN30TestCore_testOutsideWriteBlockD1Ev
 1116              		.set	_ZN30TestCore_testOutsideWriteBlockD1Ev,_ZN30TestCore_testOutsideWriteBlockD2Ev
 1117              		.section	.text.unlikely._ZN30TestCore_testOutsideWriteBlockD0Ev,"axG",@progbits,_ZN30TestCore_test
 1118              		.align 2
 1119              	.LCOLDB43:
 1120              		.section	.text._ZN30TestCore_testOutsideWriteBlockD0Ev,"axG",@progbits,_ZN30TestCore_testOutsideWr
 1121              	.LHOTB43:
 1122              		.align 2
 1123              		.p2align 4,,15
 1124              		.weak	_ZN30TestCore_testOutsideWriteBlockD0Ev
 1126              	_ZN30TestCore_testOutsideWriteBlockD0Ev:
 1127              	.LFB1477:
 1128              		.cfi_startproc
 1129 0000 53       		pushq	%rbx
 1130              		.cfi_def_cfa_offset 16
 1131              		.cfi_offset 3, -16
 1132 0001 4889FB   		movq	%rdi, %rbx
 1133 0004 48C70700 		movq	$_ZTV30TestCore_testOutsideWriteBlock+16, (%rdi)
 1133      000000
 1134 000b E8000000 		call	_ZN8UnitTest4TestD2Ev
 1134      00
 1135 0010 4889DF   		movq	%rbx, %rdi
 1136 0013 5B       		popq	%rbx
 1137              		.cfi_def_cfa_offset 8
 1138 0014 E9000000 		jmp	_ZdlPv
 1138      00
 1139              		.cfi_endproc
 1140              	.LFE1477:
 1142              		.section	.text.unlikely._ZN30TestCore_testOutsideWriteBlockD0Ev,"axG",@progbits,_ZN30TestCore_test
 1143              	.LCOLDE43:
 1144              		.section	.text._ZN30TestCore_testOutsideWriteBlockD0Ev,"axG",@progbits,_ZN30TestCore_testOutsideWr
 1145              	.LHOTE43:
 1146              		.section	.text.unlikely._ZN29TestCore_testInsideWriteBlockD2Ev,"axG",@progbits,_ZN29TestCore_testI
 1147              		.align 2
 1148              	.LCOLDB44:
 1149              		.section	.text._ZN29TestCore_testInsideWriteBlockD2Ev,"axG",@progbits,_ZN29TestCore_testInsideWrit
 1150              	.LHOTB44:
 1151              		.align 2
 1152              		.p2align 4,,15
 1153              		.weak	_ZN29TestCore_testInsideWriteBlockD2Ev
 1155              	_ZN29TestCore_testInsideWriteBlockD2Ev:
 1156              	.LFB1479:
 1157              		.cfi_startproc
 1158 0000 48C70700 		movq	$_ZTV29TestCore_testInsideWriteBlock+16, (%rdi)
 1158      000000
 1159 0007 E9000000 		jmp	_ZN8UnitTest4TestD2Ev
 1159      00
 1160              		.cfi_endproc
 1161              	.LFE1479:
 1163              		.section	.text.unlikely._ZN29TestCore_testInsideWriteBlockD2Ev,"axG",@progbits,_ZN29TestCore_testI
 1164              	.LCOLDE44:
 1165              		.section	.text._ZN29TestCore_testInsideWriteBlockD2Ev,"axG",@progbits,_ZN29TestCore_testInsideWrit
 1166              	.LHOTE44:
 1167              		.weak	_ZN29TestCore_testInsideWriteBlockD1Ev
 1168              		.set	_ZN29TestCore_testInsideWriteBlockD1Ev,_ZN29TestCore_testInsideWriteBlockD2Ev
 1169              		.section	.text.unlikely._ZN29TestCore_testInsideWriteBlockD0Ev,"axG",@progbits,_ZN29TestCore_testI
 1170              		.align 2
 1171              	.LCOLDB45:
 1172              		.section	.text._ZN29TestCore_testInsideWriteBlockD0Ev,"axG",@progbits,_ZN29TestCore_testInsideWrit
 1173              	.LHOTB45:
 1174              		.align 2
 1175              		.p2align 4,,15
 1176              		.weak	_ZN29TestCore_testInsideWriteBlockD0Ev
 1178              	_ZN29TestCore_testInsideWriteBlockD0Ev:
 1179              	.LFB1481:
 1180              		.cfi_startproc
 1181 0000 53       		pushq	%rbx
 1182              		.cfi_def_cfa_offset 16
 1183              		.cfi_offset 3, -16
 1184 0001 4889FB   		movq	%rdi, %rbx
 1185 0004 48C70700 		movq	$_ZTV29TestCore_testInsideWriteBlock+16, (%rdi)
 1185      000000
 1186 000b E8000000 		call	_ZN8UnitTest4TestD2Ev
 1186      00
 1187 0010 4889DF   		movq	%rbx, %rdi
 1188 0013 5B       		popq	%rbx
 1189              		.cfi_def_cfa_offset 8
 1190 0014 E9000000 		jmp	_ZdlPv
 1190      00
 1191              		.cfi_endproc
 1192              	.LFE1481:
 1194              		.section	.text.unlikely._ZN29TestCore_testInsideWriteBlockD0Ev,"axG",@progbits,_ZN29TestCore_testI
 1195              	.LCOLDE45:
 1196              		.section	.text._ZN29TestCore_testInsideWriteBlockD0Ev,"axG",@progbits,_ZN29TestCore_testInsideWrit
 1197              	.LHOTE45:
 1198              		.section	.text.unlikely._ZN28TestCore_testHugeAppendConstD2Ev,"axG",@progbits,_ZN28TestCore_testHu
 1199              		.align 2
 1200              	.LCOLDB46:
 1201              		.section	.text._ZN28TestCore_testHugeAppendConstD2Ev,"axG",@progbits,_ZN28TestCore_testHugeAppendC
 1202              	.LHOTB46:
 1203              		.align 2
 1204              		.p2align 4,,15
 1205              		.weak	_ZN28TestCore_testHugeAppendConstD2Ev
 1207              	_ZN28TestCore_testHugeAppendConstD2Ev:
 1208              	.LFB1483:
 1209              		.cfi_startproc
 1210 0000 48C70700 		movq	$_ZTV28TestCore_testHugeAppendConst+16, (%rdi)
 1210      000000
 1211 0007 E9000000 		jmp	_ZN8UnitTest4TestD2Ev
 1211      00
 1212              		.cfi_endproc
 1213              	.LFE1483:
 1215              		.section	.text.unlikely._ZN28TestCore_testHugeAppendConstD2Ev,"axG",@progbits,_ZN28TestCore_testHu
 1216              	.LCOLDE46:
 1217              		.section	.text._ZN28TestCore_testHugeAppendConstD2Ev,"axG",@progbits,_ZN28TestCore_testHugeAppendC
 1218              	.LHOTE46:
 1219              		.weak	_ZN28TestCore_testHugeAppendConstD1Ev
 1220              		.set	_ZN28TestCore_testHugeAppendConstD1Ev,_ZN28TestCore_testHugeAppendConstD2Ev
 1221              		.section	.text.unlikely._ZN28TestCore_testHugeAppendConstD0Ev,"axG",@progbits,_ZN28TestCore_testHu
 1222              		.align 2
 1223              	.LCOLDB47:
 1224              		.section	.text._ZN28TestCore_testHugeAppendConstD0Ev,"axG",@progbits,_ZN28TestCore_testHugeAppendC
 1225              	.LHOTB47:
 1226              		.align 2
 1227              		.p2align 4,,15
 1228              		.weak	_ZN28TestCore_testHugeAppendConstD0Ev
 1230              	_ZN28TestCore_testHugeAppendConstD0Ev:
 1231              	.LFB1485:
 1232              		.cfi_startproc
 1233 0000 53       		pushq	%rbx
 1234              		.cfi_def_cfa_offset 16
 1235              		.cfi_offset 3, -16
 1236 0001 4889FB   		movq	%rdi, %rbx
 1237 0004 48C70700 		movq	$_ZTV28TestCore_testHugeAppendConst+16, (%rdi)
 1237      000000
 1238 000b E8000000 		call	_ZN8UnitTest4TestD2Ev
 1238      00
 1239 0010 4889DF   		movq	%rbx, %rdi
 1240 0013 5B       		popq	%rbx
 1241              		.cfi_def_cfa_offset 8
 1242 0014 E9000000 		jmp	_ZdlPv
 1242      00
 1243              		.cfi_endproc
 1244              	.LFE1485:
 1246              		.section	.text.unlikely._ZN28TestCore_testHugeAppendConstD0Ev,"axG",@progbits,_ZN28TestCore_testHu
 1247              	.LCOLDE47:
 1248              		.section	.text._ZN28TestCore_testHugeAppendConstD0Ev,"axG",@progbits,_ZN28TestCore_testHugeAppendC
 1249              	.LHOTE47:
 1250              		.section	.text.unlikely._ZN33TestCore_testVeryLargeAppendConstD2Ev,"axG",@progbits,_ZN33TestCore_t
 1251              		.align 2
 1252              	.LCOLDB48:
 1253              		.section	.text._ZN33TestCore_testVeryLargeAppendConstD2Ev,"axG",@progbits,_ZN33TestCore_testVeryLa
 1254              	.LHOTB48:
 1255              		.align 2
 1256              		.p2align 4,,15
 1257              		.weak	_ZN33TestCore_testVeryLargeAppendConstD2Ev
 1259              	_ZN33TestCore_testVeryLargeAppendConstD2Ev:
 1260              	.LFB1487:
 1261              		.cfi_startproc
 1262 0000 48C70700 		movq	$_ZTV33TestCore_testVeryLargeAppendConst+16, (%rdi)
 1262      000000
 1263 0007 E9000000 		jmp	_ZN8UnitTest4TestD2Ev
 1263      00
 1264              		.cfi_endproc
 1265              	.LFE1487:
 1267              		.section	.text.unlikely._ZN33TestCore_testVeryLargeAppendConstD2Ev,"axG",@progbits,_ZN33TestCore_t
 1268              	.LCOLDE48:
 1269              		.section	.text._ZN33TestCore_testVeryLargeAppendConstD2Ev,"axG",@progbits,_ZN33TestCore_testVeryLa
 1270              	.LHOTE48:
 1271              		.weak	_ZN33TestCore_testVeryLargeAppendConstD1Ev
 1272              		.set	_ZN33TestCore_testVeryLargeAppendConstD1Ev,_ZN33TestCore_testVeryLargeAppendConstD2Ev
 1273              		.section	.text.unlikely._ZN33TestCore_testVeryLargeAppendConstD0Ev,"axG",@progbits,_ZN33TestCore_t
 1274              		.align 2
 1275              	.LCOLDB49:
 1276              		.section	.text._ZN33TestCore_testVeryLargeAppendConstD0Ev,"axG",@progbits,_ZN33TestCore_testVeryLa
 1277              	.LHOTB49:
 1278              		.align 2
 1279              		.p2align 4,,15
 1280              		.weak	_ZN33TestCore_testVeryLargeAppendConstD0Ev
 1282              	_ZN33TestCore_testVeryLargeAppendConstD0Ev:
 1283              	.LFB1489:
 1284              		.cfi_startproc
 1285 0000 53       		pushq	%rbx
 1286              		.cfi_def_cfa_offset 16
 1287              		.cfi_offset 3, -16
 1288 0001 4889FB   		movq	%rdi, %rbx
 1289 0004 48C70700 		movq	$_ZTV33TestCore_testVeryLargeAppendConst+16, (%rdi)
 1289      000000
 1290 000b E8000000 		call	_ZN8UnitTest4TestD2Ev
 1290      00
 1291 0010 4889DF   		movq	%rbx, %rdi
 1292 0013 5B       		popq	%rbx
 1293              		.cfi_def_cfa_offset 8
 1294 0014 E9000000 		jmp	_ZdlPv
 1294      00
 1295              		.cfi_endproc
 1296              	.LFE1489:
 1298              		.section	.text.unlikely._ZN33TestCore_testVeryLargeAppendConstD0Ev,"axG",@progbits,_ZN33TestCore_t
 1299              	.LCOLDE49:
 1300              		.section	.text._ZN33TestCore_testVeryLargeAppendConstD0Ev,"axG",@progbits,_ZN33TestCore_testVeryLa
 1301              	.LHOTE49:
 1302              		.section	.text.unlikely._ZN29TestCore_testLargeAppendConstD2Ev,"axG",@progbits,_ZN29TestCore_testL
 1303              		.align 2
 1304              	.LCOLDB50:
 1305              		.section	.text._ZN29TestCore_testLargeAppendConstD2Ev,"axG",@progbits,_ZN29TestCore_testLargeAppen
 1306              	.LHOTB50:
 1307              		.align 2
 1308              		.p2align 4,,15
 1309              		.weak	_ZN29TestCore_testLargeAppendConstD2Ev
 1311              	_ZN29TestCore_testLargeAppendConstD2Ev:
 1312              	.LFB1491:
 1313              		.cfi_startproc
 1314 0000 48C70700 		movq	$_ZTV29TestCore_testLargeAppendConst+16, (%rdi)
 1314      000000
 1315 0007 E9000000 		jmp	_ZN8UnitTest4TestD2Ev
 1315      00
 1316              		.cfi_endproc
 1317              	.LFE1491:
 1319              		.section	.text.unlikely._ZN29TestCore_testLargeAppendConstD2Ev,"axG",@progbits,_ZN29TestCore_testL
 1320              	.LCOLDE50:
 1321              		.section	.text._ZN29TestCore_testLargeAppendConstD2Ev,"axG",@progbits,_ZN29TestCore_testLargeAppen
 1322              	.LHOTE50:
 1323              		.weak	_ZN29TestCore_testLargeAppendConstD1Ev
 1324              		.set	_ZN29TestCore_testLargeAppendConstD1Ev,_ZN29TestCore_testLargeAppendConstD2Ev
 1325              		.section	.text.unlikely._ZN29TestCore_testLargeAppendConstD0Ev,"axG",@progbits,_ZN29TestCore_testL
 1326              		.align 2
 1327              	.LCOLDB51:
 1328              		.section	.text._ZN29TestCore_testLargeAppendConstD0Ev,"axG",@progbits,_ZN29TestCore_testLargeAppen
 1329              	.LHOTB51:
 1330              		.align 2
 1331              		.p2align 4,,15
 1332              		.weak	_ZN29TestCore_testLargeAppendConstD0Ev
 1334              	_ZN29TestCore_testLargeAppendConstD0Ev:
 1335              	.LFB1493:
 1336              		.cfi_startproc
 1337 0000 53       		pushq	%rbx
 1338              		.cfi_def_cfa_offset 16
 1339              		.cfi_offset 3, -16
 1340 0001 4889FB   		movq	%rdi, %rbx
 1341 0004 48C70700 		movq	$_ZTV29TestCore_testLargeAppendConst+16, (%rdi)
 1341      000000
 1342 000b E8000000 		call	_ZN8UnitTest4TestD2Ev
 1342      00
 1343 0010 4889DF   		movq	%rbx, %rdi
 1344 0013 5B       		popq	%rbx
 1345              		.cfi_def_cfa_offset 8
 1346 0014 E9000000 		jmp	_ZdlPv
 1346      00
 1347              		.cfi_endproc
 1348              	.LFE1493:
 1350              		.section	.text.unlikely._ZN29TestCore_testLargeAppendConstD0Ev,"axG",@progbits,_ZN29TestCore_testL
 1351              	.LCOLDE51:
 1352              		.section	.text._ZN29TestCore_testLargeAppendConstD0Ev,"axG",@progbits,_ZN29TestCore_testLargeAppen
 1353              	.LHOTE51:
 1354              		.section	.text.unlikely._ZN32TestCore_testCapacityAppendConstD2Ev,"axG",@progbits,_ZN32TestCore_te
 1355              		.align 2
 1356              	.LCOLDB52:
 1357              		.section	.text._ZN32TestCore_testCapacityAppendConstD2Ev,"axG",@progbits,_ZN32TestCore_testCapacit
 1358              	.LHOTB52:
 1359              		.align 2
 1360              		.p2align 4,,15
 1361              		.weak	_ZN32TestCore_testCapacityAppendConstD2Ev
 1363              	_ZN32TestCore_testCapacityAppendConstD2Ev:
 1364              	.LFB1495:
 1365              		.cfi_startproc
 1366 0000 48C70700 		movq	$_ZTV32TestCore_testCapacityAppendConst+16, (%rdi)
 1366      000000
 1367 0007 E9000000 		jmp	_ZN8UnitTest4TestD2Ev
 1367      00
 1368              		.cfi_endproc
 1369              	.LFE1495:
 1371              		.section	.text.unlikely._ZN32TestCore_testCapacityAppendConstD2Ev,"axG",@progbits,_ZN32TestCore_te
 1372              	.LCOLDE52:
 1373              		.section	.text._ZN32TestCore_testCapacityAppendConstD2Ev,"axG",@progbits,_ZN32TestCore_testCapacit
 1374              	.LHOTE52:
 1375              		.weak	_ZN32TestCore_testCapacityAppendConstD1Ev
 1376              		.set	_ZN32TestCore_testCapacityAppendConstD1Ev,_ZN32TestCore_testCapacityAppendConstD2Ev
 1377              		.section	.text.unlikely._ZN32TestCore_testCapacityAppendConstD0Ev,"axG",@progbits,_ZN32TestCore_te
 1378              		.align 2
 1379              	.LCOLDB53:
 1380              		.section	.text._ZN32TestCore_testCapacityAppendConstD0Ev,"axG",@progbits,_ZN32TestCore_testCapacit
 1381              	.LHOTB53:
 1382              		.align 2
 1383              		.p2align 4,,15
 1384              		.weak	_ZN32TestCore_testCapacityAppendConstD0Ev
 1386              	_ZN32TestCore_testCapacityAppendConstD0Ev:
 1387              	.LFB1497:
 1388              		.cfi_startproc
 1389 0000 53       		pushq	%rbx
 1390              		.cfi_def_cfa_offset 16
 1391              		.cfi_offset 3, -16
 1392 0001 4889FB   		movq	%rdi, %rbx
 1393 0004 48C70700 		movq	$_ZTV32TestCore_testCapacityAppendConst+16, (%rdi)
 1393      000000
 1394 000b E8000000 		call	_ZN8UnitTest4TestD2Ev
 1394      00
 1395 0010 4889DF   		movq	%rbx, %rdi
 1396 0013 5B       		popq	%rbx
 1397              		.cfi_def_cfa_offset 8
 1398 0014 E9000000 		jmp	_ZdlPv
 1398      00
 1399              		.cfi_endproc
 1400              	.LFE1497:
 1402              		.section	.text.unlikely._ZN32TestCore_testCapacityAppendConstD0Ev,"axG",@progbits,_ZN32TestCore_te
 1403              	.LCOLDE53:
 1404              		.section	.text._ZN32TestCore_testCapacityAppendConstD0Ev,"axG",@progbits,_ZN32TestCore_testCapacit
 1405              	.LHOTE53:
 1406              		.section	.text.unlikely._ZN29TestCore_testSmallAppendConstD2Ev,"axG",@progbits,_ZN29TestCore_testS
 1407              		.align 2
 1408              	.LCOLDB54:
 1409              		.section	.text._ZN29TestCore_testSmallAppendConstD2Ev,"axG",@progbits,_ZN29TestCore_testSmallAppen
 1410              	.LHOTB54:
 1411              		.align 2
 1412              		.p2align 4,,15
 1413              		.weak	_ZN29TestCore_testSmallAppendConstD2Ev
 1415              	_ZN29TestCore_testSmallAppendConstD2Ev:
 1416              	.LFB1499:
 1417              		.cfi_startproc
 1418 0000 48C70700 		movq	$_ZTV29TestCore_testSmallAppendConst+16, (%rdi)
 1418      000000
 1419 0007 E9000000 		jmp	_ZN8UnitTest4TestD2Ev
 1419      00
 1420              		.cfi_endproc
 1421              	.LFE1499:
 1423              		.section	.text.unlikely._ZN29TestCore_testSmallAppendConstD2Ev,"axG",@progbits,_ZN29TestCore_testS
 1424              	.LCOLDE54:
 1425              		.section	.text._ZN29TestCore_testSmallAppendConstD2Ev,"axG",@progbits,_ZN29TestCore_testSmallAppen
 1426              	.LHOTE54:
 1427              		.weak	_ZN29TestCore_testSmallAppendConstD1Ev
 1428              		.set	_ZN29TestCore_testSmallAppendConstD1Ev,_ZN29TestCore_testSmallAppendConstD2Ev
 1429              		.section	.text.unlikely._ZN29TestCore_testSmallAppendConstD0Ev,"axG",@progbits,_ZN29TestCore_testS
 1430              		.align 2
 1431              	.LCOLDB55:
 1432              		.section	.text._ZN29TestCore_testSmallAppendConstD0Ev,"axG",@progbits,_ZN29TestCore_testSmallAppen
 1433              	.LHOTB55:
 1434              		.align 2
 1435              		.p2align 4,,15
 1436              		.weak	_ZN29TestCore_testSmallAppendConstD0Ev
 1438              	_ZN29TestCore_testSmallAppendConstD0Ev:
 1439              	.LFB1501:
 1440              		.cfi_startproc
 1441 0000 53       		pushq	%rbx
 1442              		.cfi_def_cfa_offset 16
 1443              		.cfi_offset 3, -16
 1444 0001 4889FB   		movq	%rdi, %rbx
 1445 0004 48C70700 		movq	$_ZTV29TestCore_testSmallAppendConst+16, (%rdi)
 1445      000000
 1446 000b E8000000 		call	_ZN8UnitTest4TestD2Ev
 1446      00
 1447 0010 4889DF   		movq	%rbx, %rdi
 1448 0013 5B       		popq	%rbx
 1449              		.cfi_def_cfa_offset 8
 1450 0014 E9000000 		jmp	_ZdlPv
 1450      00
 1451              		.cfi_endproc
 1452              	.LFE1501:
 1454              		.section	.text.unlikely._ZN29TestCore_testSmallAppendConstD0Ev,"axG",@progbits,_ZN29TestCore_testS
 1455              	.LCOLDE55:
 1456              		.section	.text._ZN29TestCore_testSmallAppendConstD0Ev,"axG",@progbits,_ZN29TestCore_testSmallAppen
 1457              	.LHOTE55:
 1458              		.section	.text.unlikely._ZN33TestCore_testVeryLargeAppendZerosD2Ev,"axG",@progbits,_ZN33TestCore_t
 1459              		.align 2
 1460              	.LCOLDB56:
 1461              		.section	.text._ZN33TestCore_testVeryLargeAppendZerosD2Ev,"axG",@progbits,_ZN33TestCore_testVeryLa
 1462              	.LHOTB56:
 1463              		.align 2
 1464              		.p2align 4,,15
 1465              		.weak	_ZN33TestCore_testVeryLargeAppendZerosD2Ev
 1467              	_ZN33TestCore_testVeryLargeAppendZerosD2Ev:
 1468              	.LFB1503:
 1469              		.cfi_startproc
 1470 0000 48C70700 		movq	$_ZTV33TestCore_testVeryLargeAppendZeros+16, (%rdi)
 1470      000000
 1471 0007 E9000000 		jmp	_ZN8UnitTest4TestD2Ev
 1471      00
 1472              		.cfi_endproc
 1473              	.LFE1503:
 1475              		.section	.text.unlikely._ZN33TestCore_testVeryLargeAppendZerosD2Ev,"axG",@progbits,_ZN33TestCore_t
 1476              	.LCOLDE56:
 1477              		.section	.text._ZN33TestCore_testVeryLargeAppendZerosD2Ev,"axG",@progbits,_ZN33TestCore_testVeryLa
 1478              	.LHOTE56:
 1479              		.weak	_ZN33TestCore_testVeryLargeAppendZerosD1Ev
 1480              		.set	_ZN33TestCore_testVeryLargeAppendZerosD1Ev,_ZN33TestCore_testVeryLargeAppendZerosD2Ev
 1481              		.section	.text.unlikely._ZN33TestCore_testVeryLargeAppendZerosD0Ev,"axG",@progbits,_ZN33TestCore_t
 1482              		.align 2
 1483              	.LCOLDB57:
 1484              		.section	.text._ZN33TestCore_testVeryLargeAppendZerosD0Ev,"axG",@progbits,_ZN33TestCore_testVeryLa
 1485              	.LHOTB57:
 1486              		.align 2
 1487              		.p2align 4,,15
 1488              		.weak	_ZN33TestCore_testVeryLargeAppendZerosD0Ev
 1490              	_ZN33TestCore_testVeryLargeAppendZerosD0Ev:
 1491              	.LFB1505:
 1492              		.cfi_startproc
 1493 0000 53       		pushq	%rbx
 1494              		.cfi_def_cfa_offset 16
 1495              		.cfi_offset 3, -16
 1496 0001 4889FB   		movq	%rdi, %rbx
 1497 0004 48C70700 		movq	$_ZTV33TestCore_testVeryLargeAppendZeros+16, (%rdi)
 1497      000000
 1498 000b E8000000 		call	_ZN8UnitTest4TestD2Ev
 1498      00
 1499 0010 4889DF   		movq	%rbx, %rdi
 1500 0013 5B       		popq	%rbx
 1501              		.cfi_def_cfa_offset 8
 1502 0014 E9000000 		jmp	_ZdlPv
 1502      00
 1503              		.cfi_endproc
 1504              	.LFE1505:
 1506              		.section	.text.unlikely._ZN33TestCore_testVeryLargeAppendZerosD0Ev,"axG",@progbits,_ZN33TestCore_t
 1507              	.LCOLDE57:
 1508              		.section	.text._ZN33TestCore_testVeryLargeAppendZerosD0Ev,"axG",@progbits,_ZN33TestCore_testVeryLa
 1509              	.LHOTE57:
 1510              		.section	.text.unlikely._ZN29TestCore_testLargeAppendZerosD2Ev,"axG",@progbits,_ZN29TestCore_testL
 1511              		.align 2
 1512              	.LCOLDB58:
 1513              		.section	.text._ZN29TestCore_testLargeAppendZerosD2Ev,"axG",@progbits,_ZN29TestCore_testLargeAppen
 1514              	.LHOTB58:
 1515              		.align 2
 1516              		.p2align 4,,15
 1517              		.weak	_ZN29TestCore_testLargeAppendZerosD2Ev
 1519              	_ZN29TestCore_testLargeAppendZerosD2Ev:
 1520              	.LFB1507:
 1521              		.cfi_startproc
 1522 0000 48C70700 		movq	$_ZTV29TestCore_testLargeAppendZeros+16, (%rdi)
 1522      000000
 1523 0007 E9000000 		jmp	_ZN8UnitTest4TestD2Ev
 1523      00
 1524              		.cfi_endproc
 1525              	.LFE1507:
 1527              		.section	.text.unlikely._ZN29TestCore_testLargeAppendZerosD2Ev,"axG",@progbits,_ZN29TestCore_testL
 1528              	.LCOLDE58:
 1529              		.section	.text._ZN29TestCore_testLargeAppendZerosD2Ev,"axG",@progbits,_ZN29TestCore_testLargeAppen
 1530              	.LHOTE58:
 1531              		.weak	_ZN29TestCore_testLargeAppendZerosD1Ev
 1532              		.set	_ZN29TestCore_testLargeAppendZerosD1Ev,_ZN29TestCore_testLargeAppendZerosD2Ev
 1533              		.section	.text.unlikely._ZN29TestCore_testLargeAppendZerosD0Ev,"axG",@progbits,_ZN29TestCore_testL
 1534              		.align 2
 1535              	.LCOLDB59:
 1536              		.section	.text._ZN29TestCore_testLargeAppendZerosD0Ev,"axG",@progbits,_ZN29TestCore_testLargeAppen
 1537              	.LHOTB59:
 1538              		.align 2
 1539              		.p2align 4,,15
 1540              		.weak	_ZN29TestCore_testLargeAppendZerosD0Ev
 1542              	_ZN29TestCore_testLargeAppendZerosD0Ev:
 1543              	.LFB1509:
 1544              		.cfi_startproc
 1545 0000 53       		pushq	%rbx
 1546              		.cfi_def_cfa_offset 16
 1547              		.cfi_offset 3, -16
 1548 0001 4889FB   		movq	%rdi, %rbx
 1549 0004 48C70700 		movq	$_ZTV29TestCore_testLargeAppendZeros+16, (%rdi)
 1549      000000
 1550 000b E8000000 		call	_ZN8UnitTest4TestD2Ev
 1550      00
 1551 0010 4889DF   		movq	%rbx, %rdi
 1552 0013 5B       		popq	%rbx
 1553              		.cfi_def_cfa_offset 8
 1554 0014 E9000000 		jmp	_ZdlPv
 1554      00
 1555              		.cfi_endproc
 1556              	.LFE1509:
 1558              		.section	.text.unlikely._ZN29TestCore_testLargeAppendZerosD0Ev,"axG",@progbits,_ZN29TestCore_testL
 1559              	.LCOLDE59:
 1560              		.section	.text._ZN29TestCore_testLargeAppendZerosD0Ev,"axG",@progbits,_ZN29TestCore_testLargeAppen
 1561              	.LHOTE59:
 1562              		.section	.text.unlikely._ZN32TestCore_testCapacityAppendZerosD2Ev,"axG",@progbits,_ZN32TestCore_te
 1563              		.align 2
 1564              	.LCOLDB60:
 1565              		.section	.text._ZN32TestCore_testCapacityAppendZerosD2Ev,"axG",@progbits,_ZN32TestCore_testCapacit
 1566              	.LHOTB60:
 1567              		.align 2
 1568              		.p2align 4,,15
 1569              		.weak	_ZN32TestCore_testCapacityAppendZerosD2Ev
 1571              	_ZN32TestCore_testCapacityAppendZerosD2Ev:
 1572              	.LFB1511:
 1573              		.cfi_startproc
 1574 0000 48C70700 		movq	$_ZTV32TestCore_testCapacityAppendZeros+16, (%rdi)
 1574      000000
 1575 0007 E9000000 		jmp	_ZN8UnitTest4TestD2Ev
 1575      00
 1576              		.cfi_endproc
 1577              	.LFE1511:
 1579              		.section	.text.unlikely._ZN32TestCore_testCapacityAppendZerosD2Ev,"axG",@progbits,_ZN32TestCore_te
 1580              	.LCOLDE60:
 1581              		.section	.text._ZN32TestCore_testCapacityAppendZerosD2Ev,"axG",@progbits,_ZN32TestCore_testCapacit
 1582              	.LHOTE60:
 1583              		.weak	_ZN32TestCore_testCapacityAppendZerosD1Ev
 1584              		.set	_ZN32TestCore_testCapacityAppendZerosD1Ev,_ZN32TestCore_testCapacityAppendZerosD2Ev
 1585              		.section	.text.unlikely._ZN32TestCore_testCapacityAppendZerosD0Ev,"axG",@progbits,_ZN32TestCore_te
 1586              		.align 2
 1587              	.LCOLDB61:
 1588              		.section	.text._ZN32TestCore_testCapacityAppendZerosD0Ev,"axG",@progbits,_ZN32TestCore_testCapacit
 1589              	.LHOTB61:
 1590              		.align 2
 1591              		.p2align 4,,15
 1592              		.weak	_ZN32TestCore_testCapacityAppendZerosD0Ev
 1594              	_ZN32TestCore_testCapacityAppendZerosD0Ev:
 1595              	.LFB1513:
 1596              		.cfi_startproc
 1597 0000 53       		pushq	%rbx
 1598              		.cfi_def_cfa_offset 16
 1599              		.cfi_offset 3, -16
 1600 0001 4889FB   		movq	%rdi, %rbx
 1601 0004 48C70700 		movq	$_ZTV32TestCore_testCapacityAppendZeros+16, (%rdi)
 1601      000000
 1602 000b E8000000 		call	_ZN8UnitTest4TestD2Ev
 1602      00
 1603 0010 4889DF   		movq	%rbx, %rdi
 1604 0013 5B       		popq	%rbx
 1605              		.cfi_def_cfa_offset 8
 1606 0014 E9000000 		jmp	_ZdlPv
 1606      00
 1607              		.cfi_endproc
 1608              	.LFE1513:
 1610              		.section	.text.unlikely._ZN32TestCore_testCapacityAppendZerosD0Ev,"axG",@progbits,_ZN32TestCore_te
 1611              	.LCOLDE61:
 1612              		.section	.text._ZN32TestCore_testCapacityAppendZerosD0Ev,"axG",@progbits,_ZN32TestCore_testCapacit
 1613              	.LHOTE61:
 1614              		.section	.text.unlikely._ZN29TestCore_testSmallAppendZerosD2Ev,"axG",@progbits,_ZN29TestCore_testS
 1615              		.align 2
 1616              	.LCOLDB62:
 1617              		.section	.text._ZN29TestCore_testSmallAppendZerosD2Ev,"axG",@progbits,_ZN29TestCore_testSmallAppen
 1618              	.LHOTB62:
 1619              		.align 2
 1620              		.p2align 4,,15
 1621              		.weak	_ZN29TestCore_testSmallAppendZerosD2Ev
 1623              	_ZN29TestCore_testSmallAppendZerosD2Ev:
 1624              	.LFB1515:
 1625              		.cfi_startproc
 1626 0000 48C70700 		movq	$_ZTV29TestCore_testSmallAppendZeros+16, (%rdi)
 1626      000000
 1627 0007 E9000000 		jmp	_ZN8UnitTest4TestD2Ev
 1627      00
 1628              		.cfi_endproc
 1629              	.LFE1515:
 1631              		.section	.text.unlikely._ZN29TestCore_testSmallAppendZerosD2Ev,"axG",@progbits,_ZN29TestCore_testS
 1632              	.LCOLDE62:
 1633              		.section	.text._ZN29TestCore_testSmallAppendZerosD2Ev,"axG",@progbits,_ZN29TestCore_testSmallAppen
 1634              	.LHOTE62:
 1635              		.weak	_ZN29TestCore_testSmallAppendZerosD1Ev
 1636              		.set	_ZN29TestCore_testSmallAppendZerosD1Ev,_ZN29TestCore_testSmallAppendZerosD2Ev
 1637              		.section	.text.unlikely._ZN29TestCore_testSmallAppendZerosD0Ev,"axG",@progbits,_ZN29TestCore_testS
 1638              		.align 2
 1639              	.LCOLDB63:
 1640              		.section	.text._ZN29TestCore_testSmallAppendZerosD0Ev,"axG",@progbits,_ZN29TestCore_testSmallAppen
 1641              	.LHOTB63:
 1642              		.align 2
 1643              		.p2align 4,,15
 1644              		.weak	_ZN29TestCore_testSmallAppendZerosD0Ev
 1646              	_ZN29TestCore_testSmallAppendZerosD0Ev:
 1647              	.LFB1517:
 1648              		.cfi_startproc
 1649 0000 53       		pushq	%rbx
 1650              		.cfi_def_cfa_offset 16
 1651              		.cfi_offset 3, -16
 1652 0001 4889FB   		movq	%rdi, %rbx
 1653 0004 48C70700 		movq	$_ZTV29TestCore_testSmallAppendZeros+16, (%rdi)
 1653      000000
 1654 000b E8000000 		call	_ZN8UnitTest4TestD2Ev
 1654      00
 1655 0010 4889DF   		movq	%rbx, %rdi
 1656 0013 5B       		popq	%rbx
 1657              		.cfi_def_cfa_offset 8
 1658 0014 E9000000 		jmp	_ZdlPv
 1658      00
 1659              		.cfi_endproc
 1660              	.LFE1517:
 1662              		.section	.text.unlikely._ZN29TestCore_testSmallAppendZerosD0Ev,"axG",@progbits,_ZN29TestCore_testS
 1663              	.LCOLDE63:
 1664              		.section	.text._ZN29TestCore_testSmallAppendZerosD0Ev,"axG",@progbits,_ZN29TestCore_testSmallAppen
 1665              	.LHOTE63:
 1666              		.section	.text.unlikely._ZN25TestCore_testAppendLongBED2Ev,"axG",@progbits,_ZN25TestCore_testAppen
 1667              		.align 2
 1668              	.LCOLDB64:
 1669              		.section	.text._ZN25TestCore_testAppendLongBED2Ev,"axG",@progbits,_ZN25TestCore_testAppendLongBED5
 1670              	.LHOTB64:
 1671              		.align 2
 1672              		.p2align 4,,15
 1673              		.weak	_ZN25TestCore_testAppendLongBED2Ev
 1675              	_ZN25TestCore_testAppendLongBED2Ev:
 1676              	.LFB1519:
 1677              		.cfi_startproc
 1678 0000 48C70700 		movq	$_ZTV25TestCore_testAppendLongBE+16, (%rdi)
 1678      000000
 1679 0007 E9000000 		jmp	_ZN8UnitTest4TestD2Ev
 1679      00
 1680              		.cfi_endproc
 1681              	.LFE1519:
 1683              		.section	.text.unlikely._ZN25TestCore_testAppendLongBED2Ev,"axG",@progbits,_ZN25TestCore_testAppen
 1684              	.LCOLDE64:
 1685              		.section	.text._ZN25TestCore_testAppendLongBED2Ev,"axG",@progbits,_ZN25TestCore_testAppendLongBED5
 1686              	.LHOTE64:
 1687              		.weak	_ZN25TestCore_testAppendLongBED1Ev
 1688              		.set	_ZN25TestCore_testAppendLongBED1Ev,_ZN25TestCore_testAppendLongBED2Ev
 1689              		.section	.text.unlikely._ZN25TestCore_testAppendLongBED0Ev,"axG",@progbits,_ZN25TestCore_testAppen
 1690              		.align 2
 1691              	.LCOLDB65:
 1692              		.section	.text._ZN25TestCore_testAppendLongBED0Ev,"axG",@progbits,_ZN25TestCore_testAppendLongBED5
 1693              	.LHOTB65:
 1694              		.align 2
 1695              		.p2align 4,,15
 1696              		.weak	_ZN25TestCore_testAppendLongBED0Ev
 1698              	_ZN25TestCore_testAppendLongBED0Ev:
 1699              	.LFB1521:
 1700              		.cfi_startproc
 1701 0000 53       		pushq	%rbx
 1702              		.cfi_def_cfa_offset 16
 1703              		.cfi_offset 3, -16
 1704 0001 4889FB   		movq	%rdi, %rbx
 1705 0004 48C70700 		movq	$_ZTV25TestCore_testAppendLongBE+16, (%rdi)
 1705      000000
 1706 000b E8000000 		call	_ZN8UnitTest4TestD2Ev
 1706      00
 1707 0010 4889DF   		movq	%rbx, %rdi
 1708 0013 5B       		popq	%rbx
 1709              		.cfi_def_cfa_offset 8
 1710 0014 E9000000 		jmp	_ZdlPv
 1710      00
 1711              		.cfi_endproc
 1712              	.LFE1521:
 1714              		.section	.text.unlikely._ZN25TestCore_testAppendLongBED0Ev,"axG",@progbits,_ZN25TestCore_testAppen
 1715              	.LCOLDE65:
 1716              		.section	.text._ZN25TestCore_testAppendLongBED0Ev,"axG",@progbits,_ZN25TestCore_testAppendLongBED5
 1717              	.LHOTE65:
 1718              		.section	.text.unlikely._ZN25TestCore_testAppendLongLED2Ev,"axG",@progbits,_ZN25TestCore_testAppen
 1719              		.align 2
 1720              	.LCOLDB66:
 1721              		.section	.text._ZN25TestCore_testAppendLongLED2Ev,"axG",@progbits,_ZN25TestCore_testAppendLongLED5
 1722              	.LHOTB66:
 1723              		.align 2
 1724              		.p2align 4,,15
 1725              		.weak	_ZN25TestCore_testAppendLongLED2Ev
 1727              	_ZN25TestCore_testAppendLongLED2Ev:
 1728              	.LFB1523:
 1729              		.cfi_startproc
 1730 0000 48C70700 		movq	$_ZTV25TestCore_testAppendLongLE+16, (%rdi)
 1730      000000
 1731 0007 E9000000 		jmp	_ZN8UnitTest4TestD2Ev
 1731      00
 1732              		.cfi_endproc
 1733              	.LFE1523:
 1735              		.section	.text.unlikely._ZN25TestCore_testAppendLongLED2Ev,"axG",@progbits,_ZN25TestCore_testAppen
 1736              	.LCOLDE66:
 1737              		.section	.text._ZN25TestCore_testAppendLongLED2Ev,"axG",@progbits,_ZN25TestCore_testAppendLongLED5
 1738              	.LHOTE66:
 1739              		.weak	_ZN25TestCore_testAppendLongLED1Ev
 1740              		.set	_ZN25TestCore_testAppendLongLED1Ev,_ZN25TestCore_testAppendLongLED2Ev
 1741              		.section	.text.unlikely._ZN25TestCore_testAppendLongLED0Ev,"axG",@progbits,_ZN25TestCore_testAppen
 1742              		.align 2
 1743              	.LCOLDB67:
 1744              		.section	.text._ZN25TestCore_testAppendLongLED0Ev,"axG",@progbits,_ZN25TestCore_testAppendLongLED5
 1745              	.LHOTB67:
 1746              		.align 2
 1747              		.p2align 4,,15
 1748              		.weak	_ZN25TestCore_testAppendLongLED0Ev
 1750              	_ZN25TestCore_testAppendLongLED0Ev:
 1751              	.LFB1525:
 1752              		.cfi_startproc
 1753 0000 53       		pushq	%rbx
 1754              		.cfi_def_cfa_offset 16
 1755              		.cfi_offset 3, -16
 1756 0001 4889FB   		movq	%rdi, %rbx
 1757 0004 48C70700 		movq	$_ZTV25TestCore_testAppendLongLE+16, (%rdi)
 1757      000000
 1758 000b E8000000 		call	_ZN8UnitTest4TestD2Ev
 1758      00
 1759 0010 4889DF   		movq	%rbx, %rdi
 1760 0013 5B       		popq	%rbx
 1761              		.cfi_def_cfa_offset 8
 1762 0014 E9000000 		jmp	_ZdlPv
 1762      00
 1763              		.cfi_endproc
 1764              	.LFE1525:
 1766              		.section	.text.unlikely._ZN25TestCore_testAppendLongLED0Ev,"axG",@progbits,_ZN25TestCore_testAppen
 1767              	.LCOLDE67:
 1768              		.section	.text._ZN25TestCore_testAppendLongLED0Ev,"axG",@progbits,_ZN25TestCore_testAppendLongLED5
 1769              	.LHOTE67:
 1770              		.section	.text.unlikely._ZN25TestCore_testAppendWordBED2Ev,"axG",@progbits,_ZN25TestCore_testAppen
 1771              		.align 2
 1772              	.LCOLDB68:
 1773              		.section	.text._ZN25TestCore_testAppendWordBED2Ev,"axG",@progbits,_ZN25TestCore_testAppendWordBED5
 1774              	.LHOTB68:
 1775              		.align 2
 1776              		.p2align 4,,15
 1777              		.weak	_ZN25TestCore_testAppendWordBED2Ev
 1779              	_ZN25TestCore_testAppendWordBED2Ev:
 1780              	.LFB1527:
 1781              		.cfi_startproc
 1782 0000 48C70700 		movq	$_ZTV25TestCore_testAppendWordBE+16, (%rdi)
 1782      000000
 1783 0007 E9000000 		jmp	_ZN8UnitTest4TestD2Ev
 1783      00
 1784              		.cfi_endproc
 1785              	.LFE1527:
 1787              		.section	.text.unlikely._ZN25TestCore_testAppendWordBED2Ev,"axG",@progbits,_ZN25TestCore_testAppen
 1788              	.LCOLDE68:
 1789              		.section	.text._ZN25TestCore_testAppendWordBED2Ev,"axG",@progbits,_ZN25TestCore_testAppendWordBED5
 1790              	.LHOTE68:
 1791              		.weak	_ZN25TestCore_testAppendWordBED1Ev
 1792              		.set	_ZN25TestCore_testAppendWordBED1Ev,_ZN25TestCore_testAppendWordBED2Ev
 1793              		.section	.text.unlikely._ZN25TestCore_testAppendWordBED0Ev,"axG",@progbits,_ZN25TestCore_testAppen
 1794              		.align 2
 1795              	.LCOLDB69:
 1796              		.section	.text._ZN25TestCore_testAppendWordBED0Ev,"axG",@progbits,_ZN25TestCore_testAppendWordBED5
 1797              	.LHOTB69:
 1798              		.align 2
 1799              		.p2align 4,,15
 1800              		.weak	_ZN25TestCore_testAppendWordBED0Ev
 1802              	_ZN25TestCore_testAppendWordBED0Ev:
 1803              	.LFB1529:
 1804              		.cfi_startproc
 1805 0000 53       		pushq	%rbx
 1806              		.cfi_def_cfa_offset 16
 1807              		.cfi_offset 3, -16
 1808 0001 4889FB   		movq	%rdi, %rbx
 1809 0004 48C70700 		movq	$_ZTV25TestCore_testAppendWordBE+16, (%rdi)
 1809      000000
 1810 000b E8000000 		call	_ZN8UnitTest4TestD2Ev
 1810      00
 1811 0010 4889DF   		movq	%rbx, %rdi
 1812 0013 5B       		popq	%rbx
 1813              		.cfi_def_cfa_offset 8
 1814 0014 E9000000 		jmp	_ZdlPv
 1814      00
 1815              		.cfi_endproc
 1816              	.LFE1529:
 1818              		.section	.text.unlikely._ZN25TestCore_testAppendWordBED0Ev,"axG",@progbits,_ZN25TestCore_testAppen
 1819              	.LCOLDE69:
 1820              		.section	.text._ZN25TestCore_testAppendWordBED0Ev,"axG",@progbits,_ZN25TestCore_testAppendWordBED5
 1821              	.LHOTE69:
 1822              		.section	.text.unlikely._ZN25TestCore_testAppendWordLED2Ev,"axG",@progbits,_ZN25TestCore_testAppen
 1823              		.align 2
 1824              	.LCOLDB70:
 1825              		.section	.text._ZN25TestCore_testAppendWordLED2Ev,"axG",@progbits,_ZN25TestCore_testAppendWordLED5
 1826              	.LHOTB70:
 1827              		.align 2
 1828              		.p2align 4,,15
 1829              		.weak	_ZN25TestCore_testAppendWordLED2Ev
 1831              	_ZN25TestCore_testAppendWordLED2Ev:
 1832              	.LFB1531:
 1833              		.cfi_startproc
 1834 0000 48C70700 		movq	$_ZTV25TestCore_testAppendWordLE+16, (%rdi)
 1834      000000
 1835 0007 E9000000 		jmp	_ZN8UnitTest4TestD2Ev
 1835      00
 1836              		.cfi_endproc
 1837              	.LFE1531:
 1839              		.section	.text.unlikely._ZN25TestCore_testAppendWordLED2Ev,"axG",@progbits,_ZN25TestCore_testAppen
 1840              	.LCOLDE70:
 1841              		.section	.text._ZN25TestCore_testAppendWordLED2Ev,"axG",@progbits,_ZN25TestCore_testAppendWordLED5
 1842              	.LHOTE70:
 1843              		.weak	_ZN25TestCore_testAppendWordLED1Ev
 1844              		.set	_ZN25TestCore_testAppendWordLED1Ev,_ZN25TestCore_testAppendWordLED2Ev
 1845              		.section	.text.unlikely._ZN25TestCore_testAppendWordLED0Ev,"axG",@progbits,_ZN25TestCore_testAppen
 1846              		.align 2
 1847              	.LCOLDB71:
 1848              		.section	.text._ZN25TestCore_testAppendWordLED0Ev,"axG",@progbits,_ZN25TestCore_testAppendWordLED5
 1849              	.LHOTB71:
 1850              		.align 2
 1851              		.p2align 4,,15
 1852              		.weak	_ZN25TestCore_testAppendWordLED0Ev
 1854              	_ZN25TestCore_testAppendWordLED0Ev:
 1855              	.LFB1533:
 1856              		.cfi_startproc
 1857 0000 53       		pushq	%rbx
 1858              		.cfi_def_cfa_offset 16
 1859              		.cfi_offset 3, -16
 1860 0001 4889FB   		movq	%rdi, %rbx
 1861 0004 48C70700 		movq	$_ZTV25TestCore_testAppendWordLE+16, (%rdi)
 1861      000000
 1862 000b E8000000 		call	_ZN8UnitTest4TestD2Ev
 1862      00
 1863 0010 4889DF   		movq	%rbx, %rdi
 1864 0013 5B       		popq	%rbx
 1865              		.cfi_def_cfa_offset 8
 1866 0014 E9000000 		jmp	_ZdlPv
 1866      00
 1867              		.cfi_endproc
 1868              	.LFE1533:
 1870              		.section	.text.unlikely._ZN25TestCore_testAppendWordLED0Ev,"axG",@progbits,_ZN25TestCore_testAppen
 1871              	.LCOLDE71:
 1872              		.section	.text._ZN25TestCore_testAppendWordLED0Ev,"axG",@progbits,_ZN25TestCore_testAppendWordLED5
 1873              	.LHOTE71:
 1874              		.section	.text.unlikely._ZN23TestCore_testAppendByteD2Ev,"axG",@progbits,_ZN23TestCore_testAppendB
 1875              		.align 2
 1876              	.LCOLDB72:
 1877              		.section	.text._ZN23TestCore_testAppendByteD2Ev,"axG",@progbits,_ZN23TestCore_testAppendByteD5Ev,c
 1878              	.LHOTB72:
 1879              		.align 2
 1880              		.p2align 4,,15
 1881              		.weak	_ZN23TestCore_testAppendByteD2Ev
 1883              	_ZN23TestCore_testAppendByteD2Ev:
 1884              	.LFB1535:
 1885              		.cfi_startproc
 1886 0000 48C70700 		movq	$_ZTV23TestCore_testAppendByte+16, (%rdi)
 1886      000000
 1887 0007 E9000000 		jmp	_ZN8UnitTest4TestD2Ev
 1887      00
 1888              		.cfi_endproc
 1889              	.LFE1535:
 1891              		.section	.text.unlikely._ZN23TestCore_testAppendByteD2Ev,"axG",@progbits,_ZN23TestCore_testAppendB
 1892              	.LCOLDE72:
 1893              		.section	.text._ZN23TestCore_testAppendByteD2Ev,"axG",@progbits,_ZN23TestCore_testAppendByteD5Ev,c
 1894              	.LHOTE72:
 1895              		.weak	_ZN23TestCore_testAppendByteD1Ev
 1896              		.set	_ZN23TestCore_testAppendByteD1Ev,_ZN23TestCore_testAppendByteD2Ev
 1897              		.section	.text.unlikely._ZN23TestCore_testAppendByteD0Ev,"axG",@progbits,_ZN23TestCore_testAppendB
 1898              		.align 2
 1899              	.LCOLDB73:
 1900              		.section	.text._ZN23TestCore_testAppendByteD0Ev,"axG",@progbits,_ZN23TestCore_testAppendByteD5Ev,c
 1901              	.LHOTB73:
 1902              		.align 2
 1903              		.p2align 4,,15
 1904              		.weak	_ZN23TestCore_testAppendByteD0Ev
 1906              	_ZN23TestCore_testAppendByteD0Ev:
 1907              	.LFB1537:
 1908              		.cfi_startproc
 1909 0000 53       		pushq	%rbx
 1910              		.cfi_def_cfa_offset 16
 1911              		.cfi_offset 3, -16
 1912 0001 4889FB   		movq	%rdi, %rbx
 1913 0004 48C70700 		movq	$_ZTV23TestCore_testAppendByte+16, (%rdi)
 1913      000000
 1914 000b E8000000 		call	_ZN8UnitTest4TestD2Ev
 1914      00
 1915 0010 4889DF   		movq	%rbx, %rdi
 1916 0013 5B       		popq	%rbx
 1917              		.cfi_def_cfa_offset 8
 1918 0014 E9000000 		jmp	_ZdlPv
 1918      00
 1919              		.cfi_endproc
 1920              	.LFE1537:
 1922              		.section	.text.unlikely._ZN23TestCore_testAppendByteD0Ev,"axG",@progbits,_ZN23TestCore_testAppendB
 1923              	.LCOLDE73:
 1924              		.section	.text._ZN23TestCore_testAppendByteD0Ev,"axG",@progbits,_ZN23TestCore_testAppendByteD5Ev,c
 1925              	.LHOTE73:
 1926              		.section	.text.unlikely._ZN39TestCore_testVeryLargeAppendBlockInitFFD2Ev,"axG",@progbits,_ZN39Test
 1927              		.align 2
 1928              	.LCOLDB74:
 1929              		.section	.text._ZN39TestCore_testVeryLargeAppendBlockInitFFD2Ev,"axG",@progbits,_ZN39TestCore_test
 1930              	.LHOTB74:
 1931              		.align 2
 1932              		.p2align 4,,15
 1933              		.weak	_ZN39TestCore_testVeryLargeAppendBlockInitFFD2Ev
 1935              	_ZN39TestCore_testVeryLargeAppendBlockInitFFD2Ev:
 1936              	.LFB1539:
 1937              		.cfi_startproc
 1938 0000 48C70700 		movq	$_ZTV39TestCore_testVeryLargeAppendBlockInitFF+16, (%rdi)
 1938      000000
 1939 0007 E9000000 		jmp	_ZN8UnitTest4TestD2Ev
 1939      00
 1940              		.cfi_endproc
 1941              	.LFE1539:
 1943              		.section	.text.unlikely._ZN39TestCore_testVeryLargeAppendBlockInitFFD2Ev,"axG",@progbits,_ZN39Test
 1944              	.LCOLDE74:
 1945              		.section	.text._ZN39TestCore_testVeryLargeAppendBlockInitFFD2Ev,"axG",@progbits,_ZN39TestCore_test
 1946              	.LHOTE74:
 1947              		.weak	_ZN39TestCore_testVeryLargeAppendBlockInitFFD1Ev
 1948              		.set	_ZN39TestCore_testVeryLargeAppendBlockInitFFD1Ev,_ZN39TestCore_testVeryLargeAppendBlockInitFF
 1949              		.section	.text.unlikely._ZN39TestCore_testVeryLargeAppendBlockInitFFD0Ev,"axG",@progbits,_ZN39Test
 1950              		.align 2
 1951              	.LCOLDB75:
 1952              		.section	.text._ZN39TestCore_testVeryLargeAppendBlockInitFFD0Ev,"axG",@progbits,_ZN39TestCore_test
 1953              	.LHOTB75:
 1954              		.align 2
 1955              		.p2align 4,,15
 1956              		.weak	_ZN39TestCore_testVeryLargeAppendBlockInitFFD0Ev
 1958              	_ZN39TestCore_testVeryLargeAppendBlockInitFFD0Ev:
 1959              	.LFB1541:
 1960              		.cfi_startproc
 1961 0000 53       		pushq	%rbx
 1962              		.cfi_def_cfa_offset 16
 1963              		.cfi_offset 3, -16
 1964 0001 4889FB   		movq	%rdi, %rbx
 1965 0004 48C70700 		movq	$_ZTV39TestCore_testVeryLargeAppendBlockInitFF+16, (%rdi)
 1965      000000
 1966 000b E8000000 		call	_ZN8UnitTest4TestD2Ev
 1966      00
 1967 0010 4889DF   		movq	%rbx, %rdi
 1968 0013 5B       		popq	%rbx
 1969              		.cfi_def_cfa_offset 8
 1970 0014 E9000000 		jmp	_ZdlPv
 1970      00
 1971              		.cfi_endproc
 1972              	.LFE1541:
 1974              		.section	.text.unlikely._ZN39TestCore_testVeryLargeAppendBlockInitFFD0Ev,"axG",@progbits,_ZN39Test
 1975              	.LCOLDE75:
 1976              		.section	.text._ZN39TestCore_testVeryLargeAppendBlockInitFFD0Ev,"axG",@progbits,_ZN39TestCore_test
 1977              	.LHOTE75:
 1978              		.section	.text.unlikely._ZN41TestCore_testVeryLargeAppendBlockInitZeroD2Ev,"axG",@progbits,_ZN41Te
 1979              		.align 2
 1980              	.LCOLDB76:
 1981              		.section	.text._ZN41TestCore_testVeryLargeAppendBlockInitZeroD2Ev,"axG",@progbits,_ZN41TestCore_te
 1982              	.LHOTB76:
 1983              		.align 2
 1984              		.p2align 4,,15
 1985              		.weak	_ZN41TestCore_testVeryLargeAppendBlockInitZeroD2Ev
 1987              	_ZN41TestCore_testVeryLargeAppendBlockInitZeroD2Ev:
 1988              	.LFB1543:
 1989              		.cfi_startproc
 1990 0000 48C70700 		movq	$_ZTV41TestCore_testVeryLargeAppendBlockInitZero+16, (%rdi)
 1990      000000
 1991 0007 E9000000 		jmp	_ZN8UnitTest4TestD2Ev
 1991      00
 1992              		.cfi_endproc
 1993              	.LFE1543:
 1995              		.section	.text.unlikely._ZN41TestCore_testVeryLargeAppendBlockInitZeroD2Ev,"axG",@progbits,_ZN41Te
 1996              	.LCOLDE76:
 1997              		.section	.text._ZN41TestCore_testVeryLargeAppendBlockInitZeroD2Ev,"axG",@progbits,_ZN41TestCore_te
 1998              	.LHOTE76:
 1999              		.weak	_ZN41TestCore_testVeryLargeAppendBlockInitZeroD1Ev
 2000              		.set	_ZN41TestCore_testVeryLargeAppendBlockInitZeroD1Ev,_ZN41TestCore_testVeryLargeAppendBlockInit
 2001              		.section	.text.unlikely._ZN41TestCore_testVeryLargeAppendBlockInitZeroD0Ev,"axG",@progbits,_ZN41Te
 2002              		.align 2
 2003              	.LCOLDB77:
 2004              		.section	.text._ZN41TestCore_testVeryLargeAppendBlockInitZeroD0Ev,"axG",@progbits,_ZN41TestCore_te
 2005              	.LHOTB77:
 2006              		.align 2
 2007              		.p2align 4,,15
 2008              		.weak	_ZN41TestCore_testVeryLargeAppendBlockInitZeroD0Ev
 2010              	_ZN41TestCore_testVeryLargeAppendBlockInitZeroD0Ev:
 2011              	.LFB1545:
 2012              		.cfi_startproc
 2013 0000 53       		pushq	%rbx
 2014              		.cfi_def_cfa_offset 16
 2015              		.cfi_offset 3, -16
 2016 0001 4889FB   		movq	%rdi, %rbx
 2017 0004 48C70700 		movq	$_ZTV41TestCore_testVeryLargeAppendBlockInitZero+16, (%rdi)
 2017      000000
 2018 000b E8000000 		call	_ZN8UnitTest4TestD2Ev
 2018      00
 2019 0010 4889DF   		movq	%rbx, %rdi
 2020 0013 5B       		popq	%rbx
 2021              		.cfi_def_cfa_offset 8
 2022 0014 E9000000 		jmp	_ZdlPv
 2022      00
 2023              		.cfi_endproc
 2024              	.LFE1545:
 2026              		.section	.text.unlikely._ZN41TestCore_testVeryLargeAppendBlockInitZeroD0Ev,"axG",@progbits,_ZN41Te
 2027              	.LCOLDE77:
 2028              		.section	.text._ZN41TestCore_testVeryLargeAppendBlockInitZeroD0Ev,"axG",@progbits,_ZN41TestCore_te
 2029              	.LHOTE77:
 2030              		.section	.text.unlikely._ZN29TestCore_testLargeAppendBlockD2Ev,"axG",@progbits,_ZN29TestCore_testL
 2031              		.align 2
 2032              	.LCOLDB78:
 2033              		.section	.text._ZN29TestCore_testLargeAppendBlockD2Ev,"axG",@progbits,_ZN29TestCore_testLargeAppen
 2034              	.LHOTB78:
 2035              		.align 2
 2036              		.p2align 4,,15
 2037              		.weak	_ZN29TestCore_testLargeAppendBlockD2Ev
 2039              	_ZN29TestCore_testLargeAppendBlockD2Ev:
 2040              	.LFB1547:
 2041              		.cfi_startproc
 2042 0000 48C70700 		movq	$_ZTV29TestCore_testLargeAppendBlock+16, (%rdi)
 2042      000000
 2043 0007 E9000000 		jmp	_ZN8UnitTest4TestD2Ev
 2043      00
 2044              		.cfi_endproc
 2045              	.LFE1547:
 2047              		.section	.text.unlikely._ZN29TestCore_testLargeAppendBlockD2Ev,"axG",@progbits,_ZN29TestCore_testL
 2048              	.LCOLDE78:
 2049              		.section	.text._ZN29TestCore_testLargeAppendBlockD2Ev,"axG",@progbits,_ZN29TestCore_testLargeAppen
 2050              	.LHOTE78:
 2051              		.weak	_ZN29TestCore_testLargeAppendBlockD1Ev
 2052              		.set	_ZN29TestCore_testLargeAppendBlockD1Ev,_ZN29TestCore_testLargeAppendBlockD2Ev
 2053              		.section	.text.unlikely._ZN29TestCore_testLargeAppendBlockD0Ev,"axG",@progbits,_ZN29TestCore_testL
 2054              		.align 2
 2055              	.LCOLDB79:
 2056              		.section	.text._ZN29TestCore_testLargeAppendBlockD0Ev,"axG",@progbits,_ZN29TestCore_testLargeAppen
 2057              	.LHOTB79:
 2058              		.align 2
 2059              		.p2align 4,,15
 2060              		.weak	_ZN29TestCore_testLargeAppendBlockD0Ev
 2062              	_ZN29TestCore_testLargeAppendBlockD0Ev:
 2063              	.LFB1549:
 2064              		.cfi_startproc
 2065 0000 53       		pushq	%rbx
 2066              		.cfi_def_cfa_offset 16
 2067              		.cfi_offset 3, -16
 2068 0001 4889FB   		movq	%rdi, %rbx
 2069 0004 48C70700 		movq	$_ZTV29TestCore_testLargeAppendBlock+16, (%rdi)
 2069      000000
 2070 000b E8000000 		call	_ZN8UnitTest4TestD2Ev
 2070      00
 2071 0010 4889DF   		movq	%rbx, %rdi
 2072 0013 5B       		popq	%rbx
 2073              		.cfi_def_cfa_offset 8
 2074 0014 E9000000 		jmp	_ZdlPv
 2074      00
 2075              		.cfi_endproc
 2076              	.LFE1549:
 2078              		.section	.text.unlikely._ZN29TestCore_testLargeAppendBlockD0Ev,"axG",@progbits,_ZN29TestCore_testL
 2079              	.LCOLDE79:
 2080              		.section	.text._ZN29TestCore_testLargeAppendBlockD0Ev,"axG",@progbits,_ZN29TestCore_testLargeAppen
 2081              	.LHOTE79:
 2082              		.section	.text.unlikely._ZN32TestCore_testCapacityAppendBlockD2Ev,"axG",@progbits,_ZN32TestCore_te
 2083              		.align 2
 2084              	.LCOLDB80:
 2085              		.section	.text._ZN32TestCore_testCapacityAppendBlockD2Ev,"axG",@progbits,_ZN32TestCore_testCapacit
 2086              	.LHOTB80:
 2087              		.align 2
 2088              		.p2align 4,,15
 2089              		.weak	_ZN32TestCore_testCapacityAppendBlockD2Ev
 2091              	_ZN32TestCore_testCapacityAppendBlockD2Ev:
 2092              	.LFB1551:
 2093              		.cfi_startproc
 2094 0000 48C70700 		movq	$_ZTV32TestCore_testCapacityAppendBlock+16, (%rdi)
 2094      000000
 2095 0007 E9000000 		jmp	_ZN8UnitTest4TestD2Ev
 2095      00
 2096              		.cfi_endproc
 2097              	.LFE1551:
 2099              		.section	.text.unlikely._ZN32TestCore_testCapacityAppendBlockD2Ev,"axG",@progbits,_ZN32TestCore_te
 2100              	.LCOLDE80:
 2101              		.section	.text._ZN32TestCore_testCapacityAppendBlockD2Ev,"axG",@progbits,_ZN32TestCore_testCapacit
 2102              	.LHOTE80:
 2103              		.weak	_ZN32TestCore_testCapacityAppendBlockD1Ev
 2104              		.set	_ZN32TestCore_testCapacityAppendBlockD1Ev,_ZN32TestCore_testCapacityAppendBlockD2Ev
 2105              		.section	.text.unlikely._ZN32TestCore_testCapacityAppendBlockD0Ev,"axG",@progbits,_ZN32TestCore_te
 2106              		.align 2
 2107              	.LCOLDB81:
 2108              		.section	.text._ZN32TestCore_testCapacityAppendBlockD0Ev,"axG",@progbits,_ZN32TestCore_testCapacit
 2109              	.LHOTB81:
 2110              		.align 2
 2111              		.p2align 4,,15
 2112              		.weak	_ZN32TestCore_testCapacityAppendBlockD0Ev
 2114              	_ZN32TestCore_testCapacityAppendBlockD0Ev:
 2115              	.LFB1553:
 2116              		.cfi_startproc
 2117 0000 53       		pushq	%rbx
 2118              		.cfi_def_cfa_offset 16
 2119              		.cfi_offset 3, -16
 2120 0001 4889FB   		movq	%rdi, %rbx
 2121 0004 48C70700 		movq	$_ZTV32TestCore_testCapacityAppendBlock+16, (%rdi)
 2121      000000
 2122 000b E8000000 		call	_ZN8UnitTest4TestD2Ev
 2122      00
 2123 0010 4889DF   		movq	%rbx, %rdi
 2124 0013 5B       		popq	%rbx
 2125              		.cfi_def_cfa_offset 8
 2126 0014 E9000000 		jmp	_ZdlPv
 2126      00
 2127              		.cfi_endproc
 2128              	.LFE1553:
 2130              		.section	.text.unlikely._ZN32TestCore_testCapacityAppendBlockD0Ev,"axG",@progbits,_ZN32TestCore_te
 2131              	.LCOLDE81:
 2132              		.section	.text._ZN32TestCore_testCapacityAppendBlockD0Ev,"axG",@progbits,_ZN32TestCore_testCapacit
 2133              	.LHOTE81:
 2134              		.section	.text.unlikely._ZN29TestCore_testSmallAppendBlockD2Ev,"axG",@progbits,_ZN29TestCore_testS
 2135              		.align 2
 2136              	.LCOLDB82:
 2137              		.section	.text._ZN29TestCore_testSmallAppendBlockD2Ev,"axG",@progbits,_ZN29TestCore_testSmallAppen
 2138              	.LHOTB82:
 2139              		.align 2
 2140              		.p2align 4,,15
 2141              		.weak	_ZN29TestCore_testSmallAppendBlockD2Ev
 2143              	_ZN29TestCore_testSmallAppendBlockD2Ev:
 2144              	.LFB1555:
 2145              		.cfi_startproc
 2146 0000 48C70700 		movq	$_ZTV29TestCore_testSmallAppendBlock+16, (%rdi)
 2146      000000
 2147 0007 E9000000 		jmp	_ZN8UnitTest4TestD2Ev
 2147      00
 2148              		.cfi_endproc
 2149              	.LFE1555:
 2151              		.section	.text.unlikely._ZN29TestCore_testSmallAppendBlockD2Ev,"axG",@progbits,_ZN29TestCore_testS
 2152              	.LCOLDE82:
 2153              		.section	.text._ZN29TestCore_testSmallAppendBlockD2Ev,"axG",@progbits,_ZN29TestCore_testSmallAppen
 2154              	.LHOTE82:
 2155              		.weak	_ZN29TestCore_testSmallAppendBlockD1Ev
 2156              		.set	_ZN29TestCore_testSmallAppendBlockD1Ev,_ZN29TestCore_testSmallAppendBlockD2Ev
 2157              		.section	.text.unlikely._ZN29TestCore_testSmallAppendBlockD0Ev,"axG",@progbits,_ZN29TestCore_testS
 2158              		.align 2
 2159              	.LCOLDB83:
 2160              		.section	.text._ZN29TestCore_testSmallAppendBlockD0Ev,"axG",@progbits,_ZN29TestCore_testSmallAppen
 2161              	.LHOTB83:
 2162              		.align 2
 2163              		.p2align 4,,15
 2164              		.weak	_ZN29TestCore_testSmallAppendBlockD0Ev
 2166              	_ZN29TestCore_testSmallAppendBlockD0Ev:
 2167              	.LFB1557:
 2168              		.cfi_startproc
 2169 0000 53       		pushq	%rbx
 2170              		.cfi_def_cfa_offset 16
 2171              		.cfi_offset 3, -16
 2172 0001 4889FB   		movq	%rdi, %rbx
 2173 0004 48C70700 		movq	$_ZTV29TestCore_testSmallAppendBlock+16, (%rdi)
 2173      000000
 2174 000b E8000000 		call	_ZN8UnitTest4TestD2Ev
 2174      00
 2175 0010 4889DF   		movq	%rbx, %rdi
 2176 0013 5B       		popq	%rbx
 2177              		.cfi_def_cfa_offset 8
 2178 0014 E9000000 		jmp	_ZdlPv
 2178      00
 2179              		.cfi_endproc
 2180              	.LFE1557:
 2182              		.section	.text.unlikely._ZN29TestCore_testSmallAppendBlockD0Ev,"axG",@progbits,_ZN29TestCore_testS
 2183              	.LCOLDE83:
 2184              		.section	.text._ZN29TestCore_testSmallAppendBlockD0Ev,"axG",@progbits,_ZN29TestCore_testSmallAppen
 2185              	.LHOTE83:
 2186              		.section	.text.unlikely._ZN25TestCore_testInitialiseFFD2Ev,"axG",@progbits,_ZN25TestCore_testIniti
 2187              		.align 2
 2188              	.LCOLDB84:
 2189              		.section	.text._ZN25TestCore_testInitialiseFFD2Ev,"axG",@progbits,_ZN25TestCore_testInitialiseFFD5
 2190              	.LHOTB84:
 2191              		.align 2
 2192              		.p2align 4,,15
 2193              		.weak	_ZN25TestCore_testInitialiseFFD2Ev
 2195              	_ZN25TestCore_testInitialiseFFD2Ev:
 2196              	.LFB1559:
 2197              		.cfi_startproc
 2198 0000 48C70700 		movq	$_ZTV25TestCore_testInitialiseFF+16, (%rdi)
 2198      000000
 2199 0007 E9000000 		jmp	_ZN8UnitTest4TestD2Ev
 2199      00
 2200              		.cfi_endproc
 2201              	.LFE1559:
 2203              		.section	.text.unlikely._ZN25TestCore_testInitialiseFFD2Ev,"axG",@progbits,_ZN25TestCore_testIniti
 2204              	.LCOLDE84:
 2205              		.section	.text._ZN25TestCore_testInitialiseFFD2Ev,"axG",@progbits,_ZN25TestCore_testInitialiseFFD5
 2206              	.LHOTE84:
 2207              		.weak	_ZN25TestCore_testInitialiseFFD1Ev
 2208              		.set	_ZN25TestCore_testInitialiseFFD1Ev,_ZN25TestCore_testInitialiseFFD2Ev
 2209              		.section	.text.unlikely._ZN25TestCore_testInitialiseFFD0Ev,"axG",@progbits,_ZN25TestCore_testIniti
 2210              		.align 2
 2211              	.LCOLDB85:
 2212              		.section	.text._ZN25TestCore_testInitialiseFFD0Ev,"axG",@progbits,_ZN25TestCore_testInitialiseFFD5
 2213              	.LHOTB85:
 2214              		.align 2
 2215              		.p2align 4,,15
 2216              		.weak	_ZN25TestCore_testInitialiseFFD0Ev
 2218              	_ZN25TestCore_testInitialiseFFD0Ev:
 2219              	.LFB1561:
 2220              		.cfi_startproc
 2221 0000 53       		pushq	%rbx
 2222              		.cfi_def_cfa_offset 16
 2223              		.cfi_offset 3, -16
 2224 0001 4889FB   		movq	%rdi, %rbx
 2225 0004 48C70700 		movq	$_ZTV25TestCore_testInitialiseFF+16, (%rdi)
 2225      000000
 2226 000b E8000000 		call	_ZN8UnitTest4TestD2Ev
 2226      00
 2227 0010 4889DF   		movq	%rbx, %rdi
 2228 0013 5B       		popq	%rbx
 2229              		.cfi_def_cfa_offset 8
 2230 0014 E9000000 		jmp	_ZdlPv
 2230      00
 2231              		.cfi_endproc
 2232              	.LFE1561:
 2234              		.section	.text.unlikely._ZN25TestCore_testInitialiseFFD0Ev,"axG",@progbits,_ZN25TestCore_testIniti
 2235              	.LCOLDE85:
 2236              		.section	.text._ZN25TestCore_testInitialiseFFD0Ev,"axG",@progbits,_ZN25TestCore_testInitialiseFFD5
 2237              	.LHOTE85:
 2238              		.section	.text.unlikely._ZN27TestCore_testInitialiseZeroD2Ev,"axG",@progbits,_ZN27TestCore_testIni
 2239              		.align 2
 2240              	.LCOLDB86:
 2241              		.section	.text._ZN27TestCore_testInitialiseZeroD2Ev,"axG",@progbits,_ZN27TestCore_testInitialiseZe
 2242              	.LHOTB86:
 2243              		.align 2
 2244              		.p2align 4,,15
 2245              		.weak	_ZN27TestCore_testInitialiseZeroD2Ev
 2247              	_ZN27TestCore_testInitialiseZeroD2Ev:
 2248              	.LFB1563:
 2249              		.cfi_startproc
 2250 0000 48C70700 		movq	$_ZTV27TestCore_testInitialiseZero+16, (%rdi)
 2250      000000
 2251 0007 E9000000 		jmp	_ZN8UnitTest4TestD2Ev
 2251      00
 2252              		.cfi_endproc
 2253              	.LFE1563:
 2255              		.section	.text.unlikely._ZN27TestCore_testInitialiseZeroD2Ev,"axG",@progbits,_ZN27TestCore_testIni
 2256              	.LCOLDE86:
 2257              		.section	.text._ZN27TestCore_testInitialiseZeroD2Ev,"axG",@progbits,_ZN27TestCore_testInitialiseZe
 2258              	.LHOTE86:
 2259              		.weak	_ZN27TestCore_testInitialiseZeroD1Ev
 2260              		.set	_ZN27TestCore_testInitialiseZeroD1Ev,_ZN27TestCore_testInitialiseZeroD2Ev
 2261              		.section	.text.unlikely._ZN27TestCore_testInitialiseZeroD0Ev,"axG",@progbits,_ZN27TestCore_testIni
 2262              		.align 2
 2263              	.LCOLDB87:
 2264              		.section	.text._ZN27TestCore_testInitialiseZeroD0Ev,"axG",@progbits,_ZN27TestCore_testInitialiseZe
 2265              	.LHOTB87:
 2266              		.align 2
 2267              		.p2align 4,,15
 2268              		.weak	_ZN27TestCore_testInitialiseZeroD0Ev
 2270              	_ZN27TestCore_testInitialiseZeroD0Ev:
 2271              	.LFB1565:
 2272              		.cfi_startproc
 2273 0000 53       		pushq	%rbx
 2274              		.cfi_def_cfa_offset 16
 2275              		.cfi_offset 3, -16
 2276 0001 4889FB   		movq	%rdi, %rbx
 2277 0004 48C70700 		movq	$_ZTV27TestCore_testInitialiseZero+16, (%rdi)
 2277      000000
 2278 000b E8000000 		call	_ZN8UnitTest4TestD2Ev
 2278      00
 2279 0010 4889DF   		movq	%rbx, %rdi
 2280 0013 5B       		popq	%rbx
 2281              		.cfi_def_cfa_offset 8
 2282 0014 E9000000 		jmp	_ZdlPv
 2282      00
 2283              		.cfi_endproc
 2284              	.LFE1565:
 2286              		.section	.text.unlikely._ZN27TestCore_testInitialiseZeroD0Ev,"axG",@progbits,_ZN27TestCore_testIni
 2287              	.LCOLDE87:
 2288              		.section	.text._ZN27TestCore_testInitialiseZeroD0Ev,"axG",@progbits,_ZN27TestCore_testInitialiseZe
 2289              	.LHOTE87:
 2290              		.section	.text.unlikely._ZN8UnitTest15MemoryOutStreamD1Ev,"axG",@progbits,_ZN8UnitTest15MemoryOutS
 2291              		.align 2
 2292              	.LCOLDB88:
 2293              		.section	.text._ZN8UnitTest15MemoryOutStreamD1Ev,"axG",@progbits,_ZN8UnitTest15MemoryOutStreamD1Ev
 2294              	.LHOTB88:
 2295              		.align 2
 2296              		.p2align 4,,15
 2297              		.weak	_ZN8UnitTest15MemoryOutStreamD1Ev
 2299              	_ZN8UnitTest15MemoryOutStreamD1Ev:
 2300              	.LFB1331:
 2301              		.cfi_startproc
 2302 0000 53       		pushq	%rbx
 2303              		.cfi_def_cfa_offset 16
 2304              		.cfi_offset 3, -16
 2305 0001 4889FB   		movq	%rdi, %rbx
 2306 0004 4883EC10 		subq	$16, %rsp
 2307              		.cfi_def_cfa_offset 32
 2308 0008 48C70700 		movq	$_ZTVN8UnitTest15MemoryOutStreamE+24, (%rdi)
 2308      000000
 2309 000f 48C74760 		movq	$_ZTVN8UnitTest15MemoryOutStreamE+64, 96(%rdi)
 2309      00000000 
 2310 0017 64488B04 		movq	%fs:40, %rax
 2310      25280000 
 2310      00
 2311 0020 48894424 		movq	%rax, 8(%rsp)
 2311      08
 2312 0025 31C0     		xorl	%eax, %eax
 2313 0027 488B4758 		movq	88(%rdi), %rax
 2314 002b 488D78E8 		leaq	-24(%rax), %rdi
 2315 002f 4881FF00 		cmpq	$_ZNSs4_Rep20_S_empty_rep_storageE, %rdi
 2315      000000
 2316 0036 7568     		jne	.L147
 2317              	.L135:
 2318 0038 488B4350 		movq	80(%rbx), %rax
 2319 003c 48C70300 		movq	$_ZTCN8UnitTest15MemoryOutStreamE0_St19basic_ostringstreamIcSt11char_traitsIcESaIcEE+24, (%rb
 2319      000000
 2320 0043 48C74360 		movq	$_ZTCN8UnitTest15MemoryOutStreamE0_St19basic_ostringstreamIcSt11char_traitsIcESaIcEE+64, 96(%
 2320      00000000 
 2321 004b 48C74308 		movq	$_ZTVSt15basic_stringbufIcSt11char_traitsIcESaIcEE+16, 8(%rbx)
 2321      00000000 
 2322 0053 488D78E8 		leaq	-24(%rax), %rdi
 2323 0057 4881FF00 		cmpq	$_ZNSs4_Rep20_S_empty_rep_storageE, %rdi
 2323      000000
 2324 005e 7570     		jne	.L148
 2325              	.L140:
 2326 0060 488D7B40 		leaq	64(%rbx), %rdi
 2327 0064 48C74308 		movq	$_ZTVSt15basic_streambufIcSt11char_traitsIcEE+16, 8(%rbx)
 2327      00000000 
 2328 006c E8000000 		call	_ZNSt6localeD1Ev
 2328      00
 2329 0071 488D7B60 		leaq	96(%rbx), %rdi
 2330 0075 48C74360 		movq	$_ZTVSt9basic_iosIcSt11char_traitsIcEE+16, 96(%rbx)
 2330      00000000 
 2331 007d E8000000 		call	_ZNSt8ios_baseD2Ev
 2331      00
 2332 0082 488B4424 		movq	8(%rsp), %rax
 2332      08
 2333 0087 64483304 		xorq	%fs:40, %rax
 2333      25280000 
 2333      00
 2334 0090 0F858700 		jne	.L149
 2334      0000
 2335 0096 4883C410 		addq	$16, %rsp
 2336              		.cfi_remember_state
 2337              		.cfi_def_cfa_offset 16
 2338 009a 5B       		popq	%rbx
 2339              		.cfi_def_cfa_offset 8
 2340 009b C3       		ret
 2341 009c 0F1F4000 		.p2align 4,,10
 2342              		.p2align 3
 2343              	.L147:
 2344              		.cfi_restore_state
 2345 00a0 BA000000 		movl	$_ZL28__gthrw___pthread_key_createPjPFvPvE, %edx
 2345      00
 2346 00a5 4885D2   		testq	%rdx, %rdx
 2347 00a8 7466     		je	.L136
 2348 00aa BAFFFFFF 		movl	$-1, %edx
 2348      FF
 2349 00af F00FC150 		lock xaddl	%edx, -8(%rax)
 2349      F8
 2350 00b4 89D0     		movl	%edx, %eax
 2351              	.L137:
 2352 00b6 85C0     		testl	%eax, %eax
 2353 00b8 0F8F7AFF 		jg	.L135
 2353      FFFF
 2354 00be 488D7424 		leaq	7(%rsp), %rsi
 2354      07
 2355 00c3 E8000000 		call	_ZNSs4_Rep10_M_destroyERKSaIcE
 2355      00
 2356 00c8 E96BFFFF 		jmp	.L135
 2356      FF
 2357 00cd 0F1F00   		.p2align 4,,10
 2358              		.p2align 3
 2359              	.L148:
 2360 00d0 BA000000 		movl	$_ZL28__gthrw___pthread_key_createPjPFvPvE, %edx
 2360      00
 2361 00d5 4885D2   		testq	%rdx, %rdx
 2362 00d8 7426     		je	.L141
 2363 00da BAFFFFFF 		movl	$-1, %edx
 2363      FF
 2364 00df F00FC150 		lock xaddl	%edx, -8(%rax)
 2364      F8
 2365 00e4 89D0     		movl	%edx, %eax
 2366              	.L142:
 2367 00e6 85C0     		testl	%eax, %eax
 2368 00e8 0F8F72FF 		jg	.L140
 2368      FFFF
 2369 00ee 488D7424 		leaq	7(%rsp), %rsi
 2369      07
 2370 00f3 E8000000 		call	_ZNSs4_Rep10_M_destroyERKSaIcE
 2370      00
 2371 00f8 E963FFFF 		jmp	.L140
 2371      FF
 2372 00fd 0F1F00   		.p2align 4,,10
 2373              		.p2align 3
 2374              	.L141:
 2375 0100 8B50F8   		movl	-8(%rax), %edx
 2376 0103 8D4AFF   		leal	-1(%rdx), %ecx
 2377 0106 8948F8   		movl	%ecx, -8(%rax)
 2378 0109 89D0     		movl	%edx, %eax
 2379 010b EBD9     		jmp	.L142
 2380 010d 0F1F00   		.p2align 4,,10
 2381              		.p2align 3
 2382              	.L136:
 2383 0110 8B50F8   		movl	-8(%rax), %edx
 2384 0113 8D4AFF   		leal	-1(%rdx), %ecx
 2385 0116 8948F8   		movl	%ecx, -8(%rax)
 2386 0119 89D0     		movl	%edx, %eax
 2387 011b EB99     		jmp	.L137
 2388              	.L149:
 2389 011d E8000000 		call	__stack_chk_fail
 2389      00
 2390              		.cfi_endproc
 2391              	.LFE1331:
 2393              		.section	.text.unlikely._ZN8UnitTest15MemoryOutStreamD1Ev,"axG",@progbits,_ZN8UnitTest15MemoryOutS
 2394              	.LCOLDE88:
 2395              		.section	.text._ZN8UnitTest15MemoryOutStreamD1Ev,"axG",@progbits,_ZN8UnitTest15MemoryOutStreamD1Ev
 2396              	.LHOTE88:
 2397              		.set	.LTHUNK0,_ZN8UnitTest15MemoryOutStreamD1Ev
 2398              	.LCOLDB89:
 2399              	.LHOTB89:
 2400 0122 0F1F4000 		.p2align 4,,15
 2400      662E0F1F 
 2400      84000000 
 2400      0000
 2401              		.weak	_ZTv0_n24_N8UnitTest15MemoryOutStreamD1Ev
 2403              	_ZTv0_n24_N8UnitTest15MemoryOutStreamD1Ev:
 2404              	.LFB1586:
 2405              		.cfi_startproc
 2406 0130 4C8B17   		movq	(%rdi), %r10
 2407 0133 49037AE8 		addq	-24(%r10), %rdi
 2408 0137 E9C4FEFF 		jmp	.LTHUNK0
 2408      FF
 2409              		.cfi_endproc
 2410              	.LFE1586:
 2412              	.LCOLDE89:
 2413              	.LHOTE89:
 2414              		.section	.text.unlikely._ZN8UnitTest15MemoryOutStreamD0Ev,"axG",@progbits,_ZN8UnitTest15MemoryOutS
 2415              		.align 2
 2416              	.LCOLDB90:
 2417              		.section	.text._ZN8UnitTest15MemoryOutStreamD0Ev,"axG",@progbits,_ZN8UnitTest15MemoryOutStreamD0Ev
 2418              	.LHOTB90:
 2419              		.align 2
 2420              		.p2align 4,,15
 2421              		.weak	_ZN8UnitTest15MemoryOutStreamD0Ev
 2423              	_ZN8UnitTest15MemoryOutStreamD0Ev:
 2424              	.LFB1332:
 2425              		.cfi_startproc
 2426 0000 53       		pushq	%rbx
 2427              		.cfi_def_cfa_offset 16
 2428              		.cfi_offset 3, -16
 2429 0001 4889FB   		movq	%rdi, %rbx
 2430 0004 4883EC10 		subq	$16, %rsp
 2431              		.cfi_def_cfa_offset 32
 2432 0008 48C70700 		movq	$_ZTVN8UnitTest15MemoryOutStreamE+24, (%rdi)
 2432      000000
 2433 000f 48C74760 		movq	$_ZTVN8UnitTest15MemoryOutStreamE+64, 96(%rdi)
 2433      00000000 
 2434 0017 64488B04 		movq	%fs:40, %rax
 2434      25280000 
 2434      00
 2435 0020 48894424 		movq	%rax, 8(%rsp)
 2435      08
 2436 0025 31C0     		xorl	%eax, %eax
 2437 0027 488B4758 		movq	88(%rdi), %rax
 2438 002b 488D78E8 		leaq	-24(%rax), %rdi
 2439 002f 4881FF00 		cmpq	$_ZNSs4_Rep20_S_empty_rep_storageE, %rdi
 2439      000000
 2440 0036 7570     		jne	.L163
 2441              	.L152:
 2442 0038 488B4350 		movq	80(%rbx), %rax
 2443 003c 48C70300 		movq	$_ZTCN8UnitTest15MemoryOutStreamE0_St19basic_ostringstreamIcSt11char_traitsIcESaIcEE+24, (%rb
 2443      000000
 2444 0043 48C74360 		movq	$_ZTCN8UnitTest15MemoryOutStreamE0_St19basic_ostringstreamIcSt11char_traitsIcESaIcEE+64, 96(%
 2444      00000000 
 2445 004b 48C74308 		movq	$_ZTVSt15basic_stringbufIcSt11char_traitsIcESaIcEE+16, 8(%rbx)
 2445      00000000 
 2446 0053 488D78E8 		leaq	-24(%rax), %rdi
 2447 0057 4881FF00 		cmpq	$_ZNSs4_Rep20_S_empty_rep_storageE, %rdi
 2447      000000
 2448 005e 7578     		jne	.L164
 2449              	.L157:
 2450 0060 488D7B40 		leaq	64(%rbx), %rdi
 2451 0064 48C74308 		movq	$_ZTVSt15basic_streambufIcSt11char_traitsIcEE+16, 8(%rbx)
 2451      00000000 
 2452 006c E8000000 		call	_ZNSt6localeD1Ev
 2452      00
 2453 0071 488D7B60 		leaq	96(%rbx), %rdi
 2454 0075 48C74360 		movq	$_ZTVSt9basic_iosIcSt11char_traitsIcEE+16, 96(%rbx)
 2454      00000000 
 2455 007d E8000000 		call	_ZNSt8ios_baseD2Ev
 2455      00
 2456 0082 4889DF   		movq	%rbx, %rdi
 2457 0085 E8000000 		call	_ZdlPv
 2457      00
 2458 008a 488B4424 		movq	8(%rsp), %rax
 2458      08
 2459 008f 64483304 		xorq	%fs:40, %rax
 2459      25280000 
 2459      00
 2460 0098 0F858700 		jne	.L165
 2460      0000
 2461 009e 4883C410 		addq	$16, %rsp
 2462              		.cfi_remember_state
 2463              		.cfi_def_cfa_offset 16
 2464 00a2 5B       		popq	%rbx
 2465              		.cfi_def_cfa_offset 8
 2466 00a3 C3       		ret
 2467              		.p2align 4,,10
 2468 00a4 0F1F4000 		.p2align 3
 2469              	.L163:
 2470              		.cfi_restore_state
 2471 00a8 BA000000 		movl	$_ZL28__gthrw___pthread_key_createPjPFvPvE, %edx
 2471      00
 2472 00ad 4885D2   		testq	%rdx, %rdx
 2473 00b0 7466     		je	.L153
 2474 00b2 BAFFFFFF 		movl	$-1, %edx
 2474      FF
 2475 00b7 F00FC150 		lock xaddl	%edx, -8(%rax)
 2475      F8
 2476 00bc 89D0     		movl	%edx, %eax
 2477              	.L154:
 2478 00be 85C0     		testl	%eax, %eax
 2479 00c0 0F8F72FF 		jg	.L152
 2479      FFFF
 2480 00c6 488D7424 		leaq	7(%rsp), %rsi
 2480      07
 2481 00cb E8000000 		call	_ZNSs4_Rep10_M_destroyERKSaIcE
 2481      00
 2482 00d0 E963FFFF 		jmp	.L152
 2482      FF
 2483              		.p2align 4,,10
 2484 00d5 0F1F00   		.p2align 3
 2485              	.L164:
 2486 00d8 BA000000 		movl	$_ZL28__gthrw___pthread_key_createPjPFvPvE, %edx
 2486      00
 2487 00dd 4885D2   		testq	%rdx, %rdx
 2488 00e0 7426     		je	.L158
 2489 00e2 BAFFFFFF 		movl	$-1, %edx
 2489      FF
 2490 00e7 F00FC150 		lock xaddl	%edx, -8(%rax)
 2490      F8
 2491 00ec 89D0     		movl	%edx, %eax
 2492              	.L159:
 2493 00ee 85C0     		testl	%eax, %eax
 2494 00f0 0F8F6AFF 		jg	.L157
 2494      FFFF
 2495 00f6 488D7424 		leaq	7(%rsp), %rsi
 2495      07
 2496 00fb E8000000 		call	_ZNSs4_Rep10_M_destroyERKSaIcE
 2496      00
 2497 0100 E95BFFFF 		jmp	.L157
 2497      FF
 2498              		.p2align 4,,10
 2499 0105 0F1F00   		.p2align 3
 2500              	.L158:
 2501 0108 8B50F8   		movl	-8(%rax), %edx
 2502 010b 8D4AFF   		leal	-1(%rdx), %ecx
 2503 010e 8948F8   		movl	%ecx, -8(%rax)
 2504 0111 89D0     		movl	%edx, %eax
 2505 0113 EBD9     		jmp	.L159
 2506              		.p2align 4,,10
 2507 0115 0F1F00   		.p2align 3
 2508              	.L153:
 2509 0118 8B50F8   		movl	-8(%rax), %edx
 2510 011b 8D4AFF   		leal	-1(%rdx), %ecx
 2511 011e 8948F8   		movl	%ecx, -8(%rax)
 2512 0121 89D0     		movl	%edx, %eax
 2513 0123 EB99     		jmp	.L154
 2514              	.L165:
 2515 0125 E8000000 		call	__stack_chk_fail
 2515      00
 2516              		.cfi_endproc
 2517              	.LFE1332:
 2519              		.section	.text.unlikely._ZN8UnitTest15MemoryOutStreamD0Ev,"axG",@progbits,_ZN8UnitTest15MemoryOutS
 2520              	.LCOLDE90:
 2521              		.section	.text._ZN8UnitTest15MemoryOutStreamD0Ev,"axG",@progbits,_ZN8UnitTest15MemoryOutStreamD0Ev
 2522              	.LHOTE90:
 2523              		.set	.LTHUNK1,_ZN8UnitTest15MemoryOutStreamD0Ev
 2524              	.LCOLDB91:
 2525              	.LHOTB91:
 2526 012a 660F1F44 		.p2align 4,,15
 2526      0000
 2527              		.weak	_ZTv0_n24_N8UnitTest15MemoryOutStreamD0Ev
 2529              	_ZTv0_n24_N8UnitTest15MemoryOutStreamD0Ev:
 2530              	.LFB1587:
 2531              		.cfi_startproc
 2532 0130 4C8B17   		movq	(%rdi), %r10
 2533 0133 49037AE8 		addq	-24(%r10), %rdi
 2534 0137 E9C4FEFF 		jmp	.LTHUNK1
 2534      FF
 2535              		.cfi_endproc
 2536              	.LFE1587:
 2538              	.LCOLDE91:
 2539              	.LHOTE91:
 2540              		.section	.text.unlikely._ZNSt15basic_stringbufIcSt11char_traitsIcESaIcEED2Ev,"axG",@progbits,_ZNSt
 2541              		.align 2
 2542              	.LCOLDB92:
 2543              		.section	.text._ZNSt15basic_stringbufIcSt11char_traitsIcESaIcEED2Ev,"axG",@progbits,_ZNSt15basic_s
 2544              	.LHOTB92:
 2545              		.align 2
 2546              		.p2align 4,,15
 2547              		.weak	_ZNSt15basic_stringbufIcSt11char_traitsIcESaIcEED2Ev
 2549              	_ZNSt15basic_stringbufIcSt11char_traitsIcESaIcEED2Ev:
 2550              	.LFB1310:
 2551              		.cfi_startproc
 2552 0000 53       		pushq	%rbx
 2553              		.cfi_def_cfa_offset 16
 2554              		.cfi_offset 3, -16
 2555 0001 4889FB   		movq	%rdi, %rbx
 2556 0004 4883EC10 		subq	$16, %rsp
 2557              		.cfi_def_cfa_offset 32
 2558 0008 48C70700 		movq	$_ZTVSt15basic_stringbufIcSt11char_traitsIcESaIcEE+16, (%rdi)
 2558      000000
 2559 000f 64488B04 		movq	%fs:40, %rax
 2559      25280000 
 2559      00
 2560 0018 48894424 		movq	%rax, 8(%rsp)
 2560      08
 2561 001d 31C0     		xorl	%eax, %eax
 2562 001f 488B4748 		movq	72(%rdi), %rax
 2563 0023 488D78E8 		leaq	-24(%rax), %rdi
 2564 0027 4881FF00 		cmpq	$_ZNSs4_Rep20_S_empty_rep_storageE, %rdi
 2564      000000
 2565 002e 7530     		jne	.L174
 2566              	.L168:
 2567 0030 488D7B38 		leaq	56(%rbx), %rdi
 2568 0034 48C70300 		movq	$_ZTVSt15basic_streambufIcSt11char_traitsIcEE+16, (%rbx)
 2568      000000
 2569 003b E8000000 		call	_ZNSt6localeD1Ev
 2569      00
 2570 0040 488B4424 		movq	8(%rsp), %rax
 2570      08
 2571 0045 64483304 		xorq	%fs:40, %rax
 2571      25280000 
 2571      00
 2572 004e 754D     		jne	.L175
 2573 0050 4883C410 		addq	$16, %rsp
 2574              		.cfi_remember_state
 2575              		.cfi_def_cfa_offset 16
 2576 0054 5B       		popq	%rbx
 2577              		.cfi_def_cfa_offset 8
 2578 0055 C3       		ret
 2579 0056 662E0F1F 		.p2align 4,,10
 2579      84000000 
 2579      0000
 2580              		.p2align 3
 2581              	.L174:
 2582              		.cfi_restore_state
 2583 0060 BA000000 		movl	$_ZL28__gthrw___pthread_key_createPjPFvPvE, %edx
 2583      00
 2584 0065 4885D2   		testq	%rdx, %rdx
 2585 0068 7426     		je	.L169
 2586 006a BAFFFFFF 		movl	$-1, %edx
 2586      FF
 2587 006f F00FC150 		lock xaddl	%edx, -8(%rax)
 2587      F8
 2588 0074 89D0     		movl	%edx, %eax
 2589              	.L170:
 2590 0076 85C0     		testl	%eax, %eax
 2591 0078 7FB6     		jg	.L168
 2592 007a 488D7424 		leaq	7(%rsp), %rsi
 2592      07
 2593 007f E8000000 		call	_ZNSs4_Rep10_M_destroyERKSaIcE
 2593      00
 2594 0084 EBAA     		jmp	.L168
 2595 0086 662E0F1F 		.p2align 4,,10
 2595      84000000 
 2595      0000
 2596              		.p2align 3
 2597              	.L169:
 2598 0090 8B50F8   		movl	-8(%rax), %edx
 2599 0093 8D4AFF   		leal	-1(%rdx), %ecx
 2600 0096 8948F8   		movl	%ecx, -8(%rax)
 2601 0099 89D0     		movl	%edx, %eax
 2602 009b EBD9     		jmp	.L170
 2603              	.L175:
 2604 009d E8000000 		call	__stack_chk_fail
 2604      00
 2605              		.cfi_endproc
 2606              	.LFE1310:
 2608              		.section	.text.unlikely._ZNSt15basic_stringbufIcSt11char_traitsIcESaIcEED2Ev,"axG",@progbits,_ZNSt
 2609              	.LCOLDE92:
 2610              		.section	.text._ZNSt15basic_stringbufIcSt11char_traitsIcESaIcEED2Ev,"axG",@progbits,_ZNSt15basic_s
 2611              	.LHOTE92:
 2612              		.weak	_ZNSt15basic_stringbufIcSt11char_traitsIcESaIcEED1Ev
 2613              		.set	_ZNSt15basic_stringbufIcSt11char_traitsIcESaIcEED1Ev,_ZNSt15basic_stringbufIcSt11char_traitsI
 2614              		.section	.rodata.str1.1,"aMS",@progbits,1
 2615              	.LC93:
 2616 0000 45787065 		.string	"Expected [ "
 2616      63746564 
 2616      205B2000 
 2617              	.LC94:
 2618 000c 2000     		.string	" "
 2619              	.LC95:
 2620 000e 5D206275 		.string	"] but was [ "
 2620      74207761 
 2620      73205B20 
 2620      00
 2621              	.LC96:
 2622 001b 5D00     		.string	"]"
 2623              		.section	.text.unlikely,"ax",@progbits
 2624              	.LCOLDB97:
 2625              		.text
 2626              	.LHOTB97:
 2627              		.p2align 4,,15
 2629              	_ZN8UnitTest15CheckArrayEqualIA8_hPhEEvRNS_11TestResultsERKT_RKT0_iRKNS_11TestDetailsE.constprop.10
 2630              	.LFB1581:
 2631              		.cfi_startproc
 2632              		.cfi_personality 0x3,__gxx_personality_v0
 2633              		.cfi_lsda 0x3,.LLSDA1581
 2634 0000 4156     		pushq	%r14
 2635              		.cfi_def_cfa_offset 16
 2636              		.cfi_offset 14, -16
 2637 0002 4155     		pushq	%r13
 2638              		.cfi_def_cfa_offset 24
 2639              		.cfi_offset 13, -24
 2640 0004 4989CD   		movq	%rcx, %r13
 2641 0007 4154     		pushq	%r12
 2642              		.cfi_def_cfa_offset 32
 2643              		.cfi_offset 12, -32
 2644 0009 55       		pushq	%rbp
 2645              		.cfi_def_cfa_offset 40
 2646              		.cfi_offset 6, -40
 2647 000a 4889D5   		movq	%rdx, %rbp
 2648 000d 53       		pushq	%rbx
 2649              		.cfi_def_cfa_offset 48
 2650              		.cfi_offset 3, -48
 2651 000e 4989FC   		movq	%rdi, %r12
 2652 0011 4889F3   		movq	%rsi, %rbx
 2653 0014 4881EC80 		subq	$384, %rsp
 2653      010000
 2654              		.cfi_def_cfa_offset 432
 2655 001b 64488B04 		movq	%fs:40, %rax
 2655      25280000 
 2655      00
 2656 0024 48898424 		movq	%rax, 376(%rsp)
 2656      78010000 
 2657 002c 31C0     		xorl	%eax, %eax
 2658 002e 488B02   		movq	(%rdx), %rax
 2659 0031 0FB64802 		movzbl	2(%rax), %ecx
 2660 0035 0FB65001 		movzbl	1(%rax), %edx
 2661 0039 384E02   		cmpb	%cl, 2(%rsi)
 2662 003c 0F94C1   		sete	%cl
 2663 003f 385601   		cmpb	%dl, 1(%rsi)
 2664 0042 0F94C2   		sete	%dl
 2665 0045 21CA     		andl	%ecx, %edx
 2666 0047 0FB64803 		movzbl	3(%rax), %ecx
 2667 004b 384E03   		cmpb	%cl, 3(%rsi)
 2668 004e 0F94C1   		sete	%cl
 2669 0051 21CA     		andl	%ecx, %edx
 2670 0053 0FB64804 		movzbl	4(%rax), %ecx
 2671 0057 384E04   		cmpb	%cl, 4(%rsi)
 2672 005a 0F94C1   		sete	%cl
 2673 005d 21CA     		andl	%ecx, %edx
 2674 005f 0FB64805 		movzbl	5(%rax), %ecx
 2675 0063 384E05   		cmpb	%cl, 5(%rsi)
 2676 0066 0F94C1   		sete	%cl
 2677 0069 21CA     		andl	%ecx, %edx
 2678 006b 0FB64806 		movzbl	6(%rax), %ecx
 2679 006f 384E06   		cmpb	%cl, 6(%rsi)
 2680 0072 0F94C1   		sete	%cl
 2681 0075 21CA     		andl	%ecx, %edx
 2682 0077 0FB608   		movzbl	(%rax), %ecx
 2683 007a 380E     		cmpb	%cl, (%rsi)
 2684 007c 0F94C1   		sete	%cl
 2685 007f 84CA     		testb	%cl, %dl
 2686 0081 7435     		je	.L200
 2687 0083 0FB64007 		movzbl	7(%rax), %eax
 2688 0087 384607   		cmpb	%al, 7(%rsi)
 2689 008a 752C     		jne	.L200
 2690              	.L176:
 2691 008c 488B8424 		movq	376(%rsp), %rax
 2691      78010000 
 2692 0094 64483304 		xorq	%fs:40, %rax
 2692      25280000 
 2692      00
 2693 009d 0F852903 		jne	.L211
 2693      0000
 2694 00a3 4881C480 		addq	$384, %rsp
 2694      010000
 2695              		.cfi_remember_state
 2696              		.cfi_def_cfa_offset 48
 2697 00aa 5B       		popq	%rbx
 2698              		.cfi_def_cfa_offset 40
 2699 00ab 5D       		popq	%rbp
 2700              		.cfi_def_cfa_offset 32
 2701 00ac 415C     		popq	%r12
 2702              		.cfi_def_cfa_offset 24
 2703 00ae 415D     		popq	%r13
 2704              		.cfi_def_cfa_offset 16
 2705 00b0 415E     		popq	%r14
 2706              		.cfi_def_cfa_offset 8
 2707 00b2 C3       		ret
 2708              		.p2align 4,,10
 2709 00b3 0F1F4400 		.p2align 3
 2709      00
 2710              	.L200:
 2711              		.cfi_restore_state
 2712 00b8 4C8D7424 		leaq	112(%rsp), %r14
 2712      70
 2713 00bd 4C89F7   		movq	%r14, %rdi
 2714 00c0 E8000000 		call	_ZNSt8ios_baseC2Ev
 2714      00
 2715 00c5 31F6     		xorl	%esi, %esi
 2716 00c7 4C89F7   		movq	%r14, %rdi
 2717 00ca 48C78424 		movq	$0, 328(%rsp)
 2717      48010000 
 2717      00000000 
 2718 00d6 C6842450 		movb	$0, 336(%rsp)
 2718      01000000 
 2719 00de C6842451 		movb	$0, 337(%rsp)
 2719      01000000 
 2720 00e6 48C78424 		movq	$0, 344(%rsp)
 2720      58010000 
 2720      00000000 
 2721 00f2 48C78424 		movq	$0, 352(%rsp)
 2721      60010000 
 2721      00000000 
 2722 00fe 48C78424 		movq	$0, 360(%rsp)
 2722      68010000 
 2722      00000000 
 2723 010a 48C78424 		movq	$0, 368(%rsp)
 2723      70010000 
 2723      00000000 
 2724 0116 48C74424 		movq	$_ZTCN8UnitTest15MemoryOutStreamE0_So+24, 16(%rsp)
 2724      10000000 
 2724      00
 2725 011f 48C74424 		movq	$_ZTCN8UnitTest15MemoryOutStreamE0_So+64, 112(%rsp)
 2725      70000000 
 2725      00
 2726              	.LEHB0:
 2727 0128 E8000000 		call	_ZNSt9basic_iosIcSt11char_traitsIcEE4initEPSt15basic_streambufIcS1_E
 2727      00
 2728              	.LEHE0:
 2729 012d 488D7C24 		leaq	80(%rsp), %rdi
 2729      50
 2730 0132 48C74424 		movq	$_ZTCN8UnitTest15MemoryOutStreamE0_St19basic_ostringstreamIcSt11char_traitsIcESaIcEE+24, 16(%
 2730      10000000 
 2730      00
 2731 013b 48C74424 		movq	$_ZTCN8UnitTest15MemoryOutStreamE0_St19basic_ostringstreamIcSt11char_traitsIcESaIcEE+64, 112(
 2731      70000000 
 2731      00
 2732 0144 48C74424 		movq	$_ZTVSt15basic_streambufIcSt11char_traitsIcEE+16, 24(%rsp)
 2732      18000000 
 2732      00
 2733 014d 48C74424 		movq	$0, 32(%rsp)
 2733      20000000 
 2733      00
 2734 0156 48C74424 		movq	$0, 40(%rsp)
 2734      28000000 
 2734      00
 2735 015f 48C74424 		movq	$0, 48(%rsp)
 2735      30000000 
 2735      00
 2736 0168 48C74424 		movq	$0, 56(%rsp)
 2736      38000000 
 2736      00
 2737 0171 48C74424 		movq	$0, 64(%rsp)
 2737      40000000 
 2737      00
 2738 017a 48C74424 		movq	$0, 72(%rsp)
 2738      48000000 
 2738      00
 2739 0183 E8000000 		call	_ZNSt6localeC1Ev
 2739      00
 2740 0188 488B4424 		movq	16(%rsp), %rax
 2740      10
 2741 018d 488D7C24 		leaq	16(%rsp), %rdi
 2741      10
 2742 0192 488D7424 		leaq	24(%rsp), %rsi
 2742      18
 2743 0197 48C74424 		movq	$_ZTVSt15basic_stringbufIcSt11char_traitsIcESaIcEE+16, 24(%rsp)
 2743      18000000 
 2743      00
 2744 01a0 C7442458 		movl	$16, 88(%rsp)
 2744      10000000 
 2745 01a8 48C74424 		movq	$_ZNSs4_Rep20_S_empty_rep_storageE+24, 96(%rsp)
 2745      60000000 
 2745      00
 2746 01b1 480378E8 		addq	-24(%rax), %rdi
 2747              	.LEHB1:
 2748 01b5 E8000000 		call	_ZNSt9basic_iosIcSt11char_traitsIcEE4initEPSt15basic_streambufIcS1_E
 2748      00
 2749              	.LEHE1:
 2750 01ba 488D7C24 		leaq	16(%rsp), %rdi
 2750      10
 2751 01bf BA0B0000 		movl	$11, %edx
 2751      00
 2752 01c4 BE000000 		movl	$.LC93, %esi
 2752      00
 2753 01c9 48C74424 		movq	$_ZTVN8UnitTest15MemoryOutStreamE+24, 16(%rsp)
 2753      10000000 
 2753      00
 2754 01d2 48C74424 		movq	$_ZTVN8UnitTest15MemoryOutStreamE+64, 112(%rsp)
 2754      70000000 
 2754      00
 2755 01db 48C74424 		movq	$_ZNSs4_Rep20_S_empty_rep_storageE+24, 104(%rsp)
 2755      68000000 
 2755      00
 2756              	.LEHB2:
 2757 01e4 E8000000 		call	_ZSt16__ostream_insertIcSt11char_traitsIcEERSt13basic_ostreamIT_T0_ES6_PKS3_l
 2757      00
 2758 01e9 4C8D7308 		leaq	8(%rbx), %r14
 2759 01ed 0F1F00   		.p2align 4,,10
 2760              		.p2align 3
 2761              	.L183:
 2762 01f0 0FB603   		movzbl	(%rbx), %eax
 2763 01f3 488D7424 		leaq	13(%rsp), %rsi
 2763      0D
 2764 01f8 488D7C24 		leaq	16(%rsp), %rdi
 2764      10
 2765 01fd BA010000 		movl	$1, %edx
 2765      00
 2766 0202 8844240D 		movb	%al, 13(%rsp)
 2767 0206 E8000000 		call	_ZSt16__ostream_insertIcSt11char_traitsIcEERSt13basic_ostreamIT_T0_ES6_PKS3_l
 2767      00
 2768 020b BA010000 		movl	$1, %edx
 2768      00
 2769 0210 BE000000 		movl	$.LC94, %esi
 2769      00
 2770 0215 4889C7   		movq	%rax, %rdi
 2771 0218 E8000000 		call	_ZSt16__ostream_insertIcSt11char_traitsIcEERSt13basic_ostreamIT_T0_ES6_PKS3_l
 2771      00
 2772 021d 4883C301 		addq	$1, %rbx
 2773 0221 4C39F3   		cmpq	%r14, %rbx
 2774 0224 75CA     		jne	.L183
 2775 0226 488D7C24 		leaq	16(%rsp), %rdi
 2775      10
 2776 022b BA0C0000 		movl	$12, %edx
 2776      00
 2777 0230 BE000000 		movl	$.LC95, %esi
 2777      00
 2778 0235 E8000000 		call	_ZSt16__ostream_insertIcSt11char_traitsIcEERSt13basic_ostreamIT_T0_ES6_PKS3_l
 2778      00
 2779 023a 31DB     		xorl	%ebx, %ebx
 2780 023c 0F1F4000 		.p2align 4,,10
 2781              		.p2align 3
 2782              	.L184:
 2783 0240 488B4500 		movq	0(%rbp), %rax
 2784 0244 488D7424 		leaq	14(%rsp), %rsi
 2784      0E
 2785 0249 488D7C24 		leaq	16(%rsp), %rdi
 2785      10
 2786 024e BA010000 		movl	$1, %edx
 2786      00
 2787 0253 0FB60418 		movzbl	(%rax,%rbx), %eax
 2788 0257 8844240E 		movb	%al, 14(%rsp)
 2789 025b E8000000 		call	_ZSt16__ostream_insertIcSt11char_traitsIcEERSt13basic_ostreamIT_T0_ES6_PKS3_l
 2789      00
 2790 0260 BA010000 		movl	$1, %edx
 2790      00
 2791 0265 BE000000 		movl	$.LC94, %esi
 2791      00
 2792 026a 4889C7   		movq	%rax, %rdi
 2793 026d E8000000 		call	_ZSt16__ostream_insertIcSt11char_traitsIcEERSt13basic_ostreamIT_T0_ES6_PKS3_l
 2793      00
 2794 0272 4883C301 		addq	$1, %rbx
 2795 0276 4883FB08 		cmpq	$8, %rbx
 2796 027a 75C4     		jne	.L184
 2797 027c 488D7C24 		leaq	16(%rsp), %rdi
 2797      10
 2798 0281 BA010000 		movl	$1, %edx
 2798      00
 2799 0286 BE000000 		movl	$.LC96, %esi
 2799      00
 2800 028b E8000000 		call	_ZSt16__ostream_insertIcSt11char_traitsIcEERSt13basic_ostreamIT_T0_ES6_PKS3_l
 2800      00
 2801 0290 488D7C24 		leaq	16(%rsp), %rdi
 2801      10
 2802 0295 E8000000 		call	_ZNK8UnitTest15MemoryOutStream7GetTextEv
 2802      00
 2803 029a 4889C2   		movq	%rax, %rdx
 2804 029d 4C89EE   		movq	%r13, %rsi
 2805 02a0 4C89E7   		movq	%r12, %rdi
 2806 02a3 E8000000 		call	_ZN8UnitTest11TestResults13OnTestFailureERKNS_11TestDetailsEPKc
 2806      00
 2807              	.LEHE2:
 2808 02a8 488B4424 		movq	104(%rsp), %rax
 2808      68
 2809 02ad 48C74424 		movq	$_ZTVN8UnitTest15MemoryOutStreamE+24, 16(%rsp)
 2809      10000000 
 2809      00
 2810 02b6 48C74424 		movq	$_ZTVN8UnitTest15MemoryOutStreamE+64, 112(%rsp)
 2810      70000000 
 2810      00
 2811 02bf 488D78E8 		leaq	-24(%rax), %rdi
 2812 02c3 4881FF00 		cmpq	$_ZNSs4_Rep20_S_empty_rep_storageE, %rdi
 2812      000000
 2813 02ca 7558     		jne	.L212
 2814              	.L186:
 2815 02cc 488B4424 		movq	96(%rsp), %rax
 2815      60
 2816 02d1 48C74424 		movq	$_ZTCN8UnitTest15MemoryOutStreamE0_St19basic_ostringstreamIcSt11char_traitsIcESaIcEE+24, 16(%
 2816      10000000 
 2816      00
 2817 02da 48C74424 		movq	$_ZTCN8UnitTest15MemoryOutStreamE0_St19basic_ostringstreamIcSt11char_traitsIcESaIcEE+64, 112(
 2817      70000000 
 2817      00
 2818 02e3 48C74424 		movq	$_ZTVSt15basic_stringbufIcSt11char_traitsIcESaIcEE+16, 24(%rsp)
 2818      18000000 
 2818      00
 2819 02ec 488D78E8 		leaq	-24(%rax), %rdi
 2820 02f0 4881FF00 		cmpq	$_ZNSs4_Rep20_S_empty_rep_storageE, %rdi
 2820      000000
 2821 02f7 7551     		jne	.L213
 2822              	.L191:
 2823 02f9 488D7C24 		leaq	80(%rsp), %rdi
 2823      50
 2824 02fe 48C74424 		movq	$_ZTVSt15basic_streambufIcSt11char_traitsIcEE+16, 24(%rsp)
 2824      18000000 
 2824      00
 2825 0307 E8000000 		call	_ZNSt6localeD1Ev
 2825      00
 2826 030c 488D7C24 		leaq	112(%rsp), %rdi
 2826      70
 2827 0311 48C74424 		movq	$_ZTVSt9basic_iosIcSt11char_traitsIcEE+16, 112(%rsp)
 2827      70000000 
 2827      00
 2828              	.LEHB3:
 2829 031a E8000000 		call	_ZNSt8ios_baseD2Ev
 2829      00
 2830              	.LEHE3:
 2831 031f E968FDFF 		jmp	.L176
 2831      FF
 2832              	.L212:
 2833 0324 BA000000 		movl	$_ZL28__gthrw___pthread_key_createPjPFvPvE, %edx
 2833      00
 2834 0329 4885D2   		testq	%rdx, %rdx
 2835 032c 7442     		je	.L187
 2836 032e BAFFFFFF 		movl	$-1, %edx
 2836      FF
 2837 0333 F00FC150 		lock xaddl	%edx, -8(%rax)
 2837      F8
 2838 0338 89D0     		movl	%edx, %eax
 2839              	.L188:
 2840 033a 85C0     		testl	%eax, %eax
 2841 033c 7F8E     		jg	.L186
 2842 033e 488D7424 		leaq	15(%rsp), %rsi
 2842      0F
 2843 0343 E8000000 		call	_ZNSs4_Rep10_M_destroyERKSaIcE
 2843      00
 2844 0348 EB82     		jmp	.L186
 2845              	.L213:
 2846 034a BA000000 		movl	$_ZL28__gthrw___pthread_key_createPjPFvPvE, %edx
 2846      00
 2847 034f 4885D2   		testq	%rdx, %rdx
 2848 0352 7429     		je	.L192
 2849 0354 BAFFFFFF 		movl	$-1, %edx
 2849      FF
 2850 0359 F00FC150 		lock xaddl	%edx, -8(%rax)
 2850      F8
 2851 035e 89D0     		movl	%edx, %eax
 2852              	.L193:
 2853 0360 85C0     		testl	%eax, %eax
 2854 0362 7F95     		jg	.L191
 2855 0364 488D7424 		leaq	15(%rsp), %rsi
 2855      0F
 2856 0369 E8000000 		call	_ZNSs4_Rep10_M_destroyERKSaIcE
 2856      00
 2857 036e EB89     		jmp	.L191
 2858              	.L187:
 2859 0370 8B50F8   		movl	-8(%rax), %edx
 2860 0373 8D4AFF   		leal	-1(%rdx), %ecx
 2861 0376 8948F8   		movl	%ecx, -8(%rax)
 2862 0379 89D0     		movl	%edx, %eax
 2863 037b EBBD     		jmp	.L188
 2864              	.L192:
 2865 037d 8B50F8   		movl	-8(%rax), %edx
 2866 0380 8D4AFF   		leal	-1(%rdx), %ecx
 2867 0383 8948F8   		movl	%ecx, -8(%rax)
 2868 0386 89D0     		movl	%edx, %eax
 2869 0388 EBD6     		jmp	.L193
 2870              	.L198:
 2871 038a 4889C3   		movq	%rax, %rbx
 2872              	.L181:
 2873 038d 488D7C24 		leaq	112(%rsp), %rdi
 2873      70
 2874 0392 48C74424 		movq	$_ZTVSt9basic_iosIcSt11char_traitsIcEE+16, 112(%rsp)
 2874      70000000 
 2874      00
 2875 039b E8000000 		call	_ZNSt8ios_baseD2Ev
 2875      00
 2876 03a0 4889DF   		movq	%rbx, %rdi
 2877              	.LEHB4:
 2878 03a3 E8000000 		call	_Unwind_Resume
 2878      00
 2879              	.LEHE4:
 2880              	.L197:
 2881 03a8 488D7C24 		leaq	16(%rsp), %rdi
 2881      10
 2882 03ad 4889C3   		movq	%rax, %rbx
 2883 03b0 E8000000 		call	_ZN8UnitTest15MemoryOutStreamD1Ev
 2883      00
 2884 03b5 4889DF   		movq	%rbx, %rdi
 2885              	.LEHB5:
 2886 03b8 E8000000 		call	_Unwind_Resume
 2886      00
 2887              	.LEHE5:
 2888              	.L199:
 2889 03bd 488D7C24 		leaq	24(%rsp), %rdi
 2889      18
 2890 03c2 4889C3   		movq	%rax, %rbx
 2891 03c5 E8000000 		call	_ZNSt15basic_stringbufIcSt11char_traitsIcESaIcEED1Ev
 2891      00
 2892 03ca EBC1     		jmp	.L181
 2893              	.L211:
 2894 03cc E8000000 		call	__stack_chk_fail
 2894      00
 2895              		.cfi_endproc
 2896              	.LFE1581:
 2897              		.globl	__gxx_personality_v0
 2898              		.section	.gcc_except_table,"a",@progbits
 2899              	.LLSDA1581:
 2900 0000 FF       		.byte	0xff
 2901 0001 FF       		.byte	0xff
 2902 0002 01       		.byte	0x1
 2903 0003 22       		.uleb128 .LLSDACSE1581-.LLSDACSB1581
 2904              	.LLSDACSB1581:
 2905 0004 A802     		.uleb128 .LEHB0-.LFB1581
 2906 0006 05       		.uleb128 .LEHE0-.LEHB0
 2907 0007 8A07     		.uleb128 .L198-.LFB1581
 2908 0009 00       		.uleb128 0
 2909 000a B503     		.uleb128 .LEHB1-.LFB1581
 2910 000c 05       		.uleb128 .LEHE1-.LEHB1
 2911 000d BD07     		.uleb128 .L199-.LFB1581
 2912 000f 00       		.uleb128 0
 2913 0010 E403     		.uleb128 .LEHB2-.LFB1581
 2914 0012 C401     		.uleb128 .LEHE2-.LEHB2
 2915 0014 A807     		.uleb128 .L197-.LFB1581
 2916 0016 00       		.uleb128 0
 2917 0017 9A06     		.uleb128 .LEHB3-.LFB1581
 2918 0019 05       		.uleb128 .LEHE3-.LEHB3
 2919 001a 00       		.uleb128 0
 2920 001b 00       		.uleb128 0
 2921 001c A307     		.uleb128 .LEHB4-.LFB1581
 2922 001e 05       		.uleb128 .LEHE4-.LEHB4
 2923 001f 00       		.uleb128 0
 2924 0020 00       		.uleb128 0
 2925 0021 B807     		.uleb128 .LEHB5-.LFB1581
 2926 0023 05       		.uleb128 .LEHE5-.LEHB5
 2927 0024 00       		.uleb128 0
 2928 0025 00       		.uleb128 0
 2929              	.LLSDACSE1581:
 2930              		.text
 2932              		.section	.text.unlikely
 2933              	.LCOLDE97:
 2934              		.text
 2935              	.LHOTE97:
 2936              		.section	.text.unlikely
 2937              	.LCOLDB98:
 2938              		.text
 2939              	.LHOTB98:
 2940 03d1 0F1F4400 		.p2align 4,,15
 2940      00662E0F 
 2940      1F840000 
 2940      000000
 2942              	_ZN8UnitTest15CheckArrayEqualIA16_hPhEEvRNS_11TestResultsERKT_RKT0_iRKNS_11TestDetailsE.constprop.9
 2943              	.LFB1582:
 2944              		.cfi_startproc
 2945              		.cfi_personality 0x3,__gxx_personality_v0
 2946              		.cfi_lsda 0x3,.LLSDA1582
 2947 03e0 4156     		pushq	%r14
 2948              		.cfi_def_cfa_offset 16
 2949              		.cfi_offset 14, -16
 2950 03e2 4155     		pushq	%r13
 2951              		.cfi_def_cfa_offset 24
 2952              		.cfi_offset 13, -24
 2953 03e4 4989CD   		movq	%rcx, %r13
 2954 03e7 4154     		pushq	%r12
 2955              		.cfi_def_cfa_offset 32
 2956              		.cfi_offset 12, -32
 2957 03e9 55       		pushq	%rbp
 2958              		.cfi_def_cfa_offset 40
 2959              		.cfi_offset 6, -40
 2960 03ea 4889D5   		movq	%rdx, %rbp
 2961 03ed 53       		pushq	%rbx
 2962              		.cfi_def_cfa_offset 48
 2963              		.cfi_offset 3, -48
 2964 03ee 4889F3   		movq	%rsi, %rbx
 2965 03f1 4989FC   		movq	%rdi, %r12
 2966 03f4 4881EC80 		subq	$384, %rsp
 2966      010000
 2967              		.cfi_def_cfa_offset 432
 2968 03fb 64488B04 		movq	%fs:40, %rax
 2968      25280000 
 2968      00
 2969 0404 48898424 		movq	%rax, 376(%rsp)
 2969      78010000 
 2970 040c 31C0     		xorl	%eax, %eax
 2971 040e 488B02   		movq	(%rdx), %rax
 2972 0411 0FB608   		movzbl	(%rax), %ecx
 2973 0414 0FB65001 		movzbl	1(%rax), %edx
 2974 0418 380E     		cmpb	%cl, (%rsi)
 2975 041a 0FB64802 		movzbl	2(%rax), %ecx
 2976 041e 400F94C6 		sete	%sil
 2977 0422 384B02   		cmpb	%cl, 2(%rbx)
 2978 0425 0F94C1   		sete	%cl
 2979 0428 385301   		cmpb	%dl, 1(%rbx)
 2980 042b 0F94C2   		sete	%dl
 2981 042e 21CA     		andl	%ecx, %edx
 2982 0430 0FB64803 		movzbl	3(%rax), %ecx
 2983 0434 384B03   		cmpb	%cl, 3(%rbx)
 2984 0437 0F94C1   		sete	%cl
 2985 043a 21CA     		andl	%ecx, %edx
 2986 043c 0FB64804 		movzbl	4(%rax), %ecx
 2987 0440 384B04   		cmpb	%cl, 4(%rbx)
 2988 0443 0F94C1   		sete	%cl
 2989 0446 21CA     		andl	%ecx, %edx
 2990 0448 0FB64805 		movzbl	5(%rax), %ecx
 2991 044c 384B05   		cmpb	%cl, 5(%rbx)
 2992 044f 0F94C1   		sete	%cl
 2993 0452 21CA     		andl	%ecx, %edx
 2994 0454 0FB64806 		movzbl	6(%rax), %ecx
 2995 0458 384B06   		cmpb	%cl, 6(%rbx)
 2996 045b 0F94C1   		sete	%cl
 2997 045e 21CA     		andl	%ecx, %edx
 2998 0460 0FB64807 		movzbl	7(%rax), %ecx
 2999 0464 21F2     		andl	%esi, %edx
 3000 0466 384B07   		cmpb	%cl, 7(%rbx)
 3001 0469 0F94C1   		sete	%cl
 3002 046c 21CA     		andl	%ecx, %edx
 3003 046e 0FB64808 		movzbl	8(%rax), %ecx
 3004 0472 384B08   		cmpb	%cl, 8(%rbx)
 3005 0475 0F94C1   		sete	%cl
 3006 0478 21CA     		andl	%ecx, %edx
 3007 047a 0FB64809 		movzbl	9(%rax), %ecx
 3008 047e 384B09   		cmpb	%cl, 9(%rbx)
 3009 0481 0F94C1   		sete	%cl
 3010 0484 21CA     		andl	%ecx, %edx
 3011 0486 0FB6480A 		movzbl	10(%rax), %ecx
 3012 048a 384B0A   		cmpb	%cl, 10(%rbx)
 3013 048d 0F94C1   		sete	%cl
 3014 0490 21CA     		andl	%ecx, %edx
 3015 0492 0FB6480B 		movzbl	11(%rax), %ecx
 3016 0496 384B0B   		cmpb	%cl, 11(%rbx)
 3017 0499 0F94C1   		sete	%cl
 3018 049c 21CA     		andl	%ecx, %edx
 3019 049e 0FB6480C 		movzbl	12(%rax), %ecx
 3020 04a2 384B0C   		cmpb	%cl, 12(%rbx)
 3021 04a5 0F94C1   		sete	%cl
 3022 04a8 21CA     		andl	%ecx, %edx
 3023 04aa 0FB6480D 		movzbl	13(%rax), %ecx
 3024 04ae 384B0D   		cmpb	%cl, 13(%rbx)
 3025 04b1 0F94C1   		sete	%cl
 3026 04b4 21CA     		andl	%ecx, %edx
 3027 04b6 0FB6480E 		movzbl	14(%rax), %ecx
 3028 04ba 384B0E   		cmpb	%cl, 14(%rbx)
 3029 04bd 0F94C1   		sete	%cl
 3030 04c0 84CA     		testb	%cl, %dl
 3031 04c2 7434     		je	.L238
 3032 04c4 0FB6400F 		movzbl	15(%rax), %eax
 3033 04c8 38430F   		cmpb	%al, 15(%rbx)
 3034 04cb 752B     		jne	.L238
 3035              	.L214:
 3036 04cd 488B8424 		movq	376(%rsp), %rax
 3036      78010000 
 3037 04d5 64483304 		xorq	%fs:40, %rax
 3037      25280000 
 3037      00
 3038 04de 0F852803 		jne	.L249
 3038      0000
 3039 04e4 4881C480 		addq	$384, %rsp
 3039      010000
 3040              		.cfi_remember_state
 3041              		.cfi_def_cfa_offset 48
 3042 04eb 5B       		popq	%rbx
 3043              		.cfi_def_cfa_offset 40
 3044 04ec 5D       		popq	%rbp
 3045              		.cfi_def_cfa_offset 32
 3046 04ed 415C     		popq	%r12
 3047              		.cfi_def_cfa_offset 24
 3048 04ef 415D     		popq	%r13
 3049              		.cfi_def_cfa_offset 16
 3050 04f1 415E     		popq	%r14
 3051              		.cfi_def_cfa_offset 8
 3052 04f3 C3       		ret
 3053              		.p2align 4,,10
 3054 04f4 0F1F4000 		.p2align 3
 3055              	.L238:
 3056              		.cfi_restore_state
 3057 04f8 4C8D7424 		leaq	112(%rsp), %r14
 3057      70
 3058 04fd 4C89F7   		movq	%r14, %rdi
 3059 0500 E8000000 		call	_ZNSt8ios_baseC2Ev
 3059      00
 3060 0505 31F6     		xorl	%esi, %esi
 3061 0507 4C89F7   		movq	%r14, %rdi
 3062 050a 48C78424 		movq	$0, 328(%rsp)
 3062      48010000 
 3062      00000000 
 3063 0516 C6842450 		movb	$0, 336(%rsp)
 3063      01000000 
 3064 051e C6842451 		movb	$0, 337(%rsp)
 3064      01000000 
 3065 0526 48C78424 		movq	$0, 344(%rsp)
 3065      58010000 
 3065      00000000 
 3066 0532 48C78424 		movq	$0, 352(%rsp)
 3066      60010000 
 3066      00000000 
 3067 053e 48C78424 		movq	$0, 360(%rsp)
 3067      68010000 
 3067      00000000 
 3068 054a 48C78424 		movq	$0, 368(%rsp)
 3068      70010000 
 3068      00000000 
 3069 0556 48C74424 		movq	$_ZTCN8UnitTest15MemoryOutStreamE0_So+24, 16(%rsp)
 3069      10000000 
 3069      00
 3070 055f 48C74424 		movq	$_ZTCN8UnitTest15MemoryOutStreamE0_So+64, 112(%rsp)
 3070      70000000 
 3070      00
 3071              	.LEHB6:
 3072 0568 E8000000 		call	_ZNSt9basic_iosIcSt11char_traitsIcEE4initEPSt15basic_streambufIcS1_E
 3072      00
 3073              	.LEHE6:
 3074 056d 488D7C24 		leaq	80(%rsp), %rdi
 3074      50
 3075 0572 48C74424 		movq	$_ZTCN8UnitTest15MemoryOutStreamE0_St19basic_ostringstreamIcSt11char_traitsIcESaIcEE+24, 16(%
 3075      10000000 
 3075      00
 3076 057b 48C74424 		movq	$_ZTCN8UnitTest15MemoryOutStreamE0_St19basic_ostringstreamIcSt11char_traitsIcESaIcEE+64, 112(
 3076      70000000 
 3076      00
 3077 0584 48C74424 		movq	$_ZTVSt15basic_streambufIcSt11char_traitsIcEE+16, 24(%rsp)
 3077      18000000 
 3077      00
 3078 058d 48C74424 		movq	$0, 32(%rsp)
 3078      20000000 
 3078      00
 3079 0596 48C74424 		movq	$0, 40(%rsp)
 3079      28000000 
 3079      00
 3080 059f 48C74424 		movq	$0, 48(%rsp)
 3080      30000000 
 3080      00
 3081 05a8 48C74424 		movq	$0, 56(%rsp)
 3081      38000000 
 3081      00
 3082 05b1 48C74424 		movq	$0, 64(%rsp)
 3082      40000000 
 3082      00
 3083 05ba 48C74424 		movq	$0, 72(%rsp)
 3083      48000000 
 3083      00
 3084 05c3 E8000000 		call	_ZNSt6localeC1Ev
 3084      00
 3085 05c8 488B4424 		movq	16(%rsp), %rax
 3085      10
 3086 05cd 488D7C24 		leaq	16(%rsp), %rdi
 3086      10
 3087 05d2 488D7424 		leaq	24(%rsp), %rsi
 3087      18
 3088 05d7 48C74424 		movq	$_ZTVSt15basic_stringbufIcSt11char_traitsIcESaIcEE+16, 24(%rsp)
 3088      18000000 
 3088      00
 3089 05e0 C7442458 		movl	$16, 88(%rsp)
 3089      10000000 
 3090 05e8 48C74424 		movq	$_ZNSs4_Rep20_S_empty_rep_storageE+24, 96(%rsp)
 3090      60000000 
 3090      00
 3091 05f1 480378E8 		addq	-24(%rax), %rdi
 3092              	.LEHB7:
 3093 05f5 E8000000 		call	_ZNSt9basic_iosIcSt11char_traitsIcEE4initEPSt15basic_streambufIcS1_E
 3093      00
 3094              	.LEHE7:
 3095 05fa 488D7C24 		leaq	16(%rsp), %rdi
 3095      10
 3096 05ff BA0B0000 		movl	$11, %edx
 3096      00
 3097 0604 BE000000 		movl	$.LC93, %esi
 3097      00
 3098 0609 48C74424 		movq	$_ZTVN8UnitTest15MemoryOutStreamE+24, 16(%rsp)
 3098      10000000 
 3098      00
 3099 0612 48C74424 		movq	$_ZTVN8UnitTest15MemoryOutStreamE+64, 112(%rsp)
 3099      70000000 
 3099      00
 3100 061b 48C74424 		movq	$_ZNSs4_Rep20_S_empty_rep_storageE+24, 104(%rsp)
 3100      68000000 
 3100      00
 3101              	.LEHB8:
 3102 0624 E8000000 		call	_ZSt16__ostream_insertIcSt11char_traitsIcEERSt13basic_ostreamIT_T0_ES6_PKS3_l
 3102      00
 3103 0629 4C8D7310 		leaq	16(%rbx), %r14
 3104 062d 0F1F00   		.p2align 4,,10
 3105              		.p2align 3
 3106              	.L221:
 3107 0630 0FB603   		movzbl	(%rbx), %eax
 3108 0633 488D7424 		leaq	13(%rsp), %rsi
 3108      0D
 3109 0638 488D7C24 		leaq	16(%rsp), %rdi
 3109      10
 3110 063d BA010000 		movl	$1, %edx
 3110      00
 3111 0642 8844240D 		movb	%al, 13(%rsp)
 3112 0646 E8000000 		call	_ZSt16__ostream_insertIcSt11char_traitsIcEERSt13basic_ostreamIT_T0_ES6_PKS3_l
 3112      00
 3113 064b BA010000 		movl	$1, %edx
 3113      00
 3114 0650 BE000000 		movl	$.LC94, %esi
 3114      00
 3115 0655 4889C7   		movq	%rax, %rdi
 3116 0658 E8000000 		call	_ZSt16__ostream_insertIcSt11char_traitsIcEERSt13basic_ostreamIT_T0_ES6_PKS3_l
 3116      00
 3117 065d 4883C301 		addq	$1, %rbx
 3118 0661 4C39F3   		cmpq	%r14, %rbx
 3119 0664 75CA     		jne	.L221
 3120 0666 488D7C24 		leaq	16(%rsp), %rdi
 3120      10
 3121 066b BA0C0000 		movl	$12, %edx
 3121      00
 3122 0670 BE000000 		movl	$.LC95, %esi
 3122      00
 3123 0675 E8000000 		call	_ZSt16__ostream_insertIcSt11char_traitsIcEERSt13basic_ostreamIT_T0_ES6_PKS3_l
 3123      00
 3124 067a 31DB     		xorl	%ebx, %ebx
 3125 067c 0F1F4000 		.p2align 4,,10
 3126              		.p2align 3
 3127              	.L222:
 3128 0680 488B4500 		movq	0(%rbp), %rax
 3129 0684 488D7424 		leaq	14(%rsp), %rsi
 3129      0E
 3130 0689 488D7C24 		leaq	16(%rsp), %rdi
 3130      10
 3131 068e BA010000 		movl	$1, %edx
 3131      00
 3132 0693 0FB60418 		movzbl	(%rax,%rbx), %eax
 3133 0697 8844240E 		movb	%al, 14(%rsp)
 3134 069b E8000000 		call	_ZSt16__ostream_insertIcSt11char_traitsIcEERSt13basic_ostreamIT_T0_ES6_PKS3_l
 3134      00
 3135 06a0 BA010000 		movl	$1, %edx
 3135      00
 3136 06a5 BE000000 		movl	$.LC94, %esi
 3136      00
 3137 06aa 4889C7   		movq	%rax, %rdi
 3138 06ad E8000000 		call	_ZSt16__ostream_insertIcSt11char_traitsIcEERSt13basic_ostreamIT_T0_ES6_PKS3_l
 3138      00
 3139 06b2 4883C301 		addq	$1, %rbx
 3140 06b6 4883FB10 		cmpq	$16, %rbx
 3141 06ba 75C4     		jne	.L222
 3142 06bc 488D7C24 		leaq	16(%rsp), %rdi
 3142      10
 3143 06c1 BA010000 		movl	$1, %edx
 3143      00
 3144 06c6 BE000000 		movl	$.LC96, %esi
 3144      00
 3145 06cb E8000000 		call	_ZSt16__ostream_insertIcSt11char_traitsIcEERSt13basic_ostreamIT_T0_ES6_PKS3_l
 3145      00
 3146 06d0 488D7C24 		leaq	16(%rsp), %rdi
 3146      10
 3147 06d5 E8000000 		call	_ZNK8UnitTest15MemoryOutStream7GetTextEv
 3147      00
 3148 06da 4889C2   		movq	%rax, %rdx
 3149 06dd 4C89EE   		movq	%r13, %rsi
 3150 06e0 4C89E7   		movq	%r12, %rdi
 3151 06e3 E8000000 		call	_ZN8UnitTest11TestResults13OnTestFailureERKNS_11TestDetailsEPKc
 3151      00
 3152              	.LEHE8:
 3153 06e8 488B4424 		movq	104(%rsp), %rax
 3153      68
 3154 06ed 48C74424 		movq	$_ZTVN8UnitTest15MemoryOutStreamE+24, 16(%rsp)
 3154      10000000 
 3154      00
 3155 06f6 48C74424 		movq	$_ZTVN8UnitTest15MemoryOutStreamE+64, 112(%rsp)
 3155      70000000 
 3155      00
 3156 06ff 488D78E8 		leaq	-24(%rax), %rdi
 3157 0703 4881FF00 		cmpq	$_ZNSs4_Rep20_S_empty_rep_storageE, %rdi
 3157      000000
 3158 070a 7558     		jne	.L250
 3159              	.L224:
 3160 070c 488B4424 		movq	96(%rsp), %rax
 3160      60
 3161 0711 48C74424 		movq	$_ZTCN8UnitTest15MemoryOutStreamE0_St19basic_ostringstreamIcSt11char_traitsIcESaIcEE+24, 16(%
 3161      10000000 
 3161      00
 3162 071a 48C74424 		movq	$_ZTCN8UnitTest15MemoryOutStreamE0_St19basic_ostringstreamIcSt11char_traitsIcESaIcEE+64, 112(
 3162      70000000 
 3162      00
 3163 0723 48C74424 		movq	$_ZTVSt15basic_stringbufIcSt11char_traitsIcESaIcEE+16, 24(%rsp)
 3163      18000000 
 3163      00
 3164 072c 488D78E8 		leaq	-24(%rax), %rdi
 3165 0730 4881FF00 		cmpq	$_ZNSs4_Rep20_S_empty_rep_storageE, %rdi
 3165      000000
 3166 0737 7551     		jne	.L251
 3167              	.L229:
 3168 0739 488D7C24 		leaq	80(%rsp), %rdi
 3168      50
 3169 073e 48C74424 		movq	$_ZTVSt15basic_streambufIcSt11char_traitsIcEE+16, 24(%rsp)
 3169      18000000 
 3169      00
 3170 0747 E8000000 		call	_ZNSt6localeD1Ev
 3170      00
 3171 074c 488D7C24 		leaq	112(%rsp), %rdi
 3171      70
 3172 0751 48C74424 		movq	$_ZTVSt9basic_iosIcSt11char_traitsIcEE+16, 112(%rsp)
 3172      70000000 
 3172      00
 3173              	.LEHB9:
 3174 075a E8000000 		call	_ZNSt8ios_baseD2Ev
 3174      00
 3175              	.LEHE9:
 3176 075f E969FDFF 		jmp	.L214
 3176      FF
 3177              	.L250:
 3178 0764 BA000000 		movl	$_ZL28__gthrw___pthread_key_createPjPFvPvE, %edx
 3178      00
 3179 0769 4885D2   		testq	%rdx, %rdx
 3180 076c 7442     		je	.L225
 3181 076e BAFFFFFF 		movl	$-1, %edx
 3181      FF
 3182 0773 F00FC150 		lock xaddl	%edx, -8(%rax)
 3182      F8
 3183 0778 89D0     		movl	%edx, %eax
 3184              	.L226:
 3185 077a 85C0     		testl	%eax, %eax
 3186 077c 7F8E     		jg	.L224
 3187 077e 488D7424 		leaq	15(%rsp), %rsi
 3187      0F
 3188 0783 E8000000 		call	_ZNSs4_Rep10_M_destroyERKSaIcE
 3188      00
 3189 0788 EB82     		jmp	.L224
 3190              	.L251:
 3191 078a BA000000 		movl	$_ZL28__gthrw___pthread_key_createPjPFvPvE, %edx
 3191      00
 3192 078f 4885D2   		testq	%rdx, %rdx
 3193 0792 7429     		je	.L230
 3194 0794 BAFFFFFF 		movl	$-1, %edx
 3194      FF
 3195 0799 F00FC150 		lock xaddl	%edx, -8(%rax)
 3195      F8
 3196 079e 89D0     		movl	%edx, %eax
 3197              	.L231:
 3198 07a0 85C0     		testl	%eax, %eax
 3199 07a2 7F95     		jg	.L229
 3200 07a4 488D7424 		leaq	15(%rsp), %rsi
 3200      0F
 3201 07a9 E8000000 		call	_ZNSs4_Rep10_M_destroyERKSaIcE
 3201      00
 3202 07ae EB89     		jmp	.L229
 3203              	.L225:
 3204 07b0 8B50F8   		movl	-8(%rax), %edx
 3205 07b3 8D4AFF   		leal	-1(%rdx), %ecx
 3206 07b6 8948F8   		movl	%ecx, -8(%rax)
 3207 07b9 89D0     		movl	%edx, %eax
 3208 07bb EBBD     		jmp	.L226
 3209              	.L230:
 3210 07bd 8B50F8   		movl	-8(%rax), %edx
 3211 07c0 8D4AFF   		leal	-1(%rdx), %ecx
 3212 07c3 8948F8   		movl	%ecx, -8(%rax)
 3213 07c6 89D0     		movl	%edx, %eax
 3214 07c8 EBD6     		jmp	.L231
 3215              	.L236:
 3216 07ca 4889C3   		movq	%rax, %rbx
 3217              	.L219:
 3218 07cd 488D7C24 		leaq	112(%rsp), %rdi
 3218      70
 3219 07d2 48C74424 		movq	$_ZTVSt9basic_iosIcSt11char_traitsIcEE+16, 112(%rsp)
 3219      70000000 
 3219      00
 3220 07db E8000000 		call	_ZNSt8ios_baseD2Ev
 3220      00
 3221 07e0 4889DF   		movq	%rbx, %rdi
 3222              	.LEHB10:
 3223 07e3 E8000000 		call	_Unwind_Resume
 3223      00
 3224              	.LEHE10:
 3225              	.L235:
 3226 07e8 488D7C24 		leaq	16(%rsp), %rdi
 3226      10
 3227 07ed 4889C3   		movq	%rax, %rbx
 3228 07f0 E8000000 		call	_ZN8UnitTest15MemoryOutStreamD1Ev
 3228      00
 3229 07f5 4889DF   		movq	%rbx, %rdi
 3230              	.LEHB11:
 3231 07f8 E8000000 		call	_Unwind_Resume
 3231      00
 3232              	.LEHE11:
 3233              	.L237:
 3234 07fd 488D7C24 		leaq	24(%rsp), %rdi
 3234      18
 3235 0802 4889C3   		movq	%rax, %rbx
 3236 0805 E8000000 		call	_ZNSt15basic_stringbufIcSt11char_traitsIcESaIcEED1Ev
 3236      00
 3237 080a EBC1     		jmp	.L219
 3238              	.L249:
 3239 080c E8000000 		call	__stack_chk_fail
 3239      00
 3240              		.cfi_endproc
 3241              	.LFE1582:
 3242              		.section	.gcc_except_table
 3243              	.LLSDA1582:
 3244 0026 FF       		.byte	0xff
 3245 0027 FF       		.byte	0xff
 3246 0028 01       		.byte	0x1
 3247 0029 22       		.uleb128 .LLSDACSE1582-.LLSDACSB1582
 3248              	.LLSDACSB1582:
 3249 002a 8803     		.uleb128 .LEHB6-.LFB1582
 3250 002c 05       		.uleb128 .LEHE6-.LEHB6
 3251 002d EA07     		.uleb128 .L236-.LFB1582
 3252 002f 00       		.uleb128 0
 3253 0030 9504     		.uleb128 .LEHB7-.LFB1582
 3254 0032 05       		.uleb128 .LEHE7-.LEHB7
 3255 0033 9D08     		.uleb128 .L237-.LFB1582
 3256 0035 00       		.uleb128 0
 3257 0036 C404     		.uleb128 .LEHB8-.LFB1582
 3258 0038 C401     		.uleb128 .LEHE8-.LEHB8
 3259 003a 8808     		.uleb128 .L235-.LFB1582
 3260 003c 00       		.uleb128 0
 3261 003d FA06     		.uleb128 .LEHB9-.LFB1582
 3262 003f 05       		.uleb128 .LEHE9-.LEHB9
 3263 0040 00       		.uleb128 0
 3264 0041 00       		.uleb128 0
 3265 0042 8308     		.uleb128 .LEHB10-.LFB1582
 3266 0044 05       		.uleb128 .LEHE10-.LEHB10
 3267 0045 00       		.uleb128 0
 3268 0046 00       		.uleb128 0
 3269 0047 9808     		.uleb128 .LEHB11-.LFB1582
 3270 0049 05       		.uleb128 .LEHE11-.LEHB11
 3271 004a 00       		.uleb128 0
 3272 004b 00       		.uleb128 0
 3273              	.LLSDACSE1582:
 3274              		.text
 3276              		.section	.text.unlikely
 3277              	.LCOLDE98:
 3278              		.text
 3279              	.LHOTE98:
 3280              		.section	.text.unlikely._ZNSt15basic_stringbufIcSt11char_traitsIcESaIcEED0Ev,"axG",@progbits,_ZNSt
 3281              		.align 2
 3282              	.LCOLDB99:
 3283              		.section	.text._ZNSt15basic_stringbufIcSt11char_traitsIcESaIcEED0Ev,"axG",@progbits,_ZNSt15basic_s
 3284              	.LHOTB99:
 3285              		.align 2
 3286              		.p2align 4,,15
 3287              		.weak	_ZNSt15basic_stringbufIcSt11char_traitsIcESaIcEED0Ev
 3289              	_ZNSt15basic_stringbufIcSt11char_traitsIcESaIcEED0Ev:
 3290              	.LFB1312:
 3291              		.cfi_startproc
 3292 0000 53       		pushq	%rbx
 3293              		.cfi_def_cfa_offset 16
 3294              		.cfi_offset 3, -16
 3295 0001 4889FB   		movq	%rdi, %rbx
 3296 0004 4883EC10 		subq	$16, %rsp
 3297              		.cfi_def_cfa_offset 32
 3298 0008 48C70700 		movq	$_ZTVSt15basic_stringbufIcSt11char_traitsIcESaIcEE+16, (%rdi)
 3298      000000
 3299 000f 64488B04 		movq	%fs:40, %rax
 3299      25280000 
 3299      00
 3300 0018 48894424 		movq	%rax, 8(%rsp)
 3300      08
 3301 001d 31C0     		xorl	%eax, %eax
 3302 001f 488B4748 		movq	72(%rdi), %rax
 3303 0023 488D78E8 		leaq	-24(%rax), %rdi
 3304 0027 4881FF00 		cmpq	$_ZNSs4_Rep20_S_empty_rep_storageE, %rdi
 3304      000000
 3305 002e 7530     		jne	.L260
 3306              	.L254:
 3307 0030 488D7B38 		leaq	56(%rbx), %rdi
 3308 0034 48C70300 		movq	$_ZTVSt15basic_streambufIcSt11char_traitsIcEE+16, (%rbx)
 3308      000000
 3309 003b E8000000 		call	_ZNSt6localeD1Ev
 3309      00
 3310 0040 4889DF   		movq	%rbx, %rdi
 3311 0043 E8000000 		call	_ZdlPv
 3311      00
 3312 0048 488B4424 		movq	8(%rsp), %rax
 3312      08
 3313 004d 64483304 		xorq	%fs:40, %rax
 3313      25280000 
 3313      00
 3314 0056 7545     		jne	.L261
 3315 0058 4883C410 		addq	$16, %rsp
 3316              		.cfi_remember_state
 3317              		.cfi_def_cfa_offset 16
 3318 005c 5B       		popq	%rbx
 3319              		.cfi_def_cfa_offset 8
 3320 005d C3       		ret
 3321 005e 6690     		.p2align 4,,10
 3322              		.p2align 3
 3323              	.L260:
 3324              		.cfi_restore_state
 3325 0060 BA000000 		movl	$_ZL28__gthrw___pthread_key_createPjPFvPvE, %edx
 3325      00
 3326 0065 4885D2   		testq	%rdx, %rdx
 3327 0068 7426     		je	.L255
 3328 006a BAFFFFFF 		movl	$-1, %edx
 3328      FF
 3329 006f F00FC150 		lock xaddl	%edx, -8(%rax)
 3329      F8
 3330 0074 89D0     		movl	%edx, %eax
 3331              	.L256:
 3332 0076 85C0     		testl	%eax, %eax
 3333 0078 7FB6     		jg	.L254
 3334 007a 488D7424 		leaq	7(%rsp), %rsi
 3334      07
 3335 007f E8000000 		call	_ZNSs4_Rep10_M_destroyERKSaIcE
 3335      00
 3336 0084 EBAA     		jmp	.L254
 3337 0086 662E0F1F 		.p2align 4,,10
 3337      84000000 
 3337      0000
 3338              		.p2align 3
 3339              	.L255:
 3340 0090 8B50F8   		movl	-8(%rax), %edx
 3341 0093 8D4AFF   		leal	-1(%rdx), %ecx
 3342 0096 8948F8   		movl	%ecx, -8(%rax)
 3343 0099 89D0     		movl	%edx, %eax
 3344 009b EBD9     		jmp	.L256
 3345              	.L261:
 3346 009d E8000000 		call	__stack_chk_fail
 3346      00
 3347              		.cfi_endproc
 3348              	.LFE1312:
 3350              		.section	.text.unlikely._ZNSt15basic_stringbufIcSt11char_traitsIcESaIcEED0Ev,"axG",@progbits,_ZNSt
 3351              	.LCOLDE99:
 3352              		.section	.text._ZNSt15basic_stringbufIcSt11char_traitsIcESaIcEED0Ev,"axG",@progbits,_ZNSt15basic_s
 3353              	.LHOTE99:
 3354              		.section	.rodata.str1.1
 3355              	.LC100:
 3356 001d 45787065 		.string	"Expected "
 3356      63746564 
 3356      2000
 3357              	.LC101:
 3358 0027 20627574 		.string	" but was "
 3358      20776173 
 3358      2000
 3359              		.section	.text.unlikely._ZN8UnitTest10CheckEqualI12BufferStatusS1_EEvRNS_11TestResultsERKT_RKT0_RK
 3360              	.LCOLDB102:
 3361              		.section	.text._ZN8UnitTest10CheckEqualI12BufferStatusS1_EEvRNS_11TestResultsERKT_RKT0_RKNS_11Test
 3362              	.LHOTB102:
 3363              		.p2align 4,,15
 3364              		.weak	_ZN8UnitTest10CheckEqualI12BufferStatusS1_EEvRNS_11TestResultsERKT_RKT0_RKNS_11TestDetailsE
 3366              	_ZN8UnitTest10CheckEqualI12BufferStatusS1_EEvRNS_11TestResultsERKT_RKT0_RKNS_11TestDetailsE:
 3367              	.LFB1328:
 3368              		.cfi_startproc
 3369              		.cfi_personality 0x3,__gxx_personality_v0
 3370              		.cfi_lsda 0x3,.LLSDA1328
 3371 0000 4156     		pushq	%r14
 3372              		.cfi_def_cfa_offset 16
 3373              		.cfi_offset 14, -16
 3374 0002 4155     		pushq	%r13
 3375              		.cfi_def_cfa_offset 24
 3376              		.cfi_offset 13, -24
 3377 0004 4154     		pushq	%r12
 3378              		.cfi_def_cfa_offset 32
 3379              		.cfi_offset 12, -32
 3380 0006 55       		pushq	%rbp
 3381              		.cfi_def_cfa_offset 40
 3382              		.cfi_offset 6, -40
 3383 0007 4889D5   		movq	%rdx, %rbp
 3384 000a 53       		pushq	%rbx
 3385              		.cfi_def_cfa_offset 48
 3386              		.cfi_offset 3, -48
 3387 000b 4889F3   		movq	%rsi, %rbx
 3388 000e 4881EC80 		subq	$384, %rsp
 3388      010000
 3389              		.cfi_def_cfa_offset 432
 3390 0015 64488B04 		movq	%fs:40, %rax
 3390      25280000 
 3390      00
 3391 001e 48898424 		movq	%rax, 376(%rsp)
 3391      78010000 
 3392 0026 31C0     		xorl	%eax, %eax
 3393 0028 8B02     		movl	(%rdx), %eax
 3394 002a 3906     		cmpl	%eax, (%rsi)
 3395 002c 0F84F601 		je	.L262
 3395      0000
 3396 0032 4C8D6424 		leaq	112(%rsp), %r12
 3396      70
 3397 0037 4989FD   		movq	%rdi, %r13
 3398 003a 4989CE   		movq	%rcx, %r14
 3399 003d 4C89E7   		movq	%r12, %rdi
 3400 0040 E8000000 		call	_ZNSt8ios_baseC2Ev
 3400      00
 3401 0045 31F6     		xorl	%esi, %esi
 3402 0047 4C89E7   		movq	%r12, %rdi
 3403 004a 48C78424 		movq	$0, 328(%rsp)
 3403      48010000 
 3403      00000000 
 3404 0056 C6842450 		movb	$0, 336(%rsp)
 3404      01000000 
 3405 005e C6842451 		movb	$0, 337(%rsp)
 3405      01000000 
 3406 0066 48C78424 		movq	$0, 344(%rsp)
 3406      58010000 
 3406      00000000 
 3407 0072 48C78424 		movq	$0, 352(%rsp)
 3407      60010000 
 3407      00000000 
 3408 007e 48C78424 		movq	$0, 360(%rsp)
 3408      68010000 
 3408      00000000 
 3409 008a 48C78424 		movq	$0, 368(%rsp)
 3409      70010000 
 3409      00000000 
 3410 0096 48C74424 		movq	$_ZTCN8UnitTest15MemoryOutStreamE0_So+24, 16(%rsp)
 3410      10000000 
 3410      00
 3411 009f 48C74424 		movq	$_ZTCN8UnitTest15MemoryOutStreamE0_So+64, 112(%rsp)
 3411      70000000 
 3411      00
 3412              	.LEHB12:
 3413 00a8 E8000000 		call	_ZNSt9basic_iosIcSt11char_traitsIcEE4initEPSt15basic_streambufIcS1_E
 3413      00
 3414              	.LEHE12:
 3415 00ad 488D7C24 		leaq	80(%rsp), %rdi
 3415      50
 3416 00b2 48C74424 		movq	$_ZTCN8UnitTest15MemoryOutStreamE0_St19basic_ostringstreamIcSt11char_traitsIcESaIcEE+24, 16(%
 3416      10000000 
 3416      00
 3417 00bb 48C74424 		movq	$_ZTCN8UnitTest15MemoryOutStreamE0_St19basic_ostringstreamIcSt11char_traitsIcESaIcEE+64, 112(
 3417      70000000 
 3417      00
 3418 00c4 48C74424 		movq	$_ZTVSt15basic_streambufIcSt11char_traitsIcEE+16, 24(%rsp)
 3418      18000000 
 3418      00
 3419 00cd 48C74424 		movq	$0, 32(%rsp)
 3419      20000000 
 3419      00
 3420 00d6 48C74424 		movq	$0, 40(%rsp)
 3420      28000000 
 3420      00
 3421 00df 48C74424 		movq	$0, 48(%rsp)
 3421      30000000 
 3421      00
 3422 00e8 48C74424 		movq	$0, 56(%rsp)
 3422      38000000 
 3422      00
 3423 00f1 48C74424 		movq	$0, 64(%rsp)
 3423      40000000 
 3423      00
 3424 00fa 48C74424 		movq	$0, 72(%rsp)
 3424      48000000 
 3424      00
 3425 0103 E8000000 		call	_ZNSt6localeC1Ev
 3425      00
 3426 0108 488B4424 		movq	16(%rsp), %rax
 3426      10
 3427 010d 488D7C24 		leaq	16(%rsp), %rdi
 3427      10
 3428 0112 488D7424 		leaq	24(%rsp), %rsi
 3428      18
 3429 0117 48C74424 		movq	$_ZTVSt15basic_stringbufIcSt11char_traitsIcESaIcEE+16, 24(%rsp)
 3429      18000000 
 3429      00
 3430 0120 C7442458 		movl	$16, 88(%rsp)
 3430      10000000 
 3431 0128 48C74424 		movq	$_ZNSs4_Rep20_S_empty_rep_storageE+24, 96(%rsp)
 3431      60000000 
 3431      00
 3432 0131 480378E8 		addq	-24(%rax), %rdi
 3433              	.LEHB13:
 3434 0135 E8000000 		call	_ZNSt9basic_iosIcSt11char_traitsIcEE4initEPSt15basic_streambufIcS1_E
 3434      00
 3435              	.LEHE13:
 3436 013a 488D7C24 		leaq	16(%rsp), %rdi
 3436      10
 3437 013f BA090000 		movl	$9, %edx
 3437      00
 3438 0144 BE000000 		movl	$.LC100, %esi
 3438      00
 3439 0149 48C74424 		movq	$_ZTVN8UnitTest15MemoryOutStreamE+24, 16(%rsp)
 3439      10000000 
 3439      00
 3440 0152 48C74424 		movq	$_ZTVN8UnitTest15MemoryOutStreamE+64, 112(%rsp)
 3440      70000000 
 3440      00
 3441 015b 48C74424 		movq	$_ZNSs4_Rep20_S_empty_rep_storageE+24, 104(%rsp)
 3441      68000000 
 3441      00
 3442 0164 8B6D00   		movl	0(%rbp), %ebp
 3443 0167 8B1B     		movl	(%rbx), %ebx
 3444              	.LEHB14:
 3445 0169 E8000000 		call	_ZSt16__ostream_insertIcSt11char_traitsIcEERSt13basic_ostreamIT_T0_ES6_PKS3_l
 3445      00
 3446 016e 488D7C24 		leaq	16(%rsp), %rdi
 3446      10
 3447 0173 89DE     		movl	%ebx, %esi
 3448 0175 E8000000 		call	_ZNSolsEi
 3448      00
 3449 017a BA090000 		movl	$9, %edx
 3449      00
 3450 017f BE000000 		movl	$.LC101, %esi
 3450      00
 3451 0184 4889C7   		movq	%rax, %rdi
 3452 0187 4889C3   		movq	%rax, %rbx
 3453 018a E8000000 		call	_ZSt16__ostream_insertIcSt11char_traitsIcEERSt13basic_ostreamIT_T0_ES6_PKS3_l
 3453      00
 3454 018f 89EE     		movl	%ebp, %esi
 3455 0191 4889DF   		movq	%rbx, %rdi
 3456 0194 E8000000 		call	_ZNSolsEi
 3456      00
 3457 0199 488D7C24 		leaq	16(%rsp), %rdi
 3457      10
 3458 019e E8000000 		call	_ZNK8UnitTest15MemoryOutStream7GetTextEv
 3458      00
 3459 01a3 4889C2   		movq	%rax, %rdx
 3460 01a6 4C89F6   		movq	%r14, %rsi
 3461 01a9 4C89EF   		movq	%r13, %rdi
 3462 01ac E8000000 		call	_ZN8UnitTest11TestResults13OnTestFailureERKNS_11TestDetailsEPKc
 3462      00
 3463              	.LEHE14:
 3464 01b1 488B4424 		movq	104(%rsp), %rax
 3464      68
 3465 01b6 48C74424 		movq	$_ZTVN8UnitTest15MemoryOutStreamE+24, 16(%rsp)
 3465      10000000 
 3465      00
 3466 01bf 48C74424 		movq	$_ZTVN8UnitTest15MemoryOutStreamE+64, 112(%rsp)
 3466      70000000 
 3466      00
 3467 01c8 488D78E8 		leaq	-24(%rax), %rdi
 3468 01cc 4881FF00 		cmpq	$_ZNSs4_Rep20_S_empty_rep_storageE, %rdi
 3468      000000
 3469 01d3 757B     		jne	.L288
 3470              	.L269:
 3471 01d5 488B4424 		movq	96(%rsp), %rax
 3471      60
 3472 01da 48C74424 		movq	$_ZTCN8UnitTest15MemoryOutStreamE0_St19basic_ostringstreamIcSt11char_traitsIcESaIcEE+24, 16(%
 3472      10000000 
 3472      00
 3473 01e3 48C74424 		movq	$_ZTCN8UnitTest15MemoryOutStreamE0_St19basic_ostringstreamIcSt11char_traitsIcESaIcEE+64, 112(
 3473      70000000 
 3473      00
 3474 01ec 48C74424 		movq	$_ZTVSt15basic_stringbufIcSt11char_traitsIcESaIcEE+16, 24(%rsp)
 3474      18000000 
 3474      00
 3475 01f5 488D78E8 		leaq	-24(%rax), %rdi
 3476 01f9 4881FF00 		cmpq	$_ZNSs4_Rep20_S_empty_rep_storageE, %rdi
 3476      000000
 3477 0200 757E     		jne	.L289
 3478              	.L274:
 3479 0202 488D7C24 		leaq	80(%rsp), %rdi
 3479      50
 3480 0207 48C74424 		movq	$_ZTVSt15basic_streambufIcSt11char_traitsIcEE+16, 24(%rsp)
 3480      18000000 
 3480      00
 3481 0210 E8000000 		call	_ZNSt6localeD1Ev
 3481      00
 3482 0215 488D7C24 		leaq	112(%rsp), %rdi
 3482      70
 3483 021a 48C74424 		movq	$_ZTVSt9basic_iosIcSt11char_traitsIcEE+16, 112(%rsp)
 3483      70000000 
 3483      00
 3484              	.LEHB15:
 3485 0223 E8000000 		call	_ZNSt8ios_baseD2Ev
 3485      00
 3486              	.LEHE15:
 3487              	.L262:
 3488 0228 488B8424 		movq	376(%rsp), %rax
 3488      78010000 
 3489 0230 64483304 		xorq	%fs:40, %rax
 3489      25280000 
 3489      00
 3490 0239 0F858E00 		jne	.L290
 3490      0000
 3491 023f 4881C480 		addq	$384, %rsp
 3491      010000
 3492              		.cfi_remember_state
 3493              		.cfi_def_cfa_offset 48
 3494 0246 5B       		popq	%rbx
 3495              		.cfi_def_cfa_offset 40
 3496 0247 5D       		popq	%rbp
 3497              		.cfi_def_cfa_offset 32
 3498 0248 415C     		popq	%r12
 3499              		.cfi_def_cfa_offset 24
 3500 024a 415D     		popq	%r13
 3501              		.cfi_def_cfa_offset 16
 3502 024c 415E     		popq	%r14
 3503              		.cfi_def_cfa_offset 8
 3504 024e C3       		ret
 3505 024f 90       		.p2align 4,,10
 3506              		.p2align 3
 3507              	.L288:
 3508              		.cfi_restore_state
 3509 0250 BA000000 		movl	$_ZL28__gthrw___pthread_key_createPjPFvPvE, %edx
 3509      00
 3510 0255 4885D2   		testq	%rdx, %rdx
 3511 0258 7456     		je	.L270
 3512 025a BAFFFFFF 		movl	$-1, %edx
 3512      FF
 3513 025f F00FC150 		lock xaddl	%edx, -8(%rax)
 3513      F8
 3514 0264 89D0     		movl	%edx, %eax
 3515              	.L271:
 3516 0266 85C0     		testl	%eax, %eax
 3517 0268 0F8F67FF 		jg	.L269
 3517      FFFF
 3518 026e 488D7424 		leaq	15(%rsp), %rsi
 3518      0F
 3519 0273 E8000000 		call	_ZNSs4_Rep10_M_destroyERKSaIcE
 3519      00
 3520 0278 E958FFFF 		jmp	.L269
 3520      FF
 3521 027d 0F1F00   		.p2align 4,,10
 3522              		.p2align 3
 3523              	.L289:
 3524 0280 BA000000 		movl	$_ZL28__gthrw___pthread_key_createPjPFvPvE, %edx
 3524      00
 3525 0285 4885D2   		testq	%rdx, %rdx
 3526 0288 7436     		je	.L275
 3527 028a BAFFFFFF 		movl	$-1, %edx
 3527      FF
 3528 028f F00FC150 		lock xaddl	%edx, -8(%rax)
 3528      F8
 3529 0294 89D0     		movl	%edx, %eax
 3530              	.L276:
 3531 0296 85C0     		testl	%eax, %eax
 3532 0298 0F8F64FF 		jg	.L274
 3532      FFFF
 3533 029e 488D7424 		leaq	15(%rsp), %rsi
 3533      0F
 3534 02a3 E8000000 		call	_ZNSs4_Rep10_M_destroyERKSaIcE
 3534      00
 3535 02a8 E955FFFF 		jmp	.L274
 3535      FF
 3536 02ad 0F1F00   		.p2align 4,,10
 3537              		.p2align 3
 3538              	.L270:
 3539 02b0 8B50F8   		movl	-8(%rax), %edx
 3540 02b3 8D4AFF   		leal	-1(%rdx), %ecx
 3541 02b6 8948F8   		movl	%ecx, -8(%rax)
 3542 02b9 89D0     		movl	%edx, %eax
 3543 02bb EBA9     		jmp	.L271
 3544 02bd 0F1F00   		.p2align 4,,10
 3545              		.p2align 3
 3546              	.L275:
 3547 02c0 8B50F8   		movl	-8(%rax), %edx
 3548 02c3 8D4AFF   		leal	-1(%rdx), %ecx
 3549 02c6 8948F8   		movl	%ecx, -8(%rax)
 3550 02c9 89D0     		movl	%edx, %eax
 3551 02cb EBC9     		jmp	.L276
 3552              	.L290:
 3553 02cd E8000000 		call	__stack_chk_fail
 3553      00
 3554              	.L280:
 3555 02d2 4889C3   		movq	%rax, %rbx
 3556 02d5 EB0A     		jmp	.L278
 3557              	.L282:
 3558 02d7 4889C3   		movq	%rax, %rbx
 3559 02da EB17     		jmp	.L265
 3560              	.L281:
 3561 02dc 4889C3   		movq	%rax, %rbx
 3562 02df EB1C     		jmp	.L266
 3563              	.L278:
 3564 02e1 488D7C24 		leaq	16(%rsp), %rdi
 3564      10
 3565 02e6 E8000000 		call	_ZN8UnitTest15MemoryOutStreamD1Ev
 3565      00
 3566 02eb 4889DF   		movq	%rbx, %rdi
 3567              	.LEHB16:
 3568 02ee E8000000 		call	_Unwind_Resume
 3568      00
 3569              	.LEHE16:
 3570              	.L265:
 3571 02f3 488D7C24 		leaq	24(%rsp), %rdi
 3571      18
 3572 02f8 E8000000 		call	_ZNSt15basic_stringbufIcSt11char_traitsIcESaIcEED1Ev
 3572      00
 3573              	.L266:
 3574 02fd 488D7C24 		leaq	112(%rsp), %rdi
 3574      70
 3575 0302 48C74424 		movq	$_ZTVSt9basic_iosIcSt11char_traitsIcEE+16, 112(%rsp)
 3575      70000000 
 3575      00
 3576 030b E8000000 		call	_ZNSt8ios_baseD2Ev
 3576      00
 3577 0310 4889DF   		movq	%rbx, %rdi
 3578              	.LEHB17:
 3579 0313 E8000000 		call	_Unwind_Resume
 3579      00
 3580              	.LEHE17:
 3581              		.cfi_endproc
 3582              	.LFE1328:
 3583              		.section	.gcc_except_table
 3584              	.LLSDA1328:
 3585 004c FF       		.byte	0xff
 3586 004d FF       		.byte	0xff
 3587 004e 01       		.byte	0x1
 3588 004f 21       		.uleb128 .LLSDACSE1328-.LLSDACSB1328
 3589              	.LLSDACSB1328:
 3590 0050 A801     		.uleb128 .LEHB12-.LFB1328
 3591 0052 05       		.uleb128 .LEHE12-.LEHB12
 3592 0053 DC05     		.uleb128 .L281-.LFB1328
 3593 0055 00       		.uleb128 0
 3594 0056 B502     		.uleb128 .LEHB13-.LFB1328
 3595 0058 05       		.uleb128 .LEHE13-.LEHB13
 3596 0059 D705     		.uleb128 .L282-.LFB1328
 3597 005b 00       		.uleb128 0
 3598 005c E902     		.uleb128 .LEHB14-.LFB1328
 3599 005e 48       		.uleb128 .LEHE14-.LEHB14
 3600 005f D205     		.uleb128 .L280-.LFB1328
 3601 0061 00       		.uleb128 0
 3602 0062 A304     		.uleb128 .LEHB15-.LFB1328
 3603 0064 05       		.uleb128 .LEHE15-.LEHB15
 3604 0065 00       		.uleb128 0
 3605 0066 00       		.uleb128 0
 3606 0067 EE05     		.uleb128 .LEHB16-.LFB1328
 3607 0069 05       		.uleb128 .LEHE16-.LEHB16
 3608 006a 00       		.uleb128 0
 3609 006b 00       		.uleb128 0
 3610 006c 9306     		.uleb128 .LEHB17-.LFB1328
 3611 006e 05       		.uleb128 .LEHE17-.LEHB17
 3612 006f 00       		.uleb128 0
 3613 0070 00       		.uleb128 0
 3614              	.LLSDACSE1328:
 3615              		.section	.text._ZN8UnitTest10CheckEqualI12BufferStatusS1_EEvRNS_11TestResultsERKT_RKT0_RKNS_11Test
 3617              		.section	.text.unlikely._ZN8UnitTest10CheckEqualI12BufferStatusS1_EEvRNS_11TestResultsERKT_RKT0_RK
 3618              	.LCOLDE102:
 3619              		.section	.text._ZN8UnitTest10CheckEqualI12BufferStatusS1_EEvRNS_11TestResultsERKT_RKT0_RKNS_11Test
 3620              	.LHOTE102:
 3621              		.section	.text.unlikely._ZN8UnitTest10CheckEqualImjEEvRNS_11TestResultsERKT_RKT0_RKNS_11TestDetail
 3622              	.LCOLDB103:
 3623              		.section	.text._ZN8UnitTest10CheckEqualImjEEvRNS_11TestResultsERKT_RKT0_RKNS_11TestDetailsE,"axG",
 3624              	.LHOTB103:
 3625              		.p2align 4,,15
 3626              		.weak	_ZN8UnitTest10CheckEqualImjEEvRNS_11TestResultsERKT_RKT0_RKNS_11TestDetailsE
 3628              	_ZN8UnitTest10CheckEqualImjEEvRNS_11TestResultsERKT_RKT0_RKNS_11TestDetailsE:
 3629              	.LFB1333:
 3630              		.cfi_startproc
 3631              		.cfi_personality 0x3,__gxx_personality_v0
 3632              		.cfi_lsda 0x3,.LLSDA1333
 3633 0000 4156     		pushq	%r14
 3634              		.cfi_def_cfa_offset 16
 3635              		.cfi_offset 14, -16
 3636 0002 4155     		pushq	%r13
 3637              		.cfi_def_cfa_offset 24
 3638              		.cfi_offset 13, -24
 3639 0004 4154     		pushq	%r12
 3640              		.cfi_def_cfa_offset 32
 3641              		.cfi_offset 12, -32
 3642 0006 55       		pushq	%rbp
 3643              		.cfi_def_cfa_offset 40
 3644              		.cfi_offset 6, -40
 3645 0007 4889D5   		movq	%rdx, %rbp
 3646 000a 53       		pushq	%rbx
 3647              		.cfi_def_cfa_offset 48
 3648              		.cfi_offset 3, -48
 3649 000b 4889F3   		movq	%rsi, %rbx
 3650 000e 4881EC80 		subq	$384, %rsp
 3650      010000
 3651              		.cfi_def_cfa_offset 432
 3652 0015 64488B04 		movq	%fs:40, %rax
 3652      25280000 
 3652      00
 3653 001e 48898424 		movq	%rax, 376(%rsp)
 3653      78010000 
 3654 0026 31C0     		xorl	%eax, %eax
 3655 0028 8B02     		movl	(%rdx), %eax
 3656 002a 483906   		cmpq	%rax, (%rsi)
 3657 002d 0F840002 		je	.L291
 3657      0000
 3658 0033 4C8D7424 		leaq	112(%rsp), %r14
 3658      70
 3659 0038 4989FC   		movq	%rdi, %r12
 3660 003b 4989CD   		movq	%rcx, %r13
 3661 003e 4C89F7   		movq	%r14, %rdi
 3662 0041 E8000000 		call	_ZNSt8ios_baseC2Ev
 3662      00
 3663 0046 31F6     		xorl	%esi, %esi
 3664 0048 4C89F7   		movq	%r14, %rdi
 3665 004b 48C78424 		movq	$0, 328(%rsp)
 3665      48010000 
 3665      00000000 
 3666 0057 C6842450 		movb	$0, 336(%rsp)
 3666      01000000 
 3667 005f C6842451 		movb	$0, 337(%rsp)
 3667      01000000 
 3668 0067 48C78424 		movq	$0, 344(%rsp)
 3668      58010000 
 3668      00000000 
 3669 0073 48C78424 		movq	$0, 352(%rsp)
 3669      60010000 
 3669      00000000 
 3670 007f 48C78424 		movq	$0, 360(%rsp)
 3670      68010000 
 3670      00000000 
 3671 008b 48C78424 		movq	$0, 368(%rsp)
 3671      70010000 
 3671      00000000 
 3672 0097 48C74424 		movq	$_ZTCN8UnitTest15MemoryOutStreamE0_So+24, 16(%rsp)
 3672      10000000 
 3672      00
 3673 00a0 48C74424 		movq	$_ZTCN8UnitTest15MemoryOutStreamE0_So+64, 112(%rsp)
 3673      70000000 
 3673      00
 3674              	.LEHB18:
 3675 00a9 E8000000 		call	_ZNSt9basic_iosIcSt11char_traitsIcEE4initEPSt15basic_streambufIcS1_E
 3675      00
 3676              	.LEHE18:
 3677 00ae 488D7C24 		leaq	80(%rsp), %rdi
 3677      50
 3678 00b3 48C74424 		movq	$_ZTCN8UnitTest15MemoryOutStreamE0_St19basic_ostringstreamIcSt11char_traitsIcESaIcEE+24, 16(%
 3678      10000000 
 3678      00
 3679 00bc 48C74424 		movq	$_ZTCN8UnitTest15MemoryOutStreamE0_St19basic_ostringstreamIcSt11char_traitsIcESaIcEE+64, 112(
 3679      70000000 
 3679      00
 3680 00c5 48C74424 		movq	$_ZTVSt15basic_streambufIcSt11char_traitsIcEE+16, 24(%rsp)
 3680      18000000 
 3680      00
 3681 00ce 48C74424 		movq	$0, 32(%rsp)
 3681      20000000 
 3681      00
 3682 00d7 48C74424 		movq	$0, 40(%rsp)
 3682      28000000 
 3682      00
 3683 00e0 48C74424 		movq	$0, 48(%rsp)
 3683      30000000 
 3683      00
 3684 00e9 48C74424 		movq	$0, 56(%rsp)
 3684      38000000 
 3684      00
 3685 00f2 48C74424 		movq	$0, 64(%rsp)
 3685      40000000 
 3685      00
 3686 00fb 48C74424 		movq	$0, 72(%rsp)
 3686      48000000 
 3686      00
 3687 0104 E8000000 		call	_ZNSt6localeC1Ev
 3687      00
 3688 0109 488B4424 		movq	16(%rsp), %rax
 3688      10
 3689 010e 488D7C24 		leaq	16(%rsp), %rdi
 3689      10
 3690 0113 488D7424 		leaq	24(%rsp), %rsi
 3690      18
 3691 0118 48C74424 		movq	$_ZTVSt15basic_stringbufIcSt11char_traitsIcESaIcEE+16, 24(%rsp)
 3691      18000000 
 3691      00
 3692 0121 C7442458 		movl	$16, 88(%rsp)
 3692      10000000 
 3693 0129 48C74424 		movq	$_ZNSs4_Rep20_S_empty_rep_storageE+24, 96(%rsp)
 3693      60000000 
 3693      00
 3694 0132 480378E8 		addq	-24(%rax), %rdi
 3695              	.LEHB19:
 3696 0136 E8000000 		call	_ZNSt9basic_iosIcSt11char_traitsIcEE4initEPSt15basic_streambufIcS1_E
 3696      00
 3697              	.LEHE19:
 3698 013b 488D7C24 		leaq	16(%rsp), %rdi
 3698      10
 3699 0140 BA090000 		movl	$9, %edx
 3699      00
 3700 0145 BE000000 		movl	$.LC100, %esi
 3700      00
 3701 014a 48C74424 		movq	$_ZTVN8UnitTest15MemoryOutStreamE+24, 16(%rsp)
 3701      10000000 
 3701      00
 3702 0153 48C74424 		movq	$_ZTVN8UnitTest15MemoryOutStreamE+64, 112(%rsp)
 3702      70000000 
 3702      00
 3703 015c 48C74424 		movq	$_ZNSs4_Rep20_S_empty_rep_storageE+24, 104(%rsp)
 3703      68000000 
 3703      00
 3704 0165 8B6D00   		movl	0(%rbp), %ebp
 3705 0168 488B1B   		movq	(%rbx), %rbx
 3706              	.LEHB20:
 3707 016b E8000000 		call	_ZSt16__ostream_insertIcSt11char_traitsIcEERSt13basic_ostreamIT_T0_ES6_PKS3_l
 3707      00
 3708 0170 488D7C24 		leaq	16(%rsp), %rdi
 3708      10
 3709 0175 4889DE   		movq	%rbx, %rsi
 3710 0178 E8000000 		call	_ZNSo9_M_insertImEERSoT_
 3710      00
 3711 017d BA090000 		movl	$9, %edx
 3711      00
 3712 0182 BE000000 		movl	$.LC101, %esi
 3712      00
 3713 0187 4889C7   		movq	%rax, %rdi
 3714 018a 4889C3   		movq	%rax, %rbx
 3715 018d E8000000 		call	_ZSt16__ostream_insertIcSt11char_traitsIcEERSt13basic_ostreamIT_T0_ES6_PKS3_l
 3715      00
 3716 0192 89EE     		movl	%ebp, %esi
 3717 0194 4889DF   		movq	%rbx, %rdi
 3718 0197 E8000000 		call	_ZNSo9_M_insertImEERSoT_
 3718      00
 3719 019c 488D7C24 		leaq	16(%rsp), %rdi
 3719      10
 3720 01a1 E8000000 		call	_ZNK8UnitTest15MemoryOutStream7GetTextEv
 3720      00
 3721 01a6 4889C2   		movq	%rax, %rdx
 3722 01a9 4C89EE   		movq	%r13, %rsi
 3723 01ac 4C89E7   		movq	%r12, %rdi
 3724 01af E8000000 		call	_ZN8UnitTest11TestResults13OnTestFailureERKNS_11TestDetailsEPKc
 3724      00
 3725              	.LEHE20:
 3726 01b4 488B4424 		movq	104(%rsp), %rax
 3726      68
 3727 01b9 48C74424 		movq	$_ZTVN8UnitTest15MemoryOutStreamE+24, 16(%rsp)
 3727      10000000 
 3727      00
 3728 01c2 48C74424 		movq	$_ZTVN8UnitTest15MemoryOutStreamE+64, 112(%rsp)
 3728      70000000 
 3728      00
 3729 01cb 488D78E8 		leaq	-24(%rax), %rdi
 3730 01cf 4881FF00 		cmpq	$_ZNSs4_Rep20_S_empty_rep_storageE, %rdi
 3730      000000
 3731 01d6 0F858400 		jne	.L317
 3731      0000
 3732              	.L298:
 3733 01dc 488B4424 		movq	96(%rsp), %rax
 3733      60
 3734 01e1 48C74424 		movq	$_ZTCN8UnitTest15MemoryOutStreamE0_St19basic_ostringstreamIcSt11char_traitsIcESaIcEE+24, 16(%
 3734      10000000 
 3734      00
 3735 01ea 48C74424 		movq	$_ZTCN8UnitTest15MemoryOutStreamE0_St19basic_ostringstreamIcSt11char_traitsIcESaIcEE+64, 112(
 3735      70000000 
 3735      00
 3736 01f3 48C74424 		movq	$_ZTVSt15basic_stringbufIcSt11char_traitsIcESaIcEE+16, 24(%rsp)
 3736      18000000 
 3736      00
 3737 01fc 488D78E8 		leaq	-24(%rax), %rdi
 3738 0200 4881FF00 		cmpq	$_ZNSs4_Rep20_S_empty_rep_storageE, %rdi
 3738      000000
 3739 0207 0F858300 		jne	.L318
 3739      0000
 3740              	.L303:
 3741 020d 488D7C24 		leaq	80(%rsp), %rdi
 3741      50
 3742 0212 48C74424 		movq	$_ZTVSt15basic_streambufIcSt11char_traitsIcEE+16, 24(%rsp)
 3742      18000000 
 3742      00
 3743 021b E8000000 		call	_ZNSt6localeD1Ev
 3743      00
 3744 0220 488D7C24 		leaq	112(%rsp), %rdi
 3744      70
 3745 0225 48C74424 		movq	$_ZTVSt9basic_iosIcSt11char_traitsIcEE+16, 112(%rsp)
 3745      70000000 
 3745      00
 3746              	.LEHB21:
 3747 022e E8000000 		call	_ZNSt8ios_baseD2Ev
 3747      00
 3748              	.LEHE21:
 3749              	.L291:
 3750 0233 488B8424 		movq	376(%rsp), %rax
 3750      78010000 
 3751 023b 64483304 		xorq	%fs:40, %rax
 3751      25280000 
 3751      00
 3752 0244 0F859300 		jne	.L319
 3752      0000
 3753 024a 4881C480 		addq	$384, %rsp
 3753      010000
 3754              		.cfi_remember_state
 3755              		.cfi_def_cfa_offset 48
 3756 0251 5B       		popq	%rbx
 3757              		.cfi_def_cfa_offset 40
 3758 0252 5D       		popq	%rbp
 3759              		.cfi_def_cfa_offset 32
 3760 0253 415C     		popq	%r12
 3761              		.cfi_def_cfa_offset 24
 3762 0255 415D     		popq	%r13
 3763              		.cfi_def_cfa_offset 16
 3764 0257 415E     		popq	%r14
 3765              		.cfi_def_cfa_offset 8
 3766 0259 C3       		ret
 3767 025a 660F1F44 		.p2align 4,,10
 3767      0000
 3768              		.p2align 3
 3769              	.L317:
 3770              		.cfi_restore_state
 3771 0260 BA000000 		movl	$_ZL28__gthrw___pthread_key_createPjPFvPvE, %edx
 3771      00
 3772 0265 4885D2   		testq	%rdx, %rdx
 3773 0268 7456     		je	.L299
 3774 026a BAFFFFFF 		movl	$-1, %edx
 3774      FF
 3775 026f F00FC150 		lock xaddl	%edx, -8(%rax)
 3775      F8
 3776 0274 89D0     		movl	%edx, %eax
 3777              	.L300:
 3778 0276 85C0     		testl	%eax, %eax
 3779 0278 0F8F5EFF 		jg	.L298
 3779      FFFF
 3780 027e 488D7424 		leaq	15(%rsp), %rsi
 3780      0F
 3781 0283 E8000000 		call	_ZNSs4_Rep10_M_destroyERKSaIcE
 3781      00
 3782 0288 E94FFFFF 		jmp	.L298
 3782      FF
 3783 028d 0F1F00   		.p2align 4,,10
 3784              		.p2align 3
 3785              	.L318:
 3786 0290 BA000000 		movl	$_ZL28__gthrw___pthread_key_createPjPFvPvE, %edx
 3786      00
 3787 0295 4885D2   		testq	%rdx, %rdx
 3788 0298 7436     		je	.L304
 3789 029a BAFFFFFF 		movl	$-1, %edx
 3789      FF
 3790 029f F00FC150 		lock xaddl	%edx, -8(%rax)
 3790      F8
 3791 02a4 89D0     		movl	%edx, %eax
 3792              	.L305:
 3793 02a6 85C0     		testl	%eax, %eax
 3794 02a8 0F8F5FFF 		jg	.L303
 3794      FFFF
 3795 02ae 488D7424 		leaq	15(%rsp), %rsi
 3795      0F
 3796 02b3 E8000000 		call	_ZNSs4_Rep10_M_destroyERKSaIcE
 3796      00
 3797 02b8 E950FFFF 		jmp	.L303
 3797      FF
 3798 02bd 0F1F00   		.p2align 4,,10
 3799              		.p2align 3
 3800              	.L299:
 3801 02c0 8B50F8   		movl	-8(%rax), %edx
 3802 02c3 8D4AFF   		leal	-1(%rdx), %ecx
 3803 02c6 8948F8   		movl	%ecx, -8(%rax)
 3804 02c9 89D0     		movl	%edx, %eax
 3805 02cb EBA9     		jmp	.L300
 3806 02cd 0F1F00   		.p2align 4,,10
 3807              		.p2align 3
 3808              	.L304:
 3809 02d0 8B50F8   		movl	-8(%rax), %edx
 3810 02d3 8D4AFF   		leal	-1(%rdx), %ecx
 3811 02d6 8948F8   		movl	%ecx, -8(%rax)
 3812 02d9 89D0     		movl	%edx, %eax
 3813 02db EBC9     		jmp	.L305
 3814              	.L319:
 3815 02dd E8000000 		call	__stack_chk_fail
 3815      00
 3816              	.L309:
 3817 02e2 4889C3   		movq	%rax, %rbx
 3818 02e5 EB0A     		jmp	.L307
 3819              	.L311:
 3820 02e7 4889C3   		movq	%rax, %rbx
 3821 02ea EB17     		jmp	.L294
 3822              	.L310:
 3823 02ec 4889C3   		movq	%rax, %rbx
 3824 02ef EB1C     		jmp	.L295
 3825              	.L307:
 3826 02f1 488D7C24 		leaq	16(%rsp), %rdi
 3826      10
 3827 02f6 E8000000 		call	_ZN8UnitTest15MemoryOutStreamD1Ev
 3827      00
 3828 02fb 4889DF   		movq	%rbx, %rdi
 3829              	.LEHB22:
 3830 02fe E8000000 		call	_Unwind_Resume
 3830      00
 3831              	.LEHE22:
 3832              	.L294:
 3833 0303 488D7C24 		leaq	24(%rsp), %rdi
 3833      18
 3834 0308 E8000000 		call	_ZNSt15basic_stringbufIcSt11char_traitsIcESaIcEED1Ev
 3834      00
 3835              	.L295:
 3836 030d 488D7C24 		leaq	112(%rsp), %rdi
 3836      70
 3837 0312 48C74424 		movq	$_ZTVSt9basic_iosIcSt11char_traitsIcEE+16, 112(%rsp)
 3837      70000000 
 3837      00
 3838 031b E8000000 		call	_ZNSt8ios_baseD2Ev
 3838      00
 3839 0320 4889DF   		movq	%rbx, %rdi
 3840              	.LEHB23:
 3841 0323 E8000000 		call	_Unwind_Resume
 3841      00
 3842              	.LEHE23:
 3843              		.cfi_endproc
 3844              	.LFE1333:
 3845              		.section	.gcc_except_table
 3846              	.LLSDA1333:
 3847 0071 FF       		.byte	0xff
 3848 0072 FF       		.byte	0xff
 3849 0073 01       		.byte	0x1
 3850 0074 21       		.uleb128 .LLSDACSE1333-.LLSDACSB1333
 3851              	.LLSDACSB1333:
 3852 0075 A901     		.uleb128 .LEHB18-.LFB1333
 3853 0077 05       		.uleb128 .LEHE18-.LEHB18
 3854 0078 EC05     		.uleb128 .L310-.LFB1333
 3855 007a 00       		.uleb128 0
 3856 007b B602     		.uleb128 .LEHB19-.LFB1333
 3857 007d 05       		.uleb128 .LEHE19-.LEHB19
 3858 007e E705     		.uleb128 .L311-.LFB1333
 3859 0080 00       		.uleb128 0
 3860 0081 EB02     		.uleb128 .LEHB20-.LFB1333
 3861 0083 49       		.uleb128 .LEHE20-.LEHB20
 3862 0084 E205     		.uleb128 .L309-.LFB1333
 3863 0086 00       		.uleb128 0
 3864 0087 AE04     		.uleb128 .LEHB21-.LFB1333
 3865 0089 05       		.uleb128 .LEHE21-.LEHB21
 3866 008a 00       		.uleb128 0
 3867 008b 00       		.uleb128 0
 3868 008c FE05     		.uleb128 .LEHB22-.LFB1333
 3869 008e 05       		.uleb128 .LEHE22-.LEHB22
 3870 008f 00       		.uleb128 0
 3871 0090 00       		.uleb128 0
 3872 0091 A306     		.uleb128 .LEHB23-.LFB1333
 3873 0093 05       		.uleb128 .LEHE23-.LEHB23
 3874 0094 00       		.uleb128 0
 3875 0095 00       		.uleb128 0
 3876              	.LLSDACSE1333:
 3877              		.section	.text._ZN8UnitTest10CheckEqualImjEEvRNS_11TestResultsERKT_RKT0_RKNS_11TestDetailsE,"axG",
 3879              		.section	.text.unlikely._ZN8UnitTest10CheckEqualImjEEvRNS_11TestResultsERKT_RKT0_RKNS_11TestDetail
 3880              	.LCOLDE103:
 3881              		.section	.text._ZN8UnitTest10CheckEqualImjEEvRNS_11TestResultsERKT_RKT0_RKNS_11TestDetailsE,"axG",
 3882              	.LHOTE103:
 3883              		.section	.rodata.str1.8,"aMS",@progbits,1
 3884              		.align 8
 3885              	.LC104:
 3886 0000 556E6861 		.string	"Unhandled exception in CHECK_EQUAL(BUF_SUCCESS, status)"
 3886      6E646C65 
 3886      64206578 
 3886      63657074 
 3886      696F6E20 
 3887              		.align 8
 3888              	.LC105:
 3889 0038 556E6861 		.string	"Unhandled exception in CHECK_EQUAL(0x18000UL, buf.length)"
 3889      6E646C65 
 3889      64206578 
 3889      63657074 
 3889      696F6E20 
 3890 0072 00000000 		.align 8
 3890      0000
 3891              	.LC106:
 3892 0078 556E6861 		.string	"Unhandled exception in CHECK_EQUAL(0x20000UL, buf.capacity)"
 3892      6E646C65 
 3892      64206578 
 3892      63657074 
 3892      696F6E20 
 3893              		.section	.text.unlikely
 3894              		.align 2
 3895              	.LCOLDB107:
 3896              		.text
 3897              	.LHOTB107:
 3898 0811 90       		.align 2
 3899 0812 0F1F4000 		.p2align 4,,15
 3899      662E0F1F 
 3899      84000000 
 3899      0000
 3900              		.globl	_ZNK28TestCore_testHugeAppendConst7RunImplEv
 3902              	_ZNK28TestCore_testHugeAppendConst7RunImplEv:
 3903              	.LFB1208:
 3904              		.cfi_startproc
 3905              		.cfi_personality 0x3,__gxx_personality_v0
 3906              		.cfi_lsda 0x3,.LLSDA1208
 3907 0820 53       		pushq	%rbx
 3908              		.cfi_def_cfa_offset 16
 3909              		.cfi_offset 3, -16
 3910 0821 31C9     		xorl	%ecx, %ecx
 3911 0823 31D2     		xorl	%edx, %edx
 3912 0825 BE040000 		movl	$4, %esi
 3912      00
 3913 082a 4883EC60 		subq	$96, %rsp
 3914              		.cfi_def_cfa_offset 112
 3915 082e 488D7C24 		leaq	16(%rsp), %rdi
 3915      10
 3916 0833 64488B04 		movq	%fs:40, %rax
 3916      25280000 
 3916      00
 3917 083c 48894424 		movq	%rax, 88(%rsp)
 3917      58
 3918 0841 31C0     		xorl	%eax, %eax
 3919              	.LEHB24:
 3920 0843 E8000000 		call	bufInitialise
 3920      00
 3921              	.LEHE24:
 3922 0848 89442404 		movl	%eax, 4(%rsp)
 3923              	.LEHB25:
 3924 084c E8000000 		call	_ZN8UnitTest11CurrentTest7DetailsEv
 3924      00
 3925 0851 488D5C24 		leaq	48(%rsp), %rbx
 3925      30
 3926 0856 488B30   		movq	(%rax), %rsi
 3927 0859 BA840100 		movl	$388, %edx
 3927      00
 3928 085e 4889DF   		movq	%rbx, %rdi
 3929 0861 E8000000 		call	_ZN8UnitTest11TestDetailsC1ERKS0_i
 3929      00
 3930 0866 C7442408 		movl	$0, 8(%rsp)
 3930      00000000 
 3931 086e E8000000 		call	_ZN8UnitTest11CurrentTest7ResultsEv
 3931      00
 3932 0873 488B38   		movq	(%rax), %rdi
 3933 0876 488D5424 		leaq	4(%rsp), %rdx
 3933      04
 3934 087b 488D7424 		leaq	8(%rsp), %rsi
 3934      08
 3935 0880 4889D9   		movq	%rbx, %rcx
 3936 0883 E8000000 		call	_ZN8UnitTest10CheckEqualI12BufferStatusS1_EEvRNS_11TestResultsERKT_RKT0_RKNS_11TestDetailsE
 3936      00
 3937              	.LEHE25:
 3938              	.L323:
 3939 0888 488D7C24 		leaq	16(%rsp), %rdi
 3939      10
 3940 088d 31C9     		xorl	%ecx, %ecx
 3941 088f BA008001 		movl	$98304, %edx
 3941      00
 3942 0894 BE090000 		movl	$9, %esi
 3942      00
 3943              	.LEHB26:
 3944 0899 E8000000 		call	bufAppendConst
 3944      00
 3945              	.LEHE26:
 3946 089e 89442404 		movl	%eax, 4(%rsp)
 3947              	.LEHB27:
 3948 08a2 E8000000 		call	_ZN8UnitTest11CurrentTest7DetailsEv
 3948      00
 3949 08a7 488B30   		movq	(%rax), %rsi
 3950 08aa BA860100 		movl	$390, %edx
 3950      00
 3951 08af 4889DF   		movq	%rbx, %rdi
 3952 08b2 E8000000 		call	_ZN8UnitTest11TestDetailsC1ERKS0_i
 3952      00
 3953 08b7 C7442408 		movl	$0, 8(%rsp)
 3953      00000000 
 3954 08bf E8000000 		call	_ZN8UnitTest11CurrentTest7ResultsEv
 3954      00
 3955 08c4 488B38   		movq	(%rax), %rdi
 3956 08c7 488D5424 		leaq	4(%rsp), %rdx
 3956      04
 3957 08cc 488D7424 		leaq	8(%rsp), %rsi
 3957      08
 3958 08d1 4889D9   		movq	%rbx, %rcx
 3959 08d4 E8000000 		call	_ZN8UnitTest10CheckEqualI12BufferStatusS1_EEvRNS_11TestResultsERKT_RKT0_RKNS_11TestDetailsE
 3959      00
 3960              	.LEHE27:
 3961              	.L326:
 3962              	.LEHB28:
 3963 08d9 E8000000 		call	_ZN8UnitTest11CurrentTest7DetailsEv
 3963      00
 3964 08de 488B30   		movq	(%rax), %rsi
 3965 08e1 BA870100 		movl	$391, %edx
 3965      00
 3966 08e6 4889DF   		movq	%rbx, %rdi
 3967 08e9 E8000000 		call	_ZN8UnitTest11TestDetailsC1ERKS0_i
 3967      00
 3968 08ee 48C74424 		movq	$98304, 8(%rsp)
 3968      08008001 
 3968      00
 3969 08f7 E8000000 		call	_ZN8UnitTest11CurrentTest7ResultsEv
 3969      00
 3970 08fc 488B38   		movq	(%rax), %rdi
 3971 08ff 488D5424 		leaq	24(%rsp), %rdx
 3971      18
 3972 0904 488D7424 		leaq	8(%rsp), %rsi
 3972      08
 3973 0909 4889D9   		movq	%rbx, %rcx
 3974 090c E8000000 		call	_ZN8UnitTest10CheckEqualImjEEvRNS_11TestResultsERKT_RKT0_RKNS_11TestDetailsE
 3974      00
 3975              	.LEHE28:
 3976              	.L329:
 3977              	.LEHB29:
 3978 0911 E8000000 		call	_ZN8UnitTest11CurrentTest7DetailsEv
 3978      00
 3979 0916 488B30   		movq	(%rax), %rsi
 3980 0919 BA880100 		movl	$392, %edx
 3980      00
 3981 091e 4889DF   		movq	%rbx, %rdi
 3982 0921 E8000000 		call	_ZN8UnitTest11TestDetailsC1ERKS0_i
 3982      00
 3983 0926 48C74424 		movq	$131072, 8(%rsp)
 3983      08000002 
 3983      00
 3984 092f E8000000 		call	_ZN8UnitTest11CurrentTest7ResultsEv
 3984      00
 3985 0934 488B38   		movq	(%rax), %rdi
 3986 0937 488D5424 		leaq	28(%rsp), %rdx
 3986      1C
 3987 093c 488D7424 		leaq	8(%rsp), %rsi
 3987      08
 3988 0941 4889D9   		movq	%rbx, %rcx
 3989 0944 E8000000 		call	_ZN8UnitTest10CheckEqualImjEEvRNS_11TestResultsERKT_RKT0_RKNS_11TestDetailsE
 3989      00
 3990              	.LEHE29:
 3991              	.L332:
 3992 0949 488D7C24 		leaq	16(%rsp), %rdi
 3992      10
 3993              	.LEHB30:
 3994 094e E8000000 		call	bufDestroy
 3994      00
 3995              	.LEHE30:
 3996 0953 488B4424 		movq	88(%rsp), %rax
 3996      58
 3997 0958 64483304 		xorq	%fs:40, %rax
 3997      25280000 
 3997      00
 3998 0961 7506     		jne	.L345
 3999 0963 4883C460 		addq	$96, %rsp
 4000              		.cfi_remember_state
 4001              		.cfi_def_cfa_offset 16
 4002 0967 5B       		popq	%rbx
 4003              		.cfi_def_cfa_offset 8
 4004 0968 C3       		ret
 4005              	.L345:
 4006              		.cfi_restore_state
 4007 0969 E8000000 		call	__stack_chk_fail
 4007      00
 4008              	.L340:
 4009 096e 4889C7   		movq	%rax, %rdi
 4010 0971 E8000000 		call	__cxa_begin_catch
 4010      00
 4011              	.LEHB31:
 4012 0976 E8000000 		call	_ZN8UnitTest11CurrentTest7DetailsEv
 4012      00
 4013 097b 488B30   		movq	(%rax), %rsi
 4014 097e BA880100 		movl	$392, %edx
 4014      00
 4015 0983 4889DF   		movq	%rbx, %rdi
 4016 0986 E8000000 		call	_ZN8UnitTest11TestDetailsC1ERKS0_i
 4016      00
 4017 098b E8000000 		call	_ZN8UnitTest11CurrentTest7ResultsEv
 4017      00
 4018 0990 488B38   		movq	(%rax), %rdi
 4019 0993 BA000000 		movl	$.LC106, %edx
 4019      00
 4020 0998 4889DE   		movq	%rbx, %rsi
 4021 099b E8000000 		call	_ZN8UnitTest11TestResults13OnTestFailureERKNS_11TestDetailsEPKc
 4021      00
 4022              	.LEHE31:
 4023              	.LEHB32:
 4024 09a0 E8000000 		call	__cxa_end_catch
 4024      00
 4025              	.LEHE32:
 4026 09a5 EBA2     		jmp	.L332
 4027              	.L338:
 4028 09a7 4889C7   		movq	%rax, %rdi
 4029 09aa E8000000 		call	__cxa_begin_catch
 4029      00
 4030              	.LEHB33:
 4031 09af E8000000 		call	_ZN8UnitTest11CurrentTest7DetailsEv
 4031      00
 4032 09b4 488B30   		movq	(%rax), %rsi
 4033 09b7 BA870100 		movl	$391, %edx
 4033      00
 4034 09bc 4889DF   		movq	%rbx, %rdi
 4035 09bf E8000000 		call	_ZN8UnitTest11TestDetailsC1ERKS0_i
 4035      00
 4036 09c4 E8000000 		call	_ZN8UnitTest11CurrentTest7ResultsEv
 4036      00
 4037 09c9 488B38   		movq	(%rax), %rdi
 4038 09cc BA000000 		movl	$.LC105, %edx
 4038      00
 4039 09d1 4889DE   		movq	%rbx, %rsi
 4040 09d4 E8000000 		call	_ZN8UnitTest11TestResults13OnTestFailureERKNS_11TestDetailsEPKc
 4040      00
 4041              	.LEHE33:
 4042              	.LEHB34:
 4043 09d9 E8000000 		call	__cxa_end_catch
 4043      00
 4044              	.LEHE34:
 4045 09de E92EFFFF 		jmp	.L329
 4045      FF
 4046              	.L341:
 4047 09e3 4889C3   		movq	%rax, %rbx
 4048 09e6 E8000000 		call	__cxa_end_catch
 4048      00
 4049 09eb 4889DF   		movq	%rbx, %rdi
 4050              	.LEHB35:
 4051 09ee E8000000 		call	_Unwind_Resume
 4051      00
 4052              	.LEHE35:
 4053              	.L339:
 4054 09f3 4889C3   		movq	%rax, %rbx
 4055 09f6 E8000000 		call	__cxa_end_catch
 4055      00
 4056 09fb 4889DF   		movq	%rbx, %rdi
 4057              	.LEHB36:
 4058 09fe E8000000 		call	_Unwind_Resume
 4058      00
 4059              	.LEHE36:
 4060              	.L336:
 4061 0a03 4889C7   		movq	%rax, %rdi
 4062 0a06 E8000000 		call	__cxa_begin_catch
 4062      00
 4063              	.LEHB37:
 4064 0a0b E8000000 		call	_ZN8UnitTest11CurrentTest7DetailsEv
 4064      00
 4065 0a10 488B30   		movq	(%rax), %rsi
 4066 0a13 BA860100 		movl	$390, %edx
 4066      00
 4067 0a18 4889DF   		movq	%rbx, %rdi
 4068 0a1b E8000000 		call	_ZN8UnitTest11TestDetailsC1ERKS0_i
 4068      00
 4069 0a20 E8000000 		call	_ZN8UnitTest11CurrentTest7ResultsEv
 4069      00
 4070 0a25 488B38   		movq	(%rax), %rdi
 4071 0a28 BA000000 		movl	$.LC104, %edx
 4071      00
 4072 0a2d 4889DE   		movq	%rbx, %rsi
 4073 0a30 E8000000 		call	_ZN8UnitTest11TestResults13OnTestFailureERKNS_11TestDetailsEPKc
 4073      00
 4074              	.LEHE37:
 4075              	.LEHB38:
 4076 0a35 E8000000 		call	__cxa_end_catch
 4076      00
 4077              	.LEHE38:
 4078 0a3a E99AFEFF 		jmp	.L326
 4078      FF
 4079              	.L334:
 4080 0a3f 4889C7   		movq	%rax, %rdi
 4081 0a42 E8000000 		call	__cxa_begin_catch
 4081      00
 4082              	.LEHB39:
 4083 0a47 E8000000 		call	_ZN8UnitTest11CurrentTest7DetailsEv
 4083      00
 4084 0a4c 488D5C24 		leaq	48(%rsp), %rbx
 4084      30
 4085 0a51 488B30   		movq	(%rax), %rsi
 4086 0a54 BA840100 		movl	$388, %edx
 4086      00
 4087 0a59 4889DF   		movq	%rbx, %rdi
 4088 0a5c E8000000 		call	_ZN8UnitTest11TestDetailsC1ERKS0_i
 4088      00
 4089 0a61 E8000000 		call	_ZN8UnitTest11CurrentTest7ResultsEv
 4089      00
 4090 0a66 488B38   		movq	(%rax), %rdi
 4091 0a69 BA000000 		movl	$.LC104, %edx
 4091      00
 4092 0a6e 4889DE   		movq	%rbx, %rsi
 4093 0a71 E8000000 		call	_ZN8UnitTest11TestResults13OnTestFailureERKNS_11TestDetailsEPKc
 4093      00
 4094              	.LEHE39:
 4095              	.LEHB40:
 4096 0a76 E8000000 		call	__cxa_end_catch
 4096      00
 4097              	.LEHE40:
 4098 0a7b E908FEFF 		jmp	.L323
 4098      FF
 4099              	.L337:
 4100 0a80 4889C3   		movq	%rax, %rbx
 4101 0a83 E8000000 		call	__cxa_end_catch
 4101      00
 4102 0a88 4889DF   		movq	%rbx, %rdi
 4103              	.LEHB41:
 4104 0a8b E8000000 		call	_Unwind_Resume
 4104      00
 4105              	.LEHE41:
 4106              	.L335:
 4107 0a90 4889C3   		movq	%rax, %rbx
 4108 0a93 E8000000 		call	__cxa_end_catch
 4108      00
 4109 0a98 4889DF   		movq	%rbx, %rdi
 4110              	.LEHB42:
 4111 0a9b E8000000 		call	_Unwind_Resume
 4111      00
 4112              	.LEHE42:
 4113              		.cfi_endproc
 4114              	.LFE1208:
 4115              		.section	.gcc_except_table
 4116 0096 0000     		.align 4
 4117              	.LLSDA1208:
 4118 0098 FF       		.byte	0xff
 4119 0099 03       		.byte	0x3
 4120 009a 6D       		.uleb128 .LLSDATT1208-.LLSDATTD1208
 4121              	.LLSDATTD1208:
 4122 009b 01       		.byte	0x1
 4123 009c 64       		.uleb128 .LLSDACSE1208-.LLSDACSB1208
 4124              	.LLSDACSB1208:
 4125 009d 23       		.uleb128 .LEHB24-.LFB1208
 4126 009e 05       		.uleb128 .LEHE24-.LEHB24
 4127 009f 00       		.uleb128 0
 4128 00a0 00       		.uleb128 0
 4129 00a1 2C       		.uleb128 .LEHB25-.LFB1208
 4130 00a2 3C       		.uleb128 .LEHE25-.LEHB25
 4131 00a3 9F04     		.uleb128 .L334-.LFB1208
 4132 00a5 01       		.uleb128 0x1
 4133 00a6 79       		.uleb128 .LEHB26-.LFB1208
 4134 00a7 05       		.uleb128 .LEHE26-.LEHB26
 4135 00a8 00       		.uleb128 0
 4136 00a9 00       		.uleb128 0
 4137 00aa 8201     		.uleb128 .LEHB27-.LFB1208
 4138 00ac 37       		.uleb128 .LEHE27-.LEHB27
 4139 00ad E303     		.uleb128 .L336-.LFB1208
 4140 00af 01       		.uleb128 0x1
 4141 00b0 B901     		.uleb128 .LEHB28-.LFB1208
 4142 00b2 38       		.uleb128 .LEHE28-.LEHB28
 4143 00b3 8703     		.uleb128 .L338-.LFB1208
 4144 00b5 01       		.uleb128 0x1
 4145 00b6 F101     		.uleb128 .LEHB29-.LFB1208
 4146 00b8 38       		.uleb128 .LEHE29-.LEHB29
 4147 00b9 CE02     		.uleb128 .L340-.LFB1208
 4148 00bb 01       		.uleb128 0x1
 4149 00bc AE02     		.uleb128 .LEHB30-.LFB1208
 4150 00be 05       		.uleb128 .LEHE30-.LEHB30
 4151 00bf 00       		.uleb128 0
 4152 00c0 00       		.uleb128 0
 4153 00c1 D602     		.uleb128 .LEHB31-.LFB1208
 4154 00c3 2A       		.uleb128 .LEHE31-.LEHB31
 4155 00c4 C303     		.uleb128 .L341-.LFB1208
 4156 00c6 00       		.uleb128 0
 4157 00c7 8003     		.uleb128 .LEHB32-.LFB1208
 4158 00c9 05       		.uleb128 .LEHE32-.LEHB32
 4159 00ca 00       		.uleb128 0
 4160 00cb 00       		.uleb128 0
 4161 00cc 8F03     		.uleb128 .LEHB33-.LFB1208
 4162 00ce 2A       		.uleb128 .LEHE33-.LEHB33
 4163 00cf D303     		.uleb128 .L339-.LFB1208
 4164 00d1 00       		.uleb128 0
 4165 00d2 B903     		.uleb128 .LEHB34-.LFB1208
 4166 00d4 05       		.uleb128 .LEHE34-.LEHB34
 4167 00d5 00       		.uleb128 0
 4168 00d6 00       		.uleb128 0
 4169 00d7 CE03     		.uleb128 .LEHB35-.LFB1208
 4170 00d9 05       		.uleb128 .LEHE35-.LEHB35
 4171 00da 00       		.uleb128 0
 4172 00db 00       		.uleb128 0
 4173 00dc DE03     		.uleb128 .LEHB36-.LFB1208
 4174 00de 05       		.uleb128 .LEHE36-.LEHB36
 4175 00df 00       		.uleb128 0
 4176 00e0 00       		.uleb128 0
 4177 00e1 EB03     		.uleb128 .LEHB37-.LFB1208
 4178 00e3 2A       		.uleb128 .LEHE37-.LEHB37
 4179 00e4 E004     		.uleb128 .L337-.LFB1208
 4180 00e6 00       		.uleb128 0
 4181 00e7 9504     		.uleb128 .LEHB38-.LFB1208
 4182 00e9 05       		.uleb128 .LEHE38-.LEHB38
 4183 00ea 00       		.uleb128 0
 4184 00eb 00       		.uleb128 0
 4185 00ec A704     		.uleb128 .LEHB39-.LFB1208
 4186 00ee 2F       		.uleb128 .LEHE39-.LEHB39
 4187 00ef F004     		.uleb128 .L335-.LFB1208
 4188 00f1 00       		.uleb128 0
 4189 00f2 D604     		.uleb128 .LEHB40-.LFB1208
 4190 00f4 05       		.uleb128 .LEHE40-.LEHB40
 4191 00f5 00       		.uleb128 0
 4192 00f6 00       		.uleb128 0
 4193 00f7 EB04     		.uleb128 .LEHB41-.LFB1208
 4194 00f9 05       		.uleb128 .LEHE41-.LEHB41
 4195 00fa 00       		.uleb128 0
 4196 00fb 00       		.uleb128 0
 4197 00fc FB04     		.uleb128 .LEHB42-.LFB1208
 4198 00fe 05       		.uleb128 .LEHE42-.LEHB42
 4199 00ff 00       		.uleb128 0
 4200 0100 00       		.uleb128 0
 4201              	.LLSDACSE1208:
 4202 0101 01       		.byte	0x1
 4203 0102 00       		.byte	0
 4204 0103 00       		.align 4
 4205 0104 00000000 		.long	0
 4206              	
 4207              	.LLSDATT1208:
 4208              		.text
 4210              		.section	.text.unlikely
 4211              	.LCOLDE107:
 4212              		.text
 4213              	.LHOTE107:
 4214              		.section	.rodata.str1.8
 4215 00b4 00000000 		.align 8
 4216              	.LC108:
 4217 00b8 556E6861 		.string	"Unhandled exception in CHECK_EQUAL(0UL, buf.length)"
 4217      6E646C65 
 4217      64206578 
 4217      63657074 
 4217      696F6E20 
 4218 00ec 00000000 		.align 8
 4219              	.LC109:
 4220 00f0 556E6861 		.string	"Unhandled exception in CHECK_EQUAL(8UL, buf.capacity)"
 4220      6E646C65 
 4220      64206578 
 4220      63657074 
 4220      696F6E20 
 4221 0126 0000     		.align 8
 4222              	.LC110:
 4223 0128 556E6861 		.string	"Unhandled exception in CHECK_ARRAY_EQUAL(expected, buf.data)"
 4223      6E646C65 
 4223      64206578 
 4223      63657074 
 4223      696F6E20 
 4224              		.section	.text.unlikely
 4225              		.align 2
 4226              	.LCOLDB111:
 4227              		.text
 4228              	.LHOTB111:
 4229              		.align 2
 4230              		.p2align 4,,15
 4231              		.globl	_ZNK27TestCore_testInitialiseZero7RunImplEv
 4233              	_ZNK27TestCore_testInitialiseZero7RunImplEv:
 4234              	.LFB1128:
 4235              		.cfi_startproc
 4236              		.cfi_personality 0x3,__gxx_personality_v0
 4237              		.cfi_lsda 0x3,.LLSDA1128
 4238 0aa0 53       		pushq	%rbx
 4239              		.cfi_def_cfa_offset 16
 4240              		.cfi_offset 3, -16
 4241 0aa1 31C9     		xorl	%ecx, %ecx
 4242 0aa3 31D2     		xorl	%edx, %edx
 4243 0aa5 BE080000 		movl	$8, %esi
 4243      00
 4244 0aaa 4883EC60 		subq	$96, %rsp
 4245              		.cfi_def_cfa_offset 112
 4246 0aae 488D7C24 		leaq	16(%rsp), %rdi
 4246      10
 4247 0ab3 64488B04 		movq	%fs:40, %rax
 4247      25280000 
 4247      00
 4248 0abc 48894424 		movq	%rax, 88(%rsp)
 4248      58
 4249 0ac1 31C0     		xorl	%eax, %eax
 4250              	.LEHB43:
 4251 0ac3 E8000000 		call	bufInitialise
 4251      00
 4252              	.LEHE43:
 4253 0ac8 89442404 		movl	%eax, 4(%rsp)
 4254              	.LEHB44:
 4255 0acc E8000000 		call	_ZN8UnitTest11CurrentTest7DetailsEv
 4255      00
 4256 0ad1 488D5C24 		leaq	48(%rsp), %rbx
 4256      30
 4257 0ad6 488B30   		movq	(%rax), %rsi
 4258 0ad9 BA180000 		movl	$24, %edx
 4258      00
 4259 0ade 4889DF   		movq	%rbx, %rdi
 4260 0ae1 E8000000 		call	_ZN8UnitTest11TestDetailsC1ERKS0_i
 4260      00
 4261 0ae6 C7442408 		movl	$0, 8(%rsp)
 4261      00000000 
 4262 0aee E8000000 		call	_ZN8UnitTest11CurrentTest7ResultsEv
 4262      00
 4263 0af3 488B38   		movq	(%rax), %rdi
 4264 0af6 488D5424 		leaq	4(%rsp), %rdx
 4264      04
 4265 0afb 488D7424 		leaq	8(%rsp), %rsi
 4265      08
 4266 0b00 4889D9   		movq	%rbx, %rcx
 4267 0b03 E8000000 		call	_ZN8UnitTest10CheckEqualI12BufferStatusS1_EEvRNS_11TestResultsERKT_RKT0_RKNS_11TestDetailsE
 4267      00
 4268              	.LEHE44:
 4269              	.L349:
 4270              	.LEHB45:
 4271 0b08 E8000000 		call	_ZN8UnitTest11CurrentTest7DetailsEv
 4271      00
 4272 0b0d 488B30   		movq	(%rax), %rsi
 4273 0b10 BA190000 		movl	$25, %edx
 4273      00
 4274 0b15 4889DF   		movq	%rbx, %rdi
 4275 0b18 E8000000 		call	_ZN8UnitTest11TestDetailsC1ERKS0_i
 4275      00
 4276 0b1d 48C74424 		movq	$0, 8(%rsp)
 4276      08000000 
 4276      00
 4277 0b26 E8000000 		call	_ZN8UnitTest11CurrentTest7ResultsEv
 4277      00
 4278 0b2b 488B38   		movq	(%rax), %rdi
 4279 0b2e 488D5424 		leaq	24(%rsp), %rdx
 4279      18
 4280 0b33 488D7424 		leaq	8(%rsp), %rsi
 4280      08
 4281 0b38 4889D9   		movq	%rbx, %rcx
 4282 0b3b E8000000 		call	_ZN8UnitTest10CheckEqualImjEEvRNS_11TestResultsERKT_RKT0_RKNS_11TestDetailsE
 4282      00
 4283              	.LEHE45:
 4284              	.L352:
 4285              	.LEHB46:
 4286 0b40 E8000000 		call	_ZN8UnitTest11CurrentTest7DetailsEv
 4286      00
 4287 0b45 488B30   		movq	(%rax), %rsi
 4288 0b48 BA1A0000 		movl	$26, %edx
 4288      00
 4289 0b4d 4889DF   		movq	%rbx, %rdi
 4290 0b50 E8000000 		call	_ZN8UnitTest11TestDetailsC1ERKS0_i
 4290      00
 4291 0b55 48C74424 		movq	$8, 8(%rsp)
 4291      08080000 
 4291      00
 4292 0b5e E8000000 		call	_ZN8UnitTest11CurrentTest7ResultsEv
 4292      00
 4293 0b63 488B38   		movq	(%rax), %rdi
 4294 0b66 488D5424 		leaq	28(%rsp), %rdx
 4294      1C
 4295 0b6b 488D7424 		leaq	8(%rsp), %rsi
 4295      08
 4296 0b70 4889D9   		movq	%rbx, %rcx
 4297 0b73 E8000000 		call	_ZN8UnitTest10CheckEqualImjEEvRNS_11TestResultsERKT_RKT0_RKNS_11TestDetailsE
 4297      00
 4298              	.LEHE46:
 4299              	.L355:
 4300 0b78 48C74424 		movq	$0, 80(%rsp)
 4300      50000000 
 4300      00
 4301              	.LEHB47:
 4302 0b81 E8000000 		call	_ZN8UnitTest11CurrentTest7DetailsEv
 4302      00
 4303 0b86 488B30   		movq	(%rax), %rsi
 4304 0b89 BA1C0000 		movl	$28, %edx
 4304      00
 4305 0b8e 4889DF   		movq	%rbx, %rdi
 4306 0b91 E8000000 		call	_ZN8UnitTest11TestDetailsC1ERKS0_i
 4306      00
 4307 0b96 E8000000 		call	_ZN8UnitTest11CurrentTest7ResultsEv
 4307      00
 4308 0b9b 488B38   		movq	(%rax), %rdi
 4309 0b9e 488D5424 		leaq	16(%rsp), %rdx
 4309      10
 4310 0ba3 488D7424 		leaq	80(%rsp), %rsi
 4310      50
 4311 0ba8 4889D9   		movq	%rbx, %rcx
 4312 0bab E850F4FF 		call	_ZN8UnitTest15CheckArrayEqualIA8_hPhEEvRNS_11TestResultsERKT_RKT0_iRKNS_11TestDetailsE.constp
 4312      FF
 4313              	.LEHE47:
 4314              	.L358:
 4315 0bb0 488D7C24 		leaq	16(%rsp), %rdi
 4315      10
 4316              	.LEHB48:
 4317 0bb5 E8000000 		call	bufDestroy
 4317      00
 4318              	.LEHE48:
 4319 0bba 488B4424 		movq	88(%rsp), %rax
 4319      58
 4320 0bbf 64483304 		xorq	%fs:40, %rax
 4320      25280000 
 4320      00
 4321 0bc8 7506     		jne	.L371
 4322 0bca 4883C460 		addq	$96, %rsp
 4323              		.cfi_remember_state
 4324              		.cfi_def_cfa_offset 16
 4325 0bce 5B       		popq	%rbx
 4326              		.cfi_def_cfa_offset 8
 4327 0bcf C3       		ret
 4328              	.L371:
 4329              		.cfi_restore_state
 4330 0bd0 E8000000 		call	__stack_chk_fail
 4330      00
 4331              	.L366:
 4332 0bd5 4889C7   		movq	%rax, %rdi
 4333 0bd8 E8000000 		call	__cxa_begin_catch
 4333      00
 4334              	.LEHB49:
 4335 0bdd E8000000 		call	_ZN8UnitTest11CurrentTest7DetailsEv
 4335      00
 4336 0be2 488B30   		movq	(%rax), %rsi
 4337 0be5 BA1C0000 		movl	$28, %edx
 4337      00
 4338 0bea 4889DF   		movq	%rbx, %rdi
 4339 0bed E8000000 		call	_ZN8UnitTest11TestDetailsC1ERKS0_i
 4339      00
 4340 0bf2 E8000000 		call	_ZN8UnitTest11CurrentTest7ResultsEv
 4340      00
 4341 0bf7 488B38   		movq	(%rax), %rdi
 4342 0bfa BA000000 		movl	$.LC110, %edx
 4342      00
 4343 0bff 4889DE   		movq	%rbx, %rsi
 4344 0c02 E8000000 		call	_ZN8UnitTest11TestResults13OnTestFailureERKNS_11TestDetailsEPKc
 4344      00
 4345              	.LEHE49:
 4346              	.LEHB50:
 4347 0c07 E8000000 		call	__cxa_end_catch
 4347      00
 4348              	.LEHE50:
 4349 0c0c EBA2     		jmp	.L358
 4350              	.L364:
 4351 0c0e 4889C7   		movq	%rax, %rdi
 4352 0c11 E8000000 		call	__cxa_begin_catch
 4352      00
 4353              	.LEHB51:
 4354 0c16 E8000000 		call	_ZN8UnitTest11CurrentTest7DetailsEv
 4354      00
 4355 0c1b 488B30   		movq	(%rax), %rsi
 4356 0c1e BA1A0000 		movl	$26, %edx
 4356      00
 4357 0c23 4889DF   		movq	%rbx, %rdi
 4358 0c26 E8000000 		call	_ZN8UnitTest11TestDetailsC1ERKS0_i
 4358      00
 4359 0c2b E8000000 		call	_ZN8UnitTest11CurrentTest7ResultsEv
 4359      00
 4360 0c30 488B38   		movq	(%rax), %rdi
 4361 0c33 BA000000 		movl	$.LC109, %edx
 4361      00
 4362 0c38 4889DE   		movq	%rbx, %rsi
 4363 0c3b E8000000 		call	_ZN8UnitTest11TestResults13OnTestFailureERKNS_11TestDetailsEPKc
 4363      00
 4364              	.LEHE51:
 4365              	.LEHB52:
 4366 0c40 E8000000 		call	__cxa_end_catch
 4366      00
 4367              	.LEHE52:
 4368 0c45 E92EFFFF 		jmp	.L355
 4368      FF
 4369              	.L367:
 4370 0c4a 4889C3   		movq	%rax, %rbx
 4371 0c4d E8000000 		call	__cxa_end_catch
 4371      00
 4372 0c52 4889DF   		movq	%rbx, %rdi
 4373              	.LEHB53:
 4374 0c55 E8000000 		call	_Unwind_Resume
 4374      00
 4375              	.LEHE53:
 4376              	.L365:
 4377 0c5a 4889C3   		movq	%rax, %rbx
 4378 0c5d E8000000 		call	__cxa_end_catch
 4378      00
 4379 0c62 4889DF   		movq	%rbx, %rdi
 4380              	.LEHB54:
 4381 0c65 E8000000 		call	_Unwind_Resume
 4381      00
 4382              	.LEHE54:
 4383              	.L362:
 4384 0c6a 4889C7   		movq	%rax, %rdi
 4385 0c6d E8000000 		call	__cxa_begin_catch
 4385      00
 4386              	.LEHB55:
 4387 0c72 E8000000 		call	_ZN8UnitTest11CurrentTest7DetailsEv
 4387      00
 4388 0c77 488B30   		movq	(%rax), %rsi
 4389 0c7a BA190000 		movl	$25, %edx
 4389      00
 4390 0c7f 4889DF   		movq	%rbx, %rdi
 4391 0c82 E8000000 		call	_ZN8UnitTest11TestDetailsC1ERKS0_i
 4391      00
 4392 0c87 E8000000 		call	_ZN8UnitTest11CurrentTest7ResultsEv
 4392      00
 4393 0c8c 488B38   		movq	(%rax), %rdi
 4394 0c8f BA000000 		movl	$.LC108, %edx
 4394      00
 4395 0c94 4889DE   		movq	%rbx, %rsi
 4396 0c97 E8000000 		call	_ZN8UnitTest11TestResults13OnTestFailureERKNS_11TestDetailsEPKc
 4396      00
 4397              	.LEHE55:
 4398              	.LEHB56:
 4399 0c9c E8000000 		call	__cxa_end_catch
 4399      00
 4400              	.LEHE56:
 4401 0ca1 E99AFEFF 		jmp	.L352
 4401      FF
 4402              	.L360:
 4403 0ca6 4889C7   		movq	%rax, %rdi
 4404 0ca9 E8000000 		call	__cxa_begin_catch
 4404      00
 4405              	.LEHB57:
 4406 0cae E8000000 		call	_ZN8UnitTest11CurrentTest7DetailsEv
 4406      00
 4407 0cb3 488D5C24 		leaq	48(%rsp), %rbx
 4407      30
 4408 0cb8 488B30   		movq	(%rax), %rsi
 4409 0cbb BA180000 		movl	$24, %edx
 4409      00
 4410 0cc0 4889DF   		movq	%rbx, %rdi
 4411 0cc3 E8000000 		call	_ZN8UnitTest11TestDetailsC1ERKS0_i
 4411      00
 4412 0cc8 E8000000 		call	_ZN8UnitTest11CurrentTest7ResultsEv
 4412      00
 4413 0ccd 488B38   		movq	(%rax), %rdi
 4414 0cd0 BA000000 		movl	$.LC104, %edx
 4414      00
 4415 0cd5 4889DE   		movq	%rbx, %rsi
 4416 0cd8 E8000000 		call	_ZN8UnitTest11TestResults13OnTestFailureERKNS_11TestDetailsEPKc
 4416      00
 4417              	.LEHE57:
 4418              	.LEHB58:
 4419 0cdd E8000000 		call	__cxa_end_catch
 4419      00
 4420              	.LEHE58:
 4421 0ce2 E921FEFF 		jmp	.L349
 4421      FF
 4422              	.L363:
 4423 0ce7 4889C3   		movq	%rax, %rbx
 4424 0cea E8000000 		call	__cxa_end_catch
 4424      00
 4425 0cef 4889DF   		movq	%rbx, %rdi
 4426              	.LEHB59:
 4427 0cf2 E8000000 		call	_Unwind_Resume
 4427      00
 4428              	.LEHE59:
 4429              	.L361:
 4430 0cf7 4889C3   		movq	%rax, %rbx
 4431 0cfa E8000000 		call	__cxa_end_catch
 4431      00
 4432 0cff 4889DF   		movq	%rbx, %rdi
 4433              	.LEHB60:
 4434 0d02 E8000000 		call	_Unwind_Resume
 4434      00
 4435              	.LEHE60:
 4436              		.cfi_endproc
 4437              	.LFE1128:
 4438              		.section	.gcc_except_table
 4439              		.align 4
 4440              	.LLSDA1128:
 4441 0108 FF       		.byte	0xff
 4442 0109 03       		.byte	0x3
 4443 010a 69       		.uleb128 .LLSDATT1128-.LLSDATTD1128
 4444              	.LLSDATTD1128:
 4445 010b 01       		.byte	0x1
 4446 010c 5F       		.uleb128 .LLSDACSE1128-.LLSDACSB1128
 4447              	.LLSDACSB1128:
 4448 010d 23       		.uleb128 .LEHB43-.LFB1128
 4449 010e 05       		.uleb128 .LEHE43-.LEHB43
 4450 010f 00       		.uleb128 0
 4451 0110 00       		.uleb128 0
 4452 0111 2C       		.uleb128 .LEHB44-.LFB1128
 4453 0112 3C       		.uleb128 .LEHE44-.LEHB44
 4454 0113 8604     		.uleb128 .L360-.LFB1128
 4455 0115 01       		.uleb128 0x1
 4456 0116 68       		.uleb128 .LEHB45-.LFB1128
 4457 0117 38       		.uleb128 .LEHE45-.LEHB45
 4458 0118 CA03     		.uleb128 .L362-.LFB1128
 4459 011a 01       		.uleb128 0x1
 4460 011b A001     		.uleb128 .LEHB46-.LFB1128
 4461 011d 38       		.uleb128 .LEHE46-.LEHB46
 4462 011e EE02     		.uleb128 .L364-.LFB1128
 4463 0120 01       		.uleb128 0x1
 4464 0121 E101     		.uleb128 .LEHB47-.LFB1128
 4465 0123 2F       		.uleb128 .LEHE47-.LEHB47
 4466 0124 B502     		.uleb128 .L366-.LFB1128
 4467 0126 01       		.uleb128 0x1
 4468 0127 9502     		.uleb128 .LEHB48-.LFB1128
 4469 0129 05       		.uleb128 .LEHE48-.LEHB48
 4470 012a 00       		.uleb128 0
 4471 012b 00       		.uleb128 0
 4472 012c BD02     		.uleb128 .LEHB49-.LFB1128
 4473 012e 2A       		.uleb128 .LEHE49-.LEHB49
 4474 012f AA03     		.uleb128 .L367-.LFB1128
 4475 0131 00       		.uleb128 0
 4476 0132 E702     		.uleb128 .LEHB50-.LFB1128
 4477 0134 05       		.uleb128 .LEHE50-.LEHB50
 4478 0135 00       		.uleb128 0
 4479 0136 00       		.uleb128 0
 4480 0137 F602     		.uleb128 .LEHB51-.LFB1128
 4481 0139 2A       		.uleb128 .LEHE51-.LEHB51
 4482 013a BA03     		.uleb128 .L365-.LFB1128
 4483 013c 00       		.uleb128 0
 4484 013d A003     		.uleb128 .LEHB52-.LFB1128
 4485 013f 05       		.uleb128 .LEHE52-.LEHB52
 4486 0140 00       		.uleb128 0
 4487 0141 00       		.uleb128 0
 4488 0142 B503     		.uleb128 .LEHB53-.LFB1128
 4489 0144 05       		.uleb128 .LEHE53-.LEHB53
 4490 0145 00       		.uleb128 0
 4491 0146 00       		.uleb128 0
 4492 0147 C503     		.uleb128 .LEHB54-.LFB1128
 4493 0149 05       		.uleb128 .LEHE54-.LEHB54
 4494 014a 00       		.uleb128 0
 4495 014b 00       		.uleb128 0
 4496 014c D203     		.uleb128 .LEHB55-.LFB1128
 4497 014e 2A       		.uleb128 .LEHE55-.LEHB55
 4498 014f C704     		.uleb128 .L363-.LFB1128
 4499 0151 00       		.uleb128 0
 4500 0152 FC03     		.uleb128 .LEHB56-.LFB1128
 4501 0154 05       		.uleb128 .LEHE56-.LEHB56
 4502 0155 00       		.uleb128 0
 4503 0156 00       		.uleb128 0
 4504 0157 8E04     		.uleb128 .LEHB57-.LFB1128
 4505 0159 2F       		.uleb128 .LEHE57-.LEHB57
 4506 015a D704     		.uleb128 .L361-.LFB1128
 4507 015c 00       		.uleb128 0
 4508 015d BD04     		.uleb128 .LEHB58-.LFB1128
 4509 015f 05       		.uleb128 .LEHE58-.LEHB58
 4510 0160 00       		.uleb128 0
 4511 0161 00       		.uleb128 0
 4512 0162 D204     		.uleb128 .LEHB59-.LFB1128
 4513 0164 05       		.uleb128 .LEHE59-.LEHB59
 4514 0165 00       		.uleb128 0
 4515 0166 00       		.uleb128 0
 4516 0167 E204     		.uleb128 .LEHB60-.LFB1128
 4517 0169 05       		.uleb128 .LEHE60-.LEHB60
 4518 016a 00       		.uleb128 0
 4519 016b 00       		.uleb128 0
 4520              	.LLSDACSE1128:
 4521 016c 01       		.byte	0x1
 4522 016d 00       		.byte	0
 4523 016e 0000     		.align 4
 4524 0170 00000000 		.long	0
 4525              	
 4526              	.LLSDATT1128:
 4527              		.text
 4529              		.section	.text.unlikely
 4530              	.LCOLDE111:
 4531              		.text
 4532              	.LHOTE111:
 4533              		.section	.text.unlikely
 4534              		.align 2
 4535              	.LCOLDB112:
 4536              		.text
 4537              	.LHOTB112:
 4538 0d07 90       		.align 2
 4539 0d08 0F1F8400 		.p2align 4,,15
 4539      00000000 
 4540              		.globl	_ZNK25TestCore_testInitialiseFF7RunImplEv
 4542              	_ZNK25TestCore_testInitialiseFF7RunImplEv:
 4543              	.LFB1132:
 4544              		.cfi_startproc
 4545              		.cfi_personality 0x3,__gxx_personality_v0
 4546              		.cfi_lsda 0x3,.LLSDA1132
 4547 0d10 53       		pushq	%rbx
 4548              		.cfi_def_cfa_offset 16
 4549              		.cfi_offset 3, -16
 4550 0d11 31C9     		xorl	%ecx, %ecx
 4551 0d13 BAFF0000 		movl	$255, %edx
 4551      00
 4552 0d18 BE080000 		movl	$8, %esi
 4552      00
 4553 0d1d 4883EC60 		subq	$96, %rsp
 4554              		.cfi_def_cfa_offset 112
 4555 0d21 488D7C24 		leaq	16(%rsp), %rdi
 4555      10
 4556 0d26 64488B04 		movq	%fs:40, %rax
 4556      25280000 
 4556      00
 4557 0d2f 48894424 		movq	%rax, 88(%rsp)
 4557      58
 4558 0d34 31C0     		xorl	%eax, %eax
 4559              	.LEHB61:
 4560 0d36 E8000000 		call	bufInitialise
 4560      00
 4561              	.LEHE61:
 4562 0d3b 89442404 		movl	%eax, 4(%rsp)
 4563              	.LEHB62:
 4564 0d3f E8000000 		call	_ZN8UnitTest11CurrentTest7DetailsEv
 4564      00
 4565 0d44 488D5C24 		leaq	48(%rsp), %rbx
 4565      30
 4566 0d49 488B30   		movq	(%rax), %rsi
 4567 0d4c BA230000 		movl	$35, %edx
 4567      00
 4568 0d51 4889DF   		movq	%rbx, %rdi
 4569 0d54 E8000000 		call	_ZN8UnitTest11TestDetailsC1ERKS0_i
 4569      00
 4570 0d59 C7442408 		movl	$0, 8(%rsp)
 4570      00000000 
 4571 0d61 E8000000 		call	_ZN8UnitTest11CurrentTest7ResultsEv
 4571      00
 4572 0d66 488B38   		movq	(%rax), %rdi
 4573 0d69 488D5424 		leaq	4(%rsp), %rdx
 4573      04
 4574 0d6e 488D7424 		leaq	8(%rsp), %rsi
 4574      08
 4575 0d73 4889D9   		movq	%rbx, %rcx
 4576 0d76 E8000000 		call	_ZN8UnitTest10CheckEqualI12BufferStatusS1_EEvRNS_11TestResultsERKT_RKT0_RKNS_11TestDetailsE
 4576      00
 4577              	.LEHE62:
 4578              	.L375:
 4579              	.LEHB63:
 4580 0d7b E8000000 		call	_ZN8UnitTest11CurrentTest7DetailsEv
 4580      00
 4581 0d80 488B30   		movq	(%rax), %rsi
 4582 0d83 BA240000 		movl	$36, %edx
 4582      00
 4583 0d88 4889DF   		movq	%rbx, %rdi
 4584 0d8b E8000000 		call	_ZN8UnitTest11TestDetailsC1ERKS0_i
 4584      00
 4585 0d90 48C74424 		movq	$0, 8(%rsp)
 4585      08000000 
 4585      00
 4586 0d99 E8000000 		call	_ZN8UnitTest11CurrentTest7ResultsEv
 4586      00
 4587 0d9e 488B38   		movq	(%rax), %rdi
 4588 0da1 488D5424 		leaq	24(%rsp), %rdx
 4588      18
 4589 0da6 488D7424 		leaq	8(%rsp), %rsi
 4589      08
 4590 0dab 4889D9   		movq	%rbx, %rcx
 4591 0dae E8000000 		call	_ZN8UnitTest10CheckEqualImjEEvRNS_11TestResultsERKT_RKT0_RKNS_11TestDetailsE
 4591      00
 4592              	.LEHE63:
 4593              	.L378:
 4594              	.LEHB64:
 4595 0db3 E8000000 		call	_ZN8UnitTest11CurrentTest7DetailsEv
 4595      00
 4596 0db8 488B30   		movq	(%rax), %rsi
 4597 0dbb BA250000 		movl	$37, %edx
 4597      00
 4598 0dc0 4889DF   		movq	%rbx, %rdi
 4599 0dc3 E8000000 		call	_ZN8UnitTest11TestDetailsC1ERKS0_i
 4599      00
 4600 0dc8 48C74424 		movq	$8, 8(%rsp)
 4600      08080000 
 4600      00
 4601 0dd1 E8000000 		call	_ZN8UnitTest11CurrentTest7ResultsEv
 4601      00
 4602 0dd6 488B38   		movq	(%rax), %rdi
 4603 0dd9 488D5424 		leaq	28(%rsp), %rdx
 4603      1C
 4604 0dde 488D7424 		leaq	8(%rsp), %rsi
 4604      08
 4605 0de3 4889D9   		movq	%rbx, %rcx
 4606 0de6 E8000000 		call	_ZN8UnitTest10CheckEqualImjEEvRNS_11TestResultsERKT_RKT0_RKNS_11TestDetailsE
 4606      00
 4607              	.LEHE64:
 4608              	.L381:
 4609 0deb C6442450 		movb	$-1, 80(%rsp)
 4609      FF
 4610 0df0 C6442451 		movb	$-1, 81(%rsp)
 4610      FF
 4611 0df5 C6442452 		movb	$-1, 82(%rsp)
 4611      FF
 4612 0dfa C6442453 		movb	$-1, 83(%rsp)
 4612      FF
 4613 0dff C6442454 		movb	$-1, 84(%rsp)
 4613      FF
 4614 0e04 C6442455 		movb	$-1, 85(%rsp)
 4614      FF
 4615 0e09 C6442456 		movb	$-1, 86(%rsp)
 4615      FF
 4616 0e0e C6442457 		movb	$-1, 87(%rsp)
 4616      FF
 4617              	.LEHB65:
 4618 0e13 E8000000 		call	_ZN8UnitTest11CurrentTest7DetailsEv
 4618      00
 4619 0e18 488B30   		movq	(%rax), %rsi
 4620 0e1b BA280000 		movl	$40, %edx
 4620      00
 4621 0e20 4889DF   		movq	%rbx, %rdi
 4622 0e23 E8000000 		call	_ZN8UnitTest11TestDetailsC1ERKS0_i
 4622      00
 4623 0e28 E8000000 		call	_ZN8UnitTest11CurrentTest7ResultsEv
 4623      00
 4624 0e2d 488B38   		movq	(%rax), %rdi
 4625 0e30 488D5424 		leaq	16(%rsp), %rdx
 4625      10
 4626 0e35 488D7424 		leaq	80(%rsp), %rsi
 4626      50
 4627 0e3a 4889D9   		movq	%rbx, %rcx
 4628 0e3d E8BEF1FF 		call	_ZN8UnitTest15CheckArrayEqualIA8_hPhEEvRNS_11TestResultsERKT_RKT0_iRKNS_11TestDetailsE.constp
 4628      FF
 4629              	.LEHE65:
 4630              	.L384:
 4631 0e42 488D7C24 		leaq	16(%rsp), %rdi
 4631      10
 4632              	.LEHB66:
 4633 0e47 E8000000 		call	bufDestroy
 4633      00
 4634              	.LEHE66:
 4635 0e4c 488B4424 		movq	88(%rsp), %rax
 4635      58
 4636 0e51 64483304 		xorq	%fs:40, %rax
 4636      25280000 
 4636      00
 4637 0e5a 7506     		jne	.L397
 4638 0e5c 4883C460 		addq	$96, %rsp
 4639              		.cfi_remember_state
 4640              		.cfi_def_cfa_offset 16
 4641 0e60 5B       		popq	%rbx
 4642              		.cfi_def_cfa_offset 8
 4643 0e61 C3       		ret
 4644              	.L397:
 4645              		.cfi_restore_state
 4646 0e62 E8000000 		call	__stack_chk_fail
 4646      00
 4647              	.L392:
 4648 0e67 4889C7   		movq	%rax, %rdi
 4649 0e6a E8000000 		call	__cxa_begin_catch
 4649      00
 4650              	.LEHB67:
 4651 0e6f E8000000 		call	_ZN8UnitTest11CurrentTest7DetailsEv
 4651      00
 4652 0e74 488B30   		movq	(%rax), %rsi
 4653 0e77 BA280000 		movl	$40, %edx
 4653      00
 4654 0e7c 4889DF   		movq	%rbx, %rdi
 4655 0e7f E8000000 		call	_ZN8UnitTest11TestDetailsC1ERKS0_i
 4655      00
 4656 0e84 E8000000 		call	_ZN8UnitTest11CurrentTest7ResultsEv
 4656      00
 4657 0e89 488B38   		movq	(%rax), %rdi
 4658 0e8c BA000000 		movl	$.LC110, %edx
 4658      00
 4659 0e91 4889DE   		movq	%rbx, %rsi
 4660 0e94 E8000000 		call	_ZN8UnitTest11TestResults13OnTestFailureERKNS_11TestDetailsEPKc
 4660      00
 4661              	.LEHE67:
 4662              	.LEHB68:
 4663 0e99 E8000000 		call	__cxa_end_catch
 4663      00
 4664              	.LEHE68:
 4665 0e9e EBA2     		jmp	.L384
 4666              	.L390:
 4667 0ea0 4889C7   		movq	%rax, %rdi
 4668 0ea3 E8000000 		call	__cxa_begin_catch
 4668      00
 4669              	.LEHB69:
 4670 0ea8 E8000000 		call	_ZN8UnitTest11CurrentTest7DetailsEv
 4670      00
 4671 0ead 488B30   		movq	(%rax), %rsi
 4672 0eb0 BA250000 		movl	$37, %edx
 4672      00
 4673 0eb5 4889DF   		movq	%rbx, %rdi
 4674 0eb8 E8000000 		call	_ZN8UnitTest11TestDetailsC1ERKS0_i
 4674      00
 4675 0ebd E8000000 		call	_ZN8UnitTest11CurrentTest7ResultsEv
 4675      00
 4676 0ec2 488B38   		movq	(%rax), %rdi
 4677 0ec5 BA000000 		movl	$.LC109, %edx
 4677      00
 4678 0eca 4889DE   		movq	%rbx, %rsi
 4679 0ecd E8000000 		call	_ZN8UnitTest11TestResults13OnTestFailureERKNS_11TestDetailsEPKc
 4679      00
 4680              	.LEHE69:
 4681              	.LEHB70:
 4682 0ed2 E8000000 		call	__cxa_end_catch
 4682      00
 4683              	.LEHE70:
 4684 0ed7 E90FFFFF 		jmp	.L381
 4684      FF
 4685              	.L393:
 4686 0edc 4889C3   		movq	%rax, %rbx
 4687 0edf E8000000 		call	__cxa_end_catch
 4687      00
 4688 0ee4 4889DF   		movq	%rbx, %rdi
 4689              	.LEHB71:
 4690 0ee7 E8000000 		call	_Unwind_Resume
 4690      00
 4691              	.LEHE71:
 4692              	.L391:
 4693 0eec 4889C3   		movq	%rax, %rbx
 4694 0eef E8000000 		call	__cxa_end_catch
 4694      00
 4695 0ef4 4889DF   		movq	%rbx, %rdi
 4696              	.LEHB72:
 4697 0ef7 E8000000 		call	_Unwind_Resume
 4697      00
 4698              	.LEHE72:
 4699              	.L388:
 4700 0efc 4889C7   		movq	%rax, %rdi
 4701 0eff E8000000 		call	__cxa_begin_catch
 4701      00
 4702              	.LEHB73:
 4703 0f04 E8000000 		call	_ZN8UnitTest11CurrentTest7DetailsEv
 4703      00
 4704 0f09 488B30   		movq	(%rax), %rsi
 4705 0f0c BA240000 		movl	$36, %edx
 4705      00
 4706 0f11 4889DF   		movq	%rbx, %rdi
 4707 0f14 E8000000 		call	_ZN8UnitTest11TestDetailsC1ERKS0_i
 4707      00
 4708 0f19 E8000000 		call	_ZN8UnitTest11CurrentTest7ResultsEv
 4708      00
 4709 0f1e 488B38   		movq	(%rax), %rdi
 4710 0f21 BA000000 		movl	$.LC108, %edx
 4710      00
 4711 0f26 4889DE   		movq	%rbx, %rsi
 4712 0f29 E8000000 		call	_ZN8UnitTest11TestResults13OnTestFailureERKNS_11TestDetailsEPKc
 4712      00
 4713              	.LEHE73:
 4714              	.LEHB74:
 4715 0f2e E8000000 		call	__cxa_end_catch
 4715      00
 4716              	.LEHE74:
 4717 0f33 E97BFEFF 		jmp	.L378
 4717      FF
 4718              	.L386:
 4719 0f38 4889C7   		movq	%rax, %rdi
 4720 0f3b E8000000 		call	__cxa_begin_catch
 4720      00
 4721              	.LEHB75:
 4722 0f40 E8000000 		call	_ZN8UnitTest11CurrentTest7DetailsEv
 4722      00
 4723 0f45 488D5C24 		leaq	48(%rsp), %rbx
 4723      30
 4724 0f4a 488B30   		movq	(%rax), %rsi
 4725 0f4d BA230000 		movl	$35, %edx
 4725      00
 4726 0f52 4889DF   		movq	%rbx, %rdi
 4727 0f55 E8000000 		call	_ZN8UnitTest11TestDetailsC1ERKS0_i
 4727      00
 4728 0f5a E8000000 		call	_ZN8UnitTest11CurrentTest7ResultsEv
 4728      00
 4729 0f5f 488B38   		movq	(%rax), %rdi
 4730 0f62 BA000000 		movl	$.LC104, %edx
 4730      00
 4731 0f67 4889DE   		movq	%rbx, %rsi
 4732 0f6a E8000000 		call	_ZN8UnitTest11TestResults13OnTestFailureERKNS_11TestDetailsEPKc
 4732      00
 4733              	.LEHE75:
 4734              	.LEHB76:
 4735 0f6f E8000000 		call	__cxa_end_catch
 4735      00
 4736              	.LEHE76:
 4737 0f74 E902FEFF 		jmp	.L375
 4737      FF
 4738              	.L389:
 4739 0f79 4889C3   		movq	%rax, %rbx
 4740 0f7c E8000000 		call	__cxa_end_catch
 4740      00
 4741 0f81 4889DF   		movq	%rbx, %rdi
 4742              	.LEHB77:
 4743 0f84 E8000000 		call	_Unwind_Resume
 4743      00
 4744              	.LEHE77:
 4745              	.L387:
 4746 0f89 4889C3   		movq	%rax, %rbx
 4747 0f8c E8000000 		call	__cxa_end_catch
 4747      00
 4748 0f91 4889DF   		movq	%rbx, %rdi
 4749              	.LEHB78:
 4750 0f94 E8000000 		call	_Unwind_Resume
 4750      00
 4751              	.LEHE78:
 4752              		.cfi_endproc
 4753              	.LFE1132:
 4754              		.section	.gcc_except_table
 4755              		.align 4
 4756              	.LLSDA1132:
 4757 0174 FF       		.byte	0xff
 4758 0175 03       		.byte	0x3
 4759 0176 69       		.uleb128 .LLSDATT1132-.LLSDATTD1132
 4760              	.LLSDATTD1132:
 4761 0177 01       		.byte	0x1
 4762 0178 5F       		.uleb128 .LLSDACSE1132-.LLSDACSB1132
 4763              	.LLSDACSB1132:
 4764 0179 26       		.uleb128 .LEHB61-.LFB1132
 4765 017a 05       		.uleb128 .LEHE61-.LEHB61
 4766 017b 00       		.uleb128 0
 4767 017c 00       		.uleb128 0
 4768 017d 2F       		.uleb128 .LEHB62-.LFB1132
 4769 017e 3C       		.uleb128 .LEHE62-.LEHB62
 4770 017f A804     		.uleb128 .L386-.LFB1132
 4771 0181 01       		.uleb128 0x1
 4772 0182 6B       		.uleb128 .LEHB63-.LFB1132
 4773 0183 38       		.uleb128 .LEHE63-.LEHB63
 4774 0184 EC03     		.uleb128 .L388-.LFB1132
 4775 0186 01       		.uleb128 0x1
 4776 0187 A301     		.uleb128 .LEHB64-.LFB1132
 4777 0189 38       		.uleb128 .LEHE64-.LEHB64
 4778 018a 9003     		.uleb128 .L390-.LFB1132
 4779 018c 01       		.uleb128 0x1
 4780 018d 8302     		.uleb128 .LEHB65-.LFB1132
 4781 018f 2F       		.uleb128 .LEHE65-.LEHB65
 4782 0190 D702     		.uleb128 .L392-.LFB1132
 4783 0192 01       		.uleb128 0x1
 4784 0193 B702     		.uleb128 .LEHB66-.LFB1132
 4785 0195 05       		.uleb128 .LEHE66-.LEHB66
 4786 0196 00       		.uleb128 0
 4787 0197 00       		.uleb128 0
 4788 0198 DF02     		.uleb128 .LEHB67-.LFB1132
 4789 019a 2A       		.uleb128 .LEHE67-.LEHB67
 4790 019b CC03     		.uleb128 .L393-.LFB1132
 4791 019d 00       		.uleb128 0
 4792 019e 8903     		.uleb128 .LEHB68-.LFB1132
 4793 01a0 05       		.uleb128 .LEHE68-.LEHB68
 4794 01a1 00       		.uleb128 0
 4795 01a2 00       		.uleb128 0
 4796 01a3 9803     		.uleb128 .LEHB69-.LFB1132
 4797 01a5 2A       		.uleb128 .LEHE69-.LEHB69
 4798 01a6 DC03     		.uleb128 .L391-.LFB1132
 4799 01a8 00       		.uleb128 0
 4800 01a9 C203     		.uleb128 .LEHB70-.LFB1132
 4801 01ab 05       		.uleb128 .LEHE70-.LEHB70
 4802 01ac 00       		.uleb128 0
 4803 01ad 00       		.uleb128 0
 4804 01ae D703     		.uleb128 .LEHB71-.LFB1132
 4805 01b0 05       		.uleb128 .LEHE71-.LEHB71
 4806 01b1 00       		.uleb128 0
 4807 01b2 00       		.uleb128 0
 4808 01b3 E703     		.uleb128 .LEHB72-.LFB1132
 4809 01b5 05       		.uleb128 .LEHE72-.LEHB72
 4810 01b6 00       		.uleb128 0
 4811 01b7 00       		.uleb128 0
 4812 01b8 F403     		.uleb128 .LEHB73-.LFB1132
 4813 01ba 2A       		.uleb128 .LEHE73-.LEHB73
 4814 01bb E904     		.uleb128 .L389-.LFB1132
 4815 01bd 00       		.uleb128 0
 4816 01be 9E04     		.uleb128 .LEHB74-.LFB1132
 4817 01c0 05       		.uleb128 .LEHE74-.LEHB74
 4818 01c1 00       		.uleb128 0
 4819 01c2 00       		.uleb128 0
 4820 01c3 B004     		.uleb128 .LEHB75-.LFB1132
 4821 01c5 2F       		.uleb128 .LEHE75-.LEHB75
 4822 01c6 F904     		.uleb128 .L387-.LFB1132
 4823 01c8 00       		.uleb128 0
 4824 01c9 DF04     		.uleb128 .LEHB76-.LFB1132
 4825 01cb 05       		.uleb128 .LEHE76-.LEHB76
 4826 01cc 00       		.uleb128 0
 4827 01cd 00       		.uleb128 0
 4828 01ce F404     		.uleb128 .LEHB77-.LFB1132
 4829 01d0 05       		.uleb128 .LEHE77-.LEHB77
 4830 01d1 00       		.uleb128 0
 4831 01d2 00       		.uleb128 0
 4832 01d3 8405     		.uleb128 .LEHB78-.LFB1132
 4833 01d5 05       		.uleb128 .LEHE78-.LEHB78
 4834 01d6 00       		.uleb128 0
 4835 01d7 00       		.uleb128 0
 4836              	.LLSDACSE1132:
 4837 01d8 01       		.byte	0x1
 4838 01d9 00       		.byte	0
 4839 01da 0000     		.align 4
 4840 01dc 00000000 		.long	0
 4841              	
 4842              	.LLSDATT1132:
 4843              		.text
 4845              		.section	.text.unlikely
 4846              	.LCOLDE112:
 4847              		.text
 4848              	.LHOTE112:
 4849              		.section	.rodata.str1.8
 4850 0165 000000   		.align 8
 4851              	.LC113:
 4852 0168 556E6861 		.string	"Unhandled exception in CHECK_EQUAL(4UL, buf.length)"
 4852      6E646C65 
 4852      64206578 
 4852      63657074 
 4852      696F6E20 
 4853              		.section	.text.unlikely
 4854              		.align 2
 4855              	.LCOLDB114:
 4856              		.text
 4857              	.LHOTB114:
 4858 0f99 90       		.align 2
 4859 0f9a 660F1F44 		.p2align 4,,15
 4859      0000
 4860              		.globl	_ZNK29TestCore_testSmallAppendBlock7RunImplEv
 4862              	_ZNK29TestCore_testSmallAppendBlock7RunImplEv:
 4863              	.LFB1136:
 4864              		.cfi_startproc
 4865              		.cfi_personality 0x3,__gxx_personality_v0
 4866              		.cfi_lsda 0x3,.LLSDA1136
 4867 0fa0 53       		pushq	%rbx
 4868              		.cfi_def_cfa_offset 16
 4869              		.cfi_offset 3, -16
 4870 0fa1 31C9     		xorl	%ecx, %ecx
 4871 0fa3 31D2     		xorl	%edx, %edx
 4872 0fa5 BE080000 		movl	$8, %esi
 4872      00
 4873 0faa 4883EC60 		subq	$96, %rsp
 4874              		.cfi_def_cfa_offset 112
 4875 0fae 488D7C24 		leaq	16(%rsp), %rdi
 4875      10
 4876 0fb3 64488B04 		movq	%fs:40, %rax
 4876      25280000 
 4876      00
 4877 0fbc 48894424 		movq	%rax, 88(%rsp)
 4877      58
 4878 0fc1 31C0     		xorl	%eax, %eax
 4879              	.LEHB79:
 4880 0fc3 E8000000 		call	bufInitialise
 4880      00
 4881              	.LEHE79:
 4882 0fc8 89442404 		movl	%eax, 4(%rsp)
 4883              	.LEHB80:
 4884 0fcc E8000000 		call	_ZN8UnitTest11CurrentTest7DetailsEv
 4884      00
 4885 0fd1 488D5C24 		leaq	48(%rsp), %rbx
 4885      30
 4886 0fd6 488B30   		movq	(%rax), %rsi
 4887 0fd9 BA310000 		movl	$49, %edx
 4887      00
 4888 0fde 4889DF   		movq	%rbx, %rdi
 4889 0fe1 E8000000 		call	_ZN8UnitTest11TestDetailsC1ERKS0_i
 4889      00
 4890 0fe6 C7442408 		movl	$0, 8(%rsp)
 4890      00000000 
 4891 0fee E8000000 		call	_ZN8UnitTest11CurrentTest7ResultsEv
 4891      00
 4892 0ff3 488B38   		movq	(%rax), %rdi
 4893 0ff6 488D5424 		leaq	4(%rsp), %rdx
 4893      04
 4894 0ffb 488D7424 		leaq	8(%rsp), %rsi
 4894      08
 4895 1000 4889D9   		movq	%rbx, %rcx
 4896 1003 E8000000 		call	_ZN8UnitTest10CheckEqualI12BufferStatusS1_EEvRNS_11TestResultsERKT_RKT0_RKNS_11TestDetailsE
 4896      00
 4897              	.LEHE80:
 4898              	.L401:
 4899 1008 488D7424 		leaq	80(%rsp), %rsi
 4899      50
 4900 100d 488D7C24 		leaq	16(%rsp), %rdi
 4900      10
 4901 1012 31C9     		xorl	%ecx, %ecx
 4902 1014 BA040000 		movl	$4, %edx
 4902      00
 4903 1019 C6442450 		movb	$1, 80(%rsp)
 4903      01
 4904 101e C6442451 		movb	$2, 81(%rsp)
 4904      02
 4905 1023 C6442452 		movb	$3, 82(%rsp)
 4905      03
 4906 1028 C6442453 		movb	$4, 83(%rsp)
 4906      04
 4907 102d C6442454 		movb	$0, 84(%rsp)
 4907      00
 4908 1032 C6442455 		movb	$0, 85(%rsp)
 4908      00
 4909 1037 C6442456 		movb	$0, 86(%rsp)
 4909      00
 4910 103c C6442457 		movb	$0, 87(%rsp)
 4910      00
 4911              	.LEHB81:
 4912 1041 E8000000 		call	bufAppendBlock
 4912      00
 4913              	.LEHE81:
 4914 1046 89442404 		movl	%eax, 4(%rsp)
 4915              	.LEHB82:
 4916 104a E8000000 		call	_ZN8UnitTest11CurrentTest7DetailsEv
 4916      00
 4917 104f 488B30   		movq	(%rax), %rsi
 4918 1052 BA350000 		movl	$53, %edx
 4918      00
 4919 1057 4889DF   		movq	%rbx, %rdi
 4920 105a E8000000 		call	_ZN8UnitTest11TestDetailsC1ERKS0_i
 4920      00
 4921 105f C7442408 		movl	$0, 8(%rsp)
 4921      00000000 
 4922 1067 E8000000 		call	_ZN8UnitTest11CurrentTest7ResultsEv
 4922      00
 4923 106c 488B38   		movq	(%rax), %rdi
 4924 106f 488D5424 		leaq	4(%rsp), %rdx
 4924      04
 4925 1074 488D7424 		leaq	8(%rsp), %rsi
 4925      08
 4926 1079 4889D9   		movq	%rbx, %rcx
 4927 107c E8000000 		call	_ZN8UnitTest10CheckEqualI12BufferStatusS1_EEvRNS_11TestResultsERKT_RKT0_RKNS_11TestDetailsE
 4927      00
 4928              	.LEHE82:
 4929              	.L404:
 4930              	.LEHB83:
 4931 1081 E8000000 		call	_ZN8UnitTest11CurrentTest7DetailsEv
 4931      00
 4932 1086 488B30   		movq	(%rax), %rsi
 4933 1089 BA360000 		movl	$54, %edx
 4933      00
 4934 108e 4889DF   		movq	%rbx, %rdi
 4935 1091 E8000000 		call	_ZN8UnitTest11TestDetailsC1ERKS0_i
 4935      00
 4936 1096 48C74424 		movq	$8, 8(%rsp)
 4936      08080000 
 4936      00
 4937 109f E8000000 		call	_ZN8UnitTest11CurrentTest7ResultsEv
 4937      00
 4938 10a4 488B38   		movq	(%rax), %rdi
 4939 10a7 488D5424 		leaq	28(%rsp), %rdx
 4939      1C
 4940 10ac 488D7424 		leaq	8(%rsp), %rsi
 4940      08
 4941 10b1 4889D9   		movq	%rbx, %rcx
 4942 10b4 E8000000 		call	_ZN8UnitTest10CheckEqualImjEEvRNS_11TestResultsERKT_RKT0_RKNS_11TestDetailsE
 4942      00
 4943              	.LEHE83:
 4944              	.L407:
 4945              	.LEHB84:
 4946 10b9 E8000000 		call	_ZN8UnitTest11CurrentTest7DetailsEv
 4946      00
 4947 10be 488B30   		movq	(%rax), %rsi
 4948 10c1 BA370000 		movl	$55, %edx
 4948      00
 4949 10c6 4889DF   		movq	%rbx, %rdi
 4950 10c9 E8000000 		call	_ZN8UnitTest11TestDetailsC1ERKS0_i
 4950      00
 4951 10ce 48C74424 		movq	$4, 8(%rsp)
 4951      08040000 
 4951      00
 4952 10d7 E8000000 		call	_ZN8UnitTest11CurrentTest7ResultsEv
 4952      00
 4953 10dc 488B38   		movq	(%rax), %rdi
 4954 10df 488D5424 		leaq	24(%rsp), %rdx
 4954      18
 4955 10e4 488D7424 		leaq	8(%rsp), %rsi
 4955      08
 4956 10e9 4889D9   		movq	%rbx, %rcx
 4957 10ec E8000000 		call	_ZN8UnitTest10CheckEqualImjEEvRNS_11TestResultsERKT_RKT0_RKNS_11TestDetailsE
 4957      00
 4958              	.LEHE84:
 4959              	.L410:
 4960              	.LEHB85:
 4961 10f1 E8000000 		call	_ZN8UnitTest11CurrentTest7DetailsEv
 4961      00
 4962 10f6 488B30   		movq	(%rax), %rsi
 4963 10f9 BA380000 		movl	$56, %edx
 4963      00
 4964 10fe 4889DF   		movq	%rbx, %rdi
 4965 1101 E8000000 		call	_ZN8UnitTest11TestDetailsC1ERKS0_i
 4965      00
 4966 1106 E8000000 		call	_ZN8UnitTest11CurrentTest7ResultsEv
 4966      00
 4967 110b 488B38   		movq	(%rax), %rdi
 4968 110e 488D5424 		leaq	16(%rsp), %rdx
 4968      10
 4969 1113 488D7424 		leaq	80(%rsp), %rsi
 4969      50
 4970 1118 4889D9   		movq	%rbx, %rcx
 4971 111b E8E0EEFF 		call	_ZN8UnitTest15CheckArrayEqualIA8_hPhEEvRNS_11TestResultsERKT_RKT0_iRKNS_11TestDetailsE.constp
 4971      FF
 4972              	.LEHE85:
 4973              	.L413:
 4974 1120 488D7C24 		leaq	16(%rsp), %rdi
 4974      10
 4975              	.LEHB86:
