   1              		.file	"testCore.cpp"
   2              		.text
   3              	.Ltext0:
   4              		.section	.rodata
   5              	.LC0:
   6 0000 44656661 		.string	"DefaultSuite"
   6      756C7453 
   6      75697465 
   6      00
   7              		.section	.text._ZN13UnitTestSuite12GetSuiteNameEv,"axG",@progbits,_ZN13UnitTestSuite12GetSuiteName
   8              		.weak	_ZN13UnitTestSuite12GetSuiteNameEv
  10              	_ZN13UnitTestSuite12GetSuiteNameEv:
  11              	.LFB0:
  12              		.file 1 "/home/asoreyh/Dropbox/projects/lago/lago-software/acqua/brc/lago/makestuff/libs/libutpp/T
   1:/home/asoreyh/Dropbox/projects/lago/lago-software/acqua/brc/lago/makestuff/libs/libutpp/TestSuite.h **** #ifndef UNITTEST_TESTSUITE_H
   2:/home/asoreyh/Dropbox/projects/lago/lago-software/acqua/brc/lago/makestuff/libs/libutpp/TestSuite.h **** #define UNITTEST_TESTSUITE_H
   3:/home/asoreyh/Dropbox/projects/lago/lago-software/acqua/brc/lago/makestuff/libs/libutpp/TestSuite.h **** 
   4:/home/asoreyh/Dropbox/projects/lago/lago-software/acqua/brc/lago/makestuff/libs/libutpp/TestSuite.h **** namespace UnitTestSuite {
   5:/home/asoreyh/Dropbox/projects/lago/lago-software/acqua/brc/lago/makestuff/libs/libutpp/TestSuite.h **** 
   6:/home/asoreyh/Dropbox/projects/lago/lago-software/acqua/brc/lago/makestuff/libs/libutpp/TestSuite.h ****     inline char const* GetSuiteName ()
   7:/home/asoreyh/Dropbox/projects/lago/lago-software/acqua/brc/lago/makestuff/libs/libutpp/TestSuite.h ****     {
  13              		.loc 1 7 0
  14              		.cfi_startproc
  15 0000 55       		pushq	%rbp
  16              		.cfi_def_cfa_offset 16
  17              		.cfi_offset 6, -16
  18 0001 4889E5   		movq	%rsp, %rbp
  19              		.cfi_def_cfa_register 6
   8:/home/asoreyh/Dropbox/projects/lago/lago-software/acqua/brc/lago/makestuff/libs/libutpp/TestSuite.h ****         return "DefaultSuite";
  20              		.loc 1 8 0
  21 0004 B8000000 		movl	$.LC0, %eax
  21      00
   9:/home/asoreyh/Dropbox/projects/lago/lago-software/acqua/brc/lago/makestuff/libs/libutpp/TestSuite.h ****     }
  22              		.loc 1 9 0
  23 0009 5D       		popq	%rbp
  24              		.cfi_def_cfa 7, 8
  25 000a C3       		ret
  26              		.cfi_endproc
  27              	.LFE0:
  29              		.section	.text._ZN8UnitTest15MemoryOutStreamC1Ev,"axG",@progbits,_ZN8UnitTest15MemoryOutStreamC1Ev
  30              		.align 2
  31              		.weak	_ZN8UnitTest15MemoryOutStreamC1Ev
  33              	_ZN8UnitTest15MemoryOutStreamC1Ev:
  34              	.LFB1053:
  35              		.file 2 "/home/asoreyh/Dropbox/projects/lago/lago-software/acqua/brc/lago/makestuff/libs/libutpp/M
   1:/home/asoreyh/Dropbox/projects/lago/lago-software/acqua/brc/lago/makestuff/libs/libutpp/MemoryOutStream.h **** #ifndef UNITTEST_MEMORYOUTSTREAM_H
   2:/home/asoreyh/Dropbox/projects/lago/lago-software/acqua/brc/lago/makestuff/libs/libutpp/MemoryOutStream.h **** #define UNITTEST_MEMORYOUTSTREAM_H
   3:/home/asoreyh/Dropbox/projects/lago/lago-software/acqua/brc/lago/makestuff/libs/libutpp/MemoryOutStream.h **** 
   4:/home/asoreyh/Dropbox/projects/lago/lago-software/acqua/brc/lago/makestuff/libs/libutpp/MemoryOutStream.h **** #include "Config.h"
   5:/home/asoreyh/Dropbox/projects/lago/lago-software/acqua/brc/lago/makestuff/libs/libutpp/MemoryOutStream.h **** 
   6:/home/asoreyh/Dropbox/projects/lago/lago-software/acqua/brc/lago/makestuff/libs/libutpp/MemoryOutStream.h **** #ifndef UNITTEST_USE_CUSTOM_STREAMS
   7:/home/asoreyh/Dropbox/projects/lago/lago-software/acqua/brc/lago/makestuff/libs/libutpp/MemoryOutStream.h **** 
   8:/home/asoreyh/Dropbox/projects/lago/lago-software/acqua/brc/lago/makestuff/libs/libutpp/MemoryOutStream.h **** #include <sstream>
   9:/home/asoreyh/Dropbox/projects/lago/lago-software/acqua/brc/lago/makestuff/libs/libutpp/MemoryOutStream.h **** 
  10:/home/asoreyh/Dropbox/projects/lago/lago-software/acqua/brc/lago/makestuff/libs/libutpp/MemoryOutStream.h **** namespace UnitTest
  11:/home/asoreyh/Dropbox/projects/lago/lago-software/acqua/brc/lago/makestuff/libs/libutpp/MemoryOutStream.h **** {
  12:/home/asoreyh/Dropbox/projects/lago/lago-software/acqua/brc/lago/makestuff/libs/libutpp/MemoryOutStream.h **** 
  13:/home/asoreyh/Dropbox/projects/lago/lago-software/acqua/brc/lago/makestuff/libs/libutpp/MemoryOutStream.h **** class MemoryOutStream : public std::ostringstream
  14:/home/asoreyh/Dropbox/projects/lago/lago-software/acqua/brc/lago/makestuff/libs/libutpp/MemoryOutStream.h **** {
  15:/home/asoreyh/Dropbox/projects/lago/lago-software/acqua/brc/lago/makestuff/libs/libutpp/MemoryOutStream.h **** public:
  16:/home/asoreyh/Dropbox/projects/lago/lago-software/acqua/brc/lago/makestuff/libs/libutpp/MemoryOutStream.h ****     MemoryOutStream() {}
  36              		.loc 2 16 0
  37              		.cfi_startproc
  38              		.cfi_personality 0x3,__gxx_personality_v0
  39              		.cfi_lsda 0x3,.LLSDA1053
  40 0000 55       		pushq	%rbp
  41              		.cfi_def_cfa_offset 16
  42              		.cfi_offset 6, -16
  43 0001 4889E5   		movq	%rsp, %rbp
  44              		.cfi_def_cfa_register 6
  45 0004 53       		pushq	%rbx
  46 0005 4883EC18 		subq	$24, %rsp
  47              		.cfi_offset 3, -24
  48 0009 48897DE8 		movq	%rdi, -24(%rbp)
  49              	.LBB2:
  50              		.loc 2 16 0
  51 000d 488B45E8 		movq	-24(%rbp), %rax
  52 0011 4883C060 		addq	$96, %rax
  53 0015 4889C7   		movq	%rax, %rdi
  54              	.LEHB0:
  55 0018 E8000000 		call	_ZNSt9basic_iosIcSt11char_traitsIcEEC2Ev
  55      00
  56              	.LEHE0:
  57 001d B9000000 		movl	$_ZTTN8UnitTest15MemoryOutStreamE+8, %ecx
  57      00
  58 0022 488B45E8 		movq	-24(%rbp), %rax
  59 0026 BA100000 		movl	$16, %edx
  59      00
  60 002b 4889CE   		movq	%rcx, %rsi
  61 002e 4889C7   		movq	%rax, %rdi
  62              	.LEHB1:
  63 0031 E8000000 		call	_ZNSt19basic_ostringstreamIcSt11char_traitsIcESaIcEEC2ESt13_Ios_Openmode
  63      00
  64              	.LEHE1:
  65              		.loc 2 16 0 is_stmt 0 discriminator 9
  66 0036 BA000000 		movl	$_ZTVN8UnitTest15MemoryOutStreamE+24, %edx
  66      00
  67 003b 488B45E8 		movq	-24(%rbp), %rax
  68 003f 488910   		movq	%rdx, (%rax)
  69 0042 BA600000 		movl	$96, %edx
  69      00
  70 0047 488B45E8 		movq	-24(%rbp), %rax
  71 004b 4801D0   		addq	%rdx, %rax
  72 004e BA000000 		movl	$_ZTVN8UnitTest15MemoryOutStreamE+64, %edx
  72      00
  73 0053 488910   		movq	%rdx, (%rax)
  74 0056 488B45E8 		movq	-24(%rbp), %rax
  75 005a 4883C058 		addq	$88, %rax
  76 005e 4889C7   		movq	%rax, %rdi
  77              	.LEHB2:
  78 0061 E8000000 		call	_ZNSsC1Ev
  78      00
  79              	.LEHE2:
  80              	.LBE2:
  81              		.loc 2 16 0
  82 0066 EB37     		jmp	.L8
  83              	.L6:
  84 0068 4889C3   		movq	%rax, %rbx
  85              	.LBB3:
  86 006b BA000000 		movl	$_ZTTN8UnitTest15MemoryOutStreamE+8, %edx
  86      00
  87 0070 488B45E8 		movq	-24(%rbp), %rax
  88 0074 4889D6   		movq	%rdx, %rsi
  89 0077 4889C7   		movq	%rax, %rdi
  90 007a E8000000 		call	_ZNSt19basic_ostringstreamIcSt11char_traitsIcESaIcEED2Ev
  90      00
  91 007f EB03     		jmp	.L5
  92              	.L7:
  93 0081 4889C3   		movq	%rax, %rbx
  94              	.L5:
  95              		.loc 2 16 0 discriminator 28
  96 0084 488B45E8 		movq	-24(%rbp), %rax
  97 0088 4883C060 		addq	$96, %rax
  98 008c 4889C7   		movq	%rax, %rdi
  99 008f E8000000 		call	_ZNSt9basic_iosIcSt11char_traitsIcEED2Ev
  99      00
 100 0094 4889D8   		movq	%rbx, %rax
 101 0097 4889C7   		movq	%rax, %rdi
 102              	.LEHB3:
 103 009a E8000000 		call	_Unwind_Resume
 103      00
 104              	.LEHE3:
 105              	.L8:
 106              	.LBE3:
 107              		.loc 2 16 0
 108 009f 4883C418 		addq	$24, %rsp
 109 00a3 5B       		popq	%rbx
 110 00a4 5D       		popq	%rbp
 111              		.cfi_def_cfa 7, 8
 112 00a5 C3       		ret
 113              		.cfi_endproc
 114              	.LFE1053:
 115              		.globl	__gxx_personality_v0
 116              		.section	.gcc_except_table._ZN8UnitTest15MemoryOutStreamC1Ev,"aG",@progbits,_ZN8UnitTest15MemoryOu
 117              	.LLSDA1053:
 118 0000 FF       		.byte	0xff
 119 0001 FF       		.byte	0xff
 120 0002 01       		.byte	0x1
 121 0003 12       		.uleb128 .LLSDACSE1053-.LLSDACSB1053
 122              	.LLSDACSB1053:
 123 0004 18       		.uleb128 .LEHB0-.LFB1053
 124 0005 05       		.uleb128 .LEHE0-.LEHB0
 125 0006 00       		.uleb128 0
 126 0007 00       		.uleb128 0
 127 0008 31       		.uleb128 .LEHB1-.LFB1053
 128 0009 05       		.uleb128 .LEHE1-.LEHB1
 129 000a 8101     		.uleb128 .L7-.LFB1053
 130 000c 00       		.uleb128 0
 131 000d 61       		.uleb128 .LEHB2-.LFB1053
 132 000e 05       		.uleb128 .LEHE2-.LEHB2
 133 000f 68       		.uleb128 .L6-.LFB1053
 134 0010 00       		.uleb128 0
 135 0011 9A01     		.uleb128 .LEHB3-.LFB1053
 136 0013 05       		.uleb128 .LEHE3-.LEHB3
 137 0014 00       		.uleb128 0
 138 0015 00       		.uleb128 0
 139              	.LLSDACSE1053:
 140              		.section	.text._ZN8UnitTest15MemoryOutStreamC1Ev,"axG",@progbits,_ZN8UnitTest15MemoryOutStreamC1Ev
 142              		.section	.rodata
 143              	.LC1:
 144 000d 74657374 		.string	"testCore.cpp"
 144      436F7265 
 144      2E637070 
 144      00
 145              	.LC2:
 146 001a 436F7265 		.string	"Core_testInitialiseZero"
 146      5F746573 
 146      74496E69 
 146      7469616C 
 146      6973655A 
 147              		.section	.text._ZN27TestCore_testInitialiseZeroC2Ev,"axG",@progbits,_ZN27TestCore_testInitialiseZe
 148              		.align 2
 149              		.weak	_ZN27TestCore_testInitialiseZeroC2Ev
 151              	_ZN27TestCore_testInitialiseZeroC2Ev:
 152              	.LFB1070:
 153              		.file 3 "testCore.cpp"
   1:testCore.cpp  **** /*
   2:testCore.cpp  ****  * Copyright (C) 2009-2012 Chris McClelland
   3:testCore.cpp  ****  *
   4:testCore.cpp  ****  * This program is free software: you can redistribute it and/or modify
   5:testCore.cpp  ****  * it under the terms of the GNU Lesser General Public License as published by
   6:testCore.cpp  ****  * the Free Software Foundation, either version 3 of the License, or
   7:testCore.cpp  ****  * (at your option) any later version.
   8:testCore.cpp  ****  *
   9:testCore.cpp  ****  * This program is distributed in the hope that it will be useful,
  10:testCore.cpp  ****  * but WITHOUT ANY WARRANTY; without even the implied warranty of
  11:testCore.cpp  ****  * MERCHANTABILITY or FITNESS FOR A PARTICULAR PURPOSE.  See the
  12:testCore.cpp  ****  * GNU Lesser General Public License for more details.
  13:testCore.cpp  ****  *
  14:testCore.cpp  ****  * You should have received a copy of the GNU Lesser General Public License
  15:testCore.cpp  ****  * along with this program.  If not, see <http://www.gnu.org/licenses/>.
  16:testCore.cpp  ****  */
  17:testCore.cpp  **** #include <string.h>
  18:testCore.cpp  **** #include <UnitTest++.h>
  19:testCore.cpp  **** #include "../libbuffer.h"
  20:testCore.cpp  **** 
  21:testCore.cpp  **** TEST(Core_testInitialiseZero) {
 154              		.loc 3 21 0 is_stmt 1
 155              		.cfi_startproc
 156 0000 55       		pushq	%rbp
 157              		.cfi_def_cfa_offset 16
 158              		.cfi_offset 6, -16
 159 0001 4889E5   		movq	%rsp, %rbp
 160              		.cfi_def_cfa_register 6
 161 0004 4883EC10 		subq	$16, %rsp
 162 0008 48897DF8 		movq	%rdi, -8(%rbp)
 163              	.LBB4:
 164              		.loc 3 21 0
 165 000c E8000000 		call	_ZN13UnitTestSuite12GetSuiteNameEv
 165      00
 166 0011 4889C2   		movq	%rax, %rdx
 167 0014 488B45F8 		movq	-8(%rbp), %rax
 168 0018 41B81500 		movl	$21, %r8d
 168      0000
 169 001e B9000000 		movl	$.LC1, %ecx
 169      00
 170 0023 BE000000 		movl	$.LC2, %esi
 170      00
 171 0028 4889C7   		movq	%rax, %rdi
 172 002b E8000000 		call	_ZN8UnitTest4TestC2EPKcS2_S2_i
 172      00
 173 0030 488B45F8 		movq	-8(%rbp), %rax
 174 0034 48C70000 		movq	$_ZTV27TestCore_testInitialiseZero+16, (%rax)
 174      000000
 175              	.LBE4:
 176 003b C9       		leave
 177              		.cfi_def_cfa 7, 8
 178 003c C3       		ret
 179              		.cfi_endproc
 180              	.LFE1070:
 182              		.weak	_ZN27TestCore_testInitialiseZeroC1Ev
 183              		.set	_ZN27TestCore_testInitialiseZeroC1Ev,_ZN27TestCore_testInitialiseZeroC2Ev
 184              		.globl	testCore_testInitialiseZeroInstance
 185              		.bss
 186              		.align 32
 189              	testCore_testInitialiseZeroInstance:
 190 0000 00000000 		.zero	56
 190      00000000 
 190      00000000 
 190      00000000 
 190      00000000 
 191              		.globl	adderCore_testInitialiseZero
 194              	adderCore_testInitialiseZero:
 195 0038 00       		.zero	1
 196              		.section	.rodata
 197 0032 00000000 		.align 8
 197      0000
 198              	.LC3:
 199 0038 556E6861 		.string	"Unhandled exception in CHECK_EQUAL(BUF_SUCCESS, status)"
 199      6E646C65 
 199      64206578 
 199      63657074 
 199      696F6E20 
 200              		.align 8
 201              	.LC4:
 202 0070 556E6861 		.string	"Unhandled exception in CHECK_EQUAL(0UL, buf.length)"
 202      6E646C65 
 202      64206578 
 202      63657074 
 202      696F6E20 
 203 00a4 00000000 		.align 8
 204              	.LC5:
 205 00a8 556E6861 		.string	"Unhandled exception in CHECK_EQUAL(8UL, buf.capacity)"
 205      6E646C65 
 205      64206578 
 205      63657074 
 205      696F6E20 
 206 00de 0000     		.align 8
 207              	.LC6:
 208 00e0 556E6861 		.string	"Unhandled exception in CHECK_ARRAY_EQUAL(expected, buf.data)"
 208      6E646C65 
 208      64206578 
 208      63657074 
 208      696F6E20 
 209              		.text
 210              		.align 2
 211              		.globl	_ZNK27TestCore_testInitialiseZero7RunImplEv
 213              	_ZNK27TestCore_testInitialiseZero7RunImplEv:
 214              	.LFB1072:
 215              		.loc 3 21 0
 216              		.cfi_startproc
 217              		.cfi_personality 0x3,__gxx_personality_v0
 218              		.cfi_lsda 0x3,.LLSDA1072
 219 0000 55       		pushq	%rbp
 220              		.cfi_def_cfa_offset 16
 221              		.cfi_offset 6, -16
 222 0001 4889E5   		movq	%rsp, %rbp
 223              		.cfi_def_cfa_register 6
 224 0004 53       		pushq	%rbx
 225 0005 4883EC78 		subq	$120, %rsp
 226              		.cfi_offset 3, -24
 227 0009 48897D88 		movq	%rdi, -120(%rbp)
 228              		.loc 3 21 0
 229 000d 64488B04 		movq	%fs:40, %rax
 229      25280000 
 229      00
 230 0016 488945E8 		movq	%rax, -24(%rbp)
 231 001a 31C0     		xorl	%eax, %eax
 232              	.LBB5:
  22:testCore.cpp  **** 	Buffer buf;
  23:testCore.cpp  **** 	BufferStatus status = bufInitialise(&buf, 8, 0, NULL);
 233              		.loc 3 23 0
 234 001c 488D45A0 		leaq	-96(%rbp), %rax
 235 0020 B9000000 		movl	$0, %ecx
 235      00
 236 0025 BA000000 		movl	$0, %edx
 236      00
 237 002a BE080000 		movl	$8, %esi
 237      00
 238 002f 4889C7   		movq	%rax, %rdi
 239              	.LEHB4:
 240 0032 E8000000 		call	bufInitialise
 240      00
 241              	.LEHE4:
 242 0037 894594   		movl	%eax, -108(%rbp)
 243              	.LEHB5:
  24:testCore.cpp  **** 	CHECK_EQUAL(BUF_SUCCESS, status);
 244              		.loc 3 24 0
 245 003a E8000000 		call	_ZN8UnitTest11CurrentTest7DetailsEv
 245      00
 246 003f 488B08   		movq	(%rax), %rcx
 247 0042 488D45C0 		leaq	-64(%rbp), %rax
 248 0046 BA180000 		movl	$24, %edx
 248      00
 249 004b 4889CE   		movq	%rcx, %rsi
 250 004e 4889C7   		movq	%rax, %rdi
 251 0051 E8000000 		call	_ZN8UnitTest11TestDetailsC1ERKS0_i
 251      00
 252              		.loc 3 24 0 is_stmt 0 discriminator 2
 253 0056 C7459800 		movl	$0, -104(%rbp)
 253      000000
 254 005d E8000000 		call	_ZN8UnitTest11CurrentTest7ResultsEv
 254      00
 255 0062 488B00   		movq	(%rax), %rax
 256 0065 488D4DC0 		leaq	-64(%rbp), %rcx
 257 0069 488D5594 		leaq	-108(%rbp), %rdx
 258 006d 488D7598 		leaq	-104(%rbp), %rsi
 259 0071 4889C7   		movq	%rax, %rdi
 260 0074 E8000000 		call	_ZN8UnitTest10CheckEqualI12BufferStatusS1_EEvRNS_11TestResultsERKT_RKT0_RKNS_11TestDetailsE
 260      00
 261              	.LEHE5:
 262              	.L13:
 263              	.LEHB6:
  25:testCore.cpp  **** 	CHECK_EQUAL(0UL, buf.length);
 264              		.loc 3 25 0 is_stmt 1
 265 0079 E8000000 		call	_ZN8UnitTest11CurrentTest7DetailsEv
 265      00
 266 007e 488B08   		movq	(%rax), %rcx
 267 0081 488D45C0 		leaq	-64(%rbp), %rax
 268 0085 BA190000 		movl	$25, %edx
 268      00
 269 008a 4889CE   		movq	%rcx, %rsi
 270 008d 4889C7   		movq	%rax, %rdi
 271 0090 E8000000 		call	_ZN8UnitTest11TestDetailsC1ERKS0_i
 271      00
 272              		.loc 3 25 0 is_stmt 0 discriminator 2
 273 0095 48C74598 		movq	$0, -104(%rbp)
 273      00000000 
 274 009d E8000000 		call	_ZN8UnitTest11CurrentTest7ResultsEv
 274      00
 275 00a2 488B00   		movq	(%rax), %rax
 276 00a5 488D55C0 		leaq	-64(%rbp), %rdx
 277 00a9 488D4DA0 		leaq	-96(%rbp), %rcx
 278 00ad 488D7908 		leaq	8(%rcx), %rdi
 279 00b1 488D7598 		leaq	-104(%rbp), %rsi
 280 00b5 4889D1   		movq	%rdx, %rcx
 281 00b8 4889FA   		movq	%rdi, %rdx
 282 00bb 4889C7   		movq	%rax, %rdi
 283 00be E8000000 		call	_ZN8UnitTest10CheckEqualImjEEvRNS_11TestResultsERKT_RKT0_RKNS_11TestDetailsE
 283      00
 284              	.LEHE6:
 285              	.L16:
 286              	.LEHB7:
  26:testCore.cpp  **** 	CHECK_EQUAL(8UL, buf.capacity);
 287              		.loc 3 26 0 is_stmt 1
 288 00c3 E8000000 		call	_ZN8UnitTest11CurrentTest7DetailsEv
 288      00
 289 00c8 488B08   		movq	(%rax), %rcx
 290 00cb 488D45C0 		leaq	-64(%rbp), %rax
 291 00cf BA1A0000 		movl	$26, %edx
 291      00
 292 00d4 4889CE   		movq	%rcx, %rsi
 293 00d7 4889C7   		movq	%rax, %rdi
 294 00da E8000000 		call	_ZN8UnitTest11TestDetailsC1ERKS0_i
 294      00
 295              		.loc 3 26 0 is_stmt 0 discriminator 2
 296 00df 48C74598 		movq	$8, -104(%rbp)
 296      08000000 
 297 00e7 E8000000 		call	_ZN8UnitTest11CurrentTest7ResultsEv
 297      00
 298 00ec 488B00   		movq	(%rax), %rax
 299 00ef 488D55C0 		leaq	-64(%rbp), %rdx
 300 00f3 488D4DA0 		leaq	-96(%rbp), %rcx
 301 00f7 488D790C 		leaq	12(%rcx), %rdi
 302 00fb 488D7598 		leaq	-104(%rbp), %rsi
 303 00ff 4889D1   		movq	%rdx, %rcx
 304 0102 4889FA   		movq	%rdi, %rdx
 305 0105 4889C7   		movq	%rax, %rdi
 306 0108 E8000000 		call	_ZN8UnitTest10CheckEqualImjEEvRNS_11TestResultsERKT_RKT0_RKNS_11TestDetailsE
 306      00
 307              	.LEHE7:
 308              	.L19:
  27:testCore.cpp  **** 	const unsigned char expected[] = {0, 0, 0, 0, 0, 0, 0, 0};
 309              		.loc 3 27 0 is_stmt 1
 310 010d 48C745E0 		movq	$0, -32(%rbp)
 310      00000000 
 311              	.LEHB8:
  28:testCore.cpp  **** 	CHECK_ARRAY_EQUAL(expected, buf.data, 8);
 312              		.loc 3 28 0
 313 0115 E8000000 		call	_ZN8UnitTest11CurrentTest7DetailsEv
 313      00
 314 011a 488B08   		movq	(%rax), %rcx
 315 011d 488D45C0 		leaq	-64(%rbp), %rax
 316 0121 BA1C0000 		movl	$28, %edx
 316      00
 317 0126 4889CE   		movq	%rcx, %rsi
 318 0129 4889C7   		movq	%rax, %rdi
 319 012c E8000000 		call	_ZN8UnitTest11TestDetailsC1ERKS0_i
 319      00
 320              		.loc 3 28 0 is_stmt 0 discriminator 2
 321 0131 E8000000 		call	_ZN8UnitTest11CurrentTest7ResultsEv
 321      00
 322 0136 488B00   		movq	(%rax), %rax
 323 0139 488D4DC0 		leaq	-64(%rbp), %rcx
 324 013d 488D55A0 		leaq	-96(%rbp), %rdx
 325 0141 488D75E0 		leaq	-32(%rbp), %rsi
 326 0145 4989C8   		movq	%rcx, %r8
 327 0148 B9080000 		movl	$8, %ecx
 327      00
 328 014d 4889C7   		movq	%rax, %rdi
 329 0150 E8000000 		call	_ZN8UnitTest15CheckArrayEqualIA8_hPhEEvRNS_11TestResultsERKT_RKT0_iRKNS_11TestDetailsE
 329      00
 330              	.LEHE8:
 331              	.L22:
  29:testCore.cpp  **** 	bufDestroy(&buf);
 332              		.loc 3 29 0 is_stmt 1
 333 0155 488D45A0 		leaq	-96(%rbp), %rax
 334 0159 4889C7   		movq	%rax, %rdi
 335              	.LEHB9:
 336 015c E8000000 		call	bufDestroy
 336      00
 337              	.LEHE9:
 338              	.LBE5:
  30:testCore.cpp  **** }
 339              		.loc 3 30 0
 340 0161 488B45E8 		movq	-24(%rbp), %rax
 341 0165 64483304 		xorq	%fs:40, %rax
 341      25280000 
 341      00
 342 016e 0F847E01 		je	.L23
 342      0000
 343 0174 E9740100 		jmp	.L32
 343      00
 344              	.L25:
 345 0179 4889C3   		movq	%rax, %rbx
 346              	.LBB6:
  24:testCore.cpp  **** 	CHECK_EQUAL(0UL, buf.length);
 347              		.loc 3 24 0
 348 017c E8000000 		call	__cxa_end_catch
 348      00
 349 0181 4889D8   		movq	%rbx, %rax
 350 0184 4889C7   		movq	%rax, %rdi
 351              	.LEHB10:
 352 0187 E8000000 		call	_Unwind_Resume
 352      00
 353              	.LEHE10:
 354              	.L24:
 355 018c 4889C7   		movq	%rax, %rdi
 356 018f E8000000 		call	__cxa_begin_catch
 356      00
 357              	.LEHB11:
 358 0194 E8000000 		call	_ZN8UnitTest11CurrentTest7DetailsEv
 358      00
 359 0199 488B08   		movq	(%rax), %rcx
 360 019c 488D45C0 		leaq	-64(%rbp), %rax
 361 01a0 BA180000 		movl	$24, %edx
 361      00
 362 01a5 4889CE   		movq	%rcx, %rsi
 363 01a8 4889C7   		movq	%rax, %rdi
 364 01ab E8000000 		call	_ZN8UnitTest11TestDetailsC1ERKS0_i
 364      00
  24:testCore.cpp  **** 	CHECK_EQUAL(0UL, buf.length);
 365              		.loc 3 24 0 is_stmt 0 discriminator 10
 366 01b0 E8000000 		call	_ZN8UnitTest11CurrentTest7ResultsEv
 366      00
 367 01b5 488B00   		movq	(%rax), %rax
 368 01b8 488D4DC0 		leaq	-64(%rbp), %rcx
 369 01bc BA000000 		movl	$.LC3, %edx
 369      00
 370 01c1 4889CE   		movq	%rcx, %rsi
 371 01c4 4889C7   		movq	%rax, %rdi
 372 01c7 E8000000 		call	_ZN8UnitTest11TestResults13OnTestFailureERKNS_11TestDetailsEPKc
 372      00
 373              	.LEHE11:
 374              	.LEHB12:
  24:testCore.cpp  **** 	CHECK_EQUAL(0UL, buf.length);
 375              		.loc 3 24 0 discriminator 14
 376 01cc E8000000 		call	__cxa_end_catch
 376      00
 377              	.LEHE12:
 378 01d1 E9A3FEFF 		jmp	.L13
 378      FF
 379              	.L27:
 380 01d6 4889C3   		movq	%rax, %rbx
  25:testCore.cpp  **** 	CHECK_EQUAL(8UL, buf.capacity);
 381              		.loc 3 25 0 is_stmt 1
 382 01d9 E8000000 		call	__cxa_end_catch
 382      00
 383 01de 4889D8   		movq	%rbx, %rax
 384 01e1 4889C7   		movq	%rax, %rdi
 385              	.LEHB13:
 386 01e4 E8000000 		call	_Unwind_Resume
 386      00
 387              	.LEHE13:
 388              	.L26:
 389 01e9 4889C7   		movq	%rax, %rdi
 390 01ec E8000000 		call	__cxa_begin_catch
 390      00
 391              	.LEHB14:
 392 01f1 E8000000 		call	_ZN8UnitTest11CurrentTest7DetailsEv
 392      00
 393 01f6 488B08   		movq	(%rax), %rcx
 394 01f9 488D45C0 		leaq	-64(%rbp), %rax
 395 01fd BA190000 		movl	$25, %edx
 395      00
 396 0202 4889CE   		movq	%rcx, %rsi
 397 0205 4889C7   		movq	%rax, %rdi
 398 0208 E8000000 		call	_ZN8UnitTest11TestDetailsC1ERKS0_i
 398      00
  25:testCore.cpp  **** 	CHECK_EQUAL(8UL, buf.capacity);
 399              		.loc 3 25 0 is_stmt 0 discriminator 10
 400 020d E8000000 		call	_ZN8UnitTest11CurrentTest7ResultsEv
 400      00
 401 0212 488B00   		movq	(%rax), %rax
 402 0215 488D4DC0 		leaq	-64(%rbp), %rcx
 403 0219 BA000000 		movl	$.LC4, %edx
 403      00
 404 021e 4889CE   		movq	%rcx, %rsi
 405 0221 4889C7   		movq	%rax, %rdi
 406 0224 E8000000 		call	_ZN8UnitTest11TestResults13OnTestFailureERKNS_11TestDetailsEPKc
 406      00
 407              	.LEHE14:
 408              	.LEHB15:
  25:testCore.cpp  **** 	CHECK_EQUAL(8UL, buf.capacity);
 409              		.loc 3 25 0 discriminator 14
 410 0229 E8000000 		call	__cxa_end_catch
 410      00
 411              	.LEHE15:
 412 022e E990FEFF 		jmp	.L16
 412      FF
 413              	.L29:
 414 0233 4889C3   		movq	%rax, %rbx
  26:testCore.cpp  **** 	const unsigned char expected[] = {0, 0, 0, 0, 0, 0, 0, 0};
 415              		.loc 3 26 0 is_stmt 1
 416 0236 E8000000 		call	__cxa_end_catch
 416      00
 417 023b 4889D8   		movq	%rbx, %rax
 418 023e 4889C7   		movq	%rax, %rdi
 419              	.LEHB16:
 420 0241 E8000000 		call	_Unwind_Resume
 420      00
 421              	.LEHE16:
 422              	.L28:
 423 0246 4889C7   		movq	%rax, %rdi
 424 0249 E8000000 		call	__cxa_begin_catch
 424      00
 425              	.LEHB17:
 426 024e E8000000 		call	_ZN8UnitTest11CurrentTest7DetailsEv
 426      00
 427 0253 488B08   		movq	(%rax), %rcx
 428 0256 488D45C0 		leaq	-64(%rbp), %rax
 429 025a BA1A0000 		movl	$26, %edx
 429      00
 430 025f 4889CE   		movq	%rcx, %rsi
 431 0262 4889C7   		movq	%rax, %rdi
 432 0265 E8000000 		call	_ZN8UnitTest11TestDetailsC1ERKS0_i
 432      00
  26:testCore.cpp  **** 	const unsigned char expected[] = {0, 0, 0, 0, 0, 0, 0, 0};
 433              		.loc 3 26 0 is_stmt 0 discriminator 10
 434 026a E8000000 		call	_ZN8UnitTest11CurrentTest7ResultsEv
 434      00
 435 026f 488B00   		movq	(%rax), %rax
 436 0272 488D4DC0 		leaq	-64(%rbp), %rcx
 437 0276 BA000000 		movl	$.LC5, %edx
 437      00
 438 027b 4889CE   		movq	%rcx, %rsi
 439 027e 4889C7   		movq	%rax, %rdi
 440 0281 E8000000 		call	_ZN8UnitTest11TestResults13OnTestFailureERKNS_11TestDetailsEPKc
 440      00
 441              	.LEHE17:
 442              	.LEHB18:
  26:testCore.cpp  **** 	const unsigned char expected[] = {0, 0, 0, 0, 0, 0, 0, 0};
 443              		.loc 3 26 0 discriminator 14
 444 0286 E8000000 		call	__cxa_end_catch
 444      00
 445              	.LEHE18:
 446 028b E97DFEFF 		jmp	.L19
 446      FF
 447              	.L31:
 448 0290 4889C3   		movq	%rax, %rbx
  28:testCore.cpp  **** 	bufDestroy(&buf);
 449              		.loc 3 28 0 is_stmt 1
 450 0293 E8000000 		call	__cxa_end_catch
 450      00
 451 0298 4889D8   		movq	%rbx, %rax
 452 029b 4889C7   		movq	%rax, %rdi
 453              	.LEHB19:
 454 029e E8000000 		call	_Unwind_Resume
 454      00
 455              	.LEHE19:
 456              	.L30:
 457 02a3 4889C7   		movq	%rax, %rdi
 458 02a6 E8000000 		call	__cxa_begin_catch
 458      00
 459              	.LEHB20:
 460 02ab E8000000 		call	_ZN8UnitTest11CurrentTest7DetailsEv
 460      00
 461 02b0 488B08   		movq	(%rax), %rcx
 462 02b3 488D45C0 		leaq	-64(%rbp), %rax
 463 02b7 BA1C0000 		movl	$28, %edx
 463      00
 464 02bc 4889CE   		movq	%rcx, %rsi
 465 02bf 4889C7   		movq	%rax, %rdi
 466 02c2 E8000000 		call	_ZN8UnitTest11TestDetailsC1ERKS0_i
 466      00
  28:testCore.cpp  **** 	bufDestroy(&buf);
 467              		.loc 3 28 0 is_stmt 0 discriminator 10
 468 02c7 E8000000 		call	_ZN8UnitTest11CurrentTest7ResultsEv
 468      00
 469 02cc 488B00   		movq	(%rax), %rax
 470 02cf 488D4DC0 		leaq	-64(%rbp), %rcx
 471 02d3 BA000000 		movl	$.LC6, %edx
 471      00
 472 02d8 4889CE   		movq	%rcx, %rsi
 473 02db 4889C7   		movq	%rax, %rdi
 474 02de E8000000 		call	_ZN8UnitTest11TestResults13OnTestFailureERKNS_11TestDetailsEPKc
 474      00
 475              	.LEHE20:
 476              	.LEHB21:
  28:testCore.cpp  **** 	bufDestroy(&buf);
 477              		.loc 3 28 0 discriminator 14
 478 02e3 E8000000 		call	__cxa_end_catch
 478      00
 479              	.LEHE21:
 480 02e8 E968FEFF 		jmp	.L22
 480      FF
 481              	.L32:
 482              	.LBE6:
 483              		.loc 3 30 0 is_stmt 1
 484 02ed E8000000 		call	__stack_chk_fail
 484      00
 485              	.L23:
 486 02f2 4883C478 		addq	$120, %rsp
 487 02f6 5B       		popq	%rbx
 488 02f7 5D       		popq	%rbp
 489              		.cfi_def_cfa 7, 8
 490 02f8 C3       		ret
 491              		.cfi_endproc
 492              	.LFE1072:
 493              		.section	.gcc_except_table,"a",@progbits
 494              		.align 4
 495              	.LLSDA1072:
 496 0000 FF       		.byte	0xff
 497 0001 03       		.byte	0x3
 498 0002 69       		.uleb128 .LLSDATT1072-.LLSDATTD1072
 499              	.LLSDATTD1072:
 500 0003 01       		.byte	0x1
 501 0004 5F       		.uleb128 .LLSDACSE1072-.LLSDACSB1072
 502              	.LLSDACSB1072:
 503 0005 32       		.uleb128 .LEHB4-.LFB1072
 504 0006 05       		.uleb128 .LEHE4-.LEHB4
 505 0007 00       		.uleb128 0
 506 0008 00       		.uleb128 0
 507 0009 3A       		.uleb128 .LEHB5-.LFB1072
 508 000a 3F       		.uleb128 .LEHE5-.LEHB5
 509 000b 8C03     		.uleb128 .L24-.LFB1072
 510 000d 01       		.uleb128 0x1
 511 000e 79       		.uleb128 .LEHB6-.LFB1072
 512 000f 4A       		.uleb128 .LEHE6-.LEHB6
 513 0010 E903     		.uleb128 .L26-.LFB1072
 514 0012 01       		.uleb128 0x1
 515 0013 C301     		.uleb128 .LEHB7-.LFB1072
 516 0015 4A       		.uleb128 .LEHE7-.LEHB7
 517 0016 C604     		.uleb128 .L28-.LFB1072
 518 0018 01       		.uleb128 0x1
 519 0019 9502     		.uleb128 .LEHB8-.LFB1072
 520 001b 40       		.uleb128 .LEHE8-.LEHB8
 521 001c A305     		.uleb128 .L30-.LFB1072
 522 001e 01       		.uleb128 0x1
 523 001f DC02     		.uleb128 .LEHB9-.LFB1072
 524 0021 05       		.uleb128 .LEHE9-.LEHB9
 525 0022 00       		.uleb128 0
 526 0023 00       		.uleb128 0
 527 0024 8703     		.uleb128 .LEHB10-.LFB1072
 528 0026 05       		.uleb128 .LEHE10-.LEHB10
 529 0027 00       		.uleb128 0
 530 0028 00       		.uleb128 0
 531 0029 9403     		.uleb128 .LEHB11-.LFB1072
 532 002b 38       		.uleb128 .LEHE11-.LEHB11
 533 002c F902     		.uleb128 .L25-.LFB1072
 534 002e 00       		.uleb128 0
 535 002f CC03     		.uleb128 .LEHB12-.LFB1072
 536 0031 05       		.uleb128 .LEHE12-.LEHB12
 537 0032 00       		.uleb128 0
 538 0033 00       		.uleb128 0
 539 0034 E403     		.uleb128 .LEHB13-.LFB1072
 540 0036 05       		.uleb128 .LEHE13-.LEHB13
 541 0037 00       		.uleb128 0
 542 0038 00       		.uleb128 0
 543 0039 F103     		.uleb128 .LEHB14-.LFB1072
 544 003b 38       		.uleb128 .LEHE14-.LEHB14
 545 003c D603     		.uleb128 .L27-.LFB1072
 546 003e 00       		.uleb128 0
 547 003f A904     		.uleb128 .LEHB15-.LFB1072
 548 0041 05       		.uleb128 .LEHE15-.LEHB15
 549 0042 00       		.uleb128 0
 550 0043 00       		.uleb128 0
 551 0044 C104     		.uleb128 .LEHB16-.LFB1072
 552 0046 05       		.uleb128 .LEHE16-.LEHB16
 553 0047 00       		.uleb128 0
 554 0048 00       		.uleb128 0
 555 0049 CE04     		.uleb128 .LEHB17-.LFB1072
 556 004b 38       		.uleb128 .LEHE17-.LEHB17
 557 004c B304     		.uleb128 .L29-.LFB1072
 558 004e 00       		.uleb128 0
 559 004f 8605     		.uleb128 .LEHB18-.LFB1072
 560 0051 05       		.uleb128 .LEHE18-.LEHB18
 561 0052 00       		.uleb128 0
 562 0053 00       		.uleb128 0
 563 0054 9E05     		.uleb128 .LEHB19-.LFB1072
 564 0056 05       		.uleb128 .LEHE19-.LEHB19
 565 0057 00       		.uleb128 0
 566 0058 00       		.uleb128 0
 567 0059 AB05     		.uleb128 .LEHB20-.LFB1072
 568 005b 38       		.uleb128 .LEHE20-.LEHB20
 569 005c 9005     		.uleb128 .L31-.LFB1072
 570 005e 00       		.uleb128 0
 571 005f E305     		.uleb128 .LEHB21-.LFB1072
 572 0061 05       		.uleb128 .LEHE21-.LEHB21
 573 0062 00       		.uleb128 0
 574 0063 00       		.uleb128 0
 575              	.LLSDACSE1072:
 576 0064 01       		.byte	0x1
 577 0065 00       		.byte	0
 578 0066 0000     		.align 4
 579 0068 00000000 		.long	0
 580              	
 581              	.LLSDATT1072:
 582              		.text
 584              		.section	.rodata
 585              	.LC7:
 586 011d 436F7265 		.string	"Core_testInitialiseFF"
 586      5F746573 
 586      74496E69 
 586      7469616C 
 586      69736546 
 587              		.section	.text._ZN25TestCore_testInitialiseFFC2Ev,"axG",@progbits,_ZN25TestCore_testInitialiseFFC5
 588              		.align 2
 589              		.weak	_ZN25TestCore_testInitialiseFFC2Ev
 591              	_ZN25TestCore_testInitialiseFFC2Ev:
 592              	.LFB1074:
  31:testCore.cpp  **** 
  32:testCore.cpp  **** TEST(Core_testInitialiseFF) {
 593              		.loc 3 32 0
 594              		.cfi_startproc
 595 0000 55       		pushq	%rbp
 596              		.cfi_def_cfa_offset 16
 597              		.cfi_offset 6, -16
 598 0001 4889E5   		movq	%rsp, %rbp
 599              		.cfi_def_cfa_register 6
 600 0004 4883EC10 		subq	$16, %rsp
 601 0008 48897DF8 		movq	%rdi, -8(%rbp)
 602              	.LBB7:
 603              		.loc 3 32 0
 604 000c E8000000 		call	_ZN13UnitTestSuite12GetSuiteNameEv
 604      00
 605 0011 4889C2   		movq	%rax, %rdx
 606 0014 488B45F8 		movq	-8(%rbp), %rax
 607 0018 41B82000 		movl	$32, %r8d
 607      0000
 608 001e B9000000 		movl	$.LC1, %ecx
 608      00
 609 0023 BE000000 		movl	$.LC7, %esi
 609      00
 610 0028 4889C7   		movq	%rax, %rdi
 611 002b E8000000 		call	_ZN8UnitTest4TestC2EPKcS2_S2_i
 611      00
 612 0030 488B45F8 		movq	-8(%rbp), %rax
 613 0034 48C70000 		movq	$_ZTV25TestCore_testInitialiseFF+16, (%rax)
 613      000000
 614              	.LBE7:
 615 003b C9       		leave
 616              		.cfi_def_cfa 7, 8
 617 003c C3       		ret
 618              		.cfi_endproc
 619              	.LFE1074:
 621              		.weak	_ZN25TestCore_testInitialiseFFC1Ev
 622              		.set	_ZN25TestCore_testInitialiseFFC1Ev,_ZN25TestCore_testInitialiseFFC2Ev
 623              		.globl	testCore_testInitialiseFFInstance
 624              		.bss
 625 0039 00000000 		.align 32
 625      000000
 628              	testCore_testInitialiseFFInstance:
 629 0040 00000000 		.zero	56
 629      00000000 
 629      00000000 
 629      00000000 
 629      00000000 
 630              		.globl	adderCore_testInitialiseFF
 633              	adderCore_testInitialiseFF:
 634 0078 00       		.zero	1
 635              		.text
 636 02f9 90       		.align 2
 637              		.globl	_ZNK25TestCore_testInitialiseFF7RunImplEv
 639              	_ZNK25TestCore_testInitialiseFF7RunImplEv:
 640              	.LFB1076:
 641              		.loc 3 32 0
 642              		.cfi_startproc
 643              		.cfi_personality 0x3,__gxx_personality_v0
 644              		.cfi_lsda 0x3,.LLSDA1076
 645 02fa 55       		pushq	%rbp
 646              		.cfi_def_cfa_offset 16
 647              		.cfi_offset 6, -16
 648 02fb 4889E5   		movq	%rsp, %rbp
 649              		.cfi_def_cfa_register 6
 650 02fe 53       		pushq	%rbx
 651 02ff 4883EC78 		subq	$120, %rsp
 652              		.cfi_offset 3, -24
 653 0303 48897D88 		movq	%rdi, -120(%rbp)
 654              		.loc 3 32 0
 655 0307 64488B04 		movq	%fs:40, %rax
 655      25280000 
 655      00
 656 0310 488945E8 		movq	%rax, -24(%rbp)
 657 0314 31C0     		xorl	%eax, %eax
 658              	.LBB8:
  33:testCore.cpp  **** 	Buffer buf;
  34:testCore.cpp  **** 	BufferStatus status = bufInitialise(&buf, 8, 0xFF, NULL);
 659              		.loc 3 34 0
 660 0316 488D45A0 		leaq	-96(%rbp), %rax
 661 031a B9000000 		movl	$0, %ecx
 661      00
 662 031f BAFF0000 		movl	$255, %edx
 662      00
 663 0324 BE080000 		movl	$8, %esi
 663      00
 664 0329 4889C7   		movq	%rax, %rdi
 665              	.LEHB22:
 666 032c E8000000 		call	bufInitialise
 666      00
 667              	.LEHE22:
 668 0331 894594   		movl	%eax, -108(%rbp)
 669              	.LEHB23:
  35:testCore.cpp  **** 	CHECK_EQUAL(BUF_SUCCESS, status);
 670              		.loc 3 35 0
 671 0334 E8000000 		call	_ZN8UnitTest11CurrentTest7DetailsEv
 671      00
 672 0339 488B08   		movq	(%rax), %rcx
 673 033c 488D45C0 		leaq	-64(%rbp), %rax
 674 0340 BA230000 		movl	$35, %edx
 674      00
 675 0345 4889CE   		movq	%rcx, %rsi
 676 0348 4889C7   		movq	%rax, %rdi
 677 034b E8000000 		call	_ZN8UnitTest11TestDetailsC1ERKS0_i
 677      00
 678              		.loc 3 35 0 is_stmt 0 discriminator 2
 679 0350 C7459800 		movl	$0, -104(%rbp)
 679      000000
 680 0357 E8000000 		call	_ZN8UnitTest11CurrentTest7ResultsEv
 680      00
 681 035c 488B00   		movq	(%rax), %rax
 682 035f 488D4DC0 		leaq	-64(%rbp), %rcx
 683 0363 488D5594 		leaq	-108(%rbp), %rdx
 684 0367 488D7598 		leaq	-104(%rbp), %rsi
 685 036b 4889C7   		movq	%rax, %rdi
 686 036e E8000000 		call	_ZN8UnitTest10CheckEqualI12BufferStatusS1_EEvRNS_11TestResultsERKT_RKT0_RKNS_11TestDetailsE
 686      00
 687              	.LEHE23:
 688              	.L37:
 689              	.LEHB24:
  36:testCore.cpp  **** 	CHECK_EQUAL(0UL, buf.length);
 690              		.loc 3 36 0 is_stmt 1
 691 0373 E8000000 		call	_ZN8UnitTest11CurrentTest7DetailsEv
 691      00
 692 0378 488B08   		movq	(%rax), %rcx
 693 037b 488D45C0 		leaq	-64(%rbp), %rax
 694 037f BA240000 		movl	$36, %edx
 694      00
 695 0384 4889CE   		movq	%rcx, %rsi
 696 0387 4889C7   		movq	%rax, %rdi
 697 038a E8000000 		call	_ZN8UnitTest11TestDetailsC1ERKS0_i
 697      00
 698              		.loc 3 36 0 is_stmt 0 discriminator 2
 699 038f 48C74598 		movq	$0, -104(%rbp)
 699      00000000 
 700 0397 E8000000 		call	_ZN8UnitTest11CurrentTest7ResultsEv
 700      00
 701 039c 488B00   		movq	(%rax), %rax
 702 039f 488D55C0 		leaq	-64(%rbp), %rdx
 703 03a3 488D4DA0 		leaq	-96(%rbp), %rcx
 704 03a7 488D7908 		leaq	8(%rcx), %rdi
 705 03ab 488D7598 		leaq	-104(%rbp), %rsi
 706 03af 4889D1   		movq	%rdx, %rcx
 707 03b2 4889FA   		movq	%rdi, %rdx
 708 03b5 4889C7   		movq	%rax, %rdi
 709 03b8 E8000000 		call	_ZN8UnitTest10CheckEqualImjEEvRNS_11TestResultsERKT_RKT0_RKNS_11TestDetailsE
 709      00
 710              	.LEHE24:
 711              	.L40:
 712              	.LEHB25:
  37:testCore.cpp  **** 	CHECK_EQUAL(8UL, buf.capacity);
 713              		.loc 3 37 0 is_stmt 1
 714 03bd E8000000 		call	_ZN8UnitTest11CurrentTest7DetailsEv
 714      00
 715 03c2 488B08   		movq	(%rax), %rcx
 716 03c5 488D45C0 		leaq	-64(%rbp), %rax
 717 03c9 BA250000 		movl	$37, %edx
 717      00
 718 03ce 4889CE   		movq	%rcx, %rsi
 719 03d1 4889C7   		movq	%rax, %rdi
 720 03d4 E8000000 		call	_ZN8UnitTest11TestDetailsC1ERKS0_i
 720      00
 721              		.loc 3 37 0 is_stmt 0 discriminator 2
 722 03d9 48C74598 		movq	$8, -104(%rbp)
 722      08000000 
 723 03e1 E8000000 		call	_ZN8UnitTest11CurrentTest7ResultsEv
 723      00
 724 03e6 488B00   		movq	(%rax), %rax
 725 03e9 488D55C0 		leaq	-64(%rbp), %rdx
 726 03ed 488D4DA0 		leaq	-96(%rbp), %rcx
 727 03f1 488D790C 		leaq	12(%rcx), %rdi
 728 03f5 488D7598 		leaq	-104(%rbp), %rsi
 729 03f9 4889D1   		movq	%rdx, %rcx
 730 03fc 4889FA   		movq	%rdi, %rdx
 731 03ff 4889C7   		movq	%rax, %rdi
 732 0402 E8000000 		call	_ZN8UnitTest10CheckEqualImjEEvRNS_11TestResultsERKT_RKT0_RKNS_11TestDetailsE
 732      00
 733              	.LEHE25:
 734              	.L43:
  38:testCore.cpp  **** 
  39:testCore.cpp  **** 	const unsigned char expected[] = {0xFF, 0xFF, 0xFF, 0xFF, 0xFF, 0xFF, 0xFF, 0xFF};
 735              		.loc 3 39 0 is_stmt 1
 736 0407 C645E0FF 		movb	$-1, -32(%rbp)
 737 040b C645E1FF 		movb	$-1, -31(%rbp)
 738 040f C645E2FF 		movb	$-1, -30(%rbp)
 739 0413 C645E3FF 		movb	$-1, -29(%rbp)
 740 0417 C645E4FF 		movb	$-1, -28(%rbp)
 741 041b C645E5FF 		movb	$-1, -27(%rbp)
 742 041f C645E6FF 		movb	$-1, -26(%rbp)
 743 0423 C645E7FF 		movb	$-1, -25(%rbp)
 744              	.LEHB26:
  40:testCore.cpp  **** 	CHECK_ARRAY_EQUAL(expected, buf.data, 8);
 745              		.loc 3 40 0
 746 0427 E8000000 		call	_ZN8UnitTest11CurrentTest7DetailsEv
 746      00
 747 042c 488B08   		movq	(%rax), %rcx
 748 042f 488D45C0 		leaq	-64(%rbp), %rax
 749 0433 BA280000 		movl	$40, %edx
 749      00
 750 0438 4889CE   		movq	%rcx, %rsi
 751 043b 4889C7   		movq	%rax, %rdi
 752 043e E8000000 		call	_ZN8UnitTest11TestDetailsC1ERKS0_i
 752      00
 753              		.loc 3 40 0 is_stmt 0 discriminator 2
 754 0443 E8000000 		call	_ZN8UnitTest11CurrentTest7ResultsEv
 754      00
 755 0448 488B00   		movq	(%rax), %rax
 756 044b 488D4DC0 		leaq	-64(%rbp), %rcx
 757 044f 488D55A0 		leaq	-96(%rbp), %rdx
 758 0453 488D75E0 		leaq	-32(%rbp), %rsi
 759 0457 4989C8   		movq	%rcx, %r8
 760 045a B9080000 		movl	$8, %ecx
 760      00
 761 045f 4889C7   		movq	%rax, %rdi
 762 0462 E8000000 		call	_ZN8UnitTest15CheckArrayEqualIA8_hPhEEvRNS_11TestResultsERKT_RKT0_iRKNS_11TestDetailsE
 762      00
 763              	.LEHE26:
 764              	.L46:
  41:testCore.cpp  **** 	bufDestroy(&buf);
 765              		.loc 3 41 0 is_stmt 1
 766 0467 488D45A0 		leaq	-96(%rbp), %rax
 767 046b 4889C7   		movq	%rax, %rdi
 768              	.LEHB27:
 769 046e E8000000 		call	bufDestroy
 769      00
 770              	.LEHE27:
 771              	.LBE8:
  42:testCore.cpp  **** }
 772              		.loc 3 42 0
 773 0473 488B45E8 		movq	-24(%rbp), %rax
 774 0477 64483304 		xorq	%fs:40, %rax
 774      25280000 
 774      00
 775 0480 0F847E01 		je	.L47
 775      0000
 776 0486 E9740100 		jmp	.L56
 776      00
 777              	.L49:
 778 048b 4889C3   		movq	%rax, %rbx
 779              	.LBB9:
  35:testCore.cpp  **** 	CHECK_EQUAL(0UL, buf.length);
 780              		.loc 3 35 0
 781 048e E8000000 		call	__cxa_end_catch
 781      00
 782 0493 4889D8   		movq	%rbx, %rax
 783 0496 4889C7   		movq	%rax, %rdi
 784              	.LEHB28:
 785 0499 E8000000 		call	_Unwind_Resume
 785      00
 786              	.LEHE28:
 787              	.L48:
 788 049e 4889C7   		movq	%rax, %rdi
 789 04a1 E8000000 		call	__cxa_begin_catch
 789      00
 790              	.LEHB29:
 791 04a6 E8000000 		call	_ZN8UnitTest11CurrentTest7DetailsEv
 791      00
 792 04ab 488B08   		movq	(%rax), %rcx
 793 04ae 488D45C0 		leaq	-64(%rbp), %rax
 794 04b2 BA230000 		movl	$35, %edx
 794      00
 795 04b7 4889CE   		movq	%rcx, %rsi
 796 04ba 4889C7   		movq	%rax, %rdi
 797 04bd E8000000 		call	_ZN8UnitTest11TestDetailsC1ERKS0_i
 797      00
  35:testCore.cpp  **** 	CHECK_EQUAL(0UL, buf.length);
 798              		.loc 3 35 0 is_stmt 0 discriminator 10
 799 04c2 E8000000 		call	_ZN8UnitTest11CurrentTest7ResultsEv
 799      00
 800 04c7 488B00   		movq	(%rax), %rax
 801 04ca 488D4DC0 		leaq	-64(%rbp), %rcx
 802 04ce BA000000 		movl	$.LC3, %edx
 802      00
 803 04d3 4889CE   		movq	%rcx, %rsi
 804 04d6 4889C7   		movq	%rax, %rdi
 805 04d9 E8000000 		call	_ZN8UnitTest11TestResults13OnTestFailureERKNS_11TestDetailsEPKc
 805      00
 806              	.LEHE29:
 807              	.LEHB30:
  35:testCore.cpp  **** 	CHECK_EQUAL(0UL, buf.length);
 808              		.loc 3 35 0 discriminator 14
 809 04de E8000000 		call	__cxa_end_catch
 809      00
 810              	.LEHE30:
 811 04e3 E98BFEFF 		jmp	.L37
 811      FF
 812              	.L51:
 813 04e8 4889C3   		movq	%rax, %rbx
  36:testCore.cpp  **** 	CHECK_EQUAL(8UL, buf.capacity);
 814              		.loc 3 36 0 is_stmt 1
 815 04eb E8000000 		call	__cxa_end_catch
 815      00
 816 04f0 4889D8   		movq	%rbx, %rax
 817 04f3 4889C7   		movq	%rax, %rdi
 818              	.LEHB31:
 819 04f6 E8000000 		call	_Unwind_Resume
 819      00
 820              	.LEHE31:
 821              	.L50:
 822 04fb 4889C7   		movq	%rax, %rdi
 823 04fe E8000000 		call	__cxa_begin_catch
 823      00
 824              	.LEHB32:
 825 0503 E8000000 		call	_ZN8UnitTest11CurrentTest7DetailsEv
 825      00
 826 0508 488B08   		movq	(%rax), %rcx
 827 050b 488D45C0 		leaq	-64(%rbp), %rax
 828 050f BA240000 		movl	$36, %edx
 828      00
 829 0514 4889CE   		movq	%rcx, %rsi
 830 0517 4889C7   		movq	%rax, %rdi
 831 051a E8000000 		call	_ZN8UnitTest11TestDetailsC1ERKS0_i
 831      00
  36:testCore.cpp  **** 	CHECK_EQUAL(8UL, buf.capacity);
 832              		.loc 3 36 0 is_stmt 0 discriminator 10
 833 051f E8000000 		call	_ZN8UnitTest11CurrentTest7ResultsEv
 833      00
 834 0524 488B00   		movq	(%rax), %rax
 835 0527 488D4DC0 		leaq	-64(%rbp), %rcx
 836 052b BA000000 		movl	$.LC4, %edx
 836      00
 837 0530 4889CE   		movq	%rcx, %rsi
 838 0533 4889C7   		movq	%rax, %rdi
 839 0536 E8000000 		call	_ZN8UnitTest11TestResults13OnTestFailureERKNS_11TestDetailsEPKc
 839      00
 840              	.LEHE32:
 841              	.LEHB33:
  36:testCore.cpp  **** 	CHECK_EQUAL(8UL, buf.capacity);
 842              		.loc 3 36 0 discriminator 14
 843 053b E8000000 		call	__cxa_end_catch
 843      00
 844              	.LEHE33:
 845 0540 E978FEFF 		jmp	.L40
 845      FF
 846              	.L53:
 847 0545 4889C3   		movq	%rax, %rbx
  37:testCore.cpp  **** 
 848              		.loc 3 37 0 is_stmt 1
 849 0548 E8000000 		call	__cxa_end_catch
 849      00
 850 054d 4889D8   		movq	%rbx, %rax
 851 0550 4889C7   		movq	%rax, %rdi
 852              	.LEHB34:
 853 0553 E8000000 		call	_Unwind_Resume
 853      00
 854              	.LEHE34:
 855              	.L52:
 856 0558 4889C7   		movq	%rax, %rdi
 857 055b E8000000 		call	__cxa_begin_catch
 857      00
 858              	.LEHB35:
 859 0560 E8000000 		call	_ZN8UnitTest11CurrentTest7DetailsEv
 859      00
 860 0565 488B08   		movq	(%rax), %rcx
 861 0568 488D45C0 		leaq	-64(%rbp), %rax
 862 056c BA250000 		movl	$37, %edx
 862      00
 863 0571 4889CE   		movq	%rcx, %rsi
 864 0574 4889C7   		movq	%rax, %rdi
 865 0577 E8000000 		call	_ZN8UnitTest11TestDetailsC1ERKS0_i
 865      00
  37:testCore.cpp  **** 
 866              		.loc 3 37 0 is_stmt 0 discriminator 10
 867 057c E8000000 		call	_ZN8UnitTest11CurrentTest7ResultsEv
 867      00
 868 0581 488B00   		movq	(%rax), %rax
 869 0584 488D4DC0 		leaq	-64(%rbp), %rcx
 870 0588 BA000000 		movl	$.LC5, %edx
 870      00
 871 058d 4889CE   		movq	%rcx, %rsi
 872 0590 4889C7   		movq	%rax, %rdi
 873 0593 E8000000 		call	_ZN8UnitTest11TestResults13OnTestFailureERKNS_11TestDetailsEPKc
 873      00
 874              	.LEHE35:
 875              	.LEHB36:
  37:testCore.cpp  **** 
 876              		.loc 3 37 0 discriminator 14
 877 0598 E8000000 		call	__cxa_end_catch
 877      00
 878              	.LEHE36:
 879 059d E965FEFF 		jmp	.L43
 879      FF
 880              	.L55:
 881 05a2 4889C3   		movq	%rax, %rbx
  40:testCore.cpp  **** 	bufDestroy(&buf);
 882              		.loc 3 40 0 is_stmt 1
 883 05a5 E8000000 		call	__cxa_end_catch
 883      00
 884 05aa 4889D8   		movq	%rbx, %rax
 885 05ad 4889C7   		movq	%rax, %rdi
 886              	.LEHB37:
 887 05b0 E8000000 		call	_Unwind_Resume
 887      00
 888              	.LEHE37:
 889              	.L54:
 890 05b5 4889C7   		movq	%rax, %rdi
 891 05b8 E8000000 		call	__cxa_begin_catch
 891      00
 892              	.LEHB38:
 893 05bd E8000000 		call	_ZN8UnitTest11CurrentTest7DetailsEv
 893      00
 894 05c2 488B08   		movq	(%rax), %rcx
 895 05c5 488D45C0 		leaq	-64(%rbp), %rax
 896 05c9 BA280000 		movl	$40, %edx
 896      00
 897 05ce 4889CE   		movq	%rcx, %rsi
 898 05d1 4889C7   		movq	%rax, %rdi
 899 05d4 E8000000 		call	_ZN8UnitTest11TestDetailsC1ERKS0_i
 899      00
  40:testCore.cpp  **** 	bufDestroy(&buf);
 900              		.loc 3 40 0 is_stmt 0 discriminator 10
 901 05d9 E8000000 		call	_ZN8UnitTest11CurrentTest7ResultsEv
 901      00
 902 05de 488B00   		movq	(%rax), %rax
 903 05e1 488D4DC0 		leaq	-64(%rbp), %rcx
 904 05e5 BA000000 		movl	$.LC6, %edx
 904      00
 905 05ea 4889CE   		movq	%rcx, %rsi
 906 05ed 4889C7   		movq	%rax, %rdi
 907 05f0 E8000000 		call	_ZN8UnitTest11TestResults13OnTestFailureERKNS_11TestDetailsEPKc
 907      00
 908              	.LEHE38:
 909              	.LEHB39:
  40:testCore.cpp  **** 	bufDestroy(&buf);
 910              		.loc 3 40 0 discriminator 14
 911 05f5 E8000000 		call	__cxa_end_catch
 911      00
 912              	.LEHE39:
 913 05fa E968FEFF 		jmp	.L46
 913      FF
 914              	.L56:
 915              	.LBE9:
 916              		.loc 3 42 0 is_stmt 1
 917 05ff E8000000 		call	__stack_chk_fail
 917      00
 918              	.L47:
 919 0604 4883C478 		addq	$120, %rsp
 920 0608 5B       		popq	%rbx
 921 0609 5D       		popq	%rbp
 922              		.cfi_def_cfa 7, 8
 923 060a C3       		ret
 924              		.cfi_endproc
 925              	.LFE1076:
 926              		.section	.gcc_except_table
 927              		.align 4
 928              	.LLSDA1076:
 929 006c FF       		.byte	0xff
 930 006d 03       		.byte	0x3
 931 006e 69       		.uleb128 .LLSDATT1076-.LLSDATTD1076
 932              	.LLSDATTD1076:
 933 006f 01       		.byte	0x1
 934 0070 5F       		.uleb128 .LLSDACSE1076-.LLSDACSB1076
 935              	.LLSDACSB1076:
 936 0071 32       		.uleb128 .LEHB22-.LFB1076
 937 0072 05       		.uleb128 .LEHE22-.LEHB22
 938 0073 00       		.uleb128 0
 939 0074 00       		.uleb128 0
 940 0075 3A       		.uleb128 .LEHB23-.LFB1076
 941 0076 3F       		.uleb128 .LEHE23-.LEHB23
 942 0077 A403     		.uleb128 .L48-.LFB1076
 943 0079 01       		.uleb128 0x1
 944 007a 79       		.uleb128 .LEHB24-.LFB1076
 945 007b 4A       		.uleb128 .LEHE24-.LEHB24
 946 007c 8104     		.uleb128 .L50-.LFB1076
 947 007e 01       		.uleb128 0x1
 948 007f C301     		.uleb128 .LEHB25-.LFB1076
 949 0081 4A       		.uleb128 .LEHE25-.LEHB25
 950 0082 DE04     		.uleb128 .L52-.LFB1076
 951 0084 01       		.uleb128 0x1
 952 0085 AD02     		.uleb128 .LEHB26-.LFB1076
 953 0087 40       		.uleb128 .LEHE26-.LEHB26
 954 0088 BB05     		.uleb128 .L54-.LFB1076
 955 008a 01       		.uleb128 0x1
 956 008b F402     		.uleb128 .LEHB27-.LFB1076
 957 008d 05       		.uleb128 .LEHE27-.LEHB27
 958 008e 00       		.uleb128 0
 959 008f 00       		.uleb128 0
 960 0090 9F03     		.uleb128 .LEHB28-.LFB1076
 961 0092 05       		.uleb128 .LEHE28-.LEHB28
 962 0093 00       		.uleb128 0
 963 0094 00       		.uleb128 0
 964 0095 AC03     		.uleb128 .LEHB29-.LFB1076
 965 0097 38       		.uleb128 .LEHE29-.LEHB29
 966 0098 9103     		.uleb128 .L49-.LFB1076
 967 009a 00       		.uleb128 0
 968 009b E403     		.uleb128 .LEHB30-.LFB1076
 969 009d 05       		.uleb128 .LEHE30-.LEHB30
 970 009e 00       		.uleb128 0
 971 009f 00       		.uleb128 0
 972 00a0 FC03     		.uleb128 .LEHB31-.LFB1076
 973 00a2 05       		.uleb128 .LEHE31-.LEHB31
 974 00a3 00       		.uleb128 0
 975 00a4 00       		.uleb128 0
 976 00a5 8904     		.uleb128 .LEHB32-.LFB1076
 977 00a7 38       		.uleb128 .LEHE32-.LEHB32
 978 00a8 EE03     		.uleb128 .L51-.LFB1076
 979 00aa 00       		.uleb128 0
 980 00ab C104     		.uleb128 .LEHB33-.LFB1076
 981 00ad 05       		.uleb128 .LEHE33-.LEHB33
 982 00ae 00       		.uleb128 0
 983 00af 00       		.uleb128 0
 984 00b0 D904     		.uleb128 .LEHB34-.LFB1076
 985 00b2 05       		.uleb128 .LEHE34-.LEHB34
 986 00b3 00       		.uleb128 0
 987 00b4 00       		.uleb128 0
 988 00b5 E604     		.uleb128 .LEHB35-.LFB1076
 989 00b7 38       		.uleb128 .LEHE35-.LEHB35
 990 00b8 CB04     		.uleb128 .L53-.LFB1076
 991 00ba 00       		.uleb128 0
 992 00bb 9E05     		.uleb128 .LEHB36-.LFB1076
 993 00bd 05       		.uleb128 .LEHE36-.LEHB36
 994 00be 00       		.uleb128 0
 995 00bf 00       		.uleb128 0
 996 00c0 B605     		.uleb128 .LEHB37-.LFB1076
 997 00c2 05       		.uleb128 .LEHE37-.LEHB37
 998 00c3 00       		.uleb128 0
 999 00c4 00       		.uleb128 0
 1000 00c5 C305     		.uleb128 .LEHB38-.LFB1076
 1001 00c7 38       		.uleb128 .LEHE38-.LEHB38
 1002 00c8 A805     		.uleb128 .L55-.LFB1076
 1003 00ca 00       		.uleb128 0
 1004 00cb FB05     		.uleb128 .LEHB39-.LFB1076
 1005 00cd 05       		.uleb128 .LEHE39-.LEHB39
 1006 00ce 00       		.uleb128 0
 1007 00cf 00       		.uleb128 0
 1008              	.LLSDACSE1076:
 1009 00d0 01       		.byte	0x1
 1010 00d1 00       		.byte	0
 1011 00d2 0000     		.align 4
 1012 00d4 00000000 		.long	0
 1013              	
 1014              	.LLSDATT1076:
 1015              		.text
 1017              		.section	.rodata
 1018              	.LC8:
 1019 0133 436F7265 		.string	"Core_testSmallAppendBlock"
 1019      5F746573 
 1019      74536D61 
 1019      6C6C4170 
 1019      70656E64 
 1020              		.section	.text._ZN29TestCore_testSmallAppendBlockC2Ev,"axG",@progbits,_ZN29TestCore_testSmallAppen
 1021              		.align 2
 1022              		.weak	_ZN29TestCore_testSmallAppendBlockC2Ev
 1024              	_ZN29TestCore_testSmallAppendBlockC2Ev:
 1025              	.LFB1078:
  43:testCore.cpp  **** 
  44:testCore.cpp  **** TEST(Core_testSmallAppendBlock) {
 1026              		.loc 3 44 0
 1027              		.cfi_startproc
 1028 0000 55       		pushq	%rbp
 1029              		.cfi_def_cfa_offset 16
 1030              		.cfi_offset 6, -16
 1031 0001 4889E5   		movq	%rsp, %rbp
 1032              		.cfi_def_cfa_register 6
 1033 0004 4883EC10 		subq	$16, %rsp
 1034 0008 48897DF8 		movq	%rdi, -8(%rbp)
 1035              	.LBB10:
 1036              		.loc 3 44 0
 1037 000c E8000000 		call	_ZN13UnitTestSuite12GetSuiteNameEv
 1037      00
 1038 0011 4889C2   		movq	%rax, %rdx
 1039 0014 488B45F8 		movq	-8(%rbp), %rax
 1040 0018 41B82C00 		movl	$44, %r8d
 1040      0000
 1041 001e B9000000 		movl	$.LC1, %ecx
 1041      00
 1042 0023 BE000000 		movl	$.LC8, %esi
 1042      00
 1043 0028 4889C7   		movq	%rax, %rdi
 1044 002b E8000000 		call	_ZN8UnitTest4TestC2EPKcS2_S2_i
 1044      00
 1045 0030 488B45F8 		movq	-8(%rbp), %rax
 1046 0034 48C70000 		movq	$_ZTV29TestCore_testSmallAppendBlock+16, (%rax)
 1046      000000
 1047              	.LBE10:
 1048 003b C9       		leave
 1049              		.cfi_def_cfa 7, 8
 1050 003c C3       		ret
 1051              		.cfi_endproc
 1052              	.LFE1078:
 1054              		.weak	_ZN29TestCore_testSmallAppendBlockC1Ev
 1055              		.set	_ZN29TestCore_testSmallAppendBlockC1Ev,_ZN29TestCore_testSmallAppendBlockC2Ev
 1056              		.globl	testCore_testSmallAppendBlockInstance
 1057              		.bss
 1058 0079 00000000 		.align 32
 1058      000000
 1061              	testCore_testSmallAppendBlockInstance:
 1062 0080 00000000 		.zero	56
 1062      00000000 
 1062      00000000 
 1062      00000000 
 1062      00000000 
 1063              		.globl	adderCore_testSmallAppendBlock
 1066              	adderCore_testSmallAppendBlock:
 1067 00b8 00       		.zero	1
 1068              		.section	.rodata
 1069 014d 000000   		.align 8
 1070              	.LC9:
 1071 0150 556E6861 		.string	"Unhandled exception in CHECK_EQUAL(4UL, buf.length)"
 1071      6E646C65 
 1071      64206578 
 1071      63657074 
 1071      696F6E20 
 1072              		.text
 1073 060b 90       		.align 2
 1074              		.globl	_ZNK29TestCore_testSmallAppendBlock7RunImplEv
 1076              	_ZNK29TestCore_testSmallAppendBlock7RunImplEv:
 1077              	.LFB1080:
 1078              		.loc 3 44 0
 1079              		.cfi_startproc
 1080              		.cfi_personality 0x3,__gxx_personality_v0
 1081              		.cfi_lsda 0x3,.LLSDA1080
 1082 060c 55       		pushq	%rbp
 1083              		.cfi_def_cfa_offset 16
 1084              		.cfi_offset 6, -16
 1085 060d 4889E5   		movq	%rsp, %rbp
 1086              		.cfi_def_cfa_register 6
 1087 0610 53       		pushq	%rbx
 1088 0611 4883EC78 		subq	$120, %rsp
 1089              		.cfi_offset 3, -24
 1090 0615 48897D88 		movq	%rdi, -120(%rbp)
 1091              		.loc 3 44 0
 1092 0619 64488B04 		movq	%fs:40, %rax
 1092      25280000 
 1092      00
 1093 0622 488945E8 		movq	%rax, -24(%rbp)
 1094 0626 31C0     		xorl	%eax, %eax
 1095              	.LBB11:
  45:testCore.cpp  **** 	Buffer buf;
  46:testCore.cpp  **** 	BufferStatus status;
  47:testCore.cpp  **** 
  48:testCore.cpp  **** 	status = bufInitialise(&buf, 8, 0, NULL);
 1096              		.loc 3 48 0
 1097 0628 488D45A0 		leaq	-96(%rbp), %rax
 1098 062c B9000000 		movl	$0, %ecx
 1098      00
 1099 0631 BA000000 		movl	$0, %edx
 1099      00
 1100 0636 BE080000 		movl	$8, %esi
 1100      00
 1101 063b 4889C7   		movq	%rax, %rdi
 1102              	.LEHB40:
 1103 063e E8000000 		call	bufInitialise
 1103      00
 1104              	.LEHE40:
 1105 0643 894594   		movl	%eax, -108(%rbp)
 1106              	.LEHB41:
  49:testCore.cpp  **** 	CHECK_EQUAL(BUF_SUCCESS, status);
 1107              		.loc 3 49 0
 1108 0646 E8000000 		call	_ZN8UnitTest11CurrentTest7DetailsEv
 1108      00
 1109 064b 488B08   		movq	(%rax), %rcx
 1110 064e 488D45C0 		leaq	-64(%rbp), %rax
 1111 0652 BA310000 		movl	$49, %edx
 1111      00
 1112 0657 4889CE   		movq	%rcx, %rsi
 1113 065a 4889C7   		movq	%rax, %rdi
 1114 065d E8000000 		call	_ZN8UnitTest11TestDetailsC1ERKS0_i
 1114      00
 1115              		.loc 3 49 0 is_stmt 0 discriminator 2
 1116 0662 C7459800 		movl	$0, -104(%rbp)
 1116      000000
 1117 0669 E8000000 		call	_ZN8UnitTest11CurrentTest7ResultsEv
 1117      00
 1118 066e 488B00   		movq	(%rax), %rax
 1119 0671 488D4DC0 		leaq	-64(%rbp), %rcx
 1120 0675 488D5594 		leaq	-108(%rbp), %rdx
 1121 0679 488D7598 		leaq	-104(%rbp), %rsi
 1122 067d 4889C7   		movq	%rax, %rdi
 1123 0680 E8000000 		call	_ZN8UnitTest10CheckEqualI12BufferStatusS1_EEvRNS_11TestResultsERKT_RKT0_RKNS_11TestDetailsE
 1123      00
 1124              	.LEHE41:
 1125              	.L61:
  50:testCore.cpp  **** 
  51:testCore.cpp  **** 	const unsigned char expected[] = {1, 2, 3, 4, 0, 0, 0, 0};
 1126              		.loc 3 51 0 is_stmt 1
 1127 0685 C645E001 		movb	$1, -32(%rbp)
 1128 0689 C645E102 		movb	$2, -31(%rbp)
 1129 068d C645E203 		movb	$3, -30(%rbp)
 1130 0691 C645E304 		movb	$4, -29(%rbp)
 1131 0695 C645E400 		movb	$0, -28(%rbp)
 1132 0699 C645E500 		movb	$0, -27(%rbp)
 1133 069d C645E600 		movb	$0, -26(%rbp)
 1134 06a1 C645E700 		movb	$0, -25(%rbp)
  52:testCore.cpp  **** 	status = bufAppendBlock(&buf, expected, 4, NULL);
 1135              		.loc 3 52 0
 1136 06a5 488D75E0 		leaq	-32(%rbp), %rsi
 1137 06a9 488D45A0 		leaq	-96(%rbp), %rax
 1138 06ad B9000000 		movl	$0, %ecx
 1138      00
 1139 06b2 BA040000 		movl	$4, %edx
 1139      00
 1140 06b7 4889C7   		movq	%rax, %rdi
 1141              	.LEHB42:
 1142 06ba E8000000 		call	bufAppendBlock
 1142      00
 1143              	.LEHE42:
 1144 06bf 894594   		movl	%eax, -108(%rbp)
 1145              	.LEHB43:
  53:testCore.cpp  **** 	CHECK_EQUAL(BUF_SUCCESS, status);
 1146              		.loc 3 53 0
 1147 06c2 E8000000 		call	_ZN8UnitTest11CurrentTest7DetailsEv
 1147      00
 1148 06c7 488B08   		movq	(%rax), %rcx
 1149 06ca 488D45C0 		leaq	-64(%rbp), %rax
 1150 06ce BA350000 		movl	$53, %edx
 1150      00
 1151 06d3 4889CE   		movq	%rcx, %rsi
 1152 06d6 4889C7   		movq	%rax, %rdi
 1153 06d9 E8000000 		call	_ZN8UnitTest11TestDetailsC1ERKS0_i
 1153      00
 1154              		.loc 3 53 0 is_stmt 0 discriminator 2
 1155 06de C7459800 		movl	$0, -104(%rbp)
 1155      000000
 1156 06e5 E8000000 		call	_ZN8UnitTest11CurrentTest7ResultsEv
 1156      00
 1157 06ea 488B00   		movq	(%rax), %rax
 1158 06ed 488D4DC0 		leaq	-64(%rbp), %rcx
 1159 06f1 488D5594 		leaq	-108(%rbp), %rdx
 1160 06f5 488D7598 		leaq	-104(%rbp), %rsi
 1161 06f9 4889C7   		movq	%rax, %rdi
 1162 06fc E8000000 		call	_ZN8UnitTest10CheckEqualI12BufferStatusS1_EEvRNS_11TestResultsERKT_RKT0_RKNS_11TestDetailsE
 1162      00
 1163              	.LEHE43:
 1164              	.L64:
 1165              	.LEHB44:
  54:testCore.cpp  **** 	CHECK_EQUAL(8UL, buf.capacity);
 1166              		.loc 3 54 0 is_stmt 1
 1167 0701 E8000000 		call	_ZN8UnitTest11CurrentTest7DetailsEv
 1167      00
 1168 0706 488B08   		movq	(%rax), %rcx
 1169 0709 488D45C0 		leaq	-64(%rbp), %rax
 1170 070d BA360000 		movl	$54, %edx
 1170      00
 1171 0712 4889CE   		movq	%rcx, %rsi
 1172 0715 4889C7   		movq	%rax, %rdi
 1173 0718 E8000000 		call	_ZN8UnitTest11TestDetailsC1ERKS0_i
 1173      00
 1174              		.loc 3 54 0 is_stmt 0 discriminator 2
 1175 071d 48C74598 		movq	$8, -104(%rbp)
 1175      08000000 
 1176 0725 E8000000 		call	_ZN8UnitTest11CurrentTest7ResultsEv
 1176      00
 1177 072a 488B00   		movq	(%rax), %rax
 1178 072d 488D55C0 		leaq	-64(%rbp), %rdx
 1179 0731 488D4DA0 		leaq	-96(%rbp), %rcx
 1180 0735 488D790C 		leaq	12(%rcx), %rdi
 1181 0739 488D7598 		leaq	-104(%rbp), %rsi
 1182 073d 4889D1   		movq	%rdx, %rcx
 1183 0740 4889FA   		movq	%rdi, %rdx
 1184 0743 4889C7   		movq	%rax, %rdi
 1185 0746 E8000000 		call	_ZN8UnitTest10CheckEqualImjEEvRNS_11TestResultsERKT_RKT0_RKNS_11TestDetailsE
 1185      00
 1186              	.LEHE44:
 1187              	.L67:
 1188              	.LEHB45:
  55:testCore.cpp  **** 	CHECK_EQUAL(4UL, buf.length);
 1189              		.loc 3 55 0 is_stmt 1
 1190 074b E8000000 		call	_ZN8UnitTest11CurrentTest7DetailsEv
 1190      00
 1191 0750 488B08   		movq	(%rax), %rcx
 1192 0753 488D45C0 		leaq	-64(%rbp), %rax
 1193 0757 BA370000 		movl	$55, %edx
 1193      00
 1194 075c 4889CE   		movq	%rcx, %rsi
 1195 075f 4889C7   		movq	%rax, %rdi
 1196 0762 E8000000 		call	_ZN8UnitTest11TestDetailsC1ERKS0_i
 1196      00
 1197              		.loc 3 55 0 is_stmt 0 discriminator 2
 1198 0767 48C74598 		movq	$4, -104(%rbp)
 1198      04000000 
 1199 076f E8000000 		call	_ZN8UnitTest11CurrentTest7ResultsEv
 1199      00
 1200 0774 488B00   		movq	(%rax), %rax
 1201 0777 488D55C0 		leaq	-64(%rbp), %rdx
 1202 077b 488D4DA0 		leaq	-96(%rbp), %rcx
 1203 077f 488D7908 		leaq	8(%rcx), %rdi
 1204 0783 488D7598 		leaq	-104(%rbp), %rsi
 1205 0787 4889D1   		movq	%rdx, %rcx
 1206 078a 4889FA   		movq	%rdi, %rdx
 1207 078d 4889C7   		movq	%rax, %rdi
 1208 0790 E8000000 		call	_ZN8UnitTest10CheckEqualImjEEvRNS_11TestResultsERKT_RKT0_RKNS_11TestDetailsE
 1208      00
 1209              	.LEHE45:
 1210              	.L70:
 1211              	.LEHB46:
  56:testCore.cpp  **** 	CHECK_ARRAY_EQUAL(expected, buf.data, 8);
 1212              		.loc 3 56 0 is_stmt 1
 1213 0795 E8000000 		call	_ZN8UnitTest11CurrentTest7DetailsEv
 1213      00
 1214 079a 488B08   		movq	(%rax), %rcx
 1215 079d 488D45C0 		leaq	-64(%rbp), %rax
 1216 07a1 BA380000 		movl	$56, %edx
 1216      00
 1217 07a6 4889CE   		movq	%rcx, %rsi
 1218 07a9 4889C7   		movq	%rax, %rdi
 1219 07ac E8000000 		call	_ZN8UnitTest11TestDetailsC1ERKS0_i
 1219      00
 1220              		.loc 3 56 0 is_stmt 0 discriminator 2
 1221 07b1 E8000000 		call	_ZN8UnitTest11CurrentTest7ResultsEv
 1221      00
 1222 07b6 488B00   		movq	(%rax), %rax
 1223 07b9 488D4DC0 		leaq	-64(%rbp), %rcx
 1224 07bd 488D55A0 		leaq	-96(%rbp), %rdx
 1225 07c1 488D75E0 		leaq	-32(%rbp), %rsi
 1226 07c5 4989C8   		movq	%rcx, %r8
 1227 07c8 B9080000 		movl	$8, %ecx
 1227      00
 1228 07cd 4889C7   		movq	%rax, %rdi
 1229 07d0 E8000000 		call	_ZN8UnitTest15CheckArrayEqualIA8_hPhEEvRNS_11TestResultsERKT_RKT0_iRKNS_11TestDetailsE
 1229      00
 1230              	.LEHE46:
 1231              	.L73:
  57:testCore.cpp  **** 	bufDestroy(&buf);
 1232              		.loc 3 57 0 is_stmt 1
 1233 07d5 488D45A0 		leaq	-96(%rbp), %rax
 1234 07d9 4889C7   		movq	%rax, %rdi
 1235              	.LEHB47:
 1236 07dc E8000000 		call	bufDestroy
 1236      00
 1237              	.LEHE47:
 1238              	.LBE11:
  58:testCore.cpp  **** }
 1239              		.loc 3 58 0
 1240 07e1 488B45E8 		movq	-24(%rbp), %rax
 1241 07e5 64483304 		xorq	%fs:40, %rax
 1241      25280000 
 1241      00
 1242 07ee 0F84DB01 		je	.L74
 1242      0000
 1243 07f4 E9D10100 		jmp	.L85
 1243      00
 1244              	.L76:
 1245 07f9 4889C3   		movq	%rax, %rbx
 1246              	.LBB12:
  49:testCore.cpp  **** 
 1247              		.loc 3 49 0
 1248 07fc E8000000 		call	__cxa_end_catch
 1248      00
 1249 0801 4889D8   		movq	%rbx, %rax
 1250 0804 4889C7   		movq	%rax, %rdi
 1251              	.LEHB48:
 1252 0807 E8000000 		call	_Unwind_Resume
 1252      00
 1253              	.LEHE48:
 1254              	.L75:
 1255 080c 4889C7   		movq	%rax, %rdi
 1256 080f E8000000 		call	__cxa_begin_catch
 1256      00
 1257              	.LEHB49:
 1258 0814 E8000000 		call	_ZN8UnitTest11CurrentTest7DetailsEv
 1258      00
 1259 0819 488B08   		movq	(%rax), %rcx
 1260 081c 488D45C0 		leaq	-64(%rbp), %rax
 1261 0820 BA310000 		movl	$49, %edx
 1261      00
 1262 0825 4889CE   		movq	%rcx, %rsi
 1263 0828 4889C7   		movq	%rax, %rdi
 1264 082b E8000000 		call	_ZN8UnitTest11TestDetailsC1ERKS0_i
 1264      00
  49:testCore.cpp  **** 
 1265              		.loc 3 49 0 is_stmt 0 discriminator 10
 1266 0830 E8000000 		call	_ZN8UnitTest11CurrentTest7ResultsEv
 1266      00
 1267 0835 488B00   		movq	(%rax), %rax
 1268 0838 488D4DC0 		leaq	-64(%rbp), %rcx
 1269 083c BA000000 		movl	$.LC3, %edx
 1269      00
 1270 0841 4889CE   		movq	%rcx, %rsi
 1271 0844 4889C7   		movq	%rax, %rdi
 1272 0847 E8000000 		call	_ZN8UnitTest11TestResults13OnTestFailureERKNS_11TestDetailsEPKc
 1272      00
 1273              	.LEHE49:
 1274              	.LEHB50:
  49:testCore.cpp  **** 
 1275              		.loc 3 49 0 discriminator 14
 1276 084c E8000000 		call	__cxa_end_catch
 1276      00
 1277              	.LEHE50:
 1278 0851 E92FFEFF 		jmp	.L61
 1278      FF
 1279              	.L78:
 1280 0856 4889C3   		movq	%rax, %rbx
  53:testCore.cpp  **** 	CHECK_EQUAL(8UL, buf.capacity);
 1281              		.loc 3 53 0 is_stmt 1
 1282 0859 E8000000 		call	__cxa_end_catch
 1282      00
 1283 085e 4889D8   		movq	%rbx, %rax
 1284 0861 4889C7   		movq	%rax, %rdi
 1285              	.LEHB51:
 1286 0864 E8000000 		call	_Unwind_Resume
 1286      00
 1287              	.LEHE51:
 1288              	.L77:
 1289 0869 4889C7   		movq	%rax, %rdi
 1290 086c E8000000 		call	__cxa_begin_catch
 1290      00
 1291              	.LEHB52:
 1292 0871 E8000000 		call	_ZN8UnitTest11CurrentTest7DetailsEv
 1292      00
 1293 0876 488B08   		movq	(%rax), %rcx
 1294 0879 488D45C0 		leaq	-64(%rbp), %rax
 1295 087d BA350000 		movl	$53, %edx
 1295      00
 1296 0882 4889CE   		movq	%rcx, %rsi
 1297 0885 4889C7   		movq	%rax, %rdi
 1298 0888 E8000000 		call	_ZN8UnitTest11TestDetailsC1ERKS0_i
 1298      00
  53:testCore.cpp  **** 	CHECK_EQUAL(8UL, buf.capacity);
 1299              		.loc 3 53 0 is_stmt 0 discriminator 10
 1300 088d E8000000 		call	_ZN8UnitTest11CurrentTest7ResultsEv
 1300      00
 1301 0892 488B00   		movq	(%rax), %rax
 1302 0895 488D4DC0 		leaq	-64(%rbp), %rcx
 1303 0899 BA000000 		movl	$.LC3, %edx
 1303      00
 1304 089e 4889CE   		movq	%rcx, %rsi
 1305 08a1 4889C7   		movq	%rax, %rdi
 1306 08a4 E8000000 		call	_ZN8UnitTest11TestResults13OnTestFailureERKNS_11TestDetailsEPKc
 1306      00
 1307              	.LEHE52:
 1308              	.LEHB53:
  53:testCore.cpp  **** 	CHECK_EQUAL(8UL, buf.capacity);
 1309              		.loc 3 53 0 discriminator 14
 1310 08a9 E8000000 		call	__cxa_end_catch
 1310      00
 1311              	.LEHE53:
 1312 08ae E94EFEFF 		jmp	.L64
 1312      FF
 1313              	.L80:
 1314 08b3 4889C3   		movq	%rax, %rbx
  54:testCore.cpp  **** 	CHECK_EQUAL(4UL, buf.length);
 1315              		.loc 3 54 0 is_stmt 1
 1316 08b6 E8000000 		call	__cxa_end_catch
 1316      00
 1317 08bb 4889D8   		movq	%rbx, %rax
 1318 08be 4889C7   		movq	%rax, %rdi
 1319              	.LEHB54:
 1320 08c1 E8000000 		call	_Unwind_Resume
 1320      00
 1321              	.LEHE54:
 1322              	.L79:
 1323 08c6 4889C7   		movq	%rax, %rdi
 1324 08c9 E8000000 		call	__cxa_begin_catch
 1324      00
 1325              	.LEHB55:
 1326 08ce E8000000 		call	_ZN8UnitTest11CurrentTest7DetailsEv
 1326      00
 1327 08d3 488B08   		movq	(%rax), %rcx
 1328 08d6 488D45C0 		leaq	-64(%rbp), %rax
 1329 08da BA360000 		movl	$54, %edx
 1329      00
 1330 08df 4889CE   		movq	%rcx, %rsi
 1331 08e2 4889C7   		movq	%rax, %rdi
 1332 08e5 E8000000 		call	_ZN8UnitTest11TestDetailsC1ERKS0_i
 1332      00
  54:testCore.cpp  **** 	CHECK_EQUAL(4UL, buf.length);
 1333              		.loc 3 54 0 is_stmt 0 discriminator 10
 1334 08ea E8000000 		call	_ZN8UnitTest11CurrentTest7ResultsEv
 1334      00
 1335 08ef 488B00   		movq	(%rax), %rax
 1336 08f2 488D4DC0 		leaq	-64(%rbp), %rcx
 1337 08f6 BA000000 		movl	$.LC5, %edx
 1337      00
 1338 08fb 4889CE   		movq	%rcx, %rsi
 1339 08fe 4889C7   		movq	%rax, %rdi
 1340 0901 E8000000 		call	_ZN8UnitTest11TestResults13OnTestFailureERKNS_11TestDetailsEPKc
 1340      00
 1341              	.LEHE55:
 1342              	.LEHB56:
  54:testCore.cpp  **** 	CHECK_EQUAL(4UL, buf.length);
 1343              		.loc 3 54 0 discriminator 14
 1344 0906 E8000000 		call	__cxa_end_catch
 1344      00
 1345              	.LEHE56:
 1346 090b E93BFEFF 		jmp	.L67
 1346      FF
 1347              	.L82:
 1348 0910 4889C3   		movq	%rax, %rbx
  55:testCore.cpp  **** 	CHECK_ARRAY_EQUAL(expected, buf.data, 8);
 1349              		.loc 3 55 0 is_stmt 1
 1350 0913 E8000000 		call	__cxa_end_catch
 1350      00
 1351 0918 4889D8   		movq	%rbx, %rax
 1352 091b 4889C7   		movq	%rax, %rdi
 1353              	.LEHB57:
 1354 091e E8000000 		call	_Unwind_Resume
 1354      00
 1355              	.LEHE57:
 1356              	.L81:
 1357 0923 4889C7   		movq	%rax, %rdi
 1358 0926 E8000000 		call	__cxa_begin_catch
 1358      00
 1359              	.LEHB58:
 1360 092b E8000000 		call	_ZN8UnitTest11CurrentTest7DetailsEv
 1360      00
 1361 0930 488B08   		movq	(%rax), %rcx
 1362 0933 488D45C0 		leaq	-64(%rbp), %rax
 1363 0937 BA370000 		movl	$55, %edx
 1363      00
 1364 093c 4889CE   		movq	%rcx, %rsi
 1365 093f 4889C7   		movq	%rax, %rdi
 1366 0942 E8000000 		call	_ZN8UnitTest11TestDetailsC1ERKS0_i
 1366      00
  55:testCore.cpp  **** 	CHECK_ARRAY_EQUAL(expected, buf.data, 8);
 1367              		.loc 3 55 0 is_stmt 0 discriminator 10
 1368 0947 E8000000 		call	_ZN8UnitTest11CurrentTest7ResultsEv
 1368      00
 1369 094c 488B00   		movq	(%rax), %rax
 1370 094f 488D4DC0 		leaq	-64(%rbp), %rcx
 1371 0953 BA000000 		movl	$.LC9, %edx
 1371      00
 1372 0958 4889CE   		movq	%rcx, %rsi
 1373 095b 4889C7   		movq	%rax, %rdi
 1374 095e E8000000 		call	_ZN8UnitTest11TestResults13OnTestFailureERKNS_11TestDetailsEPKc
 1374      00
 1375              	.LEHE58:
 1376              	.LEHB59:
  55:testCore.cpp  **** 	CHECK_ARRAY_EQUAL(expected, buf.data, 8);
 1377              		.loc 3 55 0 discriminator 14
 1378 0963 E8000000 		call	__cxa_end_catch
 1378      00
 1379              	.LEHE59:
 1380 0968 E928FEFF 		jmp	.L70
 1380      FF
 1381              	.L84:
 1382 096d 4889C3   		movq	%rax, %rbx
  56:testCore.cpp  **** 	bufDestroy(&buf);
 1383              		.loc 3 56 0 is_stmt 1
 1384 0970 E8000000 		call	__cxa_end_catch
 1384      00
 1385 0975 4889D8   		movq	%rbx, %rax
 1386 0978 4889C7   		movq	%rax, %rdi
 1387              	.LEHB60:
 1388 097b E8000000 		call	_Unwind_Resume
 1388      00
 1389              	.LEHE60:
 1390              	.L83:
 1391 0980 4889C7   		movq	%rax, %rdi
 1392 0983 E8000000 		call	__cxa_begin_catch
 1392      00
 1393              	.LEHB61:
 1394 0988 E8000000 		call	_ZN8UnitTest11CurrentTest7DetailsEv
 1394      00
 1395 098d 488B08   		movq	(%rax), %rcx
 1396 0990 488D45C0 		leaq	-64(%rbp), %rax
 1397 0994 BA380000 		movl	$56, %edx
 1397      00
 1398 0999 4889CE   		movq	%rcx, %rsi
 1399 099c 4889C7   		movq	%rax, %rdi
 1400 099f E8000000 		call	_ZN8UnitTest11TestDetailsC1ERKS0_i
 1400      00
  56:testCore.cpp  **** 	bufDestroy(&buf);
 1401              		.loc 3 56 0 is_stmt 0 discriminator 10
 1402 09a4 E8000000 		call	_ZN8UnitTest11CurrentTest7ResultsEv
 1402      00
 1403 09a9 488B00   		movq	(%rax), %rax
 1404 09ac 488D4DC0 		leaq	-64(%rbp), %rcx
 1405 09b0 BA000000 		movl	$.LC6, %edx
 1405      00
 1406 09b5 4889CE   		movq	%rcx, %rsi
 1407 09b8 4889C7   		movq	%rax, %rdi
 1408 09bb E8000000 		call	_ZN8UnitTest11TestResults13OnTestFailureERKNS_11TestDetailsEPKc
 1408      00
 1409              	.LEHE61:
 1410              	.LEHB62:
  56:testCore.cpp  **** 	bufDestroy(&buf);
 1411              		.loc 3 56 0 discriminator 14
 1412 09c0 E8000000 		call	__cxa_end_catch
 1412      00
 1413              	.LEHE62:
 1414 09c5 E90BFEFF 		jmp	.L73
 1414      FF
 1415              	.L85:
 1416              	.LBE12:
 1417              		.loc 3 58 0 is_stmt 1
 1418 09ca E8000000 		call	__stack_chk_fail
 1418      00
 1419              	.L74:
 1420 09cf 4883C478 		addq	$120, %rsp
 1421 09d3 5B       		popq	%rbx
 1422 09d4 5D       		popq	%rbp
 1423              		.cfi_def_cfa 7, 8
 1424 09d5 C3       		ret
 1425              		.cfi_endproc
 1426              	.LFE1080:
 1427              		.section	.gcc_except_table
 1428              		.align 4
 1429              	.LLSDA1080:
 1430 00d8 FF       		.byte	0xff
 1431 00d9 03       		.byte	0x3
 1432 00da 8401     		.uleb128 .LLSDATT1080-.LLSDATTD1080
 1433              	.LLSDATTD1080:
 1434 00dc 01       		.byte	0x1
 1435 00dd 7B       		.uleb128 .LLSDACSE1080-.LLSDACSB1080
 1436              	.LLSDACSB1080:
 1437 00de 32       		.uleb128 .LEHB40-.LFB1080
 1438 00df 05       		.uleb128 .LEHE40-.LEHB40
 1439 00e0 00       		.uleb128 0
 1440 00e1 00       		.uleb128 0
 1441 00e2 3A       		.uleb128 .LEHB41-.LFB1080
 1442 00e3 3F       		.uleb128 .LEHE41-.LEHB41
 1443 00e4 8004     		.uleb128 .L75-.LFB1080
 1444 00e6 01       		.uleb128 0x1
 1445 00e7 AE01     		.uleb128 .LEHB42-.LFB1080
 1446 00e9 05       		.uleb128 .LEHE42-.LEHB42
 1447 00ea 00       		.uleb128 0
 1448 00eb 00       		.uleb128 0
 1449 00ec B601     		.uleb128 .LEHB43-.LFB1080
 1450 00ee 3F       		.uleb128 .LEHE43-.LEHB43
 1451 00ef DD04     		.uleb128 .L77-.LFB1080
 1452 00f1 01       		.uleb128 0x1
 1453 00f2 F501     		.uleb128 .LEHB44-.LFB1080
 1454 00f4 4A       		.uleb128 .LEHE44-.LEHB44
 1455 00f5 BA05     		.uleb128 .L79-.LFB1080
 1456 00f7 01       		.uleb128 0x1
 1457 00f8 BF02     		.uleb128 .LEHB45-.LFB1080
 1458 00fa 4A       		.uleb128 .LEHE45-.LEHB45
 1459 00fb 9706     		.uleb128 .L81-.LFB1080
 1460 00fd 01       		.uleb128 0x1
 1461 00fe 8903     		.uleb128 .LEHB46-.LFB1080
 1462 0100 40       		.uleb128 .LEHE46-.LEHB46
 1463 0101 F406     		.uleb128 .L83-.LFB1080
 1464 0103 01       		.uleb128 0x1
 1465 0104 D003     		.uleb128 .LEHB47-.LFB1080
 1466 0106 05       		.uleb128 .LEHE47-.LEHB47
 1467 0107 00       		.uleb128 0
 1468 0108 00       		.uleb128 0
 1469 0109 FB03     		.uleb128 .LEHB48-.LFB1080
 1470 010b 05       		.uleb128 .LEHE48-.LEHB48
 1471 010c 00       		.uleb128 0
 1472 010d 00       		.uleb128 0
 1473 010e 8804     		.uleb128 .LEHB49-.LFB1080
 1474 0110 38       		.uleb128 .LEHE49-.LEHB49
 1475 0111 ED03     		.uleb128 .L76-.LFB1080
 1476 0113 00       		.uleb128 0
 1477 0114 C004     		.uleb128 .LEHB50-.LFB1080
 1478 0116 05       		.uleb128 .LEHE50-.LEHB50
 1479 0117 00       		.uleb128 0
 1480 0118 00       		.uleb128 0
 1481 0119 D804     		.uleb128 .LEHB51-.LFB1080
 1482 011b 05       		.uleb128 .LEHE51-.LEHB51
 1483 011c 00       		.uleb128 0
 1484 011d 00       		.uleb128 0
 1485 011e E504     		.uleb128 .LEHB52-.LFB1080
 1486 0120 38       		.uleb128 .LEHE52-.LEHB52
 1487 0121 CA04     		.uleb128 .L78-.LFB1080
 1488 0123 00       		.uleb128 0
 1489 0124 9D05     		.uleb128 .LEHB53-.LFB1080
 1490 0126 05       		.uleb128 .LEHE53-.LEHB53
 1491 0127 00       		.uleb128 0
 1492 0128 00       		.uleb128 0
 1493 0129 B505     		.uleb128 .LEHB54-.LFB1080
 1494 012b 05       		.uleb128 .LEHE54-.LEHB54
 1495 012c 00       		.uleb128 0
 1496 012d 00       		.uleb128 0
 1497 012e C205     		.uleb128 .LEHB55-.LFB1080
 1498 0130 38       		.uleb128 .LEHE55-.LEHB55
 1499 0131 A705     		.uleb128 .L80-.LFB1080
 1500 0133 00       		.uleb128 0
 1501 0134 FA05     		.uleb128 .LEHB56-.LFB1080
 1502 0136 05       		.uleb128 .LEHE56-.LEHB56
 1503 0137 00       		.uleb128 0
 1504 0138 00       		.uleb128 0
 1505 0139 9206     		.uleb128 .LEHB57-.LFB1080
 1506 013b 05       		.uleb128 .LEHE57-.LEHB57
 1507 013c 00       		.uleb128 0
 1508 013d 00       		.uleb128 0
 1509 013e 9F06     		.uleb128 .LEHB58-.LFB1080
 1510 0140 38       		.uleb128 .LEHE58-.LEHB58
 1511 0141 8406     		.uleb128 .L82-.LFB1080
 1512 0143 00       		.uleb128 0
 1513 0144 D706     		.uleb128 .LEHB59-.LFB1080
 1514 0146 05       		.uleb128 .LEHE59-.LEHB59
 1515 0147 00       		.uleb128 0
 1516 0148 00       		.uleb128 0
 1517 0149 EF06     		.uleb128 .LEHB60-.LFB1080
 1518 014b 05       		.uleb128 .LEHE60-.LEHB60
 1519 014c 00       		.uleb128 0
 1520 014d 00       		.uleb128 0
 1521 014e FC06     		.uleb128 .LEHB61-.LFB1080
 1522 0150 38       		.uleb128 .LEHE61-.LEHB61
 1523 0151 E106     		.uleb128 .L84-.LFB1080
 1524 0153 00       		.uleb128 0
 1525 0154 B407     		.uleb128 .LEHB62-.LFB1080
 1526 0156 05       		.uleb128 .LEHE62-.LEHB62
 1527 0157 00       		.uleb128 0
 1528 0158 00       		.uleb128 0
 1529              	.LLSDACSE1080:
 1530 0159 01       		.byte	0x1
 1531 015a 00       		.byte	0
 1532 015b 00       		.align 4
 1533 015c 00000000 		.long	0
 1534              	
 1535              	.LLSDATT1080:
 1536              		.text
 1538              		.section	.rodata
 1539              	.LC10:
 1540 0184 436F7265 		.string	"Core_testCapacityAppendBlock"
 1540      5F746573 
 1540      74436170 
 1540      61636974 
 1540      79417070 
 1541              		.section	.text._ZN32TestCore_testCapacityAppendBlockC2Ev,"axG",@progbits,_ZN32TestCore_testCapacit
 1542              		.align 2
 1543              		.weak	_ZN32TestCore_testCapacityAppendBlockC2Ev
 1545              	_ZN32TestCore_testCapacityAppendBlockC2Ev:
 1546              	.LFB1082:
  59:testCore.cpp  **** 
  60:testCore.cpp  **** TEST(Core_testCapacityAppendBlock) {
 1547              		.loc 3 60 0
 1548              		.cfi_startproc
 1549 0000 55       		pushq	%rbp
 1550              		.cfi_def_cfa_offset 16
 1551              		.cfi_offset 6, -16
 1552 0001 4889E5   		movq	%rsp, %rbp
 1553              		.cfi_def_cfa_register 6
 1554 0004 4883EC10 		subq	$16, %rsp
 1555 0008 48897DF8 		movq	%rdi, -8(%rbp)
 1556              	.LBB13:
 1557              		.loc 3 60 0
 1558 000c E8000000 		call	_ZN13UnitTestSuite12GetSuiteNameEv
 1558      00
 1559 0011 4889C2   		movq	%rax, %rdx
 1560 0014 488B45F8 		movq	-8(%rbp), %rax
 1561 0018 41B83C00 		movl	$60, %r8d
 1561      0000
 1562 001e B9000000 		movl	$.LC1, %ecx
 1562      00
 1563 0023 BE000000 		movl	$.LC10, %esi
 1563      00
 1564 0028 4889C7   		movq	%rax, %rdi
 1565 002b E8000000 		call	_ZN8UnitTest4TestC2EPKcS2_S2_i
 1565      00
 1566 0030 488B45F8 		movq	-8(%rbp), %rax
 1567 0034 48C70000 		movq	$_ZTV32TestCore_testCapacityAppendBlock+16, (%rax)
 1567      000000
 1568              	.LBE13:
 1569 003b C9       		leave
 1570              		.cfi_def_cfa 7, 8
 1571 003c C3       		ret
 1572              		.cfi_endproc
 1573              	.LFE1082:
 1575              		.weak	_ZN32TestCore_testCapacityAppendBlockC1Ev
 1576              		.set	_ZN32TestCore_testCapacityAppendBlockC1Ev,_ZN32TestCore_testCapacityAppendBlockC2Ev
 1577              		.globl	testCore_testCapacityAppendBlockInstance
 1578              		.bss
 1579 00b9 00000000 		.align 32
 1579      000000
 1582              	testCore_testCapacityAppendBlockInstance:
 1583 00c0 00000000 		.zero	56
 1583      00000000 
 1583      00000000 
 1583      00000000 
 1583      00000000 
 1584              		.globl	adderCore_testCapacityAppendBlock
 1587              	adderCore_testCapacityAppendBlock:
 1588 00f8 00       		.zero	1
 1589              		.section	.rodata
 1590 01a1 00000000 		.align 8
 1590      000000
 1591              	.LC11:
 1592 01a8 556E6861 		.string	"Unhandled exception in CHECK_EQUAL(8UL, buf.length)"
 1592      6E646C65 
 1592      64206578 
 1592      63657074 
 1592      696F6E20 
 1593              		.text
 1594              		.align 2
 1595              		.globl	_ZNK32TestCore_testCapacityAppendBlock7RunImplEv
 1597              	_ZNK32TestCore_testCapacityAppendBlock7RunImplEv:
 1598              	.LFB1084:
 1599              		.loc 3 60 0
 1600              		.cfi_startproc
 1601              		.cfi_personality 0x3,__gxx_personality_v0
 1602              		.cfi_lsda 0x3,.LLSDA1084
 1603 09d6 55       		pushq	%rbp
 1604              		.cfi_def_cfa_offset 16
 1605              		.cfi_offset 6, -16
 1606 09d7 4889E5   		movq	%rsp, %rbp
 1607              		.cfi_def_cfa_register 6
 1608 09da 53       		pushq	%rbx
 1609 09db 4883EC78 		subq	$120, %rsp
 1610              		.cfi_offset 3, -24
 1611 09df 48897D88 		movq	%rdi, -120(%rbp)
 1612              		.loc 3 60 0
 1613 09e3 64488B04 		movq	%fs:40, %rax
 1613      25280000 
 1613      00
 1614 09ec 488945E8 		movq	%rax, -24(%rbp)
 1615 09f0 31C0     		xorl	%eax, %eax
 1616              	.LBB14:
  61:testCore.cpp  **** 	Buffer buf;
  62:testCore.cpp  **** 	BufferStatus status;
  63:testCore.cpp  **** 
  64:testCore.cpp  **** 	status = bufInitialise(&buf, 8, 0, NULL);
 1617              		.loc 3 64 0
 1618 09f2 488D45A0 		leaq	-96(%rbp), %rax
 1619 09f6 B9000000 		movl	$0, %ecx
 1619      00
 1620 09fb BA000000 		movl	$0, %edx
 1620      00
 1621 0a00 BE080000 		movl	$8, %esi
 1621      00
 1622 0a05 4889C7   		movq	%rax, %rdi
 1623              	.LEHB63:
 1624 0a08 E8000000 		call	bufInitialise
 1624      00
 1625              	.LEHE63:
 1626 0a0d 894594   		movl	%eax, -108(%rbp)
 1627              	.LEHB64:
  65:testCore.cpp  **** 	CHECK_EQUAL(BUF_SUCCESS, status);
 1628              		.loc 3 65 0
 1629 0a10 E8000000 		call	_ZN8UnitTest11CurrentTest7DetailsEv
 1629      00
 1630 0a15 488B08   		movq	(%rax), %rcx
 1631 0a18 488D45C0 		leaq	-64(%rbp), %rax
 1632 0a1c BA410000 		movl	$65, %edx
 1632      00
 1633 0a21 4889CE   		movq	%rcx, %rsi
 1634 0a24 4889C7   		movq	%rax, %rdi
 1635 0a27 E8000000 		call	_ZN8UnitTest11TestDetailsC1ERKS0_i
 1635      00
 1636              		.loc 3 65 0 is_stmt 0 discriminator 2
 1637 0a2c C7459800 		movl	$0, -104(%rbp)
 1637      000000
 1638 0a33 E8000000 		call	_ZN8UnitTest11CurrentTest7ResultsEv
 1638      00
 1639 0a38 488B00   		movq	(%rax), %rax
 1640 0a3b 488D4DC0 		leaq	-64(%rbp), %rcx
 1641 0a3f 488D5594 		leaq	-108(%rbp), %rdx
 1642 0a43 488D7598 		leaq	-104(%rbp), %rsi
 1643 0a47 4889C7   		movq	%rax, %rdi
 1644 0a4a E8000000 		call	_ZN8UnitTest10CheckEqualI12BufferStatusS1_EEvRNS_11TestResultsERKT_RKT0_RKNS_11TestDetailsE
 1644      00
 1645              	.LEHE64:
 1646              	.L90:
  66:testCore.cpp  **** 
  67:testCore.cpp  **** 	const unsigned char expected[] = {1, 2, 3, 4, 5, 6, 7, 8};
 1647              		.loc 3 67 0 is_stmt 1
 1648 0a4f C645E001 		movb	$1, -32(%rbp)
 1649 0a53 C645E102 		movb	$2, -31(%rbp)
 1650 0a57 C645E203 		movb	$3, -30(%rbp)
 1651 0a5b C645E304 		movb	$4, -29(%rbp)
 1652 0a5f C645E405 		movb	$5, -28(%rbp)
 1653 0a63 C645E506 		movb	$6, -27(%rbp)
 1654 0a67 C645E607 		movb	$7, -26(%rbp)
 1655 0a6b C645E708 		movb	$8, -25(%rbp)
  68:testCore.cpp  **** 	status = bufAppendBlock(&buf, expected, 8, NULL);
 1656              		.loc 3 68 0
 1657 0a6f 488D75E0 		leaq	-32(%rbp), %rsi
 1658 0a73 488D45A0 		leaq	-96(%rbp), %rax
 1659 0a77 B9000000 		movl	$0, %ecx
 1659      00
 1660 0a7c BA080000 		movl	$8, %edx
 1660      00
 1661 0a81 4889C7   		movq	%rax, %rdi
 1662              	.LEHB65:
 1663 0a84 E8000000 		call	bufAppendBlock
 1663      00
 1664              	.LEHE65:
 1665 0a89 894594   		movl	%eax, -108(%rbp)
 1666              	.LEHB66:
  69:testCore.cpp  **** 	CHECK_EQUAL(BUF_SUCCESS, status);
 1667              		.loc 3 69 0
 1668 0a8c E8000000 		call	_ZN8UnitTest11CurrentTest7DetailsEv
 1668      00
 1669 0a91 488B08   		movq	(%rax), %rcx
 1670 0a94 488D45C0 		leaq	-64(%rbp), %rax
 1671 0a98 BA450000 		movl	$69, %edx
 1671      00
 1672 0a9d 4889CE   		movq	%rcx, %rsi
 1673 0aa0 4889C7   		movq	%rax, %rdi
 1674 0aa3 E8000000 		call	_ZN8UnitTest11TestDetailsC1ERKS0_i
 1674      00
 1675              		.loc 3 69 0 is_stmt 0 discriminator 2
 1676 0aa8 C7459800 		movl	$0, -104(%rbp)
 1676      000000
 1677 0aaf E8000000 		call	_ZN8UnitTest11CurrentTest7ResultsEv
 1677      00
 1678 0ab4 488B00   		movq	(%rax), %rax
 1679 0ab7 488D4DC0 		leaq	-64(%rbp), %rcx
 1680 0abb 488D5594 		leaq	-108(%rbp), %rdx
 1681 0abf 488D7598 		leaq	-104(%rbp), %rsi
 1682 0ac3 4889C7   		movq	%rax, %rdi
 1683 0ac6 E8000000 		call	_ZN8UnitTest10CheckEqualI12BufferStatusS1_EEvRNS_11TestResultsERKT_RKT0_RKNS_11TestDetailsE
 1683      00
 1684              	.LEHE66:
 1685              	.L93:
 1686              	.LEHB67:
  70:testCore.cpp  **** 	CHECK_EQUAL(8UL, buf.capacity);
 1687              		.loc 3 70 0 is_stmt 1
 1688 0acb E8000000 		call	_ZN8UnitTest11CurrentTest7DetailsEv
 1688      00
 1689 0ad0 488B08   		movq	(%rax), %rcx
 1690 0ad3 488D45C0 		leaq	-64(%rbp), %rax
 1691 0ad7 BA460000 		movl	$70, %edx
 1691      00
 1692 0adc 4889CE   		movq	%rcx, %rsi
 1693 0adf 4889C7   		movq	%rax, %rdi
 1694 0ae2 E8000000 		call	_ZN8UnitTest11TestDetailsC1ERKS0_i
 1694      00
 1695              		.loc 3 70 0 is_stmt 0 discriminator 2
 1696 0ae7 48C74598 		movq	$8, -104(%rbp)
 1696      08000000 
 1697 0aef E8000000 		call	_ZN8UnitTest11CurrentTest7ResultsEv
 1697      00
 1698 0af4 488B00   		movq	(%rax), %rax
 1699 0af7 488D55C0 		leaq	-64(%rbp), %rdx
 1700 0afb 488D4DA0 		leaq	-96(%rbp), %rcx
 1701 0aff 488D790C 		leaq	12(%rcx), %rdi
 1702 0b03 488D7598 		leaq	-104(%rbp), %rsi
 1703 0b07 4889D1   		movq	%rdx, %rcx
 1704 0b0a 4889FA   		movq	%rdi, %rdx
 1705 0b0d 4889C7   		movq	%rax, %rdi
 1706 0b10 E8000000 		call	_ZN8UnitTest10CheckEqualImjEEvRNS_11TestResultsERKT_RKT0_RKNS_11TestDetailsE
 1706      00
 1707              	.LEHE67:
 1708              	.L96:
 1709              	.LEHB68:
  71:testCore.cpp  **** 	CHECK_EQUAL(8UL, buf.length);
 1710              		.loc 3 71 0 is_stmt 1
 1711 0b15 E8000000 		call	_ZN8UnitTest11CurrentTest7DetailsEv
 1711      00
 1712 0b1a 488B08   		movq	(%rax), %rcx
 1713 0b1d 488D45C0 		leaq	-64(%rbp), %rax
 1714 0b21 BA470000 		movl	$71, %edx
 1714      00
 1715 0b26 4889CE   		movq	%rcx, %rsi
 1716 0b29 4889C7   		movq	%rax, %rdi
 1717 0b2c E8000000 		call	_ZN8UnitTest11TestDetailsC1ERKS0_i
 1717      00
 1718              		.loc 3 71 0 is_stmt 0 discriminator 2
 1719 0b31 48C74598 		movq	$8, -104(%rbp)
 1719      08000000 
 1720 0b39 E8000000 		call	_ZN8UnitTest11CurrentTest7ResultsEv
 1720      00
 1721 0b3e 488B00   		movq	(%rax), %rax
 1722 0b41 488D55C0 		leaq	-64(%rbp), %rdx
 1723 0b45 488D4DA0 		leaq	-96(%rbp), %rcx
 1724 0b49 488D7908 		leaq	8(%rcx), %rdi
 1725 0b4d 488D7598 		leaq	-104(%rbp), %rsi
 1726 0b51 4889D1   		movq	%rdx, %rcx
 1727 0b54 4889FA   		movq	%rdi, %rdx
 1728 0b57 4889C7   		movq	%rax, %rdi
 1729 0b5a E8000000 		call	_ZN8UnitTest10CheckEqualImjEEvRNS_11TestResultsERKT_RKT0_RKNS_11TestDetailsE
 1729      00
 1730              	.LEHE68:
 1731              	.L99:
 1732              	.LEHB69:
  72:testCore.cpp  **** 	CHECK_ARRAY_EQUAL(expected, buf.data, 8);
 1733              		.loc 3 72 0 is_stmt 1
 1734 0b5f E8000000 		call	_ZN8UnitTest11CurrentTest7DetailsEv
 1734      00
 1735 0b64 488B08   		movq	(%rax), %rcx
 1736 0b67 488D45C0 		leaq	-64(%rbp), %rax
 1737 0b6b BA480000 		movl	$72, %edx
 1737      00
 1738 0b70 4889CE   		movq	%rcx, %rsi
 1739 0b73 4889C7   		movq	%rax, %rdi
 1740 0b76 E8000000 		call	_ZN8UnitTest11TestDetailsC1ERKS0_i
 1740      00
 1741              		.loc 3 72 0 is_stmt 0 discriminator 2
 1742 0b7b E8000000 		call	_ZN8UnitTest11CurrentTest7ResultsEv
 1742      00
 1743 0b80 488B00   		movq	(%rax), %rax
 1744 0b83 488D4DC0 		leaq	-64(%rbp), %rcx
 1745 0b87 488D55A0 		leaq	-96(%rbp), %rdx
 1746 0b8b 488D75E0 		leaq	-32(%rbp), %rsi
 1747 0b8f 4989C8   		movq	%rcx, %r8
 1748 0b92 B9080000 		movl	$8, %ecx
 1748      00
 1749 0b97 4889C7   		movq	%rax, %rdi
 1750 0b9a E8000000 		call	_ZN8UnitTest15CheckArrayEqualIA8_hPhEEvRNS_11TestResultsERKT_RKT0_iRKNS_11TestDetailsE
 1750      00
 1751              	.LEHE69:
 1752              	.L102:
  73:testCore.cpp  **** 	bufDestroy(&buf);
 1753              		.loc 3 73 0 is_stmt 1
 1754 0b9f 488D45A0 		leaq	-96(%rbp), %rax
 1755 0ba3 4889C7   		movq	%rax, %rdi
 1756              	.LEHB70:
 1757 0ba6 E8000000 		call	bufDestroy
 1757      00
 1758              	.LEHE70:
 1759              	.LBE14:
  74:testCore.cpp  **** }
 1760              		.loc 3 74 0
 1761 0bab 488B45E8 		movq	-24(%rbp), %rax
 1762 0baf 64483304 		xorq	%fs:40, %rax
 1762      25280000 
 1762      00
 1763 0bb8 0F84DB01 		je	.L103
 1763      0000
 1764 0bbe E9D10100 		jmp	.L114
 1764      00
 1765              	.L105:
 1766 0bc3 4889C3   		movq	%rax, %rbx
 1767              	.LBB15:
  65:testCore.cpp  **** 
 1768              		.loc 3 65 0
 1769 0bc6 E8000000 		call	__cxa_end_catch
 1769      00
 1770 0bcb 4889D8   		movq	%rbx, %rax
 1771 0bce 4889C7   		movq	%rax, %rdi
 1772              	.LEHB71:
 1773 0bd1 E8000000 		call	_Unwind_Resume
 1773      00
 1774              	.LEHE71:
 1775              	.L104:
 1776 0bd6 4889C7   		movq	%rax, %rdi
 1777 0bd9 E8000000 		call	__cxa_begin_catch
 1777      00
 1778              	.LEHB72:
 1779 0bde E8000000 		call	_ZN8UnitTest11CurrentTest7DetailsEv
 1779      00
 1780 0be3 488B08   		movq	(%rax), %rcx
 1781 0be6 488D45C0 		leaq	-64(%rbp), %rax
 1782 0bea BA410000 		movl	$65, %edx
 1782      00
 1783 0bef 4889CE   		movq	%rcx, %rsi
 1784 0bf2 4889C7   		movq	%rax, %rdi
 1785 0bf5 E8000000 		call	_ZN8UnitTest11TestDetailsC1ERKS0_i
 1785      00
  65:testCore.cpp  **** 
 1786              		.loc 3 65 0 is_stmt 0 discriminator 10
 1787 0bfa E8000000 		call	_ZN8UnitTest11CurrentTest7ResultsEv
 1787      00
 1788 0bff 488B00   		movq	(%rax), %rax
 1789 0c02 488D4DC0 		leaq	-64(%rbp), %rcx
 1790 0c06 BA000000 		movl	$.LC3, %edx
 1790      00
 1791 0c0b 4889CE   		movq	%rcx, %rsi
 1792 0c0e 4889C7   		movq	%rax, %rdi
 1793 0c11 E8000000 		call	_ZN8UnitTest11TestResults13OnTestFailureERKNS_11TestDetailsEPKc
 1793      00
 1794              	.LEHE72:
 1795              	.LEHB73:
  65:testCore.cpp  **** 
 1796              		.loc 3 65 0 discriminator 14
 1797 0c16 E8000000 		call	__cxa_end_catch
 1797      00
 1798              	.LEHE73:
 1799 0c1b E92FFEFF 		jmp	.L90
 1799      FF
 1800              	.L107:
 1801 0c20 4889C3   		movq	%rax, %rbx
  69:testCore.cpp  **** 	CHECK_EQUAL(8UL, buf.capacity);
 1802              		.loc 3 69 0 is_stmt 1
 1803 0c23 E8000000 		call	__cxa_end_catch
 1803      00
 1804 0c28 4889D8   		movq	%rbx, %rax
 1805 0c2b 4889C7   		movq	%rax, %rdi
 1806              	.LEHB74:
 1807 0c2e E8000000 		call	_Unwind_Resume
 1807      00
 1808              	.LEHE74:
 1809              	.L106:
 1810 0c33 4889C7   		movq	%rax, %rdi
 1811 0c36 E8000000 		call	__cxa_begin_catch
 1811      00
 1812              	.LEHB75:
 1813 0c3b E8000000 		call	_ZN8UnitTest11CurrentTest7DetailsEv
 1813      00
 1814 0c40 488B08   		movq	(%rax), %rcx
 1815 0c43 488D45C0 		leaq	-64(%rbp), %rax
 1816 0c47 BA450000 		movl	$69, %edx
 1816      00
 1817 0c4c 4889CE   		movq	%rcx, %rsi
 1818 0c4f 4889C7   		movq	%rax, %rdi
 1819 0c52 E8000000 		call	_ZN8UnitTest11TestDetailsC1ERKS0_i
 1819      00
  69:testCore.cpp  **** 	CHECK_EQUAL(8UL, buf.capacity);
 1820              		.loc 3 69 0 is_stmt 0 discriminator 10
 1821 0c57 E8000000 		call	_ZN8UnitTest11CurrentTest7ResultsEv
 1821      00
 1822 0c5c 488B00   		movq	(%rax), %rax
 1823 0c5f 488D4DC0 		leaq	-64(%rbp), %rcx
 1824 0c63 BA000000 		movl	$.LC3, %edx
 1824      00
 1825 0c68 4889CE   		movq	%rcx, %rsi
 1826 0c6b 4889C7   		movq	%rax, %rdi
 1827 0c6e E8000000 		call	_ZN8UnitTest11TestResults13OnTestFailureERKNS_11TestDetailsEPKc
 1827      00
 1828              	.LEHE75:
 1829              	.LEHB76:
  69:testCore.cpp  **** 	CHECK_EQUAL(8UL, buf.capacity);
 1830              		.loc 3 69 0 discriminator 14
 1831 0c73 E8000000 		call	__cxa_end_catch
 1831      00
 1832              	.LEHE76:
 1833 0c78 E94EFEFF 		jmp	.L93
 1833      FF
 1834              	.L109:
 1835 0c7d 4889C3   		movq	%rax, %rbx
  70:testCore.cpp  **** 	CHECK_EQUAL(8UL, buf.length);
 1836              		.loc 3 70 0 is_stmt 1
 1837 0c80 E8000000 		call	__cxa_end_catch
 1837      00
 1838 0c85 4889D8   		movq	%rbx, %rax
 1839 0c88 4889C7   		movq	%rax, %rdi
 1840              	.LEHB77:
 1841 0c8b E8000000 		call	_Unwind_Resume
 1841      00
 1842              	.LEHE77:
 1843              	.L108:
 1844 0c90 4889C7   		movq	%rax, %rdi
 1845 0c93 E8000000 		call	__cxa_begin_catch
 1845      00
 1846              	.LEHB78:
 1847 0c98 E8000000 		call	_ZN8UnitTest11CurrentTest7DetailsEv
 1847      00
 1848 0c9d 488B08   		movq	(%rax), %rcx
 1849 0ca0 488D45C0 		leaq	-64(%rbp), %rax
 1850 0ca4 BA460000 		movl	$70, %edx
 1850      00
 1851 0ca9 4889CE   		movq	%rcx, %rsi
 1852 0cac 4889C7   		movq	%rax, %rdi
 1853 0caf E8000000 		call	_ZN8UnitTest11TestDetailsC1ERKS0_i
 1853      00
  70:testCore.cpp  **** 	CHECK_EQUAL(8UL, buf.length);
 1854              		.loc 3 70 0 is_stmt 0 discriminator 10
 1855 0cb4 E8000000 		call	_ZN8UnitTest11CurrentTest7ResultsEv
 1855      00
 1856 0cb9 488B00   		movq	(%rax), %rax
 1857 0cbc 488D4DC0 		leaq	-64(%rbp), %rcx
 1858 0cc0 BA000000 		movl	$.LC5, %edx
 1858      00
 1859 0cc5 4889CE   		movq	%rcx, %rsi
 1860 0cc8 4889C7   		movq	%rax, %rdi
 1861 0ccb E8000000 		call	_ZN8UnitTest11TestResults13OnTestFailureERKNS_11TestDetailsEPKc
 1861      00
 1862              	.LEHE78:
 1863              	.LEHB79:
  70:testCore.cpp  **** 	CHECK_EQUAL(8UL, buf.length);
 1864              		.loc 3 70 0 discriminator 14
 1865 0cd0 E8000000 		call	__cxa_end_catch
 1865      00
 1866              	.LEHE79:
 1867 0cd5 E93BFEFF 		jmp	.L96
 1867      FF
 1868              	.L111:
 1869 0cda 4889C3   		movq	%rax, %rbx
  71:testCore.cpp  **** 	CHECK_ARRAY_EQUAL(expected, buf.data, 8);
 1870              		.loc 3 71 0 is_stmt 1
 1871 0cdd E8000000 		call	__cxa_end_catch
 1871      00
 1872 0ce2 4889D8   		movq	%rbx, %rax
 1873 0ce5 4889C7   		movq	%rax, %rdi
 1874              	.LEHB80:
 1875 0ce8 E8000000 		call	_Unwind_Resume
 1875      00
 1876              	.LEHE80:
 1877              	.L110:
 1878 0ced 4889C7   		movq	%rax, %rdi
 1879 0cf0 E8000000 		call	__cxa_begin_catch
 1879      00
 1880              	.LEHB81:
 1881 0cf5 E8000000 		call	_ZN8UnitTest11CurrentTest7DetailsEv
 1881      00
 1882 0cfa 488B08   		movq	(%rax), %rcx
 1883 0cfd 488D45C0 		leaq	-64(%rbp), %rax
 1884 0d01 BA470000 		movl	$71, %edx
 1884      00
 1885 0d06 4889CE   		movq	%rcx, %rsi
 1886 0d09 4889C7   		movq	%rax, %rdi
 1887 0d0c E8000000 		call	_ZN8UnitTest11TestDetailsC1ERKS0_i
 1887      00
  71:testCore.cpp  **** 	CHECK_ARRAY_EQUAL(expected, buf.data, 8);
 1888              		.loc 3 71 0 is_stmt 0 discriminator 10
 1889 0d11 E8000000 		call	_ZN8UnitTest11CurrentTest7ResultsEv
 1889      00
 1890 0d16 488B00   		movq	(%rax), %rax
 1891 0d19 488D4DC0 		leaq	-64(%rbp), %rcx
 1892 0d1d BA000000 		movl	$.LC11, %edx
 1892      00
 1893 0d22 4889CE   		movq	%rcx, %rsi
 1894 0d25 4889C7   		movq	%rax, %rdi
 1895 0d28 E8000000 		call	_ZN8UnitTest11TestResults13OnTestFailureERKNS_11TestDetailsEPKc
 1895      00
 1896              	.LEHE81:
 1897              	.LEHB82:
  71:testCore.cpp  **** 	CHECK_ARRAY_EQUAL(expected, buf.data, 8);
 1898              		.loc 3 71 0 discriminator 14
 1899 0d2d E8000000 		call	__cxa_end_catch
 1899      00
 1900              	.LEHE82:
 1901 0d32 E928FEFF 		jmp	.L99
 1901      FF
 1902              	.L113:
 1903 0d37 4889C3   		movq	%rax, %rbx
  72:testCore.cpp  **** 	bufDestroy(&buf);
 1904              		.loc 3 72 0 is_stmt 1
 1905 0d3a E8000000 		call	__cxa_end_catch
 1905      00
 1906 0d3f 4889D8   		movq	%rbx, %rax
 1907 0d42 4889C7   		movq	%rax, %rdi
 1908              	.LEHB83:
 1909 0d45 E8000000 		call	_Unwind_Resume
 1909      00
 1910              	.LEHE83:
 1911              	.L112:
 1912 0d4a 4889C7   		movq	%rax, %rdi
 1913 0d4d E8000000 		call	__cxa_begin_catch
 1913      00
 1914              	.LEHB84:
 1915 0d52 E8000000 		call	_ZN8UnitTest11CurrentTest7DetailsEv
 1915      00
 1916 0d57 488B08   		movq	(%rax), %rcx
 1917 0d5a 488D45C0 		leaq	-64(%rbp), %rax
 1918 0d5e BA480000 		movl	$72, %edx
 1918      00
 1919 0d63 4889CE   		movq	%rcx, %rsi
 1920 0d66 4889C7   		movq	%rax, %rdi
 1921 0d69 E8000000 		call	_ZN8UnitTest11TestDetailsC1ERKS0_i
 1921      00
  72:testCore.cpp  **** 	bufDestroy(&buf);
 1922              		.loc 3 72 0 is_stmt 0 discriminator 10
 1923 0d6e E8000000 		call	_ZN8UnitTest11CurrentTest7ResultsEv
 1923      00
 1924 0d73 488B00   		movq	(%rax), %rax
 1925 0d76 488D4DC0 		leaq	-64(%rbp), %rcx
 1926 0d7a BA000000 		movl	$.LC6, %edx
 1926      00
 1927 0d7f 4889CE   		movq	%rcx, %rsi
 1928 0d82 4889C7   		movq	%rax, %rdi
 1929 0d85 E8000000 		call	_ZN8UnitTest11TestResults13OnTestFailureERKNS_11TestDetailsEPKc
 1929      00
 1930              	.LEHE84:
 1931              	.LEHB85:
  72:testCore.cpp  **** 	bufDestroy(&buf);
 1932              		.loc 3 72 0 discriminator 14
 1933 0d8a E8000000 		call	__cxa_end_catch
 1933      00
 1934              	.LEHE85:
 1935 0d8f E90BFEFF 		jmp	.L102
 1935      FF
 1936              	.L114:
 1937              	.LBE15:
 1938              		.loc 3 74 0 is_stmt 1
 1939 0d94 E8000000 		call	__stack_chk_fail
 1939      00
 1940              	.L103:
 1941 0d99 4883C478 		addq	$120, %rsp
 1942 0d9d 5B       		popq	%rbx
 1943 0d9e 5D       		popq	%rbp
 1944              		.cfi_def_cfa 7, 8
 1945 0d9f C3       		ret
 1946              		.cfi_endproc
 1947              	.LFE1084:
 1948              		.section	.gcc_except_table
 1949              		.align 4
 1950              	.LLSDA1084:
 1951 0160 FF       		.byte	0xff
 1952 0161 03       		.byte	0x3
 1953 0162 8401     		.uleb128 .LLSDATT1084-.LLSDATTD1084
 1954              	.LLSDATTD1084:
 1955 0164 01       		.byte	0x1
 1956 0165 7B       		.uleb128 .LLSDACSE1084-.LLSDACSB1084
 1957              	.LLSDACSB1084:
 1958 0166 32       		.uleb128 .LEHB63-.LFB1084
 1959 0167 05       		.uleb128 .LEHE63-.LEHB63
 1960 0168 00       		.uleb128 0
 1961 0169 00       		.uleb128 0
 1962 016a 3A       		.uleb128 .LEHB64-.LFB1084
 1963 016b 3F       		.uleb128 .LEHE64-.LEHB64
 1964 016c 8004     		.uleb128 .L104-.LFB1084
 1965 016e 01       		.uleb128 0x1
 1966 016f AE01     		.uleb128 .LEHB65-.LFB1084
 1967 0171 05       		.uleb128 .LEHE65-.LEHB65
 1968 0172 00       		.uleb128 0
 1969 0173 00       		.uleb128 0
 1970 0174 B601     		.uleb128 .LEHB66-.LFB1084
 1971 0176 3F       		.uleb128 .LEHE66-.LEHB66
 1972 0177 DD04     		.uleb128 .L106-.LFB1084
 1973 0179 01       		.uleb128 0x1
 1974 017a F501     		.uleb128 .LEHB67-.LFB1084
 1975 017c 4A       		.uleb128 .LEHE67-.LEHB67
 1976 017d BA05     		.uleb128 .L108-.LFB1084
 1977 017f 01       		.uleb128 0x1
 1978 0180 BF02     		.uleb128 .LEHB68-.LFB1084
 1979 0182 4A       		.uleb128 .LEHE68-.LEHB68
 1980 0183 9706     		.uleb128 .L110-.LFB1084
 1981 0185 01       		.uleb128 0x1
 1982 0186 8903     		.uleb128 .LEHB69-.LFB1084
 1983 0188 40       		.uleb128 .LEHE69-.LEHB69
 1984 0189 F406     		.uleb128 .L112-.LFB1084
 1985 018b 01       		.uleb128 0x1
 1986 018c D003     		.uleb128 .LEHB70-.LFB1084
 1987 018e 05       		.uleb128 .LEHE70-.LEHB70
 1988 018f 00       		.uleb128 0
 1989 0190 00       		.uleb128 0
 1990 0191 FB03     		.uleb128 .LEHB71-.LFB1084
 1991 0193 05       		.uleb128 .LEHE71-.LEHB71
 1992 0194 00       		.uleb128 0
 1993 0195 00       		.uleb128 0
 1994 0196 8804     		.uleb128 .LEHB72-.LFB1084
 1995 0198 38       		.uleb128 .LEHE72-.LEHB72
 1996 0199 ED03     		.uleb128 .L105-.LFB1084
 1997 019b 00       		.uleb128 0
 1998 019c C004     		.uleb128 .LEHB73-.LFB1084
 1999 019e 05       		.uleb128 .LEHE73-.LEHB73
 2000 019f 00       		.uleb128 0
 2001 01a0 00       		.uleb128 0
 2002 01a1 D804     		.uleb128 .LEHB74-.LFB1084
 2003 01a3 05       		.uleb128 .LEHE74-.LEHB74
 2004 01a4 00       		.uleb128 0
 2005 01a5 00       		.uleb128 0
 2006 01a6 E504     		.uleb128 .LEHB75-.LFB1084
 2007 01a8 38       		.uleb128 .LEHE75-.LEHB75
 2008 01a9 CA04     		.uleb128 .L107-.LFB1084
 2009 01ab 00       		.uleb128 0
 2010 01ac 9D05     		.uleb128 .LEHB76-.LFB1084
 2011 01ae 05       		.uleb128 .LEHE76-.LEHB76
 2012 01af 00       		.uleb128 0
 2013 01b0 00       		.uleb128 0
 2014 01b1 B505     		.uleb128 .LEHB77-.LFB1084
 2015 01b3 05       		.uleb128 .LEHE77-.LEHB77
 2016 01b4 00       		.uleb128 0
 2017 01b5 00       		.uleb128 0
 2018 01b6 C205     		.uleb128 .LEHB78-.LFB1084
 2019 01b8 38       		.uleb128 .LEHE78-.LEHB78
 2020 01b9 A705     		.uleb128 .L109-.LFB1084
 2021 01bb 00       		.uleb128 0
 2022 01bc FA05     		.uleb128 .LEHB79-.LFB1084
 2023 01be 05       		.uleb128 .LEHE79-.LEHB79
 2024 01bf 00       		.uleb128 0
 2025 01c0 00       		.uleb128 0
 2026 01c1 9206     		.uleb128 .LEHB80-.LFB1084
 2027 01c3 05       		.uleb128 .LEHE80-.LEHB80
 2028 01c4 00       		.uleb128 0
 2029 01c5 00       		.uleb128 0
 2030 01c6 9F06     		.uleb128 .LEHB81-.LFB1084
 2031 01c8 38       		.uleb128 .LEHE81-.LEHB81
 2032 01c9 8406     		.uleb128 .L111-.LFB1084
 2033 01cb 00       		.uleb128 0
 2034 01cc D706     		.uleb128 .LEHB82-.LFB1084
 2035 01ce 05       		.uleb128 .LEHE82-.LEHB82
 2036 01cf 00       		.uleb128 0
 2037 01d0 00       		.uleb128 0
 2038 01d1 EF06     		.uleb128 .LEHB83-.LFB1084
 2039 01d3 05       		.uleb128 .LEHE83-.LEHB83
 2040 01d4 00       		.uleb128 0
 2041 01d5 00       		.uleb128 0
 2042 01d6 FC06     		.uleb128 .LEHB84-.LFB1084
 2043 01d8 38       		.uleb128 .LEHE84-.LEHB84
 2044 01d9 E106     		.uleb128 .L113-.LFB1084
 2045 01db 00       		.uleb128 0
 2046 01dc B407     		.uleb128 .LEHB85-.LFB1084
 2047 01de 05       		.uleb128 .LEHE85-.LEHB85
 2048 01df 00       		.uleb128 0
 2049 01e0 00       		.uleb128 0
 2050              	.LLSDACSE1084:
 2051 01e1 01       		.byte	0x1
 2052 01e2 00       		.byte	0
 2053 01e3 00       		.align 4
 2054 01e4 00000000 		.long	0
 2055              	
 2056              	.LLSDATT1084:
 2057              		.text
 2059              		.section	.rodata
 2060              	.LC12:
 2061 01dc 436F7265 		.string	"Core_testLargeAppendBlock"
 2061      5F746573 
 2061      744C6172 
 2061      67654170 
 2061      70656E64 
 2062              		.section	.text._ZN29TestCore_testLargeAppendBlockC2Ev,"axG",@progbits,_ZN29TestCore_testLargeAppen
 2063              		.align 2
 2064              		.weak	_ZN29TestCore_testLargeAppendBlockC2Ev
 2066              	_ZN29TestCore_testLargeAppendBlockC2Ev:
 2067              	.LFB1086:
  75:testCore.cpp  **** 
  76:testCore.cpp  **** TEST(Core_testLargeAppendBlock) {
 2068              		.loc 3 76 0
 2069              		.cfi_startproc
 2070 0000 55       		pushq	%rbp
 2071              		.cfi_def_cfa_offset 16
 2072              		.cfi_offset 6, -16
 2073 0001 4889E5   		movq	%rsp, %rbp
 2074              		.cfi_def_cfa_register 6
 2075 0004 4883EC10 		subq	$16, %rsp
 2076 0008 48897DF8 		movq	%rdi, -8(%rbp)
 2077              	.LBB16:
 2078              		.loc 3 76 0
 2079 000c E8000000 		call	_ZN13UnitTestSuite12GetSuiteNameEv
 2079      00
 2080 0011 4889C2   		movq	%rax, %rdx
 2081 0014 488B45F8 		movq	-8(%rbp), %rax
 2082 0018 41B84C00 		movl	$76, %r8d
 2082      0000
 2083 001e B9000000 		movl	$.LC1, %ecx
 2083      00
 2084 0023 BE000000 		movl	$.LC12, %esi
 2084      00
 2085 0028 4889C7   		movq	%rax, %rdi
 2086 002b E8000000 		call	_ZN8UnitTest4TestC2EPKcS2_S2_i
 2086      00
 2087 0030 488B45F8 		movq	-8(%rbp), %rax
 2088 0034 48C70000 		movq	$_ZTV29TestCore_testLargeAppendBlock+16, (%rax)
 2088      000000
 2089              	.LBE16:
 2090 003b C9       		leave
 2091              		.cfi_def_cfa 7, 8
 2092 003c C3       		ret
 2093              		.cfi_endproc
 2094              	.LFE1086:
 2096              		.weak	_ZN29TestCore_testLargeAppendBlockC1Ev
 2097              		.set	_ZN29TestCore_testLargeAppendBlockC1Ev,_ZN29TestCore_testLargeAppendBlockC2Ev
 2098              		.globl	testCore_testLargeAppendBlockInstance
 2099              		.bss
 2100 00f9 00000000 		.align 32
 2100      000000
 2103              	testCore_testLargeAppendBlockInstance:
 2104 0100 00000000 		.zero	56
 2104      00000000 
 2104      00000000 
 2104      00000000 
 2104      00000000 
 2105              		.globl	adderCore_testLargeAppendBlock
 2108              	adderCore_testLargeAppendBlock:
 2109 0138 00       		.zero	1
 2110              		.section	.rodata
 2111 01f6 0000     		.align 8
 2112              	.LC13:
 2113 01f8 556E6861 		.string	"Unhandled exception in CHECK_EQUAL(16UL, buf.capacity)"
 2113      6E646C65 
 2113      64206578 
 2113      63657074 
 2113      696F6E20 
 2114 022f 00       		.align 8
 2115              	.LC14:
 2116 0230 556E6861 		.string	"Unhandled exception in CHECK_EQUAL(9UL, buf.length)"
 2116      6E646C65 
 2116      64206578 
 2116      63657074 
 2116      696F6E20 
 2117              		.text
 2118              		.align 2
 2119              		.globl	_ZNK29TestCore_testLargeAppendBlock7RunImplEv
 2121              	_ZNK29TestCore_testLargeAppendBlock7RunImplEv:
 2122              	.LFB1088:
 2123              		.loc 3 76 0
 2124              		.cfi_startproc
 2125              		.cfi_personality 0x3,__gxx_personality_v0
 2126              		.cfi_lsda 0x3,.LLSDA1088
 2127 0da0 55       		pushq	%rbp
 2128              		.cfi_def_cfa_offset 16
 2129              		.cfi_offset 6, -16
 2130 0da1 4889E5   		movq	%rsp, %rbp
 2131              		.cfi_def_cfa_register 6
 2132 0da4 53       		pushq	%rbx
 2133 0da5 4881EC88 		subq	$136, %rsp
 2133      000000
 2134              		.cfi_offset 3, -24
 2135 0dac 4889BD78 		movq	%rdi, -136(%rbp)
 2135      FFFFFF
 2136              		.loc 3 76 0
 2137 0db3 64488B04 		movq	%fs:40, %rax
 2137      25280000 
 2137      00
 2138 0dbc 488945E8 		movq	%rax, -24(%rbp)
 2139 0dc0 31C0     		xorl	%eax, %eax
 2140              	.LBB17:
  77:testCore.cpp  **** 	Buffer buf;
  78:testCore.cpp  **** 	BufferStatus status;
  79:testCore.cpp  **** 
  80:testCore.cpp  **** 	status = bufInitialise(&buf, 8, 0, NULL);
 2141              		.loc 3 80 0
 2142 0dc2 488D4590 		leaq	-112(%rbp), %rax
 2143 0dc6 B9000000 		movl	$0, %ecx
 2143      00
 2144 0dcb BA000000 		movl	$0, %edx
 2144      00
 2145 0dd0 BE080000 		movl	$8, %esi
 2145      00
 2146 0dd5 4889C7   		movq	%rax, %rdi
 2147              	.LEHB86:
 2148 0dd8 E8000000 		call	bufInitialise
 2148      00
 2149              	.LEHE86:
 2150 0ddd 894584   		movl	%eax, -124(%rbp)
 2151              	.LEHB87:
  81:testCore.cpp  **** 	CHECK_EQUAL(BUF_SUCCESS, status);
 2152              		.loc 3 81 0
 2153 0de0 E8000000 		call	_ZN8UnitTest11CurrentTest7DetailsEv
 2153      00
 2154 0de5 488B08   		movq	(%rax), %rcx
 2155 0de8 488D45B0 		leaq	-80(%rbp), %rax
 2156 0dec BA510000 		movl	$81, %edx
 2156      00
 2157 0df1 4889CE   		movq	%rcx, %rsi
 2158 0df4 4889C7   		movq	%rax, %rdi
 2159 0df7 E8000000 		call	_ZN8UnitTest11TestDetailsC1ERKS0_i
 2159      00
 2160              		.loc 3 81 0 is_stmt 0 discriminator 2
 2161 0dfc C7458800 		movl	$0, -120(%rbp)
 2161      000000
 2162 0e03 E8000000 		call	_ZN8UnitTest11CurrentTest7ResultsEv
 2162      00
 2163 0e08 488B00   		movq	(%rax), %rax
 2164 0e0b 488D4DB0 		leaq	-80(%rbp), %rcx
 2165 0e0f 488D5584 		leaq	-124(%rbp), %rdx
 2166 0e13 488D7588 		leaq	-120(%rbp), %rsi
 2167 0e17 4889C7   		movq	%rax, %rdi
 2168 0e1a E8000000 		call	_ZN8UnitTest10CheckEqualI12BufferStatusS1_EEvRNS_11TestResultsERKT_RKT0_RKNS_11TestDetailsE
 2168      00
 2169              	.LEHE87:
 2170              	.L119:
  82:testCore.cpp  **** 
  83:testCore.cpp  **** 	const unsigned char expected[] = {1, 2, 3, 4, 5, 6, 7, 8, 9, 0, 0, 0, 0, 0, 0, 0};
 2171              		.loc 3 83 0 is_stmt 1
 2172 0e1f C645D001 		movb	$1, -48(%rbp)
 2173 0e23 C645D102 		movb	$2, -47(%rbp)
 2174 0e27 C645D203 		movb	$3, -46(%rbp)
 2175 0e2b C645D304 		movb	$4, -45(%rbp)
 2176 0e2f C645D405 		movb	$5, -44(%rbp)
 2177 0e33 C645D506 		movb	$6, -43(%rbp)
 2178 0e37 C645D607 		movb	$7, -42(%rbp)
 2179 0e3b C645D708 		movb	$8, -41(%rbp)
 2180 0e3f C645D809 		movb	$9, -40(%rbp)
 2181 0e43 C645D900 		movb	$0, -39(%rbp)
 2182 0e47 C645DA00 		movb	$0, -38(%rbp)
 2183 0e4b C645DB00 		movb	$0, -37(%rbp)
 2184 0e4f C645DC00 		movb	$0, -36(%rbp)
 2185 0e53 C645DD00 		movb	$0, -35(%rbp)
 2186 0e57 C645DE00 		movb	$0, -34(%rbp)
 2187 0e5b C645DF00 		movb	$0, -33(%rbp)
  84:testCore.cpp  **** 	status = bufAppendBlock(&buf, expected, 9, NULL);
 2188              		.loc 3 84 0
 2189 0e5f 488D75D0 		leaq	-48(%rbp), %rsi
 2190 0e63 488D4590 		leaq	-112(%rbp), %rax
 2191 0e67 B9000000 		movl	$0, %ecx
 2191      00
 2192 0e6c BA090000 		movl	$9, %edx
 2192      00
 2193 0e71 4889C7   		movq	%rax, %rdi
 2194              	.LEHB88:
 2195 0e74 E8000000 		call	bufAppendBlock
 2195      00
 2196              	.LEHE88:
 2197 0e79 894584   		movl	%eax, -124(%rbp)
 2198              	.LEHB89:
  85:testCore.cpp  **** 	CHECK_EQUAL(BUF_SUCCESS, status);
 2199              		.loc 3 85 0
 2200 0e7c E8000000 		call	_ZN8UnitTest11CurrentTest7DetailsEv
 2200      00
 2201 0e81 488B08   		movq	(%rax), %rcx
 2202 0e84 488D45B0 		leaq	-80(%rbp), %rax
 2203 0e88 BA550000 		movl	$85, %edx
 2203      00
 2204 0e8d 4889CE   		movq	%rcx, %rsi
 2205 0e90 4889C7   		movq	%rax, %rdi
 2206 0e93 E8000000 		call	_ZN8UnitTest11TestDetailsC1ERKS0_i
 2206      00
 2207              		.loc 3 85 0 is_stmt 0 discriminator 2
 2208 0e98 C7458800 		movl	$0, -120(%rbp)
 2208      000000
 2209 0e9f E8000000 		call	_ZN8UnitTest11CurrentTest7ResultsEv
 2209      00
 2210 0ea4 488B00   		movq	(%rax), %rax
 2211 0ea7 488D4DB0 		leaq	-80(%rbp), %rcx
 2212 0eab 488D5584 		leaq	-124(%rbp), %rdx
 2213 0eaf 488D7588 		leaq	-120(%rbp), %rsi
 2214 0eb3 4889C7   		movq	%rax, %rdi
 2215 0eb6 E8000000 		call	_ZN8UnitTest10CheckEqualI12BufferStatusS1_EEvRNS_11TestResultsERKT_RKT0_RKNS_11TestDetailsE
 2215      00
 2216              	.LEHE89:
 2217              	.L122:
 2218              	.LEHB90:
  86:testCore.cpp  **** 	CHECK_EQUAL(16UL, buf.capacity);
 2219              		.loc 3 86 0 is_stmt 1
 2220 0ebb E8000000 		call	_ZN8UnitTest11CurrentTest7DetailsEv
 2220      00
 2221 0ec0 488B08   		movq	(%rax), %rcx
 2222 0ec3 488D45B0 		leaq	-80(%rbp), %rax
 2223 0ec7 BA560000 		movl	$86, %edx
 2223      00
 2224 0ecc 4889CE   		movq	%rcx, %rsi
 2225 0ecf 4889C7   		movq	%rax, %rdi
 2226 0ed2 E8000000 		call	_ZN8UnitTest11TestDetailsC1ERKS0_i
 2226      00
 2227              		.loc 3 86 0 is_stmt 0 discriminator 2
 2228 0ed7 48C74588 		movq	$16, -120(%rbp)
 2228      10000000 
 2229 0edf E8000000 		call	_ZN8UnitTest11CurrentTest7ResultsEv
 2229      00
 2230 0ee4 488B00   		movq	(%rax), %rax
 2231 0ee7 488D55B0 		leaq	-80(%rbp), %rdx
 2232 0eeb 488D4D90 		leaq	-112(%rbp), %rcx
 2233 0eef 488D790C 		leaq	12(%rcx), %rdi
 2234 0ef3 488D7588 		leaq	-120(%rbp), %rsi
 2235 0ef7 4889D1   		movq	%rdx, %rcx
 2236 0efa 4889FA   		movq	%rdi, %rdx
 2237 0efd 4889C7   		movq	%rax, %rdi
 2238 0f00 E8000000 		call	_ZN8UnitTest10CheckEqualImjEEvRNS_11TestResultsERKT_RKT0_RKNS_11TestDetailsE
 2238      00
 2239              	.LEHE90:
 2240              	.L125:
 2241              	.LEHB91:
  87:testCore.cpp  **** 	CHECK_EQUAL(9UL, buf.length);
 2242              		.loc 3 87 0 is_stmt 1
 2243 0f05 E8000000 		call	_ZN8UnitTest11CurrentTest7DetailsEv
 2243      00
 2244 0f0a 488B08   		movq	(%rax), %rcx
 2245 0f0d 488D45B0 		leaq	-80(%rbp), %rax
 2246 0f11 BA570000 		movl	$87, %edx
 2246      00
 2247 0f16 4889CE   		movq	%rcx, %rsi
 2248 0f19 4889C7   		movq	%rax, %rdi
 2249 0f1c E8000000 		call	_ZN8UnitTest11TestDetailsC1ERKS0_i
 2249      00
 2250              		.loc 3 87 0 is_stmt 0 discriminator 2
 2251 0f21 48C74588 		movq	$9, -120(%rbp)
 2251      09000000 
 2252 0f29 E8000000 		call	_ZN8UnitTest11CurrentTest7ResultsEv
 2252      00
 2253 0f2e 488B00   		movq	(%rax), %rax
 2254 0f31 488D55B0 		leaq	-80(%rbp), %rdx
 2255 0f35 488D4D90 		leaq	-112(%rbp), %rcx
 2256 0f39 488D7908 		leaq	8(%rcx), %rdi
 2257 0f3d 488D7588 		leaq	-120(%rbp), %rsi
 2258 0f41 4889D1   		movq	%rdx, %rcx
 2259 0f44 4889FA   		movq	%rdi, %rdx
 2260 0f47 4889C7   		movq	%rax, %rdi
 2261 0f4a E8000000 		call	_ZN8UnitTest10CheckEqualImjEEvRNS_11TestResultsERKT_RKT0_RKNS_11TestDetailsE
 2261      00
 2262              	.LEHE91:
 2263              	.L128:
 2264              	.LEHB92:
  88:testCore.cpp  **** 	CHECK_ARRAY_EQUAL(expected, buf.data, 16);
 2265              		.loc 3 88 0 is_stmt 1
 2266 0f4f E8000000 		call	_ZN8UnitTest11CurrentTest7DetailsEv
 2266      00
 2267 0f54 488B08   		movq	(%rax), %rcx
 2268 0f57 488D45B0 		leaq	-80(%rbp), %rax
 2269 0f5b BA580000 		movl	$88, %edx
 2269      00
 2270 0f60 4889CE   		movq	%rcx, %rsi
 2271 0f63 4889C7   		movq	%rax, %rdi
 2272 0f66 E8000000 		call	_ZN8UnitTest11TestDetailsC1ERKS0_i
 2272      00
 2273              		.loc 3 88 0 is_stmt 0 discriminator 2
 2274 0f6b E8000000 		call	_ZN8UnitTest11CurrentTest7ResultsEv
 2274      00
 2275 0f70 488B00   		movq	(%rax), %rax
 2276 0f73 488D4DB0 		leaq	-80(%rbp), %rcx
 2277 0f77 488D5590 		leaq	-112(%rbp), %rdx
 2278 0f7b 488D75D0 		leaq	-48(%rbp), %rsi
 2279 0f7f 4989C8   		movq	%rcx, %r8
 2280 0f82 B9100000 		movl	$16, %ecx
 2280      00
 2281 0f87 4889C7   		movq	%rax, %rdi
 2282 0f8a E8000000 		call	_ZN8UnitTest15CheckArrayEqualIA16_hPhEEvRNS_11TestResultsERKT_RKT0_iRKNS_11TestDetailsE
 2282      00
 2283              	.LEHE92:
 2284              	.L131:
  89:testCore.cpp  **** 	bufDestroy(&buf);
 2285              		.loc 3 89 0 is_stmt 1
 2286 0f8f 488D4590 		leaq	-112(%rbp), %rax
 2287 0f93 4889C7   		movq	%rax, %rdi
 2288              	.LEHB93:
 2289 0f96 E8000000 		call	bufDestroy
 2289      00
 2290              	.LEHE93:
 2291              	.LBE17:
  90:testCore.cpp  **** }
 2292              		.loc 3 90 0
 2293 0f9b 488B45E8 		movq	-24(%rbp), %rax
 2294 0f9f 64483304 		xorq	%fs:40, %rax
 2294      25280000 
 2294      00
 2295 0fa8 0F84DB01 		je	.L132
 2295      0000
 2296 0fae E9D10100 		jmp	.L143
 2296      00
 2297              	.L134:
 2298 0fb3 4889C3   		movq	%rax, %rbx
 2299              	.LBB18:
  81:testCore.cpp  **** 
 2300              		.loc 3 81 0
 2301 0fb6 E8000000 		call	__cxa_end_catch
 2301      00
 2302 0fbb 4889D8   		movq	%rbx, %rax
 2303 0fbe 4889C7   		movq	%rax, %rdi
 2304              	.LEHB94:
 2305 0fc1 E8000000 		call	_Unwind_Resume
 2305      00
 2306              	.LEHE94:
 2307              	.L133:
 2308 0fc6 4889C7   		movq	%rax, %rdi
 2309 0fc9 E8000000 		call	__cxa_begin_catch
 2309      00
 2310              	.LEHB95:
 2311 0fce E8000000 		call	_ZN8UnitTest11CurrentTest7DetailsEv
 2311      00
 2312 0fd3 488B08   		movq	(%rax), %rcx
 2313 0fd6 488D45B0 		leaq	-80(%rbp), %rax
 2314 0fda BA510000 		movl	$81, %edx
 2314      00
 2315 0fdf 4889CE   		movq	%rcx, %rsi
 2316 0fe2 4889C7   		movq	%rax, %rdi
 2317 0fe5 E8000000 		call	_ZN8UnitTest11TestDetailsC1ERKS0_i
 2317      00
  81:testCore.cpp  **** 
 2318              		.loc 3 81 0 is_stmt 0 discriminator 10
 2319 0fea E8000000 		call	_ZN8UnitTest11CurrentTest7ResultsEv
 2319      00
 2320 0fef 488B00   		movq	(%rax), %rax
 2321 0ff2 488D4DB0 		leaq	-80(%rbp), %rcx
 2322 0ff6 BA000000 		movl	$.LC3, %edx
 2322      00
 2323 0ffb 4889CE   		movq	%rcx, %rsi
 2324 0ffe 4889C7   		movq	%rax, %rdi
 2325 1001 E8000000 		call	_ZN8UnitTest11TestResults13OnTestFailureERKNS_11TestDetailsEPKc
 2325      00
 2326              	.LEHE95:
 2327              	.LEHB96:
  81:testCore.cpp  **** 
 2328              		.loc 3 81 0 discriminator 14
 2329 1006 E8000000 		call	__cxa_end_catch
 2329      00
 2330              	.LEHE96:
 2331 100b E90FFEFF 		jmp	.L119
 2331      FF
 2332              	.L136:
 2333 1010 4889C3   		movq	%rax, %rbx
  85:testCore.cpp  **** 	CHECK_EQUAL(16UL, buf.capacity);
 2334              		.loc 3 85 0 is_stmt 1
 2335 1013 E8000000 		call	__cxa_end_catch
 2335      00
 2336 1018 4889D8   		movq	%rbx, %rax
 2337 101b 4889C7   		movq	%rax, %rdi
 2338              	.LEHB97:
 2339 101e E8000000 		call	_Unwind_Resume
 2339      00
 2340              	.LEHE97:
 2341              	.L135:
 2342 1023 4889C7   		movq	%rax, %rdi
 2343 1026 E8000000 		call	__cxa_begin_catch
 2343      00
 2344              	.LEHB98:
 2345 102b E8000000 		call	_ZN8UnitTest11CurrentTest7DetailsEv
 2345      00
 2346 1030 488B08   		movq	(%rax), %rcx
 2347 1033 488D45B0 		leaq	-80(%rbp), %rax
 2348 1037 BA550000 		movl	$85, %edx
 2348      00
 2349 103c 4889CE   		movq	%rcx, %rsi
 2350 103f 4889C7   		movq	%rax, %rdi
 2351 1042 E8000000 		call	_ZN8UnitTest11TestDetailsC1ERKS0_i
 2351      00
  85:testCore.cpp  **** 	CHECK_EQUAL(16UL, buf.capacity);
 2352              		.loc 3 85 0 is_stmt 0 discriminator 10
 2353 1047 E8000000 		call	_ZN8UnitTest11CurrentTest7ResultsEv
 2353      00
 2354 104c 488B00   		movq	(%rax), %rax
 2355 104f 488D4DB0 		leaq	-80(%rbp), %rcx
 2356 1053 BA000000 		movl	$.LC3, %edx
 2356      00
 2357 1058 4889CE   		movq	%rcx, %rsi
 2358 105b 4889C7   		movq	%rax, %rdi
 2359 105e E8000000 		call	_ZN8UnitTest11TestResults13OnTestFailureERKNS_11TestDetailsEPKc
 2359      00
 2360              	.LEHE98:
 2361              	.LEHB99:
  85:testCore.cpp  **** 	CHECK_EQUAL(16UL, buf.capacity);
 2362              		.loc 3 85 0 discriminator 14
 2363 1063 E8000000 		call	__cxa_end_catch
 2363      00
 2364              	.LEHE99:
 2365 1068 E94EFEFF 		jmp	.L122
 2365      FF
 2366              	.L138:
 2367 106d 4889C3   		movq	%rax, %rbx
  86:testCore.cpp  **** 	CHECK_EQUAL(9UL, buf.length);
 2368              		.loc 3 86 0 is_stmt 1
 2369 1070 E8000000 		call	__cxa_end_catch
 2369      00
 2370 1075 4889D8   		movq	%rbx, %rax
 2371 1078 4889C7   		movq	%rax, %rdi
 2372              	.LEHB100:
 2373 107b E8000000 		call	_Unwind_Resume
 2373      00
 2374              	.LEHE100:
 2375              	.L137:
 2376 1080 4889C7   		movq	%rax, %rdi
 2377 1083 E8000000 		call	__cxa_begin_catch
 2377      00
 2378              	.LEHB101:
 2379 1088 E8000000 		call	_ZN8UnitTest11CurrentTest7DetailsEv
 2379      00
 2380 108d 488B08   		movq	(%rax), %rcx
 2381 1090 488D45B0 		leaq	-80(%rbp), %rax
 2382 1094 BA560000 		movl	$86, %edx
 2382      00
 2383 1099 4889CE   		movq	%rcx, %rsi
 2384 109c 4889C7   		movq	%rax, %rdi
 2385 109f E8000000 		call	_ZN8UnitTest11TestDetailsC1ERKS0_i
 2385      00
  86:testCore.cpp  **** 	CHECK_EQUAL(9UL, buf.length);
 2386              		.loc 3 86 0 is_stmt 0 discriminator 10
 2387 10a4 E8000000 		call	_ZN8UnitTest11CurrentTest7ResultsEv
 2387      00
 2388 10a9 488B00   		movq	(%rax), %rax
 2389 10ac 488D4DB0 		leaq	-80(%rbp), %rcx
 2390 10b0 BA000000 		movl	$.LC13, %edx
 2390      00
 2391 10b5 4889CE   		movq	%rcx, %rsi
 2392 10b8 4889C7   		movq	%rax, %rdi
 2393 10bb E8000000 		call	_ZN8UnitTest11TestResults13OnTestFailureERKNS_11TestDetailsEPKc
 2393      00
 2394              	.LEHE101:
 2395              	.LEHB102:
  86:testCore.cpp  **** 	CHECK_EQUAL(9UL, buf.length);
 2396              		.loc 3 86 0 discriminator 14
 2397 10c0 E8000000 		call	__cxa_end_catch
 2397      00
 2398              	.LEHE102:
 2399 10c5 E93BFEFF 		jmp	.L125
 2399      FF
 2400              	.L140:
 2401 10ca 4889C3   		movq	%rax, %rbx
  87:testCore.cpp  **** 	CHECK_ARRAY_EQUAL(expected, buf.data, 16);
 2402              		.loc 3 87 0 is_stmt 1
 2403 10cd E8000000 		call	__cxa_end_catch
 2403      00
 2404 10d2 4889D8   		movq	%rbx, %rax
 2405 10d5 4889C7   		movq	%rax, %rdi
 2406              	.LEHB103:
 2407 10d8 E8000000 		call	_Unwind_Resume
 2407      00
 2408              	.LEHE103:
 2409              	.L139:
 2410 10dd 4889C7   		movq	%rax, %rdi
 2411 10e0 E8000000 		call	__cxa_begin_catch
 2411      00
 2412              	.LEHB104:
 2413 10e5 E8000000 		call	_ZN8UnitTest11CurrentTest7DetailsEv
 2413      00
 2414 10ea 488B08   		movq	(%rax), %rcx
 2415 10ed 488D45B0 		leaq	-80(%rbp), %rax
 2416 10f1 BA570000 		movl	$87, %edx
 2416      00
 2417 10f6 4889CE   		movq	%rcx, %rsi
 2418 10f9 4889C7   		movq	%rax, %rdi
 2419 10fc E8000000 		call	_ZN8UnitTest11TestDetailsC1ERKS0_i
 2419      00
  87:testCore.cpp  **** 	CHECK_ARRAY_EQUAL(expected, buf.data, 16);
 2420              		.loc 3 87 0 is_stmt 0 discriminator 10
 2421 1101 E8000000 		call	_ZN8UnitTest11CurrentTest7ResultsEv
 2421      00
 2422 1106 488B00   		movq	(%rax), %rax
 2423 1109 488D4DB0 		leaq	-80(%rbp), %rcx
 2424 110d BA000000 		movl	$.LC14, %edx
 2424      00
 2425 1112 4889CE   		movq	%rcx, %rsi
 2426 1115 4889C7   		movq	%rax, %rdi
 2427 1118 E8000000 		call	_ZN8UnitTest11TestResults13OnTestFailureERKNS_11TestDetailsEPKc
 2427      00
 2428              	.LEHE104:
 2429              	.LEHB105:
  87:testCore.cpp  **** 	CHECK_ARRAY_EQUAL(expected, buf.data, 16);
 2430              		.loc 3 87 0 discriminator 14
 2431 111d E8000000 		call	__cxa_end_catch
 2431      00
 2432              	.LEHE105:
 2433 1122 E928FEFF 		jmp	.L128
 2433      FF
 2434              	.L142:
 2435 1127 4889C3   		movq	%rax, %rbx
  88:testCore.cpp  **** 	bufDestroy(&buf);
 2436              		.loc 3 88 0 is_stmt 1
 2437 112a E8000000 		call	__cxa_end_catch
 2437      00
 2438 112f 4889D8   		movq	%rbx, %rax
 2439 1132 4889C7   		movq	%rax, %rdi
 2440              	.LEHB106:
 2441 1135 E8000000 		call	_Unwind_Resume
 2441      00
 2442              	.LEHE106:
 2443              	.L141:
 2444 113a 4889C7   		movq	%rax, %rdi
 2445 113d E8000000 		call	__cxa_begin_catch
 2445      00
 2446              	.LEHB107:
 2447 1142 E8000000 		call	_ZN8UnitTest11CurrentTest7DetailsEv
 2447      00
 2448 1147 488B08   		movq	(%rax), %rcx
 2449 114a 488D45B0 		leaq	-80(%rbp), %rax
 2450 114e BA580000 		movl	$88, %edx
 2450      00
 2451 1153 4889CE   		movq	%rcx, %rsi
 2452 1156 4889C7   		movq	%rax, %rdi
 2453 1159 E8000000 		call	_ZN8UnitTest11TestDetailsC1ERKS0_i
 2453      00
  88:testCore.cpp  **** 	bufDestroy(&buf);
 2454              		.loc 3 88 0 is_stmt 0 discriminator 10
 2455 115e E8000000 		call	_ZN8UnitTest11CurrentTest7ResultsEv
 2455      00
 2456 1163 488B00   		movq	(%rax), %rax
 2457 1166 488D4DB0 		leaq	-80(%rbp), %rcx
 2458 116a BA000000 		movl	$.LC6, %edx
 2458      00
 2459 116f 4889CE   		movq	%rcx, %rsi
 2460 1172 4889C7   		movq	%rax, %rdi
 2461 1175 E8000000 		call	_ZN8UnitTest11TestResults13OnTestFailureERKNS_11TestDetailsEPKc
 2461      00
 2462              	.LEHE107:
 2463              	.LEHB108:
  88:testCore.cpp  **** 	bufDestroy(&buf);
 2464              		.loc 3 88 0 discriminator 14
 2465 117a E8000000 		call	__cxa_end_catch
 2465      00
 2466              	.LEHE108:
 2467 117f E90BFEFF 		jmp	.L131
 2467      FF
 2468              	.L143:
 2469              	.LBE18:
 2470              		.loc 3 90 0 is_stmt 1
 2471 1184 E8000000 		call	__stack_chk_fail
 2471      00
 2472              	.L132:
 2473 1189 4881C488 		addq	$136, %rsp
 2473      000000
 2474 1190 5B       		popq	%rbx
 2475 1191 5D       		popq	%rbp
 2476              		.cfi_def_cfa 7, 8
 2477 1192 C3       		ret
 2478              		.cfi_endproc
 2479              	.LFE1088:
 2480              		.section	.gcc_except_table
 2481              		.align 4
 2482              	.LLSDA1088:
 2483 01e8 FF       		.byte	0xff
 2484 01e9 03       		.byte	0x3
 2485 01ea 8401     		.uleb128 .LLSDATT1088-.LLSDATTD1088
 2486              	.LLSDATTD1088:
 2487 01ec 01       		.byte	0x1
 2488 01ed 7B       		.uleb128 .LLSDACSE1088-.LLSDACSB1088
 2489              	.LLSDACSB1088:
 2490 01ee 38       		.uleb128 .LEHB86-.LFB1088
 2491 01ef 05       		.uleb128 .LEHE86-.LEHB86
 2492 01f0 00       		.uleb128 0
 2493 01f1 00       		.uleb128 0
 2494 01f2 40       		.uleb128 .LEHB87-.LFB1088
 2495 01f3 3F       		.uleb128 .LEHE87-.LEHB87
 2496 01f4 A604     		.uleb128 .L133-.LFB1088
 2497 01f6 01       		.uleb128 0x1
 2498 01f7 D401     		.uleb128 .LEHB88-.LFB1088
 2499 01f9 05       		.uleb128 .LEHE88-.LEHB88
 2500 01fa 00       		.uleb128 0
 2501 01fb 00       		.uleb128 0
 2502 01fc DC01     		.uleb128 .LEHB89-.LFB1088
 2503 01fe 3F       		.uleb128 .LEHE89-.LEHB89
 2504 01ff 8305     		.uleb128 .L135-.LFB1088
 2505 0201 01       		.uleb128 0x1
 2506 0202 9B02     		.uleb128 .LEHB90-.LFB1088
 2507 0204 4A       		.uleb128 .LEHE90-.LEHB90
 2508 0205 E005     		.uleb128 .L137-.LFB1088
 2509 0207 01       		.uleb128 0x1
 2510 0208 E502     		.uleb128 .LEHB91-.LFB1088
 2511 020a 4A       		.uleb128 .LEHE91-.LEHB91
 2512 020b BD06     		.uleb128 .L139-.LFB1088
 2513 020d 01       		.uleb128 0x1
 2514 020e AF03     		.uleb128 .LEHB92-.LFB1088
 2515 0210 40       		.uleb128 .LEHE92-.LEHB92
 2516 0211 9A07     		.uleb128 .L141-.LFB1088
 2517 0213 01       		.uleb128 0x1
 2518 0214 F603     		.uleb128 .LEHB93-.LFB1088
 2519 0216 05       		.uleb128 .LEHE93-.LEHB93
 2520 0217 00       		.uleb128 0
 2521 0218 00       		.uleb128 0
 2522 0219 A104     		.uleb128 .LEHB94-.LFB1088
 2523 021b 05       		.uleb128 .LEHE94-.LEHB94
 2524 021c 00       		.uleb128 0
 2525 021d 00       		.uleb128 0
 2526 021e AE04     		.uleb128 .LEHB95-.LFB1088
 2527 0220 38       		.uleb128 .LEHE95-.LEHB95
 2528 0221 9304     		.uleb128 .L134-.LFB1088
 2529 0223 00       		.uleb128 0
 2530 0224 E604     		.uleb128 .LEHB96-.LFB1088
 2531 0226 05       		.uleb128 .LEHE96-.LEHB96
 2532 0227 00       		.uleb128 0
 2533 0228 00       		.uleb128 0
 2534 0229 FE04     		.uleb128 .LEHB97-.LFB1088
 2535 022b 05       		.uleb128 .LEHE97-.LEHB97
 2536 022c 00       		.uleb128 0
 2537 022d 00       		.uleb128 0
 2538 022e 8B05     		.uleb128 .LEHB98-.LFB1088
 2539 0230 38       		.uleb128 .LEHE98-.LEHB98
 2540 0231 F004     		.uleb128 .L136-.LFB1088
 2541 0233 00       		.uleb128 0
 2542 0234 C305     		.uleb128 .LEHB99-.LFB1088
 2543 0236 05       		.uleb128 .LEHE99-.LEHB99
 2544 0237 00       		.uleb128 0
 2545 0238 00       		.uleb128 0
 2546 0239 DB05     		.uleb128 .LEHB100-.LFB1088
 2547 023b 05       		.uleb128 .LEHE100-.LEHB100
 2548 023c 00       		.uleb128 0
 2549 023d 00       		.uleb128 0
 2550 023e E805     		.uleb128 .LEHB101-.LFB1088
 2551 0240 38       		.uleb128 .LEHE101-.LEHB101
 2552 0241 CD05     		.uleb128 .L138-.LFB1088
 2553 0243 00       		.uleb128 0
 2554 0244 A006     		.uleb128 .LEHB102-.LFB1088
 2555 0246 05       		.uleb128 .LEHE102-.LEHB102
 2556 0247 00       		.uleb128 0
 2557 0248 00       		.uleb128 0
 2558 0249 B806     		.uleb128 .LEHB103-.LFB1088
 2559 024b 05       		.uleb128 .LEHE103-.LEHB103
 2560 024c 00       		.uleb128 0
 2561 024d 00       		.uleb128 0
 2562 024e C506     		.uleb128 .LEHB104-.LFB1088
 2563 0250 38       		.uleb128 .LEHE104-.LEHB104
 2564 0251 AA06     		.uleb128 .L140-.LFB1088
 2565 0253 00       		.uleb128 0
 2566 0254 FD06     		.uleb128 .LEHB105-.LFB1088
 2567 0256 05       		.uleb128 .LEHE105-.LEHB105
 2568 0257 00       		.uleb128 0
 2569 0258 00       		.uleb128 0
 2570 0259 9507     		.uleb128 .LEHB106-.LFB1088
 2571 025b 05       		.uleb128 .LEHE106-.LEHB106
 2572 025c 00       		.uleb128 0
 2573 025d 00       		.uleb128 0
 2574 025e A207     		.uleb128 .LEHB107-.LFB1088
 2575 0260 38       		.uleb128 .LEHE107-.LEHB107
 2576 0261 8707     		.uleb128 .L142-.LFB1088
 2577 0263 00       		.uleb128 0
 2578 0264 DA07     		.uleb128 .LEHB108-.LFB1088
 2579 0266 05       		.uleb128 .LEHE108-.LEHB108
 2580 0267 00       		.uleb128 0
 2581 0268 00       		.uleb128 0
 2582              	.LLSDACSE1088:
 2583 0269 01       		.byte	0x1
 2584 026a 00       		.byte	0
 2585 026b 00       		.align 4
 2586 026c 00000000 		.long	0
 2587              	
 2588              	.LLSDATT1088:
 2589              		.text
 2591              		.section	.rodata
 2592 0264 00000000 		.align 8
 2593              	.LC15:
 2594 0268 436F7265 		.string	"Core_testVeryLargeAppendBlockInitZero"
 2594      5F746573 
 2594      74566572 
 2594      794C6172 
 2594      67654170 
 2595              		.section	.text._ZN41TestCore_testVeryLargeAppendBlockInitZeroC2Ev,"axG",@progbits,_ZN41TestCore_te
 2596              		.align 2
 2597              		.weak	_ZN41TestCore_testVeryLargeAppendBlockInitZeroC2Ev
 2599              	_ZN41TestCore_testVeryLargeAppendBlockInitZeroC2Ev:
 2600              	.LFB1090:
  91:testCore.cpp  **** 
  92:testCore.cpp  **** TEST(Core_testVeryLargeAppendBlockInitZero) {
 2601              		.loc 3 92 0
 2602              		.cfi_startproc
 2603 0000 55       		pushq	%rbp
 2604              		.cfi_def_cfa_offset 16
 2605              		.cfi_offset 6, -16
 2606 0001 4889E5   		movq	%rsp, %rbp
 2607              		.cfi_def_cfa_register 6
 2608 0004 4883EC10 		subq	$16, %rsp
 2609 0008 48897DF8 		movq	%rdi, -8(%rbp)
 2610              	.LBB19:
 2611              		.loc 3 92 0
 2612 000c E8000000 		call	_ZN13UnitTestSuite12GetSuiteNameEv
 2612      00
 2613 0011 4889C2   		movq	%rax, %rdx
 2614 0014 488B45F8 		movq	-8(%rbp), %rax
 2615 0018 41B85C00 		movl	$92, %r8d
 2615      0000
 2616 001e B9000000 		movl	$.LC1, %ecx
 2616      00
 2617 0023 BE000000 		movl	$.LC15, %esi
 2617      00
 2618 0028 4889C7   		movq	%rax, %rdi
 2619 002b E8000000 		call	_ZN8UnitTest4TestC2EPKcS2_S2_i
 2619      00
 2620 0030 488B45F8 		movq	-8(%rbp), %rax
 2621 0034 48C70000 		movq	$_ZTV41TestCore_testVeryLargeAppendBlockInitZero+16, (%rax)
 2621      000000
 2622              	.LBE19:
 2623 003b C9       		leave
 2624              		.cfi_def_cfa 7, 8
 2625 003c C3       		ret
 2626              		.cfi_endproc
 2627              	.LFE1090:
 2629              		.weak	_ZN41TestCore_testVeryLargeAppendBlockInitZeroC1Ev
 2630              		.set	_ZN41TestCore_testVeryLargeAppendBlockInitZeroC1Ev,_ZN41TestCore_testVeryLargeAppendBlockInit
 2631              		.globl	testCore_testVeryLargeAppendBlockInitZeroInstance
 2632              		.bss
 2633 0139 00000000 		.align 32
 2633      000000
 2636              	testCore_testVeryLargeAppendBlockInitZeroInstance:
 2637 0140 00000000 		.zero	56
 2637      00000000 
 2637      00000000 
 2637      00000000 
 2637      00000000 
 2638              		.globl	adderCore_testVeryLargeAppendBlockInitZero
 2641              	adderCore_testVeryLargeAppendBlockInitZero:
 2642 0178 00       		.zero	1
 2643              		.text
 2644 1193 90       		.align 2
 2645              		.globl	_ZNK41TestCore_testVeryLargeAppendBlockInitZero7RunImplEv
 2647              	_ZNK41TestCore_testVeryLargeAppendBlockInitZero7RunImplEv:
 2648              	.LFB1092:
 2649              		.loc 3 92 0
 2650              		.cfi_startproc
 2651              		.cfi_personality 0x3,__gxx_personality_v0
 2652              		.cfi_lsda 0x3,.LLSDA1092
 2653 1194 55       		pushq	%rbp
 2654              		.cfi_def_cfa_offset 16
 2655              		.cfi_offset 6, -16
 2656 1195 4889E5   		movq	%rsp, %rbp
 2657              		.cfi_def_cfa_register 6
 2658 1198 53       		pushq	%rbx
 2659 1199 4881EC88 		subq	$136, %rsp
 2659      000000
 2660              		.cfi_offset 3, -24
 2661 11a0 4889BD78 		movq	%rdi, -136(%rbp)
 2661      FFFFFF
 2662              		.loc 3 92 0
 2663 11a7 64488B04 		movq	%fs:40, %rax
 2663      25280000 
 2663      00
 2664 11b0 488945E8 		movq	%rax, -24(%rbp)
 2665 11b4 31C0     		xorl	%eax, %eax
 2666              	.LBB20:
  93:testCore.cpp  **** 	Buffer buf;
  94:testCore.cpp  **** 	BufferStatus status;
  95:testCore.cpp  **** 
  96:testCore.cpp  **** 	status = bufInitialise(&buf, 4, 0, NULL);
 2667              		.loc 3 96 0
 2668 11b6 488D4590 		leaq	-112(%rbp), %rax
 2669 11ba B9000000 		movl	$0, %ecx
 2669      00
 2670 11bf BA000000 		movl	$0, %edx
 2670      00
 2671 11c4 BE040000 		movl	$4, %esi
 2671      00
 2672 11c9 4889C7   		movq	%rax, %rdi
 2673              	.LEHB109:
 2674 11cc E8000000 		call	bufInitialise
 2674      00
 2675              	.LEHE109:
 2676 11d1 894584   		movl	%eax, -124(%rbp)
 2677              	.LEHB110:
  97:testCore.cpp  **** 	CHECK_EQUAL(BUF_SUCCESS, status);
 2678              		.loc 3 97 0
 2679 11d4 E8000000 		call	_ZN8UnitTest11CurrentTest7DetailsEv
 2679      00
 2680 11d9 488B08   		movq	(%rax), %rcx
 2681 11dc 488D45B0 		leaq	-80(%rbp), %rax
 2682 11e0 BA610000 		movl	$97, %edx
 2682      00
 2683 11e5 4889CE   		movq	%rcx, %rsi
 2684 11e8 4889C7   		movq	%rax, %rdi
 2685 11eb E8000000 		call	_ZN8UnitTest11TestDetailsC1ERKS0_i
 2685      00
 2686              		.loc 3 97 0 is_stmt 0 discriminator 2
 2687 11f0 C7458800 		movl	$0, -120(%rbp)
 2687      000000
 2688 11f7 E8000000 		call	_ZN8UnitTest11CurrentTest7ResultsEv
 2688      00
 2689 11fc 488B00   		movq	(%rax), %rax
 2690 11ff 488D4DB0 		leaq	-80(%rbp), %rcx
 2691 1203 488D5584 		leaq	-124(%rbp), %rdx
 2692 1207 488D7588 		leaq	-120(%rbp), %rsi
 2693 120b 4889C7   		movq	%rax, %rdi
 2694 120e E8000000 		call	_ZN8UnitTest10CheckEqualI12BufferStatusS1_EEvRNS_11TestResultsERKT_RKT0_RKNS_11TestDetailsE
 2694      00
 2695              	.LEHE110:
 2696              	.L148:
  98:testCore.cpp  **** 
  99:testCore.cpp  **** 	const unsigned char expected[] = {1, 2, 3, 4, 5, 6, 7, 8, 9, 0, 0, 0, 0, 0, 0, 0};
 2697              		.loc 3 99 0 is_stmt 1
 2698 1213 C645D001 		movb	$1, -48(%rbp)
 2699 1217 C645D102 		movb	$2, -47(%rbp)
 2700 121b C645D203 		movb	$3, -46(%rbp)
 2701 121f C645D304 		movb	$4, -45(%rbp)
 2702 1223 C645D405 		movb	$5, -44(%rbp)
 2703 1227 C645D506 		movb	$6, -43(%rbp)
 2704 122b C645D607 		movb	$7, -42(%rbp)
 2705 122f C645D708 		movb	$8, -41(%rbp)
 2706 1233 C645D809 		movb	$9, -40(%rbp)
 2707 1237 C645D900 		movb	$0, -39(%rbp)
 2708 123b C645DA00 		movb	$0, -38(%rbp)
 2709 123f C645DB00 		movb	$0, -37(%rbp)
 2710 1243 C645DC00 		movb	$0, -36(%rbp)
 2711 1247 C645DD00 		movb	$0, -35(%rbp)
 2712 124b C645DE00 		movb	$0, -34(%rbp)
 2713 124f C645DF00 		movb	$0, -33(%rbp)
 100:testCore.cpp  **** 	status = bufAppendBlock(&buf, expected, 9, NULL);
 2714              		.loc 3 100 0
 2715 1253 488D75D0 		leaq	-48(%rbp), %rsi
 2716 1257 488D4590 		leaq	-112(%rbp), %rax
 2717 125b B9000000 		movl	$0, %ecx
 2717      00
 2718 1260 BA090000 		movl	$9, %edx
 2718      00
 2719 1265 4889C7   		movq	%rax, %rdi
 2720              	.LEHB111:
 2721 1268 E8000000 		call	bufAppendBlock
 2721      00
 2722              	.LEHE111:
 2723 126d 894584   		movl	%eax, -124(%rbp)
 2724              	.LEHB112:
 101:testCore.cpp  **** 	CHECK_EQUAL(BUF_SUCCESS, status);
 2725              		.loc 3 101 0
 2726 1270 E8000000 		call	_ZN8UnitTest11CurrentTest7DetailsEv
 2726      00
 2727 1275 488B08   		movq	(%rax), %rcx
 2728 1278 488D45B0 		leaq	-80(%rbp), %rax
 2729 127c BA650000 		movl	$101, %edx
 2729      00
 2730 1281 4889CE   		movq	%rcx, %rsi
 2731 1284 4889C7   		movq	%rax, %rdi
 2732 1287 E8000000 		call	_ZN8UnitTest11TestDetailsC1ERKS0_i
 2732      00
 2733              		.loc 3 101 0 is_stmt 0 discriminator 2
 2734 128c C7458800 		movl	$0, -120(%rbp)
 2734      000000
 2735 1293 E8000000 		call	_ZN8UnitTest11CurrentTest7ResultsEv
 2735      00
 2736 1298 488B00   		movq	(%rax), %rax
 2737 129b 488D4DB0 		leaq	-80(%rbp), %rcx
 2738 129f 488D5584 		leaq	-124(%rbp), %rdx
 2739 12a3 488D7588 		leaq	-120(%rbp), %rsi
 2740 12a7 4889C7   		movq	%rax, %rdi
 2741 12aa E8000000 		call	_ZN8UnitTest10CheckEqualI12BufferStatusS1_EEvRNS_11TestResultsERKT_RKT0_RKNS_11TestDetailsE
 2741      00
 2742              	.LEHE112:
 2743              	.L151:
 2744              	.LEHB113:
 102:testCore.cpp  **** 	CHECK_EQUAL(16UL, buf.capacity);
 2745              		.loc 3 102 0 is_stmt 1
 2746 12af E8000000 		call	_ZN8UnitTest11CurrentTest7DetailsEv
 2746      00
 2747 12b4 488B08   		movq	(%rax), %rcx
 2748 12b7 488D45B0 		leaq	-80(%rbp), %rax
 2749 12bb BA660000 		movl	$102, %edx
 2749      00
 2750 12c0 4889CE   		movq	%rcx, %rsi
 2751 12c3 4889C7   		movq	%rax, %rdi
 2752 12c6 E8000000 		call	_ZN8UnitTest11TestDetailsC1ERKS0_i
 2752      00
 2753              		.loc 3 102 0 is_stmt 0 discriminator 2
 2754 12cb 48C74588 		movq	$16, -120(%rbp)
 2754      10000000 
 2755 12d3 E8000000 		call	_ZN8UnitTest11CurrentTest7ResultsEv
 2755      00
 2756 12d8 488B00   		movq	(%rax), %rax
 2757 12db 488D55B0 		leaq	-80(%rbp), %rdx
 2758 12df 488D4D90 		leaq	-112(%rbp), %rcx
 2759 12e3 488D790C 		leaq	12(%rcx), %rdi
 2760 12e7 488D7588 		leaq	-120(%rbp), %rsi
 2761 12eb 4889D1   		movq	%rdx, %rcx
 2762 12ee 4889FA   		movq	%rdi, %rdx
 2763 12f1 4889C7   		movq	%rax, %rdi
 2764 12f4 E8000000 		call	_ZN8UnitTest10CheckEqualImjEEvRNS_11TestResultsERKT_RKT0_RKNS_11TestDetailsE
 2764      00
 2765              	.LEHE113:
 2766              	.L154:
 2767              	.LEHB114:
 103:testCore.cpp  **** 	CHECK_EQUAL(9UL, buf.length);
 2768              		.loc 3 103 0 is_stmt 1
 2769 12f9 E8000000 		call	_ZN8UnitTest11CurrentTest7DetailsEv
 2769      00
 2770 12fe 488B08   		movq	(%rax), %rcx
 2771 1301 488D45B0 		leaq	-80(%rbp), %rax
 2772 1305 BA670000 		movl	$103, %edx
 2772      00
 2773 130a 4889CE   		movq	%rcx, %rsi
 2774 130d 4889C7   		movq	%rax, %rdi
 2775 1310 E8000000 		call	_ZN8UnitTest11TestDetailsC1ERKS0_i
 2775      00
 2776              		.loc 3 103 0 is_stmt 0 discriminator 2
 2777 1315 48C74588 		movq	$9, -120(%rbp)
 2777      09000000 
 2778 131d E8000000 		call	_ZN8UnitTest11CurrentTest7ResultsEv
 2778      00
 2779 1322 488B00   		movq	(%rax), %rax
 2780 1325 488D55B0 		leaq	-80(%rbp), %rdx
 2781 1329 488D4D90 		leaq	-112(%rbp), %rcx
 2782 132d 488D7908 		leaq	8(%rcx), %rdi
 2783 1331 488D7588 		leaq	-120(%rbp), %rsi
 2784 1335 4889D1   		movq	%rdx, %rcx
 2785 1338 4889FA   		movq	%rdi, %rdx
 2786 133b 4889C7   		movq	%rax, %rdi
 2787 133e E8000000 		call	_ZN8UnitTest10CheckEqualImjEEvRNS_11TestResultsERKT_RKT0_RKNS_11TestDetailsE
 2787      00
 2788              	.LEHE114:
 2789              	.L157:
 2790              	.LEHB115:
 104:testCore.cpp  **** 	CHECK_ARRAY_EQUAL(expected, buf.data, 16);
 2791              		.loc 3 104 0 is_stmt 1
 2792 1343 E8000000 		call	_ZN8UnitTest11CurrentTest7DetailsEv
 2792      00
 2793 1348 488B08   		movq	(%rax), %rcx
 2794 134b 488D45B0 		leaq	-80(%rbp), %rax
 2795 134f BA680000 		movl	$104, %edx
 2795      00
 2796 1354 4889CE   		movq	%rcx, %rsi
 2797 1357 4889C7   		movq	%rax, %rdi
 2798 135a E8000000 		call	_ZN8UnitTest11TestDetailsC1ERKS0_i
 2798      00
 2799              		.loc 3 104 0 is_stmt 0 discriminator 2
 2800 135f E8000000 		call	_ZN8UnitTest11CurrentTest7ResultsEv
 2800      00
 2801 1364 488B00   		movq	(%rax), %rax
 2802 1367 488D4DB0 		leaq	-80(%rbp), %rcx
 2803 136b 488D5590 		leaq	-112(%rbp), %rdx
 2804 136f 488D75D0 		leaq	-48(%rbp), %rsi
 2805 1373 4989C8   		movq	%rcx, %r8
 2806 1376 B9100000 		movl	$16, %ecx
 2806      00
 2807 137b 4889C7   		movq	%rax, %rdi
 2808 137e E8000000 		call	_ZN8UnitTest15CheckArrayEqualIA16_hPhEEvRNS_11TestResultsERKT_RKT0_iRKNS_11TestDetailsE
 2808      00
 2809              	.LEHE115:
 2810              	.L160:
 105:testCore.cpp  **** 	bufDestroy(&buf);
 2811              		.loc 3 105 0 is_stmt 1
 2812 1383 488D4590 		leaq	-112(%rbp), %rax
 2813 1387 4889C7   		movq	%rax, %rdi
 2814              	.LEHB116:
 2815 138a E8000000 		call	bufDestroy
 2815      00
 2816              	.LEHE116:
 2817              	.LBE20:
 106:testCore.cpp  **** }
 2818              		.loc 3 106 0
 2819 138f 488B45E8 		movq	-24(%rbp), %rax
 2820 1393 64483304 		xorq	%fs:40, %rax
 2820      25280000 
 2820      00
 2821 139c 0F84DB01 		je	.L161
 2821      0000
 2822 13a2 E9D10100 		jmp	.L172
 2822      00
 2823              	.L163:
 2824 13a7 4889C3   		movq	%rax, %rbx
 2825              	.LBB21:
  97:testCore.cpp  **** 
 2826              		.loc 3 97 0
 2827 13aa E8000000 		call	__cxa_end_catch
 2827      00
 2828 13af 4889D8   		movq	%rbx, %rax
 2829 13b2 4889C7   		movq	%rax, %rdi
 2830              	.LEHB117:
 2831 13b5 E8000000 		call	_Unwind_Resume
 2831      00
 2832              	.LEHE117:
 2833              	.L162:
 2834 13ba 4889C7   		movq	%rax, %rdi
 2835 13bd E8000000 		call	__cxa_begin_catch
 2835      00
 2836              	.LEHB118:
 2837 13c2 E8000000 		call	_ZN8UnitTest11CurrentTest7DetailsEv
 2837      00
 2838 13c7 488B08   		movq	(%rax), %rcx
 2839 13ca 488D45B0 		leaq	-80(%rbp), %rax
 2840 13ce BA610000 		movl	$97, %edx
 2840      00
 2841 13d3 4889CE   		movq	%rcx, %rsi
 2842 13d6 4889C7   		movq	%rax, %rdi
 2843 13d9 E8000000 		call	_ZN8UnitTest11TestDetailsC1ERKS0_i
 2843      00
  97:testCore.cpp  **** 
 2844              		.loc 3 97 0 is_stmt 0 discriminator 10
 2845 13de E8000000 		call	_ZN8UnitTest11CurrentTest7ResultsEv
 2845      00
 2846 13e3 488B00   		movq	(%rax), %rax
 2847 13e6 488D4DB0 		leaq	-80(%rbp), %rcx
 2848 13ea BA000000 		movl	$.LC3, %edx
 2848      00
 2849 13ef 4889CE   		movq	%rcx, %rsi
 2850 13f2 4889C7   		movq	%rax, %rdi
 2851 13f5 E8000000 		call	_ZN8UnitTest11TestResults13OnTestFailureERKNS_11TestDetailsEPKc
 2851      00
 2852              	.LEHE118:
 2853              	.LEHB119:
  97:testCore.cpp  **** 
 2854              		.loc 3 97 0 discriminator 14
 2855 13fa E8000000 		call	__cxa_end_catch
 2855      00
 2856              	.LEHE119:
 2857 13ff E90FFEFF 		jmp	.L148
 2857      FF
 2858              	.L165:
 2859 1404 4889C3   		movq	%rax, %rbx
 101:testCore.cpp  **** 	CHECK_EQUAL(16UL, buf.capacity);
 2860              		.loc 3 101 0 is_stmt 1
 2861 1407 E8000000 		call	__cxa_end_catch
 2861      00
 2862 140c 4889D8   		movq	%rbx, %rax
 2863 140f 4889C7   		movq	%rax, %rdi
 2864              	.LEHB120:
 2865 1412 E8000000 		call	_Unwind_Resume
 2865      00
 2866              	.LEHE120:
 2867              	.L164:
 2868 1417 4889C7   		movq	%rax, %rdi
 2869 141a E8000000 		call	__cxa_begin_catch
 2869      00
 2870              	.LEHB121:
 2871 141f E8000000 		call	_ZN8UnitTest11CurrentTest7DetailsEv
 2871      00
 2872 1424 488B08   		movq	(%rax), %rcx
 2873 1427 488D45B0 		leaq	-80(%rbp), %rax
 2874 142b BA650000 		movl	$101, %edx
 2874      00
 2875 1430 4889CE   		movq	%rcx, %rsi
 2876 1433 4889C7   		movq	%rax, %rdi
 2877 1436 E8000000 		call	_ZN8UnitTest11TestDetailsC1ERKS0_i
 2877      00
 101:testCore.cpp  **** 	CHECK_EQUAL(16UL, buf.capacity);
 2878              		.loc 3 101 0 is_stmt 0 discriminator 10
 2879 143b E8000000 		call	_ZN8UnitTest11CurrentTest7ResultsEv
 2879      00
 2880 1440 488B00   		movq	(%rax), %rax
 2881 1443 488D4DB0 		leaq	-80(%rbp), %rcx
 2882 1447 BA000000 		movl	$.LC3, %edx
 2882      00
 2883 144c 4889CE   		movq	%rcx, %rsi
 2884 144f 4889C7   		movq	%rax, %rdi
 2885 1452 E8000000 		call	_ZN8UnitTest11TestResults13OnTestFailureERKNS_11TestDetailsEPKc
 2885      00
 2886              	.LEHE121:
 2887              	.LEHB122:
 101:testCore.cpp  **** 	CHECK_EQUAL(16UL, buf.capacity);
 2888              		.loc 3 101 0 discriminator 14
 2889 1457 E8000000 		call	__cxa_end_catch
 2889      00
 2890              	.LEHE122:
 2891 145c E94EFEFF 		jmp	.L151
 2891      FF
 2892              	.L167:
 2893 1461 4889C3   		movq	%rax, %rbx
 102:testCore.cpp  **** 	CHECK_EQUAL(9UL, buf.length);
 2894              		.loc 3 102 0 is_stmt 1
 2895 1464 E8000000 		call	__cxa_end_catch
 2895      00
 2896 1469 4889D8   		movq	%rbx, %rax
 2897 146c 4889C7   		movq	%rax, %rdi
 2898              	.LEHB123:
 2899 146f E8000000 		call	_Unwind_Resume
 2899      00
 2900              	.LEHE123:
 2901              	.L166:
 2902 1474 4889C7   		movq	%rax, %rdi
 2903 1477 E8000000 		call	__cxa_begin_catch
 2903      00
 2904              	.LEHB124:
 2905 147c E8000000 		call	_ZN8UnitTest11CurrentTest7DetailsEv
 2905      00
 2906 1481 488B08   		movq	(%rax), %rcx
 2907 1484 488D45B0 		leaq	-80(%rbp), %rax
 2908 1488 BA660000 		movl	$102, %edx
 2908      00
 2909 148d 4889CE   		movq	%rcx, %rsi
 2910 1490 4889C7   		movq	%rax, %rdi
 2911 1493 E8000000 		call	_ZN8UnitTest11TestDetailsC1ERKS0_i
 2911      00
 102:testCore.cpp  **** 	CHECK_EQUAL(9UL, buf.length);
 2912              		.loc 3 102 0 is_stmt 0 discriminator 10
 2913 1498 E8000000 		call	_ZN8UnitTest11CurrentTest7ResultsEv
 2913      00
 2914 149d 488B00   		movq	(%rax), %rax
 2915 14a0 488D4DB0 		leaq	-80(%rbp), %rcx
 2916 14a4 BA000000 		movl	$.LC13, %edx
 2916      00
 2917 14a9 4889CE   		movq	%rcx, %rsi
 2918 14ac 4889C7   		movq	%rax, %rdi
 2919 14af E8000000 		call	_ZN8UnitTest11TestResults13OnTestFailureERKNS_11TestDetailsEPKc
 2919      00
 2920              	.LEHE124:
 2921              	.LEHB125:
 102:testCore.cpp  **** 	CHECK_EQUAL(9UL, buf.length);
 2922              		.loc 3 102 0 discriminator 14
 2923 14b4 E8000000 		call	__cxa_end_catch
 2923      00
 2924              	.LEHE125:
 2925 14b9 E93BFEFF 		jmp	.L154
 2925      FF
 2926              	.L169:
 2927 14be 4889C3   		movq	%rax, %rbx
 103:testCore.cpp  **** 	CHECK_ARRAY_EQUAL(expected, buf.data, 16);
 2928              		.loc 3 103 0 is_stmt 1
 2929 14c1 E8000000 		call	__cxa_end_catch
 2929      00
 2930 14c6 4889D8   		movq	%rbx, %rax
 2931 14c9 4889C7   		movq	%rax, %rdi
 2932              	.LEHB126:
 2933 14cc E8000000 		call	_Unwind_Resume
 2933      00
 2934              	.LEHE126:
 2935              	.L168:
 2936 14d1 4889C7   		movq	%rax, %rdi
 2937 14d4 E8000000 		call	__cxa_begin_catch
 2937      00
 2938              	.LEHB127:
 2939 14d9 E8000000 		call	_ZN8UnitTest11CurrentTest7DetailsEv
 2939      00
 2940 14de 488B08   		movq	(%rax), %rcx
 2941 14e1 488D45B0 		leaq	-80(%rbp), %rax
 2942 14e5 BA670000 		movl	$103, %edx
 2942      00
 2943 14ea 4889CE   		movq	%rcx, %rsi
 2944 14ed 4889C7   		movq	%rax, %rdi
 2945 14f0 E8000000 		call	_ZN8UnitTest11TestDetailsC1ERKS0_i
 2945      00
 103:testCore.cpp  **** 	CHECK_ARRAY_EQUAL(expected, buf.data, 16);
 2946              		.loc 3 103 0 is_stmt 0 discriminator 10
 2947 14f5 E8000000 		call	_ZN8UnitTest11CurrentTest7ResultsEv
 2947      00
 2948 14fa 488B00   		movq	(%rax), %rax
 2949 14fd 488D4DB0 		leaq	-80(%rbp), %rcx
 2950 1501 BA000000 		movl	$.LC14, %edx
 2950      00
 2951 1506 4889CE   		movq	%rcx, %rsi
 2952 1509 4889C7   		movq	%rax, %rdi
 2953 150c E8000000 		call	_ZN8UnitTest11TestResults13OnTestFailureERKNS_11TestDetailsEPKc
 2953      00
 2954              	.LEHE127:
 2955              	.LEHB128:
 103:testCore.cpp  **** 	CHECK_ARRAY_EQUAL(expected, buf.data, 16);
 2956              		.loc 3 103 0 discriminator 14
 2957 1511 E8000000 		call	__cxa_end_catch
 2957      00
 2958              	.LEHE128:
 2959 1516 E928FEFF 		jmp	.L157
 2959      FF
 2960              	.L171:
 2961 151b 4889C3   		movq	%rax, %rbx
 104:testCore.cpp  **** 	bufDestroy(&buf);
 2962              		.loc 3 104 0 is_stmt 1
 2963 151e E8000000 		call	__cxa_end_catch
 2963      00
 2964 1523 4889D8   		movq	%rbx, %rax
 2965 1526 4889C7   		movq	%rax, %rdi
 2966              	.LEHB129:
 2967 1529 E8000000 		call	_Unwind_Resume
 2967      00
 2968              	.LEHE129:
 2969              	.L170:
 2970 152e 4889C7   		movq	%rax, %rdi
 2971 1531 E8000000 		call	__cxa_begin_catch
 2971      00
 2972              	.LEHB130:
 2973 1536 E8000000 		call	_ZN8UnitTest11CurrentTest7DetailsEv
 2973      00
 2974 153b 488B08   		movq	(%rax), %rcx
 2975 153e 488D45B0 		leaq	-80(%rbp), %rax
 2976 1542 BA680000 		movl	$104, %edx
 2976      00
 2977 1547 4889CE   		movq	%rcx, %rsi
 2978 154a 4889C7   		movq	%rax, %rdi
 2979 154d E8000000 		call	_ZN8UnitTest11TestDetailsC1ERKS0_i
 2979      00
 104:testCore.cpp  **** 	bufDestroy(&buf);
 2980              		.loc 3 104 0 is_stmt 0 discriminator 10
 2981 1552 E8000000 		call	_ZN8UnitTest11CurrentTest7ResultsEv
 2981      00
 2982 1557 488B00   		movq	(%rax), %rax
 2983 155a 488D4DB0 		leaq	-80(%rbp), %rcx
 2984 155e BA000000 		movl	$.LC6, %edx
 2984      00
 2985 1563 4889CE   		movq	%rcx, %rsi
 2986 1566 4889C7   		movq	%rax, %rdi
 2987 1569 E8000000 		call	_ZN8UnitTest11TestResults13OnTestFailureERKNS_11TestDetailsEPKc
 2987      00
 2988              	.LEHE130:
 2989              	.LEHB131:
 104:testCore.cpp  **** 	bufDestroy(&buf);
 2990              		.loc 3 104 0 discriminator 14
 2991 156e E8000000 		call	__cxa_end_catch
 2991      00
 2992              	.LEHE131:
 2993 1573 E90BFEFF 		jmp	.L160
 2993      FF
 2994              	.L172:
 2995              	.LBE21:
 2996              		.loc 3 106 0 is_stmt 1
 2997 1578 E8000000 		call	__stack_chk_fail
 2997      00
 2998              	.L161:
 2999 157d 4881C488 		addq	$136, %rsp
 2999      000000
 3000 1584 5B       		popq	%rbx
 3001 1585 5D       		popq	%rbp
 3002              		.cfi_def_cfa 7, 8
 3003 1586 C3       		ret
 3004              		.cfi_endproc
 3005              	.LFE1092:
 3006              		.section	.gcc_except_table
 3007              		.align 4
 3008              	.LLSDA1092:
 3009 0270 FF       		.byte	0xff
 3010 0271 03       		.byte	0x3
 3011 0272 8401     		.uleb128 .LLSDATT1092-.LLSDATTD1092
 3012              	.LLSDATTD1092:
 3013 0274 01       		.byte	0x1
 3014 0275 7B       		.uleb128 .LLSDACSE1092-.LLSDACSB1092
 3015              	.LLSDACSB1092:
 3016 0276 38       		.uleb128 .LEHB109-.LFB1092
 3017 0277 05       		.uleb128 .LEHE109-.LEHB109
 3018 0278 00       		.uleb128 0
 3019 0279 00       		.uleb128 0
 3020 027a 40       		.uleb128 .LEHB110-.LFB1092
 3021 027b 3F       		.uleb128 .LEHE110-.LEHB110
 3022 027c A604     		.uleb128 .L162-.LFB1092
 3023 027e 01       		.uleb128 0x1
 3024 027f D401     		.uleb128 .LEHB111-.LFB1092
 3025 0281 05       		.uleb128 .LEHE111-.LEHB111
 3026 0282 00       		.uleb128 0
 3027 0283 00       		.uleb128 0
 3028 0284 DC01     		.uleb128 .LEHB112-.LFB1092
 3029 0286 3F       		.uleb128 .LEHE112-.LEHB112
 3030 0287 8305     		.uleb128 .L164-.LFB1092
 3031 0289 01       		.uleb128 0x1
 3032 028a 9B02     		.uleb128 .LEHB113-.LFB1092
 3033 028c 4A       		.uleb128 .LEHE113-.LEHB113
 3034 028d E005     		.uleb128 .L166-.LFB1092
 3035 028f 01       		.uleb128 0x1
 3036 0290 E502     		.uleb128 .LEHB114-.LFB1092
 3037 0292 4A       		.uleb128 .LEHE114-.LEHB114
 3038 0293 BD06     		.uleb128 .L168-.LFB1092
 3039 0295 01       		.uleb128 0x1
 3040 0296 AF03     		.uleb128 .LEHB115-.LFB1092
 3041 0298 40       		.uleb128 .LEHE115-.LEHB115
 3042 0299 9A07     		.uleb128 .L170-.LFB1092
 3043 029b 01       		.uleb128 0x1
 3044 029c F603     		.uleb128 .LEHB116-.LFB1092
 3045 029e 05       		.uleb128 .LEHE116-.LEHB116
 3046 029f 00       		.uleb128 0
 3047 02a0 00       		.uleb128 0
 3048 02a1 A104     		.uleb128 .LEHB117-.LFB1092
 3049 02a3 05       		.uleb128 .LEHE117-.LEHB117
 3050 02a4 00       		.uleb128 0
 3051 02a5 00       		.uleb128 0
 3052 02a6 AE04     		.uleb128 .LEHB118-.LFB1092
 3053 02a8 38       		.uleb128 .LEHE118-.LEHB118
 3054 02a9 9304     		.uleb128 .L163-.LFB1092
 3055 02ab 00       		.uleb128 0
 3056 02ac E604     		.uleb128 .LEHB119-.LFB1092
 3057 02ae 05       		.uleb128 .LEHE119-.LEHB119
 3058 02af 00       		.uleb128 0
 3059 02b0 00       		.uleb128 0
 3060 02b1 FE04     		.uleb128 .LEHB120-.LFB1092
 3061 02b3 05       		.uleb128 .LEHE120-.LEHB120
 3062 02b4 00       		.uleb128 0
 3063 02b5 00       		.uleb128 0
 3064 02b6 8B05     		.uleb128 .LEHB121-.LFB1092
 3065 02b8 38       		.uleb128 .LEHE121-.LEHB121
 3066 02b9 F004     		.uleb128 .L165-.LFB1092
 3067 02bb 00       		.uleb128 0
 3068 02bc C305     		.uleb128 .LEHB122-.LFB1092
 3069 02be 05       		.uleb128 .LEHE122-.LEHB122
 3070 02bf 00       		.uleb128 0
 3071 02c0 00       		.uleb128 0
 3072 02c1 DB05     		.uleb128 .LEHB123-.LFB1092
 3073 02c3 05       		.uleb128 .LEHE123-.LEHB123
 3074 02c4 00       		.uleb128 0
 3075 02c5 00       		.uleb128 0
 3076 02c6 E805     		.uleb128 .LEHB124-.LFB1092
 3077 02c8 38       		.uleb128 .LEHE124-.LEHB124
 3078 02c9 CD05     		.uleb128 .L167-.LFB1092
 3079 02cb 00       		.uleb128 0
 3080 02cc A006     		.uleb128 .LEHB125-.LFB1092
 3081 02ce 05       		.uleb128 .LEHE125-.LEHB125
 3082 02cf 00       		.uleb128 0
 3083 02d0 00       		.uleb128 0
 3084 02d1 B806     		.uleb128 .LEHB126-.LFB1092
 3085 02d3 05       		.uleb128 .LEHE126-.LEHB126
 3086 02d4 00       		.uleb128 0
 3087 02d5 00       		.uleb128 0
 3088 02d6 C506     		.uleb128 .LEHB127-.LFB1092
 3089 02d8 38       		.uleb128 .LEHE127-.LEHB127
 3090 02d9 AA06     		.uleb128 .L169-.LFB1092
 3091 02db 00       		.uleb128 0
 3092 02dc FD06     		.uleb128 .LEHB128-.LFB1092
 3093 02de 05       		.uleb128 .LEHE128-.LEHB128
 3094 02df 00       		.uleb128 0
 3095 02e0 00       		.uleb128 0
 3096 02e1 9507     		.uleb128 .LEHB129-.LFB1092
 3097 02e3 05       		.uleb128 .LEHE129-.LEHB129
 3098 02e4 00       		.uleb128 0
 3099 02e5 00       		.uleb128 0
 3100 02e6 A207     		.uleb128 .LEHB130-.LFB1092
 3101 02e8 38       		.uleb128 .LEHE130-.LEHB130
 3102 02e9 8707     		.uleb128 .L171-.LFB1092
 3103 02eb 00       		.uleb128 0
 3104 02ec DA07     		.uleb128 .LEHB131-.LFB1092
 3105 02ee 05       		.uleb128 .LEHE131-.LEHB131
 3106 02ef 00       		.uleb128 0
 3107 02f0 00       		.uleb128 0
 3108              	.LLSDACSE1092:
 3109 02f1 01       		.byte	0x1
 3110 02f2 00       		.byte	0
 3111 02f3 00       		.align 4
 3112 02f4 00000000 		.long	0
 3113              	
 3114              	.LLSDATT1092:
 3115              		.text
 3117              		.section	.rodata
 3118 028e 0000     		.align 8
 3119              	.LC16:
 3120 0290 436F7265 		.string	"Core_testVeryLargeAppendBlockInitFF"
 3120      5F746573 
 3120      74566572 
 3120      794C6172 
 3120      67654170 
 3121              		.section	.text._ZN39TestCore_testVeryLargeAppendBlockInitFFC2Ev,"axG",@progbits,_ZN39TestCore_test
 3122              		.align 2
 3123              		.weak	_ZN39TestCore_testVeryLargeAppendBlockInitFFC2Ev
 3125              	_ZN39TestCore_testVeryLargeAppendBlockInitFFC2Ev:
 3126              	.LFB1094:
 107:testCore.cpp  **** 
 108:testCore.cpp  **** TEST(Core_testVeryLargeAppendBlockInitFF) {
 3127              		.loc 3 108 0
 3128              		.cfi_startproc
 3129 0000 55       		pushq	%rbp
 3130              		.cfi_def_cfa_offset 16
 3131              		.cfi_offset 6, -16
 3132 0001 4889E5   		movq	%rsp, %rbp
 3133              		.cfi_def_cfa_register 6
 3134 0004 4883EC10 		subq	$16, %rsp
 3135 0008 48897DF8 		movq	%rdi, -8(%rbp)
 3136              	.LBB22:
 3137              		.loc 3 108 0
 3138 000c E8000000 		call	_ZN13UnitTestSuite12GetSuiteNameEv
 3138      00
 3139 0011 4889C2   		movq	%rax, %rdx
 3140 0014 488B45F8 		movq	-8(%rbp), %rax
 3141 0018 41B86C00 		movl	$108, %r8d
 3141      0000
 3142 001e B9000000 		movl	$.LC1, %ecx
 3142      00
 3143 0023 BE000000 		movl	$.LC16, %esi
 3143      00
 3144 0028 4889C7   		movq	%rax, %rdi
 3145 002b E8000000 		call	_ZN8UnitTest4TestC2EPKcS2_S2_i
 3145      00
 3146 0030 488B45F8 		movq	-8(%rbp), %rax
 3147 0034 48C70000 		movq	$_ZTV39TestCore_testVeryLargeAppendBlockInitFF+16, (%rax)
 3147      000000
 3148              	.LBE22:
 3149 003b C9       		leave
 3150              		.cfi_def_cfa 7, 8
 3151 003c C3       		ret
 3152              		.cfi_endproc
 3153              	.LFE1094:
 3155              		.weak	_ZN39TestCore_testVeryLargeAppendBlockInitFFC1Ev
 3156              		.set	_ZN39TestCore_testVeryLargeAppendBlockInitFFC1Ev,_ZN39TestCore_testVeryLargeAppendBlockInitFF
 3157              		.globl	testCore_testVeryLargeAppendBlockInitFFInstance
 3158              		.bss
 3159 0179 00000000 		.align 32
 3159      000000
 3162              	testCore_testVeryLargeAppendBlockInitFFInstance:
 3163 0180 00000000 		.zero	56
 3163      00000000 
 3163      00000000 
 3163      00000000 
 3163      00000000 
 3164              		.globl	adderCore_testVeryLargeAppendBlockInitFF
 3167              	adderCore_testVeryLargeAppendBlockInitFF:
 3168 01b8 00       		.zero	1
 3169              		.text
 3170 1587 90       		.align 2
 3171              		.globl	_ZNK39TestCore_testVeryLargeAppendBlockInitFF7RunImplEv
 3173              	_ZNK39TestCore_testVeryLargeAppendBlockInitFF7RunImplEv:
 3174              	.LFB1096:
 3175              		.loc 3 108 0
 3176              		.cfi_startproc
 3177              		.cfi_personality 0x3,__gxx_personality_v0
 3178              		.cfi_lsda 0x3,.LLSDA1096
 3179 1588 55       		pushq	%rbp
 3180              		.cfi_def_cfa_offset 16
 3181              		.cfi_offset 6, -16
 3182 1589 4889E5   		movq	%rsp, %rbp
 3183              		.cfi_def_cfa_register 6
 3184 158c 53       		pushq	%rbx
 3185 158d 4881EC88 		subq	$136, %rsp
 3185      000000
 3186              		.cfi_offset 3, -24
 3187 1594 4889BD78 		movq	%rdi, -136(%rbp)
 3187      FFFFFF
 3188              		.loc 3 108 0
 3189 159b 64488B04 		movq	%fs:40, %rax
 3189      25280000 
 3189      00
 3190 15a4 488945E8 		movq	%rax, -24(%rbp)
 3191 15a8 31C0     		xorl	%eax, %eax
 3192              	.LBB23:
 109:testCore.cpp  **** 	Buffer buf;
 110:testCore.cpp  **** 	BufferStatus status;
 111:testCore.cpp  **** 
 112:testCore.cpp  **** 	status = bufInitialise(&buf, 4, 0xFF, NULL);
 3193              		.loc 3 112 0
 3194 15aa 488D4590 		leaq	-112(%rbp), %rax
 3195 15ae B9000000 		movl	$0, %ecx
 3195      00
 3196 15b3 BAFF0000 		movl	$255, %edx
 3196      00
 3197 15b8 BE040000 		movl	$4, %esi
 3197      00
 3198 15bd 4889C7   		movq	%rax, %rdi
 3199              	.LEHB132:
 3200 15c0 E8000000 		call	bufInitialise
 3200      00
 3201              	.LEHE132:
 3202 15c5 894584   		movl	%eax, -124(%rbp)
 3203              	.LEHB133:
 113:testCore.cpp  **** 	CHECK_EQUAL(BUF_SUCCESS, status);
 3204              		.loc 3 113 0
 3205 15c8 E8000000 		call	_ZN8UnitTest11CurrentTest7DetailsEv
 3205      00
 3206 15cd 488B08   		movq	(%rax), %rcx
 3207 15d0 488D45B0 		leaq	-80(%rbp), %rax
 3208 15d4 BA710000 		movl	$113, %edx
 3208      00
 3209 15d9 4889CE   		movq	%rcx, %rsi
 3210 15dc 4889C7   		movq	%rax, %rdi
 3211 15df E8000000 		call	_ZN8UnitTest11TestDetailsC1ERKS0_i
 3211      00
 3212              		.loc 3 113 0 is_stmt 0 discriminator 2
 3213 15e4 C7458800 		movl	$0, -120(%rbp)
 3213      000000
 3214 15eb E8000000 		call	_ZN8UnitTest11CurrentTest7ResultsEv
 3214      00
 3215 15f0 488B00   		movq	(%rax), %rax
 3216 15f3 488D4DB0 		leaq	-80(%rbp), %rcx
 3217 15f7 488D5584 		leaq	-124(%rbp), %rdx
 3218 15fb 488D7588 		leaq	-120(%rbp), %rsi
 3219 15ff 4889C7   		movq	%rax, %rdi
 3220 1602 E8000000 		call	_ZN8UnitTest10CheckEqualI12BufferStatusS1_EEvRNS_11TestResultsERKT_RKT0_RKNS_11TestDetailsE
 3220      00
 3221              	.LEHE133:
 3222              	.L177:
 114:testCore.cpp  **** 
 115:testCore.cpp  **** 	const unsigned char expected[] = {1, 2, 3, 4, 5, 6, 7, 8, 9, 0xFF, 0xFF, 0xFF, 0xFF, 0xFF, 0xFF, 0
 3223              		.loc 3 115 0 is_stmt 1
 3224 1607 C645D001 		movb	$1, -48(%rbp)
 3225 160b C645D102 		movb	$2, -47(%rbp)
 3226 160f C645D203 		movb	$3, -46(%rbp)
 3227 1613 C645D304 		movb	$4, -45(%rbp)
 3228 1617 C645D405 		movb	$5, -44(%rbp)
 3229 161b C645D506 		movb	$6, -43(%rbp)
 3230 161f C645D607 		movb	$7, -42(%rbp)
 3231 1623 C645D708 		movb	$8, -41(%rbp)
 3232 1627 C645D809 		movb	$9, -40(%rbp)
 3233 162b C645D9FF 		movb	$-1, -39(%rbp)
 3234 162f C645DAFF 		movb	$-1, -38(%rbp)
 3235 1633 C645DBFF 		movb	$-1, -37(%rbp)
 3236 1637 C645DCFF 		movb	$-1, -36(%rbp)
 3237 163b C645DDFF 		movb	$-1, -35(%rbp)
 3238 163f C645DEFF 		movb	$-1, -34(%rbp)
 3239 1643 C645DFFF 		movb	$-1, -33(%rbp)
 116:testCore.cpp  **** 	status = bufAppendBlock(&buf, expected, 9, NULL);
 3240              		.loc 3 116 0
 3241 1647 488D75D0 		leaq	-48(%rbp), %rsi
 3242 164b 488D4590 		leaq	-112(%rbp), %rax
 3243 164f B9000000 		movl	$0, %ecx
 3243      00
 3244 1654 BA090000 		movl	$9, %edx
 3244      00
 3245 1659 4889C7   		movq	%rax, %rdi
 3246              	.LEHB134:
 3247 165c E8000000 		call	bufAppendBlock
 3247      00
 3248              	.LEHE134:
 3249 1661 894584   		movl	%eax, -124(%rbp)
 3250              	.LEHB135:
 117:testCore.cpp  **** 	CHECK_EQUAL(BUF_SUCCESS, status);
 3251              		.loc 3 117 0
 3252 1664 E8000000 		call	_ZN8UnitTest11CurrentTest7DetailsEv
 3252      00
 3253 1669 488B08   		movq	(%rax), %rcx
 3254 166c 488D45B0 		leaq	-80(%rbp), %rax
 3255 1670 BA750000 		movl	$117, %edx
 3255      00
 3256 1675 4889CE   		movq	%rcx, %rsi
 3257 1678 4889C7   		movq	%rax, %rdi
 3258 167b E8000000 		call	_ZN8UnitTest11TestDetailsC1ERKS0_i
 3258      00
 3259              		.loc 3 117 0 is_stmt 0 discriminator 2
 3260 1680 C7458800 		movl	$0, -120(%rbp)
 3260      000000
 3261 1687 E8000000 		call	_ZN8UnitTest11CurrentTest7ResultsEv
 3261      00
 3262 168c 488B00   		movq	(%rax), %rax
 3263 168f 488D4DB0 		leaq	-80(%rbp), %rcx
 3264 1693 488D5584 		leaq	-124(%rbp), %rdx
 3265 1697 488D7588 		leaq	-120(%rbp), %rsi
 3266 169b 4889C7   		movq	%rax, %rdi
 3267 169e E8000000 		call	_ZN8UnitTest10CheckEqualI12BufferStatusS1_EEvRNS_11TestResultsERKT_RKT0_RKNS_11TestDetailsE
 3267      00
 3268              	.LEHE135:
 3269              	.L180:
 3270              	.LEHB136:
 118:testCore.cpp  **** 	CHECK_EQUAL(16UL, buf.capacity);
 3271              		.loc 3 118 0 is_stmt 1
 3272 16a3 E8000000 		call	_ZN8UnitTest11CurrentTest7DetailsEv
 3272      00
 3273 16a8 488B08   		movq	(%rax), %rcx
 3274 16ab 488D45B0 		leaq	-80(%rbp), %rax
 3275 16af BA760000 		movl	$118, %edx
 3275      00
 3276 16b4 4889CE   		movq	%rcx, %rsi
 3277 16b7 4889C7   		movq	%rax, %rdi
 3278 16ba E8000000 		call	_ZN8UnitTest11TestDetailsC1ERKS0_i
 3278      00
 3279              		.loc 3 118 0 is_stmt 0 discriminator 2
 3280 16bf 48C74588 		movq	$16, -120(%rbp)
 3280      10000000 
 3281 16c7 E8000000 		call	_ZN8UnitTest11CurrentTest7ResultsEv
 3281      00
 3282 16cc 488B00   		movq	(%rax), %rax
 3283 16cf 488D55B0 		leaq	-80(%rbp), %rdx
 3284 16d3 488D4D90 		leaq	-112(%rbp), %rcx
 3285 16d7 488D790C 		leaq	12(%rcx), %rdi
 3286 16db 488D7588 		leaq	-120(%rbp), %rsi
 3287 16df 4889D1   		movq	%rdx, %rcx
 3288 16e2 4889FA   		movq	%rdi, %rdx
 3289 16e5 4889C7   		movq	%rax, %rdi
 3290 16e8 E8000000 		call	_ZN8UnitTest10CheckEqualImjEEvRNS_11TestResultsERKT_RKT0_RKNS_11TestDetailsE
 3290      00
 3291              	.LEHE136:
 3292              	.L183:
 3293              	.LEHB137:
 119:testCore.cpp  **** 	CHECK_EQUAL(9UL, buf.length);
 3294              		.loc 3 119 0 is_stmt 1
 3295 16ed E8000000 		call	_ZN8UnitTest11CurrentTest7DetailsEv
 3295      00
 3296 16f2 488B08   		movq	(%rax), %rcx
 3297 16f5 488D45B0 		leaq	-80(%rbp), %rax
 3298 16f9 BA770000 		movl	$119, %edx
 3298      00
 3299 16fe 4889CE   		movq	%rcx, %rsi
 3300 1701 4889C7   		movq	%rax, %rdi
 3301 1704 E8000000 		call	_ZN8UnitTest11TestDetailsC1ERKS0_i
 3301      00
 3302              		.loc 3 119 0 is_stmt 0 discriminator 2
 3303 1709 48C74588 		movq	$9, -120(%rbp)
 3303      09000000 
 3304 1711 E8000000 		call	_ZN8UnitTest11CurrentTest7ResultsEv
 3304      00
 3305 1716 488B00   		movq	(%rax), %rax
 3306 1719 488D55B0 		leaq	-80(%rbp), %rdx
 3307 171d 488D4D90 		leaq	-112(%rbp), %rcx
 3308 1721 488D7908 		leaq	8(%rcx), %rdi
 3309 1725 488D7588 		leaq	-120(%rbp), %rsi
 3310 1729 4889D1   		movq	%rdx, %rcx
 3311 172c 4889FA   		movq	%rdi, %rdx
 3312 172f 4889C7   		movq	%rax, %rdi
 3313 1732 E8000000 		call	_ZN8UnitTest10CheckEqualImjEEvRNS_11TestResultsERKT_RKT0_RKNS_11TestDetailsE
 3313      00
 3314              	.LEHE137:
 3315              	.L186:
 3316              	.LEHB138:
 120:testCore.cpp  **** 	CHECK_ARRAY_EQUAL(expected, buf.data, 16);
 3317              		.loc 3 120 0 is_stmt 1
 3318 1737 E8000000 		call	_ZN8UnitTest11CurrentTest7DetailsEv
 3318      00
 3319 173c 488B08   		movq	(%rax), %rcx
 3320 173f 488D45B0 		leaq	-80(%rbp), %rax
 3321 1743 BA780000 		movl	$120, %edx
 3321      00
 3322 1748 4889CE   		movq	%rcx, %rsi
 3323 174b 4889C7   		movq	%rax, %rdi
 3324 174e E8000000 		call	_ZN8UnitTest11TestDetailsC1ERKS0_i
 3324      00
 3325              		.loc 3 120 0 is_stmt 0 discriminator 2
 3326 1753 E8000000 		call	_ZN8UnitTest11CurrentTest7ResultsEv
 3326      00
 3327 1758 488B00   		movq	(%rax), %rax
 3328 175b 488D4DB0 		leaq	-80(%rbp), %rcx
 3329 175f 488D5590 		leaq	-112(%rbp), %rdx
 3330 1763 488D75D0 		leaq	-48(%rbp), %rsi
 3331 1767 4989C8   		movq	%rcx, %r8
 3332 176a B9100000 		movl	$16, %ecx
 3332      00
 3333 176f 4889C7   		movq	%rax, %rdi
 3334 1772 E8000000 		call	_ZN8UnitTest15CheckArrayEqualIA16_hPhEEvRNS_11TestResultsERKT_RKT0_iRKNS_11TestDetailsE
 3334      00
 3335              	.LEHE138:
 3336              	.L189:
 121:testCore.cpp  **** 	bufDestroy(&buf);
 3337              		.loc 3 121 0 is_stmt 1
 3338 1777 488D4590 		leaq	-112(%rbp), %rax
 3339 177b 4889C7   		movq	%rax, %rdi
 3340              	.LEHB139:
 3341 177e E8000000 		call	bufDestroy
 3341      00
 3342              	.LEHE139:
 3343              	.LBE23:
 122:testCore.cpp  **** }
 3344              		.loc 3 122 0
 3345 1783 488B45E8 		movq	-24(%rbp), %rax
 3346 1787 64483304 		xorq	%fs:40, %rax
 3346      25280000 
 3346      00
 3347 1790 0F84DB01 		je	.L190
 3347      0000
 3348 1796 E9D10100 		jmp	.L201
 3348      00
 3349              	.L192:
 3350 179b 4889C3   		movq	%rax, %rbx
 3351              	.LBB24:
 113:testCore.cpp  **** 
 3352              		.loc 3 113 0
 3353 179e E8000000 		call	__cxa_end_catch
 3353      00
 3354 17a3 4889D8   		movq	%rbx, %rax
 3355 17a6 4889C7   		movq	%rax, %rdi
 3356              	.LEHB140:
 3357 17a9 E8000000 		call	_Unwind_Resume
 3357      00
 3358              	.LEHE140:
 3359              	.L191:
 3360 17ae 4889C7   		movq	%rax, %rdi
 3361 17b1 E8000000 		call	__cxa_begin_catch
 3361      00
 3362              	.LEHB141:
 3363 17b6 E8000000 		call	_ZN8UnitTest11CurrentTest7DetailsEv
 3363      00
 3364 17bb 488B08   		movq	(%rax), %rcx
 3365 17be 488D45B0 		leaq	-80(%rbp), %rax
 3366 17c2 BA710000 		movl	$113, %edx
 3366      00
 3367 17c7 4889CE   		movq	%rcx, %rsi
 3368 17ca 4889C7   		movq	%rax, %rdi
 3369 17cd E8000000 		call	_ZN8UnitTest11TestDetailsC1ERKS0_i
 3369      00
 113:testCore.cpp  **** 
 3370              		.loc 3 113 0 is_stmt 0 discriminator 10
 3371 17d2 E8000000 		call	_ZN8UnitTest11CurrentTest7ResultsEv
 3371      00
 3372 17d7 488B00   		movq	(%rax), %rax
 3373 17da 488D4DB0 		leaq	-80(%rbp), %rcx
 3374 17de BA000000 		movl	$.LC3, %edx
 3374      00
 3375 17e3 4889CE   		movq	%rcx, %rsi
 3376 17e6 4889C7   		movq	%rax, %rdi
 3377 17e9 E8000000 		call	_ZN8UnitTest11TestResults13OnTestFailureERKNS_11TestDetailsEPKc
 3377      00
 3378              	.LEHE141:
 3379              	.LEHB142:
 113:testCore.cpp  **** 
 3380              		.loc 3 113 0 discriminator 14
 3381 17ee E8000000 		call	__cxa_end_catch
 3381      00
 3382              	.LEHE142:
 3383 17f3 E90FFEFF 		jmp	.L177
 3383      FF
 3384              	.L194:
 3385 17f8 4889C3   		movq	%rax, %rbx
 117:testCore.cpp  **** 	CHECK_EQUAL(16UL, buf.capacity);
 3386              		.loc 3 117 0 is_stmt 1
 3387 17fb E8000000 		call	__cxa_end_catch
 3387      00
 3388 1800 4889D8   		movq	%rbx, %rax
 3389 1803 4889C7   		movq	%rax, %rdi
 3390              	.LEHB143:
 3391 1806 E8000000 		call	_Unwind_Resume
 3391      00
 3392              	.LEHE143:
 3393              	.L193:
 3394 180b 4889C7   		movq	%rax, %rdi
 3395 180e E8000000 		call	__cxa_begin_catch
 3395      00
 3396              	.LEHB144:
 3397 1813 E8000000 		call	_ZN8UnitTest11CurrentTest7DetailsEv
 3397      00
 3398 1818 488B08   		movq	(%rax), %rcx
 3399 181b 488D45B0 		leaq	-80(%rbp), %rax
 3400 181f BA750000 		movl	$117, %edx
 3400      00
 3401 1824 4889CE   		movq	%rcx, %rsi
 3402 1827 4889C7   		movq	%rax, %rdi
 3403 182a E8000000 		call	_ZN8UnitTest11TestDetailsC1ERKS0_i
 3403      00
 117:testCore.cpp  **** 	CHECK_EQUAL(16UL, buf.capacity);
 3404              		.loc 3 117 0 is_stmt 0 discriminator 10
 3405 182f E8000000 		call	_ZN8UnitTest11CurrentTest7ResultsEv
 3405      00
 3406 1834 488B00   		movq	(%rax), %rax
 3407 1837 488D4DB0 		leaq	-80(%rbp), %rcx
 3408 183b BA000000 		movl	$.LC3, %edx
 3408      00
 3409 1840 4889CE   		movq	%rcx, %rsi
 3410 1843 4889C7   		movq	%rax, %rdi
 3411 1846 E8000000 		call	_ZN8UnitTest11TestResults13OnTestFailureERKNS_11TestDetailsEPKc
 3411      00
 3412              	.LEHE144:
 3413              	.LEHB145:
 117:testCore.cpp  **** 	CHECK_EQUAL(16UL, buf.capacity);
 3414              		.loc 3 117 0 discriminator 14
 3415 184b E8000000 		call	__cxa_end_catch
 3415      00
 3416              	.LEHE145:
 3417 1850 E94EFEFF 		jmp	.L180
 3417      FF
 3418              	.L196:
 3419 1855 4889C3   		movq	%rax, %rbx
 118:testCore.cpp  **** 	CHECK_EQUAL(9UL, buf.length);
 3420              		.loc 3 118 0 is_stmt 1
 3421 1858 E8000000 		call	__cxa_end_catch
 3421      00
 3422 185d 4889D8   		movq	%rbx, %rax
 3423 1860 4889C7   		movq	%rax, %rdi
 3424              	.LEHB146:
 3425 1863 E8000000 		call	_Unwind_Resume
 3425      00
 3426              	.LEHE146:
 3427              	.L195:
 3428 1868 4889C7   		movq	%rax, %rdi
 3429 186b E8000000 		call	__cxa_begin_catch
 3429      00
 3430              	.LEHB147:
 3431 1870 E8000000 		call	_ZN8UnitTest11CurrentTest7DetailsEv
 3431      00
 3432 1875 488B08   		movq	(%rax), %rcx
 3433 1878 488D45B0 		leaq	-80(%rbp), %rax
 3434 187c BA760000 		movl	$118, %edx
 3434      00
 3435 1881 4889CE   		movq	%rcx, %rsi
 3436 1884 4889C7   		movq	%rax, %rdi
 3437 1887 E8000000 		call	_ZN8UnitTest11TestDetailsC1ERKS0_i
 3437      00
 118:testCore.cpp  **** 	CHECK_EQUAL(9UL, buf.length);
 3438              		.loc 3 118 0 is_stmt 0 discriminator 10
 3439 188c E8000000 		call	_ZN8UnitTest11CurrentTest7ResultsEv
 3439      00
 3440 1891 488B00   		movq	(%rax), %rax
 3441 1894 488D4DB0 		leaq	-80(%rbp), %rcx
 3442 1898 BA000000 		movl	$.LC13, %edx
 3442      00
 3443 189d 4889CE   		movq	%rcx, %rsi
 3444 18a0 4889C7   		movq	%rax, %rdi
 3445 18a3 E8000000 		call	_ZN8UnitTest11TestResults13OnTestFailureERKNS_11TestDetailsEPKc
 3445      00
 3446              	.LEHE147:
 3447              	.LEHB148:
 118:testCore.cpp  **** 	CHECK_EQUAL(9UL, buf.length);
 3448              		.loc 3 118 0 discriminator 14
 3449 18a8 E8000000 		call	__cxa_end_catch
 3449      00
 3450              	.LEHE148:
 3451 18ad E93BFEFF 		jmp	.L183
 3451      FF
 3452              	.L198:
 3453 18b2 4889C3   		movq	%rax, %rbx
 119:testCore.cpp  **** 	CHECK_ARRAY_EQUAL(expected, buf.data, 16);
 3454              		.loc 3 119 0 is_stmt 1
 3455 18b5 E8000000 		call	__cxa_end_catch
 3455      00
 3456 18ba 4889D8   		movq	%rbx, %rax
 3457 18bd 4889C7   		movq	%rax, %rdi
 3458              	.LEHB149:
 3459 18c0 E8000000 		call	_Unwind_Resume
 3459      00
 3460              	.LEHE149:
 3461              	.L197:
 3462 18c5 4889C7   		movq	%rax, %rdi
 3463 18c8 E8000000 		call	__cxa_begin_catch
 3463      00
 3464              	.LEHB150:
 3465 18cd E8000000 		call	_ZN8UnitTest11CurrentTest7DetailsEv
 3465      00
 3466 18d2 488B08   		movq	(%rax), %rcx
 3467 18d5 488D45B0 		leaq	-80(%rbp), %rax
 3468 18d9 BA770000 		movl	$119, %edx
 3468      00
 3469 18de 4889CE   		movq	%rcx, %rsi
 3470 18e1 4889C7   		movq	%rax, %rdi
 3471 18e4 E8000000 		call	_ZN8UnitTest11TestDetailsC1ERKS0_i
 3471      00
 119:testCore.cpp  **** 	CHECK_ARRAY_EQUAL(expected, buf.data, 16);
 3472              		.loc 3 119 0 is_stmt 0 discriminator 10
 3473 18e9 E8000000 		call	_ZN8UnitTest11CurrentTest7ResultsEv
 3473      00
 3474 18ee 488B00   		movq	(%rax), %rax
 3475 18f1 488D4DB0 		leaq	-80(%rbp), %rcx
 3476 18f5 BA000000 		movl	$.LC14, %edx
 3476      00
 3477 18fa 4889CE   		movq	%rcx, %rsi
 3478 18fd 4889C7   		movq	%rax, %rdi
 3479 1900 E8000000 		call	_ZN8UnitTest11TestResults13OnTestFailureERKNS_11TestDetailsEPKc
 3479      00
 3480              	.LEHE150:
 3481              	.LEHB151:
 119:testCore.cpp  **** 	CHECK_ARRAY_EQUAL(expected, buf.data, 16);
 3482              		.loc 3 119 0 discriminator 14
 3483 1905 E8000000 		call	__cxa_end_catch
 3483      00
 3484              	.LEHE151:
 3485 190a E928FEFF 		jmp	.L186
 3485      FF
 3486              	.L200:
 3487 190f 4889C3   		movq	%rax, %rbx
 120:testCore.cpp  **** 	bufDestroy(&buf);
 3488              		.loc 3 120 0 is_stmt 1
 3489 1912 E8000000 		call	__cxa_end_catch
 3489      00
 3490 1917 4889D8   		movq	%rbx, %rax
 3491 191a 4889C7   		movq	%rax, %rdi
 3492              	.LEHB152:
 3493 191d E8000000 		call	_Unwind_Resume
 3493      00
 3494              	.LEHE152:
 3495              	.L199:
 3496 1922 4889C7   		movq	%rax, %rdi
 3497 1925 E8000000 		call	__cxa_begin_catch
 3497      00
 3498              	.LEHB153:
 3499 192a E8000000 		call	_ZN8UnitTest11CurrentTest7DetailsEv
 3499      00
 3500 192f 488B08   		movq	(%rax), %rcx
 3501 1932 488D45B0 		leaq	-80(%rbp), %rax
 3502 1936 BA780000 		movl	$120, %edx
 3502      00
 3503 193b 4889CE   		movq	%rcx, %rsi
 3504 193e 4889C7   		movq	%rax, %rdi
 3505 1941 E8000000 		call	_ZN8UnitTest11TestDetailsC1ERKS0_i
 3505      00
 120:testCore.cpp  **** 	bufDestroy(&buf);
 3506              		.loc 3 120 0 is_stmt 0 discriminator 10
 3507 1946 E8000000 		call	_ZN8UnitTest11CurrentTest7ResultsEv
 3507      00
 3508 194b 488B00   		movq	(%rax), %rax
 3509 194e 488D4DB0 		leaq	-80(%rbp), %rcx
 3510 1952 BA000000 		movl	$.LC6, %edx
 3510      00
 3511 1957 4889CE   		movq	%rcx, %rsi
 3512 195a 4889C7   		movq	%rax, %rdi
 3513 195d E8000000 		call	_ZN8UnitTest11TestResults13OnTestFailureERKNS_11TestDetailsEPKc
 3513      00
 3514              	.LEHE153:
 3515              	.LEHB154:
 120:testCore.cpp  **** 	bufDestroy(&buf);
 3516              		.loc 3 120 0 discriminator 14
 3517 1962 E8000000 		call	__cxa_end_catch
 3517      00
 3518              	.LEHE154:
 3519 1967 E90BFEFF 		jmp	.L189
 3519      FF
 3520              	.L201:
 3521              	.LBE24:
 3522              		.loc 3 122 0 is_stmt 1
 3523 196c E8000000 		call	__stack_chk_fail
 3523      00
 3524              	.L190:
 3525 1971 4881C488 		addq	$136, %rsp
 3525      000000
 3526 1978 5B       		popq	%rbx
 3527 1979 5D       		popq	%rbp
 3528              		.cfi_def_cfa 7, 8
 3529 197a C3       		ret
 3530              		.cfi_endproc
 3531              	.LFE1096:
 3532              		.section	.gcc_except_table
 3533              		.align 4
 3534              	.LLSDA1096:
 3535 02f8 FF       		.byte	0xff
 3536 02f9 03       		.byte	0x3
 3537 02fa 8401     		.uleb128 .LLSDATT1096-.LLSDATTD1096
 3538              	.LLSDATTD1096:
 3539 02fc 01       		.byte	0x1
 3540 02fd 7B       		.uleb128 .LLSDACSE1096-.LLSDACSB1096
 3541              	.LLSDACSB1096:
 3542 02fe 38       		.uleb128 .LEHB132-.LFB1096
 3543 02ff 05       		.uleb128 .LEHE132-.LEHB132
 3544 0300 00       		.uleb128 0
 3545 0301 00       		.uleb128 0
 3546 0302 40       		.uleb128 .LEHB133-.LFB1096
 3547 0303 3F       		.uleb128 .LEHE133-.LEHB133
 3548 0304 A604     		.uleb128 .L191-.LFB1096
 3549 0306 01       		.uleb128 0x1
 3550 0307 D401     		.uleb128 .LEHB134-.LFB1096
 3551 0309 05       		.uleb128 .LEHE134-.LEHB134
 3552 030a 00       		.uleb128 0
 3553 030b 00       		.uleb128 0
 3554 030c DC01     		.uleb128 .LEHB135-.LFB1096
 3555 030e 3F       		.uleb128 .LEHE135-.LEHB135
 3556 030f 8305     		.uleb128 .L193-.LFB1096
 3557 0311 01       		.uleb128 0x1
 3558 0312 9B02     		.uleb128 .LEHB136-.LFB1096
 3559 0314 4A       		.uleb128 .LEHE136-.LEHB136
 3560 0315 E005     		.uleb128 .L195-.LFB1096
 3561 0317 01       		.uleb128 0x1
 3562 0318 E502     		.uleb128 .LEHB137-.LFB1096
 3563 031a 4A       		.uleb128 .LEHE137-.LEHB137
 3564 031b BD06     		.uleb128 .L197-.LFB1096
 3565 031d 01       		.uleb128 0x1
 3566 031e AF03     		.uleb128 .LEHB138-.LFB1096
 3567 0320 40       		.uleb128 .LEHE138-.LEHB138
 3568 0321 9A07     		.uleb128 .L199-.LFB1096
 3569 0323 01       		.uleb128 0x1
 3570 0324 F603     		.uleb128 .LEHB139-.LFB1096
 3571 0326 05       		.uleb128 .LEHE139-.LEHB139
 3572 0327 00       		.uleb128 0
 3573 0328 00       		.uleb128 0
 3574 0329 A104     		.uleb128 .LEHB140-.LFB1096
 3575 032b 05       		.uleb128 .LEHE140-.LEHB140
 3576 032c 00       		.uleb128 0
 3577 032d 00       		.uleb128 0
 3578 032e AE04     		.uleb128 .LEHB141-.LFB1096
 3579 0330 38       		.uleb128 .LEHE141-.LEHB141
 3580 0331 9304     		.uleb128 .L192-.LFB1096
 3581 0333 00       		.uleb128 0
 3582 0334 E604     		.uleb128 .LEHB142-.LFB1096
 3583 0336 05       		.uleb128 .LEHE142-.LEHB142
 3584 0337 00       		.uleb128 0
 3585 0338 00       		.uleb128 0
 3586 0339 FE04     		.uleb128 .LEHB143-.LFB1096
 3587 033b 05       		.uleb128 .LEHE143-.LEHB143
 3588 033c 00       		.uleb128 0
 3589 033d 00       		.uleb128 0
 3590 033e 8B05     		.uleb128 .LEHB144-.LFB1096
 3591 0340 38       		.uleb128 .LEHE144-.LEHB144
 3592 0341 F004     		.uleb128 .L194-.LFB1096
 3593 0343 00       		.uleb128 0
 3594 0344 C305     		.uleb128 .LEHB145-.LFB1096
 3595 0346 05       		.uleb128 .LEHE145-.LEHB145
 3596 0347 00       		.uleb128 0
 3597 0348 00       		.uleb128 0
 3598 0349 DB05     		.uleb128 .LEHB146-.LFB1096
 3599 034b 05       		.uleb128 .LEHE146-.LEHB146
 3600 034c 00       		.uleb128 0
 3601 034d 00       		.uleb128 0
 3602 034e E805     		.uleb128 .LEHB147-.LFB1096
 3603 0350 38       		.uleb128 .LEHE147-.LEHB147
 3604 0351 CD05     		.uleb128 .L196-.LFB1096
 3605 0353 00       		.uleb128 0
 3606 0354 A006     		.uleb128 .LEHB148-.LFB1096
 3607 0356 05       		.uleb128 .LEHE148-.LEHB148
 3608 0357 00       		.uleb128 0
 3609 0358 00       		.uleb128 0
 3610 0359 B806     		.uleb128 .LEHB149-.LFB1096
 3611 035b 05       		.uleb128 .LEHE149-.LEHB149
 3612 035c 00       		.uleb128 0
 3613 035d 00       		.uleb128 0
 3614 035e C506     		.uleb128 .LEHB150-.LFB1096
 3615 0360 38       		.uleb128 .LEHE150-.LEHB150
 3616 0361 AA06     		.uleb128 .L198-.LFB1096
 3617 0363 00       		.uleb128 0
 3618 0364 FD06     		.uleb128 .LEHB151-.LFB1096
 3619 0366 05       		.uleb128 .LEHE151-.LEHB151
 3620 0367 00       		.uleb128 0
 3621 0368 00       		.uleb128 0
 3622 0369 9507     		.uleb128 .LEHB152-.LFB1096
 3623 036b 05       		.uleb128 .LEHE152-.LEHB152
 3624 036c 00       		.uleb128 0
 3625 036d 00       		.uleb128 0
 3626 036e A207     		.uleb128 .LEHB153-.LFB1096
 3627 0370 38       		.uleb128 .LEHE153-.LEHB153
 3628 0371 8707     		.uleb128 .L200-.LFB1096
 3629 0373 00       		.uleb128 0
 3630 0374 DA07     		.uleb128 .LEHB154-.LFB1096
 3631 0376 05       		.uleb128 .LEHE154-.LEHB154
 3632 0377 00       		.uleb128 0
 3633 0378 00       		.uleb128 0
 3634              	.LLSDACSE1096:
 3635 0379 01       		.byte	0x1
 3636 037a 00       		.byte	0
 3637 037b 00       		.align 4
 3638 037c 00000000 		.long	0
 3639              	
 3640              	.LLSDATT1096:
 3641              		.text
 3643              		.section	.rodata
 3644              	.LC17:
 3645 02b4 436F7265 		.string	"Core_testAppendByte"
 3645      5F746573 
 3645      74417070 
 3645      656E6442 
 3645      79746500 
 3646              		.section	.text._ZN23TestCore_testAppendByteC2Ev,"axG",@progbits,_ZN23TestCore_testAppendByteC5Ev,c
 3647              		.align 2
 3648              		.weak	_ZN23TestCore_testAppendByteC2Ev
 3650              	_ZN23TestCore_testAppendByteC2Ev:
 3651              	.LFB1098:
 123:testCore.cpp  **** 
 124:testCore.cpp  **** TEST(Core_testAppendByte) {
 3652              		.loc 3 124 0
 3653              		.cfi_startproc
 3654 0000 55       		pushq	%rbp
 3655              		.cfi_def_cfa_offset 16
 3656              		.cfi_offset 6, -16
 3657 0001 4889E5   		movq	%rsp, %rbp
 3658              		.cfi_def_cfa_register 6
 3659 0004 4883EC10 		subq	$16, %rsp
 3660 0008 48897DF8 		movq	%rdi, -8(%rbp)
 3661              	.LBB25:
 3662              		.loc 3 124 0
 3663 000c E8000000 		call	_ZN13UnitTestSuite12GetSuiteNameEv
 3663      00
 3664 0011 4889C2   		movq	%rax, %rdx
 3665 0014 488B45F8 		movq	-8(%rbp), %rax
 3666 0018 41B87C00 		movl	$124, %r8d
 3666      0000
 3667 001e B9000000 		movl	$.LC1, %ecx
 3667      00
 3668 0023 BE000000 		movl	$.LC17, %esi
 3668      00
 3669 0028 4889C7   		movq	%rax, %rdi
 3670 002b E8000000 		call	_ZN8UnitTest4TestC2EPKcS2_S2_i
 3670      00
 3671 0030 488B45F8 		movq	-8(%rbp), %rax
 3672 0034 48C70000 		movq	$_ZTV23TestCore_testAppendByte+16, (%rax)
 3672      000000
 3673              	.LBE25:
 3674 003b C9       		leave
 3675              		.cfi_def_cfa 7, 8
 3676 003c C3       		ret
 3677              		.cfi_endproc
 3678              	.LFE1098:
 3680              		.weak	_ZN23TestCore_testAppendByteC1Ev
 3681              		.set	_ZN23TestCore_testAppendByteC1Ev,_ZN23TestCore_testAppendByteC2Ev
 3682              		.globl	testCore_testAppendByteInstance
 3683              		.bss
 3684 01b9 00000000 		.align 32
 3684      000000
 3687              	testCore_testAppendByteInstance:
 3688 01c0 00000000 		.zero	56
 3688      00000000 
 3688      00000000 
 3688      00000000 
 3688      00000000 
 3689              		.globl	adderCore_testAppendByte
 3692              	adderCore_testAppendByte:
 3693 01f8 00       		.zero	1
 3694              		.text
 3695 197b 90       		.align 2
 3696              		.globl	_ZNK23TestCore_testAppendByte7RunImplEv
 3698              	_ZNK23TestCore_testAppendByte7RunImplEv:
 3699              	.LFB1100:
 3700              		.loc 3 124 0
 3701              		.cfi_startproc
 3702              		.cfi_personality 0x3,__gxx_personality_v0
 3703              		.cfi_lsda 0x3,.LLSDA1100
 3704 197c 55       		pushq	%rbp
 3705              		.cfi_def_cfa_offset 16
 3706              		.cfi_offset 6, -16
 3707 197d 4889E5   		movq	%rsp, %rbp
 3708              		.cfi_def_cfa_register 6
 3709 1980 53       		pushq	%rbx
 3710 1981 4881EC88 		subq	$136, %rsp
 3710      000000
 3711              		.cfi_offset 3, -24
 3712 1988 4889BD78 		movq	%rdi, -136(%rbp)
 3712      FFFFFF
 3713              		.loc 3 124 0
 3714 198f 64488B04 		movq	%fs:40, %rax
 3714      25280000 
 3714      00
 3715 1998 488945E8 		movq	%rax, -24(%rbp)
 3716 199c 31C0     		xorl	%eax, %eax
 3717              	.LBB26:
 125:testCore.cpp  **** 	Buffer buf;
 126:testCore.cpp  **** 	BufferStatus status;
 127:testCore.cpp  **** 
 128:testCore.cpp  **** 	status = bufInitialise(&buf, 4, 0, NULL);
 3718              		.loc 3 128 0
 3719 199e 488D4590 		leaq	-112(%rbp), %rax
 3720 19a2 B9000000 		movl	$0, %ecx
 3720      00
 3721 19a7 BA000000 		movl	$0, %edx
 3721      00
 3722 19ac BE040000 		movl	$4, %esi
 3722      00
 3723 19b1 4889C7   		movq	%rax, %rdi
 3724              	.LEHB155:
 3725 19b4 E8000000 		call	bufInitialise
 3725      00
 3726              	.LEHE155:
 3727 19b9 894584   		movl	%eax, -124(%rbp)
 3728              	.LEHB156:
 129:testCore.cpp  **** 	CHECK_EQUAL(BUF_SUCCESS, status);
 3729              		.loc 3 129 0
 3730 19bc E8000000 		call	_ZN8UnitTest11CurrentTest7DetailsEv
 3730      00
 3731 19c1 488B08   		movq	(%rax), %rcx
 3732 19c4 488D45B0 		leaq	-80(%rbp), %rax
 3733 19c8 BA810000 		movl	$129, %edx
 3733      00
 3734 19cd 4889CE   		movq	%rcx, %rsi
 3735 19d0 4889C7   		movq	%rax, %rdi
 3736 19d3 E8000000 		call	_ZN8UnitTest11TestDetailsC1ERKS0_i
 3736      00
 3737              		.loc 3 129 0 is_stmt 0 discriminator 2
 3738 19d8 C7458800 		movl	$0, -120(%rbp)
 3738      000000
 3739 19df E8000000 		call	_ZN8UnitTest11CurrentTest7ResultsEv
 3739      00
 3740 19e4 488B00   		movq	(%rax), %rax
 3741 19e7 488D4DB0 		leaq	-80(%rbp), %rcx
 3742 19eb 488D5584 		leaq	-124(%rbp), %rdx
 3743 19ef 488D7588 		leaq	-120(%rbp), %rsi
 3744 19f3 4889C7   		movq	%rax, %rdi
 3745 19f6 E8000000 		call	_ZN8UnitTest10CheckEqualI12BufferStatusS1_EEvRNS_11TestResultsERKT_RKT0_RKNS_11TestDetailsE
 3745      00
 3746              	.LEHE156:
 3747              	.L206:
 130:testCore.cpp  **** 
 131:testCore.cpp  **** 	const unsigned char expected[] = {1, 2, 3, 4, 5, 6, 7, 8, 9, 0, 0, 0, 0, 0, 0, 0};
 3748              		.loc 3 131 0 is_stmt 1
 3749 19fb C645D001 		movb	$1, -48(%rbp)
 3750 19ff C645D102 		movb	$2, -47(%rbp)
 3751 1a03 C645D203 		movb	$3, -46(%rbp)
 3752 1a07 C645D304 		movb	$4, -45(%rbp)
 3753 1a0b C645D405 		movb	$5, -44(%rbp)
 3754 1a0f C645D506 		movb	$6, -43(%rbp)
 3755 1a13 C645D607 		movb	$7, -42(%rbp)
 3756 1a17 C645D708 		movb	$8, -41(%rbp)
 3757 1a1b C645D809 		movb	$9, -40(%rbp)
 3758 1a1f C645D900 		movb	$0, -39(%rbp)
 3759 1a23 C645DA00 		movb	$0, -38(%rbp)
 3760 1a27 C645DB00 		movb	$0, -37(%rbp)
 3761 1a2b C645DC00 		movb	$0, -36(%rbp)
 3762 1a2f C645DD00 		movb	$0, -35(%rbp)
 3763 1a33 C645DE00 		movb	$0, -34(%rbp)
 3764 1a37 C645DF00 		movb	$0, -33(%rbp)
 132:testCore.cpp  **** 	status = bufAppendByte(&buf, 1, NULL);
 3765              		.loc 3 132 0
 3766 1a3b 488D4590 		leaq	-112(%rbp), %rax
 3767 1a3f BA000000 		movl	$0, %edx
 3767      00
 3768 1a44 BE010000 		movl	$1, %esi
 3768      00
 3769 1a49 4889C7   		movq	%rax, %rdi
 3770              	.LEHB157:
 3771 1a4c E8000000 		call	bufAppendByte
 3771      00
 3772              	.LEHE157:
 3773 1a51 894584   		movl	%eax, -124(%rbp)
 3774              	.LEHB158:
 133:testCore.cpp  **** 	CHECK_EQUAL(BUF_SUCCESS, status);
 3775              		.loc 3 133 0
 3776 1a54 E8000000 		call	_ZN8UnitTest11CurrentTest7DetailsEv
 3776      00
 3777 1a59 488B08   		movq	(%rax), %rcx
 3778 1a5c 488D45B0 		leaq	-80(%rbp), %rax
 3779 1a60 BA850000 		movl	$133, %edx
 3779      00
 3780 1a65 4889CE   		movq	%rcx, %rsi
 3781 1a68 4889C7   		movq	%rax, %rdi
 3782 1a6b E8000000 		call	_ZN8UnitTest11TestDetailsC1ERKS0_i
 3782      00
 3783              		.loc 3 133 0 is_stmt 0 discriminator 2
 3784 1a70 C7458800 		movl	$0, -120(%rbp)
 3784      000000
 3785 1a77 E8000000 		call	_ZN8UnitTest11CurrentTest7ResultsEv
 3785      00
 3786 1a7c 488B00   		movq	(%rax), %rax
 3787 1a7f 488D4DB0 		leaq	-80(%rbp), %rcx
 3788 1a83 488D5584 		leaq	-124(%rbp), %rdx
 3789 1a87 488D7588 		leaq	-120(%rbp), %rsi
 3790 1a8b 4889C7   		movq	%rax, %rdi
 3791 1a8e E8000000 		call	_ZN8UnitTest10CheckEqualI12BufferStatusS1_EEvRNS_11TestResultsERKT_RKT0_RKNS_11TestDetailsE
 3791      00
 3792              	.LEHE158:
 3793              	.L209:
 134:testCore.cpp  **** 	status = bufAppendByte(&buf, 2, NULL);
 3794              		.loc 3 134 0 is_stmt 1
 3795 1a93 488D4590 		leaq	-112(%rbp), %rax
 3796 1a97 BA000000 		movl	$0, %edx
 3796      00
 3797 1a9c BE020000 		movl	$2, %esi
 3797      00
 3798 1aa1 4889C7   		movq	%rax, %rdi
 3799              	.LEHB159:
 3800 1aa4 E8000000 		call	bufAppendByte
 3800      00
 3801              	.LEHE159:
 3802 1aa9 894584   		movl	%eax, -124(%rbp)
 3803              	.LEHB160:
 135:testCore.cpp  **** 	CHECK_EQUAL(BUF_SUCCESS, status);
 3804              		.loc 3 135 0
 3805 1aac E8000000 		call	_ZN8UnitTest11CurrentTest7DetailsEv
 3805      00
 3806 1ab1 488B08   		movq	(%rax), %rcx
 3807 1ab4 488D45B0 		leaq	-80(%rbp), %rax
 3808 1ab8 BA870000 		movl	$135, %edx
 3808      00
 3809 1abd 4889CE   		movq	%rcx, %rsi
 3810 1ac0 4889C7   		movq	%rax, %rdi
 3811 1ac3 E8000000 		call	_ZN8UnitTest11TestDetailsC1ERKS0_i
 3811      00
 3812              		.loc 3 135 0 is_stmt 0 discriminator 2
 3813 1ac8 C7458800 		movl	$0, -120(%rbp)
 3813      000000
 3814 1acf E8000000 		call	_ZN8UnitTest11CurrentTest7ResultsEv
 3814      00
 3815 1ad4 488B00   		movq	(%rax), %rax
 3816 1ad7 488D4DB0 		leaq	-80(%rbp), %rcx
 3817 1adb 488D5584 		leaq	-124(%rbp), %rdx
 3818 1adf 488D7588 		leaq	-120(%rbp), %rsi
 3819 1ae3 4889C7   		movq	%rax, %rdi
 3820 1ae6 E8000000 		call	_ZN8UnitTest10CheckEqualI12BufferStatusS1_EEvRNS_11TestResultsERKT_RKT0_RKNS_11TestDetailsE
 3820      00
 3821              	.LEHE160:
 3822              	.L212:
 136:testCore.cpp  **** 	status = bufAppendByte(&buf, 3, NULL);
 3823              		.loc 3 136 0 is_stmt 1
 3824 1aeb 488D4590 		leaq	-112(%rbp), %rax
 3825 1aef BA000000 		movl	$0, %edx
 3825      00
 3826 1af4 BE030000 		movl	$3, %esi
 3826      00
 3827 1af9 4889C7   		movq	%rax, %rdi
 3828              	.LEHB161:
 3829 1afc E8000000 		call	bufAppendByte
 3829      00
 3830              	.LEHE161:
 3831 1b01 894584   		movl	%eax, -124(%rbp)
 3832              	.LEHB162:
 137:testCore.cpp  **** 	CHECK_EQUAL(BUF_SUCCESS, status);
 3833              		.loc 3 137 0
 3834 1b04 E8000000 		call	_ZN8UnitTest11CurrentTest7DetailsEv
 3834      00
 3835 1b09 488B08   		movq	(%rax), %rcx
 3836 1b0c 488D45B0 		leaq	-80(%rbp), %rax
 3837 1b10 BA890000 		movl	$137, %edx
 3837      00
 3838 1b15 4889CE   		movq	%rcx, %rsi
 3839 1b18 4889C7   		movq	%rax, %rdi
 3840 1b1b E8000000 		call	_ZN8UnitTest11TestDetailsC1ERKS0_i
 3840      00
 3841              		.loc 3 137 0 is_stmt 0 discriminator 2
 3842 1b20 C7458800 		movl	$0, -120(%rbp)
 3842      000000
 3843 1b27 E8000000 		call	_ZN8UnitTest11CurrentTest7ResultsEv
 3843      00
 3844 1b2c 488B00   		movq	(%rax), %rax
 3845 1b2f 488D4DB0 		leaq	-80(%rbp), %rcx
 3846 1b33 488D5584 		leaq	-124(%rbp), %rdx
 3847 1b37 488D7588 		leaq	-120(%rbp), %rsi
 3848 1b3b 4889C7   		movq	%rax, %rdi
 3849 1b3e E8000000 		call	_ZN8UnitTest10CheckEqualI12BufferStatusS1_EEvRNS_11TestResultsERKT_RKT0_RKNS_11TestDetailsE
 3849      00
 3850              	.LEHE162:
 3851              	.L215:
 138:testCore.cpp  **** 	status = bufAppendByte(&buf, 4, NULL);
 3852              		.loc 3 138 0 is_stmt 1
 3853 1b43 488D4590 		leaq	-112(%rbp), %rax
 3854 1b47 BA000000 		movl	$0, %edx
 3854      00
 3855 1b4c BE040000 		movl	$4, %esi
 3855      00
 3856 1b51 4889C7   		movq	%rax, %rdi
 3857              	.LEHB163:
 3858 1b54 E8000000 		call	bufAppendByte
 3858      00
 3859              	.LEHE163:
 3860 1b59 894584   		movl	%eax, -124(%rbp)
 3861              	.LEHB164:
 139:testCore.cpp  **** 	CHECK_EQUAL(BUF_SUCCESS, status);
 3862              		.loc 3 139 0
 3863 1b5c E8000000 		call	_ZN8UnitTest11CurrentTest7DetailsEv
 3863      00
 3864 1b61 488B08   		movq	(%rax), %rcx
 3865 1b64 488D45B0 		leaq	-80(%rbp), %rax
 3866 1b68 BA8B0000 		movl	$139, %edx
 3866      00
 3867 1b6d 4889CE   		movq	%rcx, %rsi
 3868 1b70 4889C7   		movq	%rax, %rdi
 3869 1b73 E8000000 		call	_ZN8UnitTest11TestDetailsC1ERKS0_i
 3869      00
 3870              		.loc 3 139 0 is_stmt 0 discriminator 2
 3871 1b78 C7458800 		movl	$0, -120(%rbp)
 3871      000000
 3872 1b7f E8000000 		call	_ZN8UnitTest11CurrentTest7ResultsEv
 3872      00
 3873 1b84 488B00   		movq	(%rax), %rax
 3874 1b87 488D4DB0 		leaq	-80(%rbp), %rcx
 3875 1b8b 488D5584 		leaq	-124(%rbp), %rdx
 3876 1b8f 488D7588 		leaq	-120(%rbp), %rsi
 3877 1b93 4889C7   		movq	%rax, %rdi
 3878 1b96 E8000000 		call	_ZN8UnitTest10CheckEqualI12BufferStatusS1_EEvRNS_11TestResultsERKT_RKT0_RKNS_11TestDetailsE
 3878      00
 3879              	.LEHE164:
 3880              	.L218:
 140:testCore.cpp  **** 	status = bufAppendByte(&buf, 5, NULL);
 3881              		.loc 3 140 0 is_stmt 1
 3882 1b9b 488D4590 		leaq	-112(%rbp), %rax
 3883 1b9f BA000000 		movl	$0, %edx
 3883      00
 3884 1ba4 BE050000 		movl	$5, %esi
 3884      00
 3885 1ba9 4889C7   		movq	%rax, %rdi
 3886              	.LEHB165:
 3887 1bac E8000000 		call	bufAppendByte
 3887      00
 3888              	.LEHE165:
 3889 1bb1 894584   		movl	%eax, -124(%rbp)
 3890              	.LEHB166:
 141:testCore.cpp  **** 	CHECK_EQUAL(BUF_SUCCESS, status);
 3891              		.loc 3 141 0
 3892 1bb4 E8000000 		call	_ZN8UnitTest11CurrentTest7DetailsEv
 3892      00
 3893 1bb9 488B08   		movq	(%rax), %rcx
 3894 1bbc 488D45B0 		leaq	-80(%rbp), %rax
 3895 1bc0 BA8D0000 		movl	$141, %edx
 3895      00
 3896 1bc5 4889CE   		movq	%rcx, %rsi
 3897 1bc8 4889C7   		movq	%rax, %rdi
 3898 1bcb E8000000 		call	_ZN8UnitTest11TestDetailsC1ERKS0_i
 3898      00
 3899              		.loc 3 141 0 is_stmt 0 discriminator 2
 3900 1bd0 C7458800 		movl	$0, -120(%rbp)
 3900      000000
 3901 1bd7 E8000000 		call	_ZN8UnitTest11CurrentTest7ResultsEv
 3901      00
 3902 1bdc 488B00   		movq	(%rax), %rax
 3903 1bdf 488D4DB0 		leaq	-80(%rbp), %rcx
 3904 1be3 488D5584 		leaq	-124(%rbp), %rdx
 3905 1be7 488D7588 		leaq	-120(%rbp), %rsi
 3906 1beb 4889C7   		movq	%rax, %rdi
 3907 1bee E8000000 		call	_ZN8UnitTest10CheckEqualI12BufferStatusS1_EEvRNS_11TestResultsERKT_RKT0_RKNS_11TestDetailsE
 3907      00
 3908              	.LEHE166:
 3909              	.L221:
 142:testCore.cpp  **** 	status = bufAppendByte(&buf, 6, NULL);
 3910              		.loc 3 142 0 is_stmt 1
 3911 1bf3 488D4590 		leaq	-112(%rbp), %rax
 3912 1bf7 BA000000 		movl	$0, %edx
 3912      00
 3913 1bfc BE060000 		movl	$6, %esi
 3913      00
 3914 1c01 4889C7   		movq	%rax, %rdi
 3915              	.LEHB167:
 3916 1c04 E8000000 		call	bufAppendByte
 3916      00
 3917              	.LEHE167:
 3918 1c09 894584   		movl	%eax, -124(%rbp)
 3919              	.LEHB168:
 143:testCore.cpp  **** 	CHECK_EQUAL(BUF_SUCCESS, status);
 3920              		.loc 3 143 0
 3921 1c0c E8000000 		call	_ZN8UnitTest11CurrentTest7DetailsEv
 3921      00
 3922 1c11 488B08   		movq	(%rax), %rcx
 3923 1c14 488D45B0 		leaq	-80(%rbp), %rax
 3924 1c18 BA8F0000 		movl	$143, %edx
 3924      00
 3925 1c1d 4889CE   		movq	%rcx, %rsi
 3926 1c20 4889C7   		movq	%rax, %rdi
 3927 1c23 E8000000 		call	_ZN8UnitTest11TestDetailsC1ERKS0_i
 3927      00
 3928              		.loc 3 143 0 is_stmt 0 discriminator 2
 3929 1c28 C7458800 		movl	$0, -120(%rbp)
 3929      000000
 3930 1c2f E8000000 		call	_ZN8UnitTest11CurrentTest7ResultsEv
 3930      00
 3931 1c34 488B00   		movq	(%rax), %rax
 3932 1c37 488D4DB0 		leaq	-80(%rbp), %rcx
 3933 1c3b 488D5584 		leaq	-124(%rbp), %rdx
 3934 1c3f 488D7588 		leaq	-120(%rbp), %rsi
 3935 1c43 4889C7   		movq	%rax, %rdi
 3936 1c46 E8000000 		call	_ZN8UnitTest10CheckEqualI12BufferStatusS1_EEvRNS_11TestResultsERKT_RKT0_RKNS_11TestDetailsE
 3936      00
 3937              	.LEHE168:
 3938              	.L224:
 144:testCore.cpp  **** 	status = bufAppendByte(&buf, 7, NULL);
 3939              		.loc 3 144 0 is_stmt 1
 3940 1c4b 488D4590 		leaq	-112(%rbp), %rax
 3941 1c4f BA000000 		movl	$0, %edx
 3941      00
 3942 1c54 BE070000 		movl	$7, %esi
 3942      00
 3943 1c59 4889C7   		movq	%rax, %rdi
 3944              	.LEHB169:
 3945 1c5c E8000000 		call	bufAppendByte
 3945      00
 3946              	.LEHE169:
 3947 1c61 894584   		movl	%eax, -124(%rbp)
 3948              	.LEHB170:
 145:testCore.cpp  **** 	CHECK_EQUAL(BUF_SUCCESS, status);
 3949              		.loc 3 145 0
 3950 1c64 E8000000 		call	_ZN8UnitTest11CurrentTest7DetailsEv
 3950      00
 3951 1c69 488B08   		movq	(%rax), %rcx
 3952 1c6c 488D45B0 		leaq	-80(%rbp), %rax
 3953 1c70 BA910000 		movl	$145, %edx
 3953      00
 3954 1c75 4889CE   		movq	%rcx, %rsi
 3955 1c78 4889C7   		movq	%rax, %rdi
 3956 1c7b E8000000 		call	_ZN8UnitTest11TestDetailsC1ERKS0_i
 3956      00
 3957              		.loc 3 145 0 is_stmt 0 discriminator 2
 3958 1c80 C7458800 		movl	$0, -120(%rbp)
 3958      000000
 3959 1c87 E8000000 		call	_ZN8UnitTest11CurrentTest7ResultsEv
 3959      00
 3960 1c8c 488B00   		movq	(%rax), %rax
 3961 1c8f 488D4DB0 		leaq	-80(%rbp), %rcx
 3962 1c93 488D5584 		leaq	-124(%rbp), %rdx
 3963 1c97 488D7588 		leaq	-120(%rbp), %rsi
 3964 1c9b 4889C7   		movq	%rax, %rdi
 3965 1c9e E8000000 		call	_ZN8UnitTest10CheckEqualI12BufferStatusS1_EEvRNS_11TestResultsERKT_RKT0_RKNS_11TestDetailsE
 3965      00
 3966              	.LEHE170:
 3967              	.L227:
 146:testCore.cpp  **** 	status = bufAppendByte(&buf, 8, NULL);
 3968              		.loc 3 146 0 is_stmt 1
 3969 1ca3 488D4590 		leaq	-112(%rbp), %rax
 3970 1ca7 BA000000 		movl	$0, %edx
 3970      00
 3971 1cac BE080000 		movl	$8, %esi
 3971      00
 3972 1cb1 4889C7   		movq	%rax, %rdi
 3973              	.LEHB171:
 3974 1cb4 E8000000 		call	bufAppendByte
 3974      00
 3975              	.LEHE171:
 3976 1cb9 894584   		movl	%eax, -124(%rbp)
 3977              	.LEHB172:
 147:testCore.cpp  **** 	CHECK_EQUAL(BUF_SUCCESS, status);
 3978              		.loc 3 147 0
 3979 1cbc E8000000 		call	_ZN8UnitTest11CurrentTest7DetailsEv
 3979      00
 3980 1cc1 488B08   		movq	(%rax), %rcx
 3981 1cc4 488D45B0 		leaq	-80(%rbp), %rax
 3982 1cc8 BA930000 		movl	$147, %edx
 3982      00
 3983 1ccd 4889CE   		movq	%rcx, %rsi
 3984 1cd0 4889C7   		movq	%rax, %rdi
 3985 1cd3 E8000000 		call	_ZN8UnitTest11TestDetailsC1ERKS0_i
 3985      00
 3986              		.loc 3 147 0 is_stmt 0 discriminator 2
 3987 1cd8 C7458800 		movl	$0, -120(%rbp)
 3987      000000
 3988 1cdf E8000000 		call	_ZN8UnitTest11CurrentTest7ResultsEv
 3988      00
 3989 1ce4 488B00   		movq	(%rax), %rax
 3990 1ce7 488D4DB0 		leaq	-80(%rbp), %rcx
 3991 1ceb 488D5584 		leaq	-124(%rbp), %rdx
 3992 1cef 488D7588 		leaq	-120(%rbp), %rsi
 3993 1cf3 4889C7   		movq	%rax, %rdi
 3994 1cf6 E8000000 		call	_ZN8UnitTest10CheckEqualI12BufferStatusS1_EEvRNS_11TestResultsERKT_RKT0_RKNS_11TestDetailsE
 3994      00
 3995              	.LEHE172:
 3996              	.L230:
 148:testCore.cpp  **** 	status = bufAppendByte(&buf, 9, NULL);
 3997              		.loc 3 148 0 is_stmt 1
 3998 1cfb 488D4590 		leaq	-112(%rbp), %rax
 3999 1cff BA000000 		movl	$0, %edx
 3999      00
 4000 1d04 BE090000 		movl	$9, %esi
 4000      00
 4001 1d09 4889C7   		movq	%rax, %rdi
 4002              	.LEHB173:
 4003 1d0c E8000000 		call	bufAppendByte
 4003      00
 4004              	.LEHE173:
 4005 1d11 894584   		movl	%eax, -124(%rbp)
 4006              	.LEHB174:
 149:testCore.cpp  **** 	CHECK_EQUAL(BUF_SUCCESS, status);
 4007              		.loc 3 149 0
 4008 1d14 E8000000 		call	_ZN8UnitTest11CurrentTest7DetailsEv
 4008      00
 4009 1d19 488B08   		movq	(%rax), %rcx
 4010 1d1c 488D45B0 		leaq	-80(%rbp), %rax
 4011 1d20 BA950000 		movl	$149, %edx
 4011      00
 4012 1d25 4889CE   		movq	%rcx, %rsi
 4013 1d28 4889C7   		movq	%rax, %rdi
 4014 1d2b E8000000 		call	_ZN8UnitTest11TestDetailsC1ERKS0_i
 4014      00
 4015              		.loc 3 149 0 is_stmt 0 discriminator 2
 4016 1d30 C7458800 		movl	$0, -120(%rbp)
 4016      000000
 4017 1d37 E8000000 		call	_ZN8UnitTest11CurrentTest7ResultsEv
 4017      00
 4018 1d3c 488B00   		movq	(%rax), %rax
 4019 1d3f 488D4DB0 		leaq	-80(%rbp), %rcx
 4020 1d43 488D5584 		leaq	-124(%rbp), %rdx
 4021 1d47 488D7588 		leaq	-120(%rbp), %rsi
 4022 1d4b 4889C7   		movq	%rax, %rdi
 4023 1d4e E8000000 		call	_ZN8UnitTest10CheckEqualI12BufferStatusS1_EEvRNS_11TestResultsERKT_RKT0_RKNS_11TestDetailsE
 4023      00
 4024              	.LEHE174:
 4025              	.L233:
 4026              	.LEHB175:
 150:testCore.cpp  **** 	CHECK_EQUAL(16UL, buf.capacity);
 4027              		.loc 3 150 0 is_stmt 1
 4028 1d53 E8000000 		call	_ZN8UnitTest11CurrentTest7DetailsEv
 4028      00
 4029 1d58 488B08   		movq	(%rax), %rcx
 4030 1d5b 488D45B0 		leaq	-80(%rbp), %rax
 4031 1d5f BA960000 		movl	$150, %edx
 4031      00
 4032 1d64 4889CE   		movq	%rcx, %rsi
 4033 1d67 4889C7   		movq	%rax, %rdi
 4034 1d6a E8000000 		call	_ZN8UnitTest11TestDetailsC1ERKS0_i
 4034      00
 4035              		.loc 3 150 0 is_stmt 0 discriminator 2
 4036 1d6f 48C74588 		movq	$16, -120(%rbp)
 4036      10000000 
 4037 1d77 E8000000 		call	_ZN8UnitTest11CurrentTest7ResultsEv
 4037      00
 4038 1d7c 488B00   		movq	(%rax), %rax
 4039 1d7f 488D55B0 		leaq	-80(%rbp), %rdx
 4040 1d83 488D4D90 		leaq	-112(%rbp), %rcx
 4041 1d87 488D790C 		leaq	12(%rcx), %rdi
 4042 1d8b 488D7588 		leaq	-120(%rbp), %rsi
 4043 1d8f 4889D1   		movq	%rdx, %rcx
 4044 1d92 4889FA   		movq	%rdi, %rdx
 4045 1d95 4889C7   		movq	%rax, %rdi
 4046 1d98 E8000000 		call	_ZN8UnitTest10CheckEqualImjEEvRNS_11TestResultsERKT_RKT0_RKNS_11TestDetailsE
 4046      00
 4047              	.LEHE175:
 4048              	.L236:
 4049              	.LEHB176:
 151:testCore.cpp  **** 	CHECK_EQUAL(9UL, buf.length);
 4050              		.loc 3 151 0 is_stmt 1
 4051 1d9d E8000000 		call	_ZN8UnitTest11CurrentTest7DetailsEv
 4051      00
 4052 1da2 488B08   		movq	(%rax), %rcx
 4053 1da5 488D45B0 		leaq	-80(%rbp), %rax
 4054 1da9 BA970000 		movl	$151, %edx
 4054      00
 4055 1dae 4889CE   		movq	%rcx, %rsi
 4056 1db1 4889C7   		movq	%rax, %rdi
 4057 1db4 E8000000 		call	_ZN8UnitTest11TestDetailsC1ERKS0_i
 4057      00
 4058              		.loc 3 151 0 is_stmt 0 discriminator 2
 4059 1db9 48C74588 		movq	$9, -120(%rbp)
 4059      09000000 
 4060 1dc1 E8000000 		call	_ZN8UnitTest11CurrentTest7ResultsEv
 4060      00
 4061 1dc6 488B00   		movq	(%rax), %rax
 4062 1dc9 488D55B0 		leaq	-80(%rbp), %rdx
 4063 1dcd 488D4D90 		leaq	-112(%rbp), %rcx
 4064 1dd1 488D7908 		leaq	8(%rcx), %rdi
 4065 1dd5 488D7588 		leaq	-120(%rbp), %rsi
 4066 1dd9 4889D1   		movq	%rdx, %rcx
 4067 1ddc 4889FA   		movq	%rdi, %rdx
 4068 1ddf 4889C7   		movq	%rax, %rdi
 4069 1de2 E8000000 		call	_ZN8UnitTest10CheckEqualImjEEvRNS_11TestResultsERKT_RKT0_RKNS_11TestDetailsE
 4069      00
 4070              	.LEHE176:
 4071              	.L239:
 4072              	.LEHB177:
 152:testCore.cpp  **** 	CHECK_ARRAY_EQUAL(expected, buf.data, 16);
 4073              		.loc 3 152 0 is_stmt 1
 4074 1de7 E8000000 		call	_ZN8UnitTest11CurrentTest7DetailsEv
 4074      00
 4075 1dec 488B08   		movq	(%rax), %rcx
 4076 1def 488D45B0 		leaq	-80(%rbp), %rax
 4077 1df3 BA980000 		movl	$152, %edx
 4077      00
 4078 1df8 4889CE   		movq	%rcx, %rsi
 4079 1dfb 4889C7   		movq	%rax, %rdi
 4080 1dfe E8000000 		call	_ZN8UnitTest11TestDetailsC1ERKS0_i
 4080      00
 4081              		.loc 3 152 0 is_stmt 0 discriminator 2
 4082 1e03 E8000000 		call	_ZN8UnitTest11CurrentTest7ResultsEv
 4082      00
 4083 1e08 488B00   		movq	(%rax), %rax
 4084 1e0b 488D4DB0 		leaq	-80(%rbp), %rcx
 4085 1e0f 488D5590 		leaq	-112(%rbp), %rdx
 4086 1e13 488D75D0 		leaq	-48(%rbp), %rsi
 4087 1e17 4989C8   		movq	%rcx, %r8
 4088 1e1a B9100000 		movl	$16, %ecx
 4088      00
 4089 1e1f 4889C7   		movq	%rax, %rdi
 4090 1e22 E8000000 		call	_ZN8UnitTest15CheckArrayEqualIA16_hPhEEvRNS_11TestResultsERKT_RKT0_iRKNS_11TestDetailsE
 4090      00
 4091              	.LEHE177:
 4092              	.L242:
 153:testCore.cpp  **** 	bufDestroy(&buf);
 4093              		.loc 3 153 0 is_stmt 1
 4094 1e27 488D4590 		leaq	-112(%rbp), %rax
 4095 1e2b 4889C7   		movq	%rax, %rdi
 4096              	.LEHB178:
 4097 1e2e E8000000 		call	bufDestroy
 4097      00
 4098              	.LEHE178:
 4099              	.LBE26:
 154:testCore.cpp  **** }
 4100              		.loc 3 154 0
 4101 1e33 488B45E8 		movq	-24(%rbp), %rax
 4102 1e37 64483304 		xorq	%fs:40, %rax
 4102      25280000 
 4102      00
 4103 1e40 0F84C304 		je	.L243
 4103      0000
 4104 1e46 E9B90400 		jmp	.L270
 4104      00
 4105              	.L245:
 4106 1e4b 4889C3   		movq	%rax, %rbx
 4107              	.LBB27:
 129:testCore.cpp  **** 
 4108              		.loc 3 129 0
 4109 1e4e E8000000 		call	__cxa_end_catch
 4109      00
 4110 1e53 4889D8   		movq	%rbx, %rax
 4111 1e56 4889C7   		movq	%rax, %rdi
 4112              	.LEHB179:
 4113 1e59 E8000000 		call	_Unwind_Resume
 4113      00
 4114              	.LEHE179:
 4115              	.L244:
 4116 1e5e 4889C7   		movq	%rax, %rdi
 4117 1e61 E8000000 		call	__cxa_begin_catch
 4117      00
 4118              	.LEHB180:
 4119 1e66 E8000000 		call	_ZN8UnitTest11CurrentTest7DetailsEv
 4119      00
 4120 1e6b 488B08   		movq	(%rax), %rcx
 4121 1e6e 488D45B0 		leaq	-80(%rbp), %rax
 4122 1e72 BA810000 		movl	$129, %edx
 4122      00
 4123 1e77 4889CE   		movq	%rcx, %rsi
 4124 1e7a 4889C7   		movq	%rax, %rdi
 4125 1e7d E8000000 		call	_ZN8UnitTest11TestDetailsC1ERKS0_i
 4125      00
 129:testCore.cpp  **** 
 4126              		.loc 3 129 0 is_stmt 0 discriminator 10
 4127 1e82 E8000000 		call	_ZN8UnitTest11CurrentTest7ResultsEv
 4127      00
 4128 1e87 488B00   		movq	(%rax), %rax
 4129 1e8a 488D4DB0 		leaq	-80(%rbp), %rcx
 4130 1e8e BA000000 		movl	$.LC3, %edx
 4130      00
 4131 1e93 4889CE   		movq	%rcx, %rsi
 4132 1e96 4889C7   		movq	%rax, %rdi
 4133 1e99 E8000000 		call	_ZN8UnitTest11TestResults13OnTestFailureERKNS_11TestDetailsEPKc
 4133      00
 4134              	.LEHE180:
 4135              	.LEHB181:
 129:testCore.cpp  **** 
 4136              		.loc 3 129 0 discriminator 14
 4137 1e9e E8000000 		call	__cxa_end_catch
 4137      00
 4138              	.LEHE181:
 4139 1ea3 E953FBFF 		jmp	.L206
 4139      FF
 4140              	.L247:
 4141 1ea8 4889C3   		movq	%rax, %rbx
 133:testCore.cpp  **** 	status = bufAppendByte(&buf, 2, NULL);
 4142              		.loc 3 133 0 is_stmt 1
 4143 1eab E8000000 		call	__cxa_end_catch
 4143      00
 4144 1eb0 4889D8   		movq	%rbx, %rax
 4145 1eb3 4889C7   		movq	%rax, %rdi
 4146              	.LEHB182:
 4147 1eb6 E8000000 		call	_Unwind_Resume
 4147      00
 4148              	.LEHE182:
 4149              	.L246:
 4150 1ebb 4889C7   		movq	%rax, %rdi
 4151 1ebe E8000000 		call	__cxa_begin_catch
 4151      00
 4152              	.LEHB183:
 4153 1ec3 E8000000 		call	_ZN8UnitTest11CurrentTest7DetailsEv
 4153      00
 4154 1ec8 488B08   		movq	(%rax), %rcx
 4155 1ecb 488D45B0 		leaq	-80(%rbp), %rax
 4156 1ecf BA850000 		movl	$133, %edx
 4156      00
 4157 1ed4 4889CE   		movq	%rcx, %rsi
 4158 1ed7 4889C7   		movq	%rax, %rdi
 4159 1eda E8000000 		call	_ZN8UnitTest11TestDetailsC1ERKS0_i
 4159      00
 133:testCore.cpp  **** 	status = bufAppendByte(&buf, 2, NULL);
 4160              		.loc 3 133 0 is_stmt 0 discriminator 10
 4161 1edf E8000000 		call	_ZN8UnitTest11CurrentTest7ResultsEv
 4161      00
 4162 1ee4 488B00   		movq	(%rax), %rax
 4163 1ee7 488D4DB0 		leaq	-80(%rbp), %rcx
 4164 1eeb BA000000 		movl	$.LC3, %edx
 4164      00
 4165 1ef0 4889CE   		movq	%rcx, %rsi
 4166 1ef3 4889C7   		movq	%rax, %rdi
 4167 1ef6 E8000000 		call	_ZN8UnitTest11TestResults13OnTestFailureERKNS_11TestDetailsEPKc
 4167      00
 4168              	.LEHE183:
 4169              	.LEHB184:
 133:testCore.cpp  **** 	status = bufAppendByte(&buf, 2, NULL);
 4170              		.loc 3 133 0 discriminator 14
 4171 1efb E8000000 		call	__cxa_end_catch
 4171      00
 4172              	.LEHE184:
 4173 1f00 E98EFBFF 		jmp	.L209
 4173      FF
 4174              	.L249:
 4175 1f05 4889C3   		movq	%rax, %rbx
 135:testCore.cpp  **** 	status = bufAppendByte(&buf, 3, NULL);
 4176              		.loc 3 135 0 is_stmt 1
 4177 1f08 E8000000 		call	__cxa_end_catch
 4177      00
 4178 1f0d 4889D8   		movq	%rbx, %rax
 4179 1f10 4889C7   		movq	%rax, %rdi
 4180              	.LEHB185:
 4181 1f13 E8000000 		call	_Unwind_Resume
 4181      00
 4182              	.LEHE185:
 4183              	.L248:
 4184 1f18 4889C7   		movq	%rax, %rdi
 4185 1f1b E8000000 		call	__cxa_begin_catch
 4185      00
 4186              	.LEHB186:
 4187 1f20 E8000000 		call	_ZN8UnitTest11CurrentTest7DetailsEv
 4187      00
 4188 1f25 488B08   		movq	(%rax), %rcx
 4189 1f28 488D45B0 		leaq	-80(%rbp), %rax
 4190 1f2c BA870000 		movl	$135, %edx
 4190      00
 4191 1f31 4889CE   		movq	%rcx, %rsi
 4192 1f34 4889C7   		movq	%rax, %rdi
 4193 1f37 E8000000 		call	_ZN8UnitTest11TestDetailsC1ERKS0_i
 4193      00
 135:testCore.cpp  **** 	status = bufAppendByte(&buf, 3, NULL);
 4194              		.loc 3 135 0 is_stmt 0 discriminator 10
 4195 1f3c E8000000 		call	_ZN8UnitTest11CurrentTest7ResultsEv
 4195      00
 4196 1f41 488B00   		movq	(%rax), %rax
 4197 1f44 488D4DB0 		leaq	-80(%rbp), %rcx
 4198 1f48 BA000000 		movl	$.LC3, %edx
 4198      00
 4199 1f4d 4889CE   		movq	%rcx, %rsi
 4200 1f50 4889C7   		movq	%rax, %rdi
 4201 1f53 E8000000 		call	_ZN8UnitTest11TestResults13OnTestFailureERKNS_11TestDetailsEPKc
 4201      00
 4202              	.LEHE186:
 4203              	.LEHB187:
 135:testCore.cpp  **** 	status = bufAppendByte(&buf, 3, NULL);
 4204              		.loc 3 135 0 discriminator 14
 4205 1f58 E8000000 		call	__cxa_end_catch
 4205      00
 4206              	.LEHE187:
 4207 1f5d E989FBFF 		jmp	.L212
 4207      FF
 4208              	.L251:
 4209 1f62 4889C3   		movq	%rax, %rbx
 137:testCore.cpp  **** 	status = bufAppendByte(&buf, 4, NULL);
 4210              		.loc 3 137 0 is_stmt 1
 4211 1f65 E8000000 		call	__cxa_end_catch
 4211      00
 4212 1f6a 4889D8   		movq	%rbx, %rax
 4213 1f6d 4889C7   		movq	%rax, %rdi
 4214              	.LEHB188:
 4215 1f70 E8000000 		call	_Unwind_Resume
 4215      00
 4216              	.LEHE188:
 4217              	.L250:
 4218 1f75 4889C7   		movq	%rax, %rdi
 4219 1f78 E8000000 		call	__cxa_begin_catch
 4219      00
 4220              	.LEHB189:
 4221 1f7d E8000000 		call	_ZN8UnitTest11CurrentTest7DetailsEv
 4221      00
 4222 1f82 488B08   		movq	(%rax), %rcx
 4223 1f85 488D45B0 		leaq	-80(%rbp), %rax
 4224 1f89 BA890000 		movl	$137, %edx
 4224      00
 4225 1f8e 4889CE   		movq	%rcx, %rsi
 4226 1f91 4889C7   		movq	%rax, %rdi
 4227 1f94 E8000000 		call	_ZN8UnitTest11TestDetailsC1ERKS0_i
 4227      00
 137:testCore.cpp  **** 	status = bufAppendByte(&buf, 4, NULL);
 4228              		.loc 3 137 0 is_stmt 0 discriminator 10
 4229 1f99 E8000000 		call	_ZN8UnitTest11CurrentTest7ResultsEv
 4229      00
 4230 1f9e 488B00   		movq	(%rax), %rax
 4231 1fa1 488D4DB0 		leaq	-80(%rbp), %rcx
 4232 1fa5 BA000000 		movl	$.LC3, %edx
 4232      00
 4233 1faa 4889CE   		movq	%rcx, %rsi
 4234 1fad 4889C7   		movq	%rax, %rdi
 4235 1fb0 E8000000 		call	_ZN8UnitTest11TestResults13OnTestFailureERKNS_11TestDetailsEPKc
 4235      00
 4236              	.LEHE189:
 4237              	.LEHB190:
 137:testCore.cpp  **** 	status = bufAppendByte(&buf, 4, NULL);
 4238              		.loc 3 137 0 discriminator 14
 4239 1fb5 E8000000 		call	__cxa_end_catch
 4239      00
 4240              	.LEHE190:
 4241 1fba E984FBFF 		jmp	.L215
 4241      FF
 4242              	.L253:
 4243 1fbf 4889C3   		movq	%rax, %rbx
 139:testCore.cpp  **** 	status = bufAppendByte(&buf, 5, NULL);
 4244              		.loc 3 139 0 is_stmt 1
 4245 1fc2 E8000000 		call	__cxa_end_catch
 4245      00
 4246 1fc7 4889D8   		movq	%rbx, %rax
 4247 1fca 4889C7   		movq	%rax, %rdi
 4248              	.LEHB191:
 4249 1fcd E8000000 		call	_Unwind_Resume
 4249      00
 4250              	.LEHE191:
 4251              	.L252:
 4252 1fd2 4889C7   		movq	%rax, %rdi
 4253 1fd5 E8000000 		call	__cxa_begin_catch
 4253      00
 4254              	.LEHB192:
 4255 1fda E8000000 		call	_ZN8UnitTest11CurrentTest7DetailsEv
 4255      00
 4256 1fdf 488B08   		movq	(%rax), %rcx
 4257 1fe2 488D45B0 		leaq	-80(%rbp), %rax
 4258 1fe6 BA8B0000 		movl	$139, %edx
 4258      00
 4259 1feb 4889CE   		movq	%rcx, %rsi
 4260 1fee 4889C7   		movq	%rax, %rdi
 4261 1ff1 E8000000 		call	_ZN8UnitTest11TestDetailsC1ERKS0_i
 4261      00
 139:testCore.cpp  **** 	status = bufAppendByte(&buf, 5, NULL);
 4262              		.loc 3 139 0 is_stmt 0 discriminator 10
 4263 1ff6 E8000000 		call	_ZN8UnitTest11CurrentTest7ResultsEv
 4263      00
 4264 1ffb 488B00   		movq	(%rax), %rax
 4265 1ffe 488D4DB0 		leaq	-80(%rbp), %rcx
 4266 2002 BA000000 		movl	$.LC3, %edx
 4266      00
 4267 2007 4889CE   		movq	%rcx, %rsi
 4268 200a 4889C7   		movq	%rax, %rdi
 4269 200d E8000000 		call	_ZN8UnitTest11TestResults13OnTestFailureERKNS_11TestDetailsEPKc
 4269      00
 4270              	.LEHE192:
 4271              	.LEHB193:
 139:testCore.cpp  **** 	status = bufAppendByte(&buf, 5, NULL);
 4272              		.loc 3 139 0 discriminator 14
 4273 2012 E8000000 		call	__cxa_end_catch
 4273      00
 4274              	.LEHE193:
 4275 2017 E97FFBFF 		jmp	.L218
 4275      FF
 4276              	.L255:
 4277 201c 4889C3   		movq	%rax, %rbx
 141:testCore.cpp  **** 	status = bufAppendByte(&buf, 6, NULL);
 4278              		.loc 3 141 0 is_stmt 1
 4279 201f E8000000 		call	__cxa_end_catch
 4279      00
 4280 2024 4889D8   		movq	%rbx, %rax
 4281 2027 4889C7   		movq	%rax, %rdi
 4282              	.LEHB194:
 4283 202a E8000000 		call	_Unwind_Resume
 4283      00
 4284              	.LEHE194:
 4285              	.L254:
 4286 202f 4889C7   		movq	%rax, %rdi
 4287 2032 E8000000 		call	__cxa_begin_catch
 4287      00
 4288              	.LEHB195:
 4289 2037 E8000000 		call	_ZN8UnitTest11CurrentTest7DetailsEv
 4289      00
 4290 203c 488B08   		movq	(%rax), %rcx
 4291 203f 488D45B0 		leaq	-80(%rbp), %rax
 4292 2043 BA8D0000 		movl	$141, %edx
 4292      00
 4293 2048 4889CE   		movq	%rcx, %rsi
 4294 204b 4889C7   		movq	%rax, %rdi
 4295 204e E8000000 		call	_ZN8UnitTest11TestDetailsC1ERKS0_i
 4295      00
 141:testCore.cpp  **** 	status = bufAppendByte(&buf, 6, NULL);
 4296              		.loc 3 141 0 is_stmt 0 discriminator 10
 4297 2053 E8000000 		call	_ZN8UnitTest11CurrentTest7ResultsEv
 4297      00
 4298 2058 488B00   		movq	(%rax), %rax
 4299 205b 488D4DB0 		leaq	-80(%rbp), %rcx
 4300 205f BA000000 		movl	$.LC3, %edx
 4300      00
 4301 2064 4889CE   		movq	%rcx, %rsi
 4302 2067 4889C7   		movq	%rax, %rdi
 4303 206a E8000000 		call	_ZN8UnitTest11TestResults13OnTestFailureERKNS_11TestDetailsEPKc
 4303      00
 4304              	.LEHE195:
 4305              	.LEHB196:
 141:testCore.cpp  **** 	status = bufAppendByte(&buf, 6, NULL);
 4306              		.loc 3 141 0 discriminator 14
 4307 206f E8000000 		call	__cxa_end_catch
 4307      00
 4308              	.LEHE196:
 4309 2074 E97AFBFF 		jmp	.L221
 4309      FF
 4310              	.L257:
 4311 2079 4889C3   		movq	%rax, %rbx
 143:testCore.cpp  **** 	status = bufAppendByte(&buf, 7, NULL);
 4312              		.loc 3 143 0 is_stmt 1
 4313 207c E8000000 		call	__cxa_end_catch
 4313      00
 4314 2081 4889D8   		movq	%rbx, %rax
 4315 2084 4889C7   		movq	%rax, %rdi
 4316              	.LEHB197:
 4317 2087 E8000000 		call	_Unwind_Resume
 4317      00
 4318              	.LEHE197:
 4319              	.L256:
 4320 208c 4889C7   		movq	%rax, %rdi
 4321 208f E8000000 		call	__cxa_begin_catch
 4321      00
 4322              	.LEHB198:
 4323 2094 E8000000 		call	_ZN8UnitTest11CurrentTest7DetailsEv
 4323      00
 4324 2099 488B08   		movq	(%rax), %rcx
 4325 209c 488D45B0 		leaq	-80(%rbp), %rax
 4326 20a0 BA8F0000 		movl	$143, %edx
 4326      00
 4327 20a5 4889CE   		movq	%rcx, %rsi
 4328 20a8 4889C7   		movq	%rax, %rdi
 4329 20ab E8000000 		call	_ZN8UnitTest11TestDetailsC1ERKS0_i
 4329      00
 143:testCore.cpp  **** 	status = bufAppendByte(&buf, 7, NULL);
 4330              		.loc 3 143 0 is_stmt 0 discriminator 10
 4331 20b0 E8000000 		call	_ZN8UnitTest11CurrentTest7ResultsEv
 4331      00
 4332 20b5 488B00   		movq	(%rax), %rax
 4333 20b8 488D4DB0 		leaq	-80(%rbp), %rcx
 4334 20bc BA000000 		movl	$.LC3, %edx
 4334      00
 4335 20c1 4889CE   		movq	%rcx, %rsi
 4336 20c4 4889C7   		movq	%rax, %rdi
 4337 20c7 E8000000 		call	_ZN8UnitTest11TestResults13OnTestFailureERKNS_11TestDetailsEPKc
 4337      00
 4338              	.LEHE198:
 4339              	.LEHB199:
 143:testCore.cpp  **** 	status = bufAppendByte(&buf, 7, NULL);
 4340              		.loc 3 143 0 discriminator 14
 4341 20cc E8000000 		call	__cxa_end_catch
 4341      00
 4342              	.LEHE199:
 4343 20d1 E975FBFF 		jmp	.L224
 4343      FF
 4344              	.L259:
 4345 20d6 4889C3   		movq	%rax, %rbx
 145:testCore.cpp  **** 	status = bufAppendByte(&buf, 8, NULL);
 4346              		.loc 3 145 0 is_stmt 1
 4347 20d9 E8000000 		call	__cxa_end_catch
 4347      00
 4348 20de 4889D8   		movq	%rbx, %rax
 4349 20e1 4889C7   		movq	%rax, %rdi
 4350              	.LEHB200:
 4351 20e4 E8000000 		call	_Unwind_Resume
 4351      00
 4352              	.LEHE200:
 4353              	.L258:
 4354 20e9 4889C7   		movq	%rax, %rdi
 4355 20ec E8000000 		call	__cxa_begin_catch
 4355      00
 4356              	.LEHB201:
 4357 20f1 E8000000 		call	_ZN8UnitTest11CurrentTest7DetailsEv
 4357      00
 4358 20f6 488B08   		movq	(%rax), %rcx
 4359 20f9 488D45B0 		leaq	-80(%rbp), %rax
 4360 20fd BA910000 		movl	$145, %edx
 4360      00
 4361 2102 4889CE   		movq	%rcx, %rsi
 4362 2105 4889C7   		movq	%rax, %rdi
 4363 2108 E8000000 		call	_ZN8UnitTest11TestDetailsC1ERKS0_i
 4363      00
 145:testCore.cpp  **** 	status = bufAppendByte(&buf, 8, NULL);
 4364              		.loc 3 145 0 is_stmt 0 discriminator 10
 4365 210d E8000000 		call	_ZN8UnitTest11CurrentTest7ResultsEv
 4365      00
 4366 2112 488B00   		movq	(%rax), %rax
 4367 2115 488D4DB0 		leaq	-80(%rbp), %rcx
 4368 2119 BA000000 		movl	$.LC3, %edx
 4368      00
 4369 211e 4889CE   		movq	%rcx, %rsi
 4370 2121 4889C7   		movq	%rax, %rdi
 4371 2124 E8000000 		call	_ZN8UnitTest11TestResults13OnTestFailureERKNS_11TestDetailsEPKc
 4371      00
 4372              	.LEHE201:
 4373              	.LEHB202:
 145:testCore.cpp  **** 	status = bufAppendByte(&buf, 8, NULL);
 4374              		.loc 3 145 0 discriminator 14
 4375 2129 E8000000 		call	__cxa_end_catch
 4375      00
 4376              	.LEHE202:
 4377 212e E970FBFF 		jmp	.L227
 4377      FF
 4378              	.L261:
 4379 2133 4889C3   		movq	%rax, %rbx
 147:testCore.cpp  **** 	status = bufAppendByte(&buf, 9, NULL);
 4380              		.loc 3 147 0 is_stmt 1
 4381 2136 E8000000 		call	__cxa_end_catch
 4381      00
 4382 213b 4889D8   		movq	%rbx, %rax
 4383 213e 4889C7   		movq	%rax, %rdi
 4384              	.LEHB203:
 4385 2141 E8000000 		call	_Unwind_Resume
 4385      00
 4386              	.LEHE203:
 4387              	.L260:
 4388 2146 4889C7   		movq	%rax, %rdi
 4389 2149 E8000000 		call	__cxa_begin_catch
 4389      00
 4390              	.LEHB204:
 4391 214e E8000000 		call	_ZN8UnitTest11CurrentTest7DetailsEv
 4391      00
 4392 2153 488B08   		movq	(%rax), %rcx
 4393 2156 488D45B0 		leaq	-80(%rbp), %rax
 4394 215a BA930000 		movl	$147, %edx
 4394      00
 4395 215f 4889CE   		movq	%rcx, %rsi
 4396 2162 4889C7   		movq	%rax, %rdi
 4397 2165 E8000000 		call	_ZN8UnitTest11TestDetailsC1ERKS0_i
 4397      00
 147:testCore.cpp  **** 	status = bufAppendByte(&buf, 9, NULL);
 4398              		.loc 3 147 0 is_stmt 0 discriminator 10
 4399 216a E8000000 		call	_ZN8UnitTest11CurrentTest7ResultsEv
 4399      00
 4400 216f 488B00   		movq	(%rax), %rax
 4401 2172 488D4DB0 		leaq	-80(%rbp), %rcx
 4402 2176 BA000000 		movl	$.LC3, %edx
 4402      00
 4403 217b 4889CE   		movq	%rcx, %rsi
 4404 217e 4889C7   		movq	%rax, %rdi
 4405 2181 E8000000 		call	_ZN8UnitTest11TestResults13OnTestFailureERKNS_11TestDetailsEPKc
 4405      00
 4406              	.LEHE204:
 4407              	.LEHB205:
 147:testCore.cpp  **** 	status = bufAppendByte(&buf, 9, NULL);
 4408              		.loc 3 147 0 discriminator 14
 4409 2186 E8000000 		call	__cxa_end_catch
 4409      00
 4410              	.LEHE205:
 4411 218b E96BFBFF 		jmp	.L230
 4411      FF
 4412              	.L263:
 4413 2190 4889C3   		movq	%rax, %rbx
 149:testCore.cpp  **** 	CHECK_EQUAL(16UL, buf.capacity);
 4414              		.loc 3 149 0 is_stmt 1
 4415 2193 E8000000 		call	__cxa_end_catch
 4415      00
 4416 2198 4889D8   		movq	%rbx, %rax
 4417 219b 4889C7   		movq	%rax, %rdi
 4418              	.LEHB206:
 4419 219e E8000000 		call	_Unwind_Resume
 4419      00
 4420              	.LEHE206:
 4421              	.L262:
 4422 21a3 4889C7   		movq	%rax, %rdi
 4423 21a6 E8000000 		call	__cxa_begin_catch
 4423      00
 4424              	.LEHB207:
 4425 21ab E8000000 		call	_ZN8UnitTest11CurrentTest7DetailsEv
 4425      00
 4426 21b0 488B08   		movq	(%rax), %rcx
 4427 21b3 488D45B0 		leaq	-80(%rbp), %rax
 4428 21b7 BA950000 		movl	$149, %edx
 4428      00
 4429 21bc 4889CE   		movq	%rcx, %rsi
 4430 21bf 4889C7   		movq	%rax, %rdi
 4431 21c2 E8000000 		call	_ZN8UnitTest11TestDetailsC1ERKS0_i
 4431      00
 149:testCore.cpp  **** 	CHECK_EQUAL(16UL, buf.capacity);
 4432              		.loc 3 149 0 is_stmt 0 discriminator 10
 4433 21c7 E8000000 		call	_ZN8UnitTest11CurrentTest7ResultsEv
 4433      00
 4434 21cc 488B00   		movq	(%rax), %rax
 4435 21cf 488D4DB0 		leaq	-80(%rbp), %rcx
 4436 21d3 BA000000 		movl	$.LC3, %edx
 4436      00
 4437 21d8 4889CE   		movq	%rcx, %rsi
 4438 21db 4889C7   		movq	%rax, %rdi
 4439 21de E8000000 		call	_ZN8UnitTest11TestResults13OnTestFailureERKNS_11TestDetailsEPKc
 4439      00
 4440              	.LEHE207:
 4441              	.LEHB208:
 149:testCore.cpp  **** 	CHECK_EQUAL(16UL, buf.capacity);
 4442              		.loc 3 149 0 discriminator 14
 4443 21e3 E8000000 		call	__cxa_end_catch
 4443      00
 4444              	.LEHE208:
 4445 21e8 E966FBFF 		jmp	.L233
 4445      FF
 4446              	.L265:
 4447 21ed 4889C3   		movq	%rax, %rbx
 150:testCore.cpp  **** 	CHECK_EQUAL(9UL, buf.length);
 4448              		.loc 3 150 0 is_stmt 1
 4449 21f0 E8000000 		call	__cxa_end_catch
 4449      00
 4450 21f5 4889D8   		movq	%rbx, %rax
 4451 21f8 4889C7   		movq	%rax, %rdi
 4452              	.LEHB209:
 4453 21fb E8000000 		call	_Unwind_Resume
 4453      00
 4454              	.LEHE209:
 4455              	.L264:
 4456 2200 4889C7   		movq	%rax, %rdi
 4457 2203 E8000000 		call	__cxa_begin_catch
 4457      00
 4458              	.LEHB210:
 4459 2208 E8000000 		call	_ZN8UnitTest11CurrentTest7DetailsEv
 4459      00
 4460 220d 488B08   		movq	(%rax), %rcx
 4461 2210 488D45B0 		leaq	-80(%rbp), %rax
 4462 2214 BA960000 		movl	$150, %edx
 4462      00
 4463 2219 4889CE   		movq	%rcx, %rsi
 4464 221c 4889C7   		movq	%rax, %rdi
 4465 221f E8000000 		call	_ZN8UnitTest11TestDetailsC1ERKS0_i
 4465      00
 150:testCore.cpp  **** 	CHECK_EQUAL(9UL, buf.length);
 4466              		.loc 3 150 0 is_stmt 0 discriminator 10
 4467 2224 E8000000 		call	_ZN8UnitTest11CurrentTest7ResultsEv
 4467      00
 4468 2229 488B00   		movq	(%rax), %rax
 4469 222c 488D4DB0 		leaq	-80(%rbp), %rcx
 4470 2230 BA000000 		movl	$.LC13, %edx
 4470      00
 4471 2235 4889CE   		movq	%rcx, %rsi
 4472 2238 4889C7   		movq	%rax, %rdi
 4473 223b E8000000 		call	_ZN8UnitTest11TestResults13OnTestFailureERKNS_11TestDetailsEPKc
 4473      00
 4474              	.LEHE210:
 4475              	.LEHB211:
 150:testCore.cpp  **** 	CHECK_EQUAL(9UL, buf.length);
 4476              		.loc 3 150 0 discriminator 14
 4477 2240 E8000000 		call	__cxa_end_catch
 4477      00
 4478              	.LEHE211:
 4479 2245 E953FBFF 		jmp	.L236
 4479      FF
 4480              	.L267:
 4481 224a 4889C3   		movq	%rax, %rbx
 151:testCore.cpp  **** 	CHECK_ARRAY_EQUAL(expected, buf.data, 16);
 4482              		.loc 3 151 0 is_stmt 1
 4483 224d E8000000 		call	__cxa_end_catch
 4483      00
 4484 2252 4889D8   		movq	%rbx, %rax
 4485 2255 4889C7   		movq	%rax, %rdi
 4486              	.LEHB212:
 4487 2258 E8000000 		call	_Unwind_Resume
 4487      00
 4488              	.LEHE212:
 4489              	.L266:
 4490 225d 4889C7   		movq	%rax, %rdi
 4491 2260 E8000000 		call	__cxa_begin_catch
 4491      00
 4492              	.LEHB213:
 4493 2265 E8000000 		call	_ZN8UnitTest11CurrentTest7DetailsEv
 4493      00
 4494 226a 488B08   		movq	(%rax), %rcx
 4495 226d 488D45B0 		leaq	-80(%rbp), %rax
 4496 2271 BA970000 		movl	$151, %edx
 4496      00
 4497 2276 4889CE   		movq	%rcx, %rsi
 4498 2279 4889C7   		movq	%rax, %rdi
 4499 227c E8000000 		call	_ZN8UnitTest11TestDetailsC1ERKS0_i
 4499      00
 151:testCore.cpp  **** 	CHECK_ARRAY_EQUAL(expected, buf.data, 16);
 4500              		.loc 3 151 0 is_stmt 0 discriminator 10
 4501 2281 E8000000 		call	_ZN8UnitTest11CurrentTest7ResultsEv
 4501      00
 4502 2286 488B00   		movq	(%rax), %rax
 4503 2289 488D4DB0 		leaq	-80(%rbp), %rcx
 4504 228d BA000000 		movl	$.LC14, %edx
 4504      00
 4505 2292 4889CE   		movq	%rcx, %rsi
 4506 2295 4889C7   		movq	%rax, %rdi
 4507 2298 E8000000 		call	_ZN8UnitTest11TestResults13OnTestFailureERKNS_11TestDetailsEPKc
 4507      00
 4508              	.LEHE213:
 4509              	.LEHB214:
 151:testCore.cpp  **** 	CHECK_ARRAY_EQUAL(expected, buf.data, 16);
 4510              		.loc 3 151 0 discriminator 14
 4511 229d E8000000 		call	__cxa_end_catch
 4511      00
 4512              	.LEHE214:
 4513 22a2 E940FBFF 		jmp	.L239
 4513      FF
 4514              	.L269:
 4515 22a7 4889C3   		movq	%rax, %rbx
 152:testCore.cpp  **** 	bufDestroy(&buf);
 4516              		.loc 3 152 0 is_stmt 1
 4517 22aa E8000000 		call	__cxa_end_catch
 4517      00
 4518 22af 4889D8   		movq	%rbx, %rax
 4519 22b2 4889C7   		movq	%rax, %rdi
 4520              	.LEHB215:
 4521 22b5 E8000000 		call	_Unwind_Resume
 4521      00
 4522              	.LEHE215:
 4523              	.L268:
 4524 22ba 4889C7   		movq	%rax, %rdi
 4525 22bd E8000000 		call	__cxa_begin_catch
 4525      00
 4526              	.LEHB216:
 4527 22c2 E8000000 		call	_ZN8UnitTest11CurrentTest7DetailsEv
 4527      00
 4528 22c7 488B08   		movq	(%rax), %rcx
 4529 22ca 488D45B0 		leaq	-80(%rbp), %rax
 4530 22ce BA980000 		movl	$152, %edx
 4530      00
 4531 22d3 4889CE   		movq	%rcx, %rsi
 4532 22d6 4889C7   		movq	%rax, %rdi
 4533 22d9 E8000000 		call	_ZN8UnitTest11TestDetailsC1ERKS0_i
 4533      00
 152:testCore.cpp  **** 	bufDestroy(&buf);
 4534              		.loc 3 152 0 is_stmt 0 discriminator 10
 4535 22de E8000000 		call	_ZN8UnitTest11CurrentTest7ResultsEv
 4535      00
 4536 22e3 488B00   		movq	(%rax), %rax
 4537 22e6 488D4DB0 		leaq	-80(%rbp), %rcx
 4538 22ea BA000000 		movl	$.LC6, %edx
 4538      00
 4539 22ef 4889CE   		movq	%rcx, %rsi
 4540 22f2 4889C7   		movq	%rax, %rdi
 4541 22f5 E8000000 		call	_ZN8UnitTest11TestResults13OnTestFailureERKNS_11TestDetailsEPKc
 4541      00
 4542              	.LEHE216:
 4543              	.LEHB217:
 152:testCore.cpp  **** 	bufDestroy(&buf);
 4544              		.loc 3 152 0 discriminator 14
 4545 22fa E8000000 		call	__cxa_end_catch
 4545      00
 4546              	.LEHE217:
 4547 22ff E923FBFF 		jmp	.L242
 4547      FF
 4548              	.L270:
 4549              	.LBE27:
 4550              		.loc 3 154 0 is_stmt 1
 4551 2304 E8000000 		call	__stack_chk_fail
 4551      00
 4552              	.L243:
 4553 2309 4881C488 		addq	$136, %rsp
 4553      000000
 4554 2310 5B       		popq	%rbx
 4555 2311 5D       		popq	%rbp
 4556              		.cfi_def_cfa 7, 8
 4557 2312 C3       		ret
 4558              		.cfi_endproc
 4559              	.LFE1100:
 4560              		.section	.gcc_except_table
 4561              		.align 4
 4562              	.LLSDA1100:
 4563 0380 FF       		.byte	0xff
 4564 0381 03       		.byte	0x3
 4565 0382 DC02     		.uleb128 .LLSDATT1100-.LLSDATTD1100
 4566              	.LLSDATTD1100:
 4567 0384 01       		.byte	0x1
 4568 0385 D302     		.uleb128 .LLSDACSE1100-.LLSDACSB1100
 4569              	.LLSDACSB1100:
 4570 0387 38       		.uleb128 .LEHB155-.LFB1100
 4571 0388 05       		.uleb128 .LEHE155-.LEHB155
 4572 0389 00       		.uleb128 0
 4573 038a 00       		.uleb128 0
 4574 038b 40       		.uleb128 .LEHB156-.LFB1100
 4575 038c 3F       		.uleb128 .LEHE156-.LEHB156
 4576 038d E209     		.uleb128 .L244-.LFB1100
 4577 038f 01       		.uleb128 0x1
 4578 0390 D001     		.uleb128 .LEHB157-.LFB1100
 4579 0392 05       		.uleb128 .LEHE157-.LEHB157
 4580 0393 00       		.uleb128 0
 4581 0394 00       		.uleb128 0
 4582 0395 D801     		.uleb128 .LEHB158-.LFB1100
 4583 0397 3F       		.uleb128 .LEHE158-.LEHB158
 4584 0398 BF0A     		.uleb128 .L246-.LFB1100
 4585 039a 01       		.uleb128 0x1
 4586 039b A802     		.uleb128 .LEHB159-.LFB1100
 4587 039d 05       		.uleb128 .LEHE159-.LEHB159
 4588 039e 00       		.uleb128 0
 4589 039f 00       		.uleb128 0
 4590 03a0 B002     		.uleb128 .LEHB160-.LFB1100
 4591 03a2 3F       		.uleb128 .LEHE160-.LEHB160
 4592 03a3 9C0B     		.uleb128 .L248-.LFB1100
 4593 03a5 01       		.uleb128 0x1
 4594 03a6 8003     		.uleb128 .LEHB161-.LFB1100
 4595 03a8 05       		.uleb128 .LEHE161-.LEHB161
 4596 03a9 00       		.uleb128 0
 4597 03aa 00       		.uleb128 0
 4598 03ab 8803     		.uleb128 .LEHB162-.LFB1100
 4599 03ad 3F       		.uleb128 .LEHE162-.LEHB162
 4600 03ae F90B     		.uleb128 .L250-.LFB1100
 4601 03b0 01       		.uleb128 0x1
 4602 03b1 D803     		.uleb128 .LEHB163-.LFB1100
 4603 03b3 05       		.uleb128 .LEHE163-.LEHB163
 4604 03b4 00       		.uleb128 0
 4605 03b5 00       		.uleb128 0
 4606 03b6 E003     		.uleb128 .LEHB164-.LFB1100
 4607 03b8 3F       		.uleb128 .LEHE164-.LEHB164
 4608 03b9 D60C     		.uleb128 .L252-.LFB1100
 4609 03bb 01       		.uleb128 0x1
 4610 03bc B004     		.uleb128 .LEHB165-.LFB1100
 4611 03be 05       		.uleb128 .LEHE165-.LEHB165
 4612 03bf 00       		.uleb128 0
 4613 03c0 00       		.uleb128 0
 4614 03c1 B804     		.uleb128 .LEHB166-.LFB1100
 4615 03c3 3F       		.uleb128 .LEHE166-.LEHB166
 4616 03c4 B30D     		.uleb128 .L254-.LFB1100
 4617 03c6 01       		.uleb128 0x1
 4618 03c7 8805     		.uleb128 .LEHB167-.LFB1100
 4619 03c9 05       		.uleb128 .LEHE167-.LEHB167
 4620 03ca 00       		.uleb128 0
 4621 03cb 00       		.uleb128 0
 4622 03cc 9005     		.uleb128 .LEHB168-.LFB1100
 4623 03ce 3F       		.uleb128 .LEHE168-.LEHB168
 4624 03cf 900E     		.uleb128 .L256-.LFB1100
 4625 03d1 01       		.uleb128 0x1
 4626 03d2 E005     		.uleb128 .LEHB169-.LFB1100
 4627 03d4 05       		.uleb128 .LEHE169-.LEHB169
 4628 03d5 00       		.uleb128 0
 4629 03d6 00       		.uleb128 0
 4630 03d7 E805     		.uleb128 .LEHB170-.LFB1100
 4631 03d9 3F       		.uleb128 .LEHE170-.LEHB170
 4632 03da ED0E     		.uleb128 .L258-.LFB1100
 4633 03dc 01       		.uleb128 0x1
 4634 03dd B806     		.uleb128 .LEHB171-.LFB1100
 4635 03df 05       		.uleb128 .LEHE171-.LEHB171
 4636 03e0 00       		.uleb128 0
 4637 03e1 00       		.uleb128 0
 4638 03e2 C006     		.uleb128 .LEHB172-.LFB1100
 4639 03e4 3F       		.uleb128 .LEHE172-.LEHB172
 4640 03e5 CA0F     		.uleb128 .L260-.LFB1100
 4641 03e7 01       		.uleb128 0x1
 4642 03e8 9007     		.uleb128 .LEHB173-.LFB1100
 4643 03ea 05       		.uleb128 .LEHE173-.LEHB173
 4644 03eb 00       		.uleb128 0
 4645 03ec 00       		.uleb128 0
 4646 03ed 9807     		.uleb128 .LEHB174-.LFB1100
 4647 03ef 3F       		.uleb128 .LEHE174-.LEHB174
 4648 03f0 A710     		.uleb128 .L262-.LFB1100
 4649 03f2 01       		.uleb128 0x1
 4650 03f3 D707     		.uleb128 .LEHB175-.LFB1100
 4651 03f5 4A       		.uleb128 .LEHE175-.LEHB175
 4652 03f6 8411     		.uleb128 .L264-.LFB1100
 4653 03f8 01       		.uleb128 0x1
 4654 03f9 A108     		.uleb128 .LEHB176-.LFB1100
 4655 03fb 4A       		.uleb128 .LEHE176-.LEHB176
 4656 03fc E111     		.uleb128 .L266-.LFB1100
 4657 03fe 01       		.uleb128 0x1
 4658 03ff EB08     		.uleb128 .LEHB177-.LFB1100
 4659 0401 40       		.uleb128 .LEHE177-.LEHB177
 4660 0402 BE12     		.uleb128 .L268-.LFB1100
 4661 0404 01       		.uleb128 0x1
 4662 0405 B209     		.uleb128 .LEHB178-.LFB1100
 4663 0407 05       		.uleb128 .LEHE178-.LEHB178
 4664 0408 00       		.uleb128 0
 4665 0409 00       		.uleb128 0
 4666 040a DD09     		.uleb128 .LEHB179-.LFB1100
 4667 040c 05       		.uleb128 .LEHE179-.LEHB179
 4668 040d 00       		.uleb128 0
 4669 040e 00       		.uleb128 0
 4670 040f EA09     		.uleb128 .LEHB180-.LFB1100
 4671 0411 38       		.uleb128 .LEHE180-.LEHB180
 4672 0412 CF09     		.uleb128 .L245-.LFB1100
 4673 0414 00       		.uleb128 0
 4674 0415 A20A     		.uleb128 .LEHB181-.LFB1100
 4675 0417 05       		.uleb128 .LEHE181-.LEHB181
 4676 0418 00       		.uleb128 0
 4677 0419 00       		.uleb128 0
 4678 041a BA0A     		.uleb128 .LEHB182-.LFB1100
 4679 041c 05       		.uleb128 .LEHE182-.LEHB182
 4680 041d 00       		.uleb128 0
 4681 041e 00       		.uleb128 0
 4682 041f C70A     		.uleb128 .LEHB183-.LFB1100
 4683 0421 38       		.uleb128 .LEHE183-.LEHB183
 4684 0422 AC0A     		.uleb128 .L247-.LFB1100
 4685 0424 00       		.uleb128 0
 4686 0425 FF0A     		.uleb128 .LEHB184-.LFB1100
 4687 0427 05       		.uleb128 .LEHE184-.LEHB184
 4688 0428 00       		.uleb128 0
 4689 0429 00       		.uleb128 0
 4690 042a 970B     		.uleb128 .LEHB185-.LFB1100
 4691 042c 05       		.uleb128 .LEHE185-.LEHB185
 4692 042d 00       		.uleb128 0
 4693 042e 00       		.uleb128 0
 4694 042f A40B     		.uleb128 .LEHB186-.LFB1100
 4695 0431 38       		.uleb128 .LEHE186-.LEHB186
 4696 0432 890B     		.uleb128 .L249-.LFB1100
 4697 0434 00       		.uleb128 0
 4698 0435 DC0B     		.uleb128 .LEHB187-.LFB1100
 4699 0437 05       		.uleb128 .LEHE187-.LEHB187
 4700 0438 00       		.uleb128 0
 4701 0439 00       		.uleb128 0
 4702 043a F40B     		.uleb128 .LEHB188-.LFB1100
 4703 043c 05       		.uleb128 .LEHE188-.LEHB188
 4704 043d 00       		.uleb128 0
 4705 043e 00       		.uleb128 0
 4706 043f 810C     		.uleb128 .LEHB189-.LFB1100
 4707 0441 38       		.uleb128 .LEHE189-.LEHB189
 4708 0442 E60B     		.uleb128 .L251-.LFB1100
 4709 0444 00       		.uleb128 0
 4710 0445 B90C     		.uleb128 .LEHB190-.LFB1100
 4711 0447 05       		.uleb128 .LEHE190-.LEHB190
 4712 0448 00       		.uleb128 0
 4713 0449 00       		.uleb128 0
 4714 044a D10C     		.uleb128 .LEHB191-.LFB1100
 4715 044c 05       		.uleb128 .LEHE191-.LEHB191
 4716 044d 00       		.uleb128 0
 4717 044e 00       		.uleb128 0
 4718 044f DE0C     		.uleb128 .LEHB192-.LFB1100
 4719 0451 38       		.uleb128 .LEHE192-.LEHB192
 4720 0452 C30C     		.uleb128 .L253-.LFB1100
 4721 0454 00       		.uleb128 0
 4722 0455 960D     		.uleb128 .LEHB193-.LFB1100
 4723 0457 05       		.uleb128 .LEHE193-.LEHB193
 4724 0458 00       		.uleb128 0
 4725 0459 00       		.uleb128 0
 4726 045a AE0D     		.uleb128 .LEHB194-.LFB1100
 4727 045c 05       		.uleb128 .LEHE194-.LEHB194
 4728 045d 00       		.uleb128 0
 4729 045e 00       		.uleb128 0
 4730 045f BB0D     		.uleb128 .LEHB195-.LFB1100
 4731 0461 38       		.uleb128 .LEHE195-.LEHB195
 4732 0462 A00D     		.uleb128 .L255-.LFB1100
 4733 0464 00       		.uleb128 0
 4734 0465 F30D     		.uleb128 .LEHB196-.LFB1100
 4735 0467 05       		.uleb128 .LEHE196-.LEHB196
 4736 0468 00       		.uleb128 0
 4737 0469 00       		.uleb128 0
 4738 046a 8B0E     		.uleb128 .LEHB197-.LFB1100
 4739 046c 05       		.uleb128 .LEHE197-.LEHB197
 4740 046d 00       		.uleb128 0
 4741 046e 00       		.uleb128 0
 4742 046f 980E     		.uleb128 .LEHB198-.LFB1100
 4743 0471 38       		.uleb128 .LEHE198-.LEHB198
 4744 0472 FD0D     		.uleb128 .L257-.LFB1100
 4745 0474 00       		.uleb128 0
 4746 0475 D00E     		.uleb128 .LEHB199-.LFB1100
 4747 0477 05       		.uleb128 .LEHE199-.LEHB199
 4748 0478 00       		.uleb128 0
 4749 0479 00       		.uleb128 0
 4750 047a E80E     		.uleb128 .LEHB200-.LFB1100
 4751 047c 05       		.uleb128 .LEHE200-.LEHB200
 4752 047d 00       		.uleb128 0
 4753 047e 00       		.uleb128 0
 4754 047f F50E     		.uleb128 .LEHB201-.LFB1100
 4755 0481 38       		.uleb128 .LEHE201-.LEHB201
 4756 0482 DA0E     		.uleb128 .L259-.LFB1100
 4757 0484 00       		.uleb128 0
 4758 0485 AD0F     		.uleb128 .LEHB202-.LFB1100
 4759 0487 05       		.uleb128 .LEHE202-.LEHB202
 4760 0488 00       		.uleb128 0
 4761 0489 00       		.uleb128 0
 4762 048a C50F     		.uleb128 .LEHB203-.LFB1100
 4763 048c 05       		.uleb128 .LEHE203-.LEHB203
 4764 048d 00       		.uleb128 0
 4765 048e 00       		.uleb128 0
 4766 048f D20F     		.uleb128 .LEHB204-.LFB1100
 4767 0491 38       		.uleb128 .LEHE204-.LEHB204
 4768 0492 B70F     		.uleb128 .L261-.LFB1100
 4769 0494 00       		.uleb128 0
 4770 0495 8A10     		.uleb128 .LEHB205-.LFB1100
 4771 0497 05       		.uleb128 .LEHE205-.LEHB205
 4772 0498 00       		.uleb128 0
 4773 0499 00       		.uleb128 0
 4774 049a A210     		.uleb128 .LEHB206-.LFB1100
 4775 049c 05       		.uleb128 .LEHE206-.LEHB206
 4776 049d 00       		.uleb128 0
 4777 049e 00       		.uleb128 0
 4778 049f AF10     		.uleb128 .LEHB207-.LFB1100
 4779 04a1 38       		.uleb128 .LEHE207-.LEHB207
 4780 04a2 9410     		.uleb128 .L263-.LFB1100
 4781 04a4 00       		.uleb128 0
 4782 04a5 E710     		.uleb128 .LEHB208-.LFB1100
 4783 04a7 05       		.uleb128 .LEHE208-.LEHB208
 4784 04a8 00       		.uleb128 0
 4785 04a9 00       		.uleb128 0
 4786 04aa FF10     		.uleb128 .LEHB209-.LFB1100
 4787 04ac 05       		.uleb128 .LEHE209-.LEHB209
 4788 04ad 00       		.uleb128 0
 4789 04ae 00       		.uleb128 0
 4790 04af 8C11     		.uleb128 .LEHB210-.LFB1100
 4791 04b1 38       		.uleb128 .LEHE210-.LEHB210
 4792 04b2 F110     		.uleb128 .L265-.LFB1100
 4793 04b4 00       		.uleb128 0
 4794 04b5 C411     		.uleb128 .LEHB211-.LFB1100
 4795 04b7 05       		.uleb128 .LEHE211-.LEHB211
 4796 04b8 00       		.uleb128 0
 4797 04b9 00       		.uleb128 0
 4798 04ba DC11     		.uleb128 .LEHB212-.LFB1100
 4799 04bc 05       		.uleb128 .LEHE212-.LEHB212
 4800 04bd 00       		.uleb128 0
 4801 04be 00       		.uleb128 0
 4802 04bf E911     		.uleb128 .LEHB213-.LFB1100
 4803 04c1 38       		.uleb128 .LEHE213-.LEHB213
 4804 04c2 CE11     		.uleb128 .L267-.LFB1100
 4805 04c4 00       		.uleb128 0
 4806 04c5 A112     		.uleb128 .LEHB214-.LFB1100
 4807 04c7 05       		.uleb128 .LEHE214-.LEHB214
 4808 04c8 00       		.uleb128 0
 4809 04c9 00       		.uleb128 0
 4810 04ca B912     		.uleb128 .LEHB215-.LFB1100
 4811 04cc 05       		.uleb128 .LEHE215-.LEHB215
 4812 04cd 00       		.uleb128 0
 4813 04ce 00       		.uleb128 0
 4814 04cf C612     		.uleb128 .LEHB216-.LFB1100
 4815 04d1 38       		.uleb128 .LEHE216-.LEHB216
 4816 04d2 AB12     		.uleb128 .L269-.LFB1100
 4817 04d4 00       		.uleb128 0
 4818 04d5 FE12     		.uleb128 .LEHB217-.LFB1100
 4819 04d7 05       		.uleb128 .LEHE217-.LEHB217
 4820 04d8 00       		.uleb128 0
 4821 04d9 00       		.uleb128 0
 4822              	.LLSDACSE1100:
 4823 04da 01       		.byte	0x1
 4824 04db 00       		.byte	0
 4825              		.align 4
 4826 04dc 00000000 		.long	0
 4827              	
 4828              	.LLSDATT1100:
 4829              		.text
 4831              		.section	.rodata
 4832              	.LC18:
 4833 02c8 436F7265 		.string	"Core_testAppendWordLE"
 4833      5F746573 
 4833      74417070 
 4833      656E6457 
 4833      6F72644C 
 4834              		.section	.text._ZN25TestCore_testAppendWordLEC2Ev,"axG",@progbits,_ZN25TestCore_testAppendWordLEC5
 4835              		.align 2
 4836              		.weak	_ZN25TestCore_testAppendWordLEC2Ev
 4838              	_ZN25TestCore_testAppendWordLEC2Ev:
 4839              	.LFB1102:
 155:testCore.cpp  **** 
 156:testCore.cpp  **** TEST(Core_testAppendWordLE) {
 4840              		.loc 3 156 0
 4841              		.cfi_startproc
 4842 0000 55       		pushq	%rbp
 4843              		.cfi_def_cfa_offset 16
 4844              		.cfi_offset 6, -16
 4845 0001 4889E5   		movq	%rsp, %rbp
 4846              		.cfi_def_cfa_register 6
 4847 0004 4883EC10 		subq	$16, %rsp
 4848 0008 48897DF8 		movq	%rdi, -8(%rbp)
 4849              	.LBB28:
 4850              		.loc 3 156 0
 4851 000c E8000000 		call	_ZN13UnitTestSuite12GetSuiteNameEv
 4851      00
 4852 0011 4889C2   		movq	%rax, %rdx
 4853 0014 488B45F8 		movq	-8(%rbp), %rax
 4854 0018 41B89C00 		movl	$156, %r8d
 4854      0000
 4855 001e B9000000 		movl	$.LC1, %ecx
 4855      00
 4856 0023 BE000000 		movl	$.LC18, %esi
 4856      00
 4857 0028 4889C7   		movq	%rax, %rdi
 4858 002b E8000000 		call	_ZN8UnitTest4TestC2EPKcS2_S2_i
 4858      00
 4859 0030 488B45F8 		movq	-8(%rbp), %rax
 4860 0034 48C70000 		movq	$_ZTV25TestCore_testAppendWordLE+16, (%rax)
 4860      000000
 4861              	.LBE28:
 4862 003b C9       		leave
 4863              		.cfi_def_cfa 7, 8
 4864 003c C3       		ret
 4865              		.cfi_endproc
 4866              	.LFE1102:
 4868              		.weak	_ZN25TestCore_testAppendWordLEC1Ev
 4869              		.set	_ZN25TestCore_testAppendWordLEC1Ev,_ZN25TestCore_testAppendWordLEC2Ev
 4870              		.globl	testCore_testAppendWordLEInstance
 4871              		.bss
 4872 01f9 00000000 		.align 32
 4872      000000
 4875              	testCore_testAppendWordLEInstance:
 4876 0200 00000000 		.zero	56
 4876      00000000 
 4876      00000000 
 4876      00000000 
 4876      00000000 
 4877              		.globl	adderCore_testAppendWordLE
 4880              	adderCore_testAppendWordLE:
 4881 0238 00       		.zero	1
 4882              		.section	.rodata
 4883 02de 0000     		.align 8
 4884              	.LC19:
 4885 02e0 556E6861 		.string	"Unhandled exception in CHECK_EQUAL(10UL, buf.length)"
 4885      6E646C65 
 4885      64206578 
 4885      63657074 
 4885      696F6E20 
 4886              		.text
 4887 2313 90       		.align 2
 4888              		.globl	_ZNK25TestCore_testAppendWordLE7RunImplEv
 4890              	_ZNK25TestCore_testAppendWordLE7RunImplEv:
 4891              	.LFB1104:
 4892              		.loc 3 156 0
 4893              		.cfi_startproc
 4894              		.cfi_personality 0x3,__gxx_personality_v0
 4895              		.cfi_lsda 0x3,.LLSDA1104
 4896 2314 55       		pushq	%rbp
 4897              		.cfi_def_cfa_offset 16
 4898              		.cfi_offset 6, -16
 4899 2315 4889E5   		movq	%rsp, %rbp
 4900              		.cfi_def_cfa_register 6
 4901 2318 53       		pushq	%rbx
 4902 2319 4881EC88 		subq	$136, %rsp
 4902      000000
 4903              		.cfi_offset 3, -24
 4904 2320 4889BD78 		movq	%rdi, -136(%rbp)
 4904      FFFFFF
 4905              		.loc 3 156 0
 4906 2327 64488B04 		movq	%fs:40, %rax
 4906      25280000 
 4906      00
 4907 2330 488945E8 		movq	%rax, -24(%rbp)
 4908 2334 31C0     		xorl	%eax, %eax
 4909              	.LBB29:
 157:testCore.cpp  **** 	Buffer buf;
 158:testCore.cpp  **** 	BufferStatus status;
 159:testCore.cpp  **** 
 160:testCore.cpp  **** 	status = bufInitialise(&buf, 4, 0xAA, NULL);
 4910              		.loc 3 160 0
 4911 2336 488D4590 		leaq	-112(%rbp), %rax
 4912 233a B9000000 		movl	$0, %ecx
 4912      00
 4913 233f BAAA0000 		movl	$170, %edx
 4913      00
 4914 2344 BE040000 		movl	$4, %esi
 4914      00
 4915 2349 4889C7   		movq	%rax, %rdi
 4916              	.LEHB218:
 4917 234c E8000000 		call	bufInitialise
 4917      00
 4918              	.LEHE218:
 4919 2351 894584   		movl	%eax, -124(%rbp)
 4920              	.LEHB219:
 161:testCore.cpp  **** 	CHECK_EQUAL(BUF_SUCCESS, status);
 4921              		.loc 3 161 0
 4922 2354 E8000000 		call	_ZN8UnitTest11CurrentTest7DetailsEv
 4922      00
 4923 2359 488B08   		movq	(%rax), %rcx
 4924 235c 488D45B0 		leaq	-80(%rbp), %rax
 4925 2360 BAA10000 		movl	$161, %edx
 4925      00
 4926 2365 4889CE   		movq	%rcx, %rsi
 4927 2368 4889C7   		movq	%rax, %rdi
 4928 236b E8000000 		call	_ZN8UnitTest11TestDetailsC1ERKS0_i
 4928      00
 4929              		.loc 3 161 0 is_stmt 0 discriminator 2
 4930 2370 C7458800 		movl	$0, -120(%rbp)
 4930      000000
 4931 2377 E8000000 		call	_ZN8UnitTest11CurrentTest7ResultsEv
 4931      00
 4932 237c 488B00   		movq	(%rax), %rax
 4933 237f 488D4DB0 		leaq	-80(%rbp), %rcx
 4934 2383 488D5584 		leaq	-124(%rbp), %rdx
 4935 2387 488D7588 		leaq	-120(%rbp), %rsi
 4936 238b 4889C7   		movq	%rax, %rdi
 4937 238e E8000000 		call	_ZN8UnitTest10CheckEqualI12BufferStatusS1_EEvRNS_11TestResultsERKT_RKT0_RKNS_11TestDetailsE
 4937      00
 4938              	.LEHE219:
 4939              	.L275:
 162:testCore.cpp  **** 
 163:testCore.cpp  **** 	const unsigned char expected[] = {
 164:testCore.cpp  **** 		0xAD, 0xDE, 0xFE, 0xCA, 0x0D, 0xF0, 0xBE, 0xBA,
 165:testCore.cpp  **** 		0x34, 0x12, 0xAA, 0xAA, 0xAA, 0xAA, 0xAA, 0xAA
 166:testCore.cpp  **** 	};
 4940              		.loc 3 166 0 is_stmt 1
 4941 2393 C645D0AD 		movb	$-83, -48(%rbp)
 4942 2397 C645D1DE 		movb	$-34, -47(%rbp)
 4943 239b C645D2FE 		movb	$-2, -46(%rbp)
 4944 239f C645D3CA 		movb	$-54, -45(%rbp)
 4945 23a3 C645D40D 		movb	$13, -44(%rbp)
 4946 23a7 C645D5F0 		movb	$-16, -43(%rbp)
 4947 23ab C645D6BE 		movb	$-66, -42(%rbp)
 4948 23af C645D7BA 		movb	$-70, -41(%rbp)
 4949 23b3 C645D834 		movb	$52, -40(%rbp)
 4950 23b7 C645D912 		movb	$18, -39(%rbp)
 4951 23bb C645DAAA 		movb	$-86, -38(%rbp)
 4952 23bf C645DBAA 		movb	$-86, -37(%rbp)
 4953 23c3 C645DCAA 		movb	$-86, -36(%rbp)
 4954 23c7 C645DDAA 		movb	$-86, -35(%rbp)
 4955 23cb C645DEAA 		movb	$-86, -34(%rbp)
 4956 23cf C645DFAA 		movb	$-86, -33(%rbp)
 167:testCore.cpp  **** 	status = bufAppendWordLE(&buf, 0xDEAD, NULL);
 4957              		.loc 3 167 0
 4958 23d3 488D4590 		leaq	-112(%rbp), %rax
 4959 23d7 BA000000 		movl	$0, %edx
 4959      00
 4960 23dc BEADDE00 		movl	$57005, %esi
 4960      00
 4961 23e1 4889C7   		movq	%rax, %rdi
 4962              	.LEHB220:
 4963 23e4 E8000000 		call	bufAppendWordLE
 4963      00
 4964              	.LEHE220:
 4965 23e9 894584   		movl	%eax, -124(%rbp)
 4966              	.LEHB221:
 168:testCore.cpp  **** 	CHECK_EQUAL(BUF_SUCCESS, status);
 4967              		.loc 3 168 0
 4968 23ec E8000000 		call	_ZN8UnitTest11CurrentTest7DetailsEv
 4968      00
 4969 23f1 488B08   		movq	(%rax), %rcx
 4970 23f4 488D45B0 		leaq	-80(%rbp), %rax
 4971 23f8 BAA80000 		movl	$168, %edx
 4971      00
 4972 23fd 4889CE   		movq	%rcx, %rsi
 4973 2400 4889C7   		movq	%rax, %rdi
 4974 2403 E8000000 		call	_ZN8UnitTest11TestDetailsC1ERKS0_i
 4974      00
 4975              		.loc 3 168 0 is_stmt 0 discriminator 2
 4976 2408 C7458800 		movl	$0, -120(%rbp)
 4976      000000
 4977 240f E8000000 		call	_ZN8UnitTest11CurrentTest7ResultsEv
 4977      00
 4978 2414 488B00   		movq	(%rax), %rax
 4979 2417 488D4DB0 		leaq	-80(%rbp), %rcx
 4980 241b 488D5584 		leaq	-124(%rbp), %rdx
 4981 241f 488D7588 		leaq	-120(%rbp), %rsi
 4982 2423 4889C7   		movq	%rax, %rdi
 4983 2426 E8000000 		call	_ZN8UnitTest10CheckEqualI12BufferStatusS1_EEvRNS_11TestResultsERKT_RKT0_RKNS_11TestDetailsE
 4983      00
 4984              	.LEHE221:
 4985              	.L278:
 169:testCore.cpp  **** 	status = bufAppendWordLE(&buf, 0xCAFE, NULL);
 4986              		.loc 3 169 0 is_stmt 1
 4987 242b 488D4590 		leaq	-112(%rbp), %rax
 4988 242f BA000000 		movl	$0, %edx
 4988      00
 4989 2434 BEFECA00 		movl	$51966, %esi
 4989      00
 4990 2439 4889C7   		movq	%rax, %rdi
 4991              	.LEHB222:
 4992 243c E8000000 		call	bufAppendWordLE
 4992      00
 4993              	.LEHE222:
 4994 2441 894584   		movl	%eax, -124(%rbp)
 4995              	.LEHB223:
 170:testCore.cpp  **** 	CHECK_EQUAL(BUF_SUCCESS, status);
 4996              		.loc 3 170 0
 4997 2444 E8000000 		call	_ZN8UnitTest11CurrentTest7DetailsEv
 4997      00
 4998 2449 488B08   		movq	(%rax), %rcx
 4999 244c 488D45B0 		leaq	-80(%rbp), %rax
 5000 2450 BAAA0000 		movl	$170, %edx
 5000      00
 5001 2455 4889CE   		movq	%rcx, %rsi
 5002 2458 4889C7   		movq	%rax, %rdi
 5003 245b E8000000 		call	_ZN8UnitTest11TestDetailsC1ERKS0_i
 5003      00
 5004              		.loc 3 170 0 is_stmt 0 discriminator 2
 5005 2460 C7458800 		movl	$0, -120(%rbp)
 5005      000000
 5006 2467 E8000000 		call	_ZN8UnitTest11CurrentTest7ResultsEv
 5006      00
 5007 246c 488B00   		movq	(%rax), %rax
 5008 246f 488D4DB0 		leaq	-80(%rbp), %rcx
 5009 2473 488D5584 		leaq	-124(%rbp), %rdx
 5010 2477 488D7588 		leaq	-120(%rbp), %rsi
 5011 247b 4889C7   		movq	%rax, %rdi
 5012 247e E8000000 		call	_ZN8UnitTest10CheckEqualI12BufferStatusS1_EEvRNS_11TestResultsERKT_RKT0_RKNS_11TestDetailsE
 5012      00
 5013              	.LEHE223:
 5014              	.L281:
 171:testCore.cpp  **** 	status = bufAppendWordLE(&buf, 0xF00D, NULL);
 5015              		.loc 3 171 0 is_stmt 1
 5016 2483 488D4590 		leaq	-112(%rbp), %rax
 5017 2487 BA000000 		movl	$0, %edx
 5017      00
 5018 248c BE0DF000 		movl	$61453, %esi
 5018      00
 5019 2491 4889C7   		movq	%rax, %rdi
 5020              	.LEHB224:
 5021 2494 E8000000 		call	bufAppendWordLE
 5021      00
 5022              	.LEHE224:
 5023 2499 894584   		movl	%eax, -124(%rbp)
 5024              	.LEHB225:
 172:testCore.cpp  **** 	CHECK_EQUAL(BUF_SUCCESS, status);
 5025              		.loc 3 172 0
 5026 249c E8000000 		call	_ZN8UnitTest11CurrentTest7DetailsEv
 5026      00
 5027 24a1 488B08   		movq	(%rax), %rcx
 5028 24a4 488D45B0 		leaq	-80(%rbp), %rax
 5029 24a8 BAAC0000 		movl	$172, %edx
 5029      00
 5030 24ad 4889CE   		movq	%rcx, %rsi
 5031 24b0 4889C7   		movq	%rax, %rdi
 5032 24b3 E8000000 		call	_ZN8UnitTest11TestDetailsC1ERKS0_i
 5032      00
 5033              		.loc 3 172 0 is_stmt 0 discriminator 2
 5034 24b8 C7458800 		movl	$0, -120(%rbp)
 5034      000000
 5035 24bf E8000000 		call	_ZN8UnitTest11CurrentTest7ResultsEv
 5035      00
 5036 24c4 488B00   		movq	(%rax), %rax
 5037 24c7 488D4DB0 		leaq	-80(%rbp), %rcx
 5038 24cb 488D5584 		leaq	-124(%rbp), %rdx
 5039 24cf 488D7588 		leaq	-120(%rbp), %rsi
 5040 24d3 4889C7   		movq	%rax, %rdi
 5041 24d6 E8000000 		call	_ZN8UnitTest10CheckEqualI12BufferStatusS1_EEvRNS_11TestResultsERKT_RKT0_RKNS_11TestDetailsE
 5041      00
 5042              	.LEHE225:
 5043              	.L284:
 173:testCore.cpp  **** 	status = bufAppendWordLE(&buf, 0xBABE, NULL);
 5044              		.loc 3 173 0 is_stmt 1
 5045 24db 488D4590 		leaq	-112(%rbp), %rax
 5046 24df BA000000 		movl	$0, %edx
 5046      00
 5047 24e4 BEBEBA00 		movl	$47806, %esi
 5047      00
 5048 24e9 4889C7   		movq	%rax, %rdi
 5049              	.LEHB226:
 5050 24ec E8000000 		call	bufAppendWordLE
 5050      00
 5051              	.LEHE226:
 5052 24f1 894584   		movl	%eax, -124(%rbp)
 5053              	.LEHB227:
 174:testCore.cpp  **** 	CHECK_EQUAL(BUF_SUCCESS, status);
 5054              		.loc 3 174 0
 5055 24f4 E8000000 		call	_ZN8UnitTest11CurrentTest7DetailsEv
 5055      00
 5056 24f9 488B08   		movq	(%rax), %rcx
 5057 24fc 488D45B0 		leaq	-80(%rbp), %rax
 5058 2500 BAAE0000 		movl	$174, %edx
 5058      00
 5059 2505 4889CE   		movq	%rcx, %rsi
 5060 2508 4889C7   		movq	%rax, %rdi
 5061 250b E8000000 		call	_ZN8UnitTest11TestDetailsC1ERKS0_i
 5061      00
 5062              		.loc 3 174 0 is_stmt 0 discriminator 2
 5063 2510 C7458800 		movl	$0, -120(%rbp)
 5063      000000
 5064 2517 E8000000 		call	_ZN8UnitTest11CurrentTest7ResultsEv
 5064      00
 5065 251c 488B00   		movq	(%rax), %rax
 5066 251f 488D4DB0 		leaq	-80(%rbp), %rcx
 5067 2523 488D5584 		leaq	-124(%rbp), %rdx
 5068 2527 488D7588 		leaq	-120(%rbp), %rsi
 5069 252b 4889C7   		movq	%rax, %rdi
 5070 252e E8000000 		call	_ZN8UnitTest10CheckEqualI12BufferStatusS1_EEvRNS_11TestResultsERKT_RKT0_RKNS_11TestDetailsE
 5070      00
 5071              	.LEHE227:
 5072              	.L287:
 175:testCore.cpp  **** 	status = bufAppendWordLE(&buf, 0x1234, NULL);
 5073              		.loc 3 175 0 is_stmt 1
 5074 2533 488D4590 		leaq	-112(%rbp), %rax
 5075 2537 BA000000 		movl	$0, %edx
 5075      00
 5076 253c BE341200 		movl	$4660, %esi
 5076      00
 5077 2541 4889C7   		movq	%rax, %rdi
 5078              	.LEHB228:
 5079 2544 E8000000 		call	bufAppendWordLE
 5079      00
 5080              	.LEHE228:
 5081 2549 894584   		movl	%eax, -124(%rbp)
 5082              	.LEHB229:
 176:testCore.cpp  **** 	CHECK_EQUAL(BUF_SUCCESS, status);
 5083              		.loc 3 176 0
 5084 254c E8000000 		call	_ZN8UnitTest11CurrentTest7DetailsEv
 5084      00
 5085 2551 488B08   		movq	(%rax), %rcx
 5086 2554 488D45B0 		leaq	-80(%rbp), %rax
 5087 2558 BAB00000 		movl	$176, %edx
 5087      00
 5088 255d 4889CE   		movq	%rcx, %rsi
 5089 2560 4889C7   		movq	%rax, %rdi
 5090 2563 E8000000 		call	_ZN8UnitTest11TestDetailsC1ERKS0_i
 5090      00
 5091              		.loc 3 176 0 is_stmt 0 discriminator 2
 5092 2568 C7458800 		movl	$0, -120(%rbp)
 5092      000000
 5093 256f E8000000 		call	_ZN8UnitTest11CurrentTest7ResultsEv
 5093      00
 5094 2574 488B00   		movq	(%rax), %rax
 5095 2577 488D4DB0 		leaq	-80(%rbp), %rcx
 5096 257b 488D5584 		leaq	-124(%rbp), %rdx
 5097 257f 488D7588 		leaq	-120(%rbp), %rsi
 5098 2583 4889C7   		movq	%rax, %rdi
 5099 2586 E8000000 		call	_ZN8UnitTest10CheckEqualI12BufferStatusS1_EEvRNS_11TestResultsERKT_RKT0_RKNS_11TestDetailsE
 5099      00
 5100              	.LEHE229:
 5101              	.L290:
 5102              	.LEHB230:
 177:testCore.cpp  **** 	CHECK_EQUAL(16UL, buf.capacity);
 5103              		.loc 3 177 0 is_stmt 1
 5104 258b E8000000 		call	_ZN8UnitTest11CurrentTest7DetailsEv
 5104      00
 5105 2590 488B08   		movq	(%rax), %rcx
 5106 2593 488D45B0 		leaq	-80(%rbp), %rax
 5107 2597 BAB10000 		movl	$177, %edx
 5107      00
 5108 259c 4889CE   		movq	%rcx, %rsi
 5109 259f 4889C7   		movq	%rax, %rdi
 5110 25a2 E8000000 		call	_ZN8UnitTest11TestDetailsC1ERKS0_i
