   1              		.file	"testBinIO.cpp"
   2              		.text
   3              	.Ltext0:
   4              		.section	.text._ZStorSt13_Ios_OpenmodeS_,"axG",@progbits,_ZStorSt13_Ios_OpenmodeS_,comdat
   5              		.weak	_ZStorSt13_Ios_OpenmodeS_
   7              	_ZStorSt13_Ios_OpenmodeS_:
   8              	.LFB641:
   9              		.file 1 "/usr/include/c++/4.9/bits/ios_base.h"
   1:/usr/include/c++/4.9/bits/ios_base.h **** // Iostreams base classes -*- C++ -*-
   2:/usr/include/c++/4.9/bits/ios_base.h **** 
   3:/usr/include/c++/4.9/bits/ios_base.h **** // Copyright (C) 1997-2014 Free Software Foundation, Inc.
   4:/usr/include/c++/4.9/bits/ios_base.h **** //
   5:/usr/include/c++/4.9/bits/ios_base.h **** // This file is part of the GNU ISO C++ Library.  This library is free
   6:/usr/include/c++/4.9/bits/ios_base.h **** // software; you can redistribute it and/or modify it under the
   7:/usr/include/c++/4.9/bits/ios_base.h **** // terms of the GNU General Public License as published by the
   8:/usr/include/c++/4.9/bits/ios_base.h **** // Free Software Foundation; either version 3, or (at your option)
   9:/usr/include/c++/4.9/bits/ios_base.h **** // any later version.
  10:/usr/include/c++/4.9/bits/ios_base.h **** 
  11:/usr/include/c++/4.9/bits/ios_base.h **** // This library is distributed in the hope that it will be useful,
  12:/usr/include/c++/4.9/bits/ios_base.h **** // but WITHOUT ANY WARRANTY; without even the implied warranty of
  13:/usr/include/c++/4.9/bits/ios_base.h **** // MERCHANTABILITY or FITNESS FOR A PARTICULAR PURPOSE.  See the
  14:/usr/include/c++/4.9/bits/ios_base.h **** // GNU General Public License for more details.
  15:/usr/include/c++/4.9/bits/ios_base.h **** 
  16:/usr/include/c++/4.9/bits/ios_base.h **** // Under Section 7 of GPL version 3, you are granted additional
  17:/usr/include/c++/4.9/bits/ios_base.h **** // permissions described in the GCC Runtime Library Exception, version
  18:/usr/include/c++/4.9/bits/ios_base.h **** // 3.1, as published by the Free Software Foundation.
  19:/usr/include/c++/4.9/bits/ios_base.h **** 
  20:/usr/include/c++/4.9/bits/ios_base.h **** // You should have received a copy of the GNU General Public License and
  21:/usr/include/c++/4.9/bits/ios_base.h **** // a copy of the GCC Runtime Library Exception along with this program;
  22:/usr/include/c++/4.9/bits/ios_base.h **** // see the files COPYING3 and COPYING.RUNTIME respectively.  If not, see
  23:/usr/include/c++/4.9/bits/ios_base.h **** // <http://www.gnu.org/licenses/>.
  24:/usr/include/c++/4.9/bits/ios_base.h **** 
  25:/usr/include/c++/4.9/bits/ios_base.h **** /** @file bits/ios_base.h
  26:/usr/include/c++/4.9/bits/ios_base.h ****  *  This is an internal header file, included by other library headers.
  27:/usr/include/c++/4.9/bits/ios_base.h ****  *  Do not attempt to use it directly. @headername{ios}
  28:/usr/include/c++/4.9/bits/ios_base.h ****  */
  29:/usr/include/c++/4.9/bits/ios_base.h **** 
  30:/usr/include/c++/4.9/bits/ios_base.h **** //
  31:/usr/include/c++/4.9/bits/ios_base.h **** // ISO C++ 14882: 27.4  Iostreams base classes
  32:/usr/include/c++/4.9/bits/ios_base.h **** //
  33:/usr/include/c++/4.9/bits/ios_base.h **** 
  34:/usr/include/c++/4.9/bits/ios_base.h **** #ifndef _IOS_BASE_H
  35:/usr/include/c++/4.9/bits/ios_base.h **** #define _IOS_BASE_H 1
  36:/usr/include/c++/4.9/bits/ios_base.h **** 
  37:/usr/include/c++/4.9/bits/ios_base.h **** #pragma GCC system_header
  38:/usr/include/c++/4.9/bits/ios_base.h **** 
  39:/usr/include/c++/4.9/bits/ios_base.h **** #include <ext/atomicity.h>
  40:/usr/include/c++/4.9/bits/ios_base.h **** #include <bits/localefwd.h>
  41:/usr/include/c++/4.9/bits/ios_base.h **** #include <bits/locale_classes.h>
  42:/usr/include/c++/4.9/bits/ios_base.h **** 
  43:/usr/include/c++/4.9/bits/ios_base.h **** namespace std _GLIBCXX_VISIBILITY(default)
  44:/usr/include/c++/4.9/bits/ios_base.h **** {
  45:/usr/include/c++/4.9/bits/ios_base.h **** _GLIBCXX_BEGIN_NAMESPACE_VERSION
  46:/usr/include/c++/4.9/bits/ios_base.h **** 
  47:/usr/include/c++/4.9/bits/ios_base.h ****   // The following definitions of bitmask types are enums, not ints,
  48:/usr/include/c++/4.9/bits/ios_base.h ****   // as permitted (but not required) in the standard, in order to provide
  49:/usr/include/c++/4.9/bits/ios_base.h ****   // better type safety in iostream calls.  A side effect is that
  50:/usr/include/c++/4.9/bits/ios_base.h ****   // expressions involving them are no longer compile-time constants.
  51:/usr/include/c++/4.9/bits/ios_base.h ****   enum _Ios_Fmtflags 
  52:/usr/include/c++/4.9/bits/ios_base.h ****     { 
  53:/usr/include/c++/4.9/bits/ios_base.h ****       _S_boolalpha 	= 1L << 0,
  54:/usr/include/c++/4.9/bits/ios_base.h ****       _S_dec 		= 1L << 1,
  55:/usr/include/c++/4.9/bits/ios_base.h ****       _S_fixed 		= 1L << 2,
  56:/usr/include/c++/4.9/bits/ios_base.h ****       _S_hex 		= 1L << 3,
  57:/usr/include/c++/4.9/bits/ios_base.h ****       _S_internal 	= 1L << 4,
  58:/usr/include/c++/4.9/bits/ios_base.h ****       _S_left 		= 1L << 5,
  59:/usr/include/c++/4.9/bits/ios_base.h ****       _S_oct 		= 1L << 6,
  60:/usr/include/c++/4.9/bits/ios_base.h ****       _S_right 		= 1L << 7,
  61:/usr/include/c++/4.9/bits/ios_base.h ****       _S_scientific 	= 1L << 8,
  62:/usr/include/c++/4.9/bits/ios_base.h ****       _S_showbase 	= 1L << 9,
  63:/usr/include/c++/4.9/bits/ios_base.h ****       _S_showpoint 	= 1L << 10,
  64:/usr/include/c++/4.9/bits/ios_base.h ****       _S_showpos 	= 1L << 11,
  65:/usr/include/c++/4.9/bits/ios_base.h ****       _S_skipws 	= 1L << 12,
  66:/usr/include/c++/4.9/bits/ios_base.h ****       _S_unitbuf 	= 1L << 13,
  67:/usr/include/c++/4.9/bits/ios_base.h ****       _S_uppercase 	= 1L << 14,
  68:/usr/include/c++/4.9/bits/ios_base.h ****       _S_adjustfield 	= _S_left | _S_right | _S_internal,
  69:/usr/include/c++/4.9/bits/ios_base.h ****       _S_basefield 	= _S_dec | _S_oct | _S_hex,
  70:/usr/include/c++/4.9/bits/ios_base.h ****       _S_floatfield 	= _S_scientific | _S_fixed,
  71:/usr/include/c++/4.9/bits/ios_base.h ****       _S_ios_fmtflags_end = 1L << 16 
  72:/usr/include/c++/4.9/bits/ios_base.h ****     };
  73:/usr/include/c++/4.9/bits/ios_base.h **** 
  74:/usr/include/c++/4.9/bits/ios_base.h ****   inline _GLIBCXX_CONSTEXPR _Ios_Fmtflags
  75:/usr/include/c++/4.9/bits/ios_base.h ****   operator&(_Ios_Fmtflags __a, _Ios_Fmtflags __b)
  76:/usr/include/c++/4.9/bits/ios_base.h ****   { return _Ios_Fmtflags(static_cast<int>(__a) & static_cast<int>(__b)); }
  77:/usr/include/c++/4.9/bits/ios_base.h **** 
  78:/usr/include/c++/4.9/bits/ios_base.h ****   inline _GLIBCXX_CONSTEXPR _Ios_Fmtflags
  79:/usr/include/c++/4.9/bits/ios_base.h ****   operator|(_Ios_Fmtflags __a, _Ios_Fmtflags __b)
  80:/usr/include/c++/4.9/bits/ios_base.h ****   { return _Ios_Fmtflags(static_cast<int>(__a) | static_cast<int>(__b)); }
  81:/usr/include/c++/4.9/bits/ios_base.h **** 
  82:/usr/include/c++/4.9/bits/ios_base.h ****   inline _GLIBCXX_CONSTEXPR _Ios_Fmtflags
  83:/usr/include/c++/4.9/bits/ios_base.h ****   operator^(_Ios_Fmtflags __a, _Ios_Fmtflags __b)
  84:/usr/include/c++/4.9/bits/ios_base.h ****   { return _Ios_Fmtflags(static_cast<int>(__a) ^ static_cast<int>(__b)); }
  85:/usr/include/c++/4.9/bits/ios_base.h **** 
  86:/usr/include/c++/4.9/bits/ios_base.h ****   inline _GLIBCXX_CONSTEXPR _Ios_Fmtflags
  87:/usr/include/c++/4.9/bits/ios_base.h ****   operator~(_Ios_Fmtflags __a)
  88:/usr/include/c++/4.9/bits/ios_base.h ****   { return _Ios_Fmtflags(~static_cast<int>(__a)); }
  89:/usr/include/c++/4.9/bits/ios_base.h **** 
  90:/usr/include/c++/4.9/bits/ios_base.h ****   inline const _Ios_Fmtflags&
  91:/usr/include/c++/4.9/bits/ios_base.h ****   operator|=(_Ios_Fmtflags& __a, _Ios_Fmtflags __b)
  92:/usr/include/c++/4.9/bits/ios_base.h ****   { return __a = __a | __b; }
  93:/usr/include/c++/4.9/bits/ios_base.h **** 
  94:/usr/include/c++/4.9/bits/ios_base.h ****   inline const _Ios_Fmtflags&
  95:/usr/include/c++/4.9/bits/ios_base.h ****   operator&=(_Ios_Fmtflags& __a, _Ios_Fmtflags __b)
  96:/usr/include/c++/4.9/bits/ios_base.h ****   { return __a = __a & __b; }
  97:/usr/include/c++/4.9/bits/ios_base.h **** 
  98:/usr/include/c++/4.9/bits/ios_base.h ****   inline const _Ios_Fmtflags&
  99:/usr/include/c++/4.9/bits/ios_base.h ****   operator^=(_Ios_Fmtflags& __a, _Ios_Fmtflags __b)
 100:/usr/include/c++/4.9/bits/ios_base.h ****   { return __a = __a ^ __b; }
 101:/usr/include/c++/4.9/bits/ios_base.h **** 
 102:/usr/include/c++/4.9/bits/ios_base.h **** 
 103:/usr/include/c++/4.9/bits/ios_base.h ****   enum _Ios_Openmode 
 104:/usr/include/c++/4.9/bits/ios_base.h ****     { 
 105:/usr/include/c++/4.9/bits/ios_base.h ****       _S_app 		= 1L << 0,
 106:/usr/include/c++/4.9/bits/ios_base.h ****       _S_ate 		= 1L << 1,
 107:/usr/include/c++/4.9/bits/ios_base.h ****       _S_bin 		= 1L << 2,
 108:/usr/include/c++/4.9/bits/ios_base.h ****       _S_in 		= 1L << 3,
 109:/usr/include/c++/4.9/bits/ios_base.h ****       _S_out 		= 1L << 4,
 110:/usr/include/c++/4.9/bits/ios_base.h ****       _S_trunc 		= 1L << 5,
 111:/usr/include/c++/4.9/bits/ios_base.h ****       _S_ios_openmode_end = 1L << 16 
 112:/usr/include/c++/4.9/bits/ios_base.h ****     };
 113:/usr/include/c++/4.9/bits/ios_base.h **** 
 114:/usr/include/c++/4.9/bits/ios_base.h ****   inline _GLIBCXX_CONSTEXPR _Ios_Openmode
 115:/usr/include/c++/4.9/bits/ios_base.h ****   operator&(_Ios_Openmode __a, _Ios_Openmode __b)
 116:/usr/include/c++/4.9/bits/ios_base.h ****   { return _Ios_Openmode(static_cast<int>(__a) & static_cast<int>(__b)); }
 117:/usr/include/c++/4.9/bits/ios_base.h **** 
 118:/usr/include/c++/4.9/bits/ios_base.h ****   inline _GLIBCXX_CONSTEXPR _Ios_Openmode
 119:/usr/include/c++/4.9/bits/ios_base.h ****   operator|(_Ios_Openmode __a, _Ios_Openmode __b)
 120:/usr/include/c++/4.9/bits/ios_base.h ****   { return _Ios_Openmode(static_cast<int>(__a) | static_cast<int>(__b)); }
  10              		.loc 1 120 0
  11              		.cfi_startproc
  12 0000 55       		pushq	%rbp
  13              		.cfi_def_cfa_offset 16
  14              		.cfi_offset 6, -16
  15 0001 4889E5   		movq	%rsp, %rbp
  16              		.cfi_def_cfa_register 6
  17 0004 897DFC   		movl	%edi, -4(%rbp)
  18 0007 8975F8   		movl	%esi, -8(%rbp)
  19              		.loc 1 120 0
  20 000a 8B55FC   		movl	-4(%rbp), %edx
  21 000d 8B45F8   		movl	-8(%rbp), %eax
  22 0010 09D0     		orl	%edx, %eax
  23 0012 5D       		popq	%rbp
  24              		.cfi_def_cfa 7, 8
  25 0013 C3       		ret
  26              		.cfi_endproc
  27              	.LFE641:
  29              		.section	.rodata
  30              	.LC0:
  31 0000 44656661 		.string	"DefaultSuite"
  31      756C7453 
  31      75697465 
  31      00
  32              		.section	.text._ZN13UnitTestSuite12GetSuiteNameEv,"axG",@progbits,_ZN13UnitTestSuite12GetSuiteName
  33              		.weak	_ZN13UnitTestSuite12GetSuiteNameEv
  35              	_ZN13UnitTestSuite12GetSuiteNameEv:
  36              	.LFB1081:
  37              		.file 2 "/home/asoreyh/Dropbox/projects/lago/lago-software/acqua/brc/lago/makestuff/libs/libutpp/T
   1:/home/asoreyh/Dropbox/projects/lago/lago-software/acqua/brc/lago/makestuff/libs/libutpp/TestSuite.h **** #ifndef UNITTEST_TESTSUITE_H
   2:/home/asoreyh/Dropbox/projects/lago/lago-software/acqua/brc/lago/makestuff/libs/libutpp/TestSuite.h **** #define UNITTEST_TESTSUITE_H
   3:/home/asoreyh/Dropbox/projects/lago/lago-software/acqua/brc/lago/makestuff/libs/libutpp/TestSuite.h **** 
   4:/home/asoreyh/Dropbox/projects/lago/lago-software/acqua/brc/lago/makestuff/libs/libutpp/TestSuite.h **** namespace UnitTestSuite {
   5:/home/asoreyh/Dropbox/projects/lago/lago-software/acqua/brc/lago/makestuff/libs/libutpp/TestSuite.h **** 
   6:/home/asoreyh/Dropbox/projects/lago/lago-software/acqua/brc/lago/makestuff/libs/libutpp/TestSuite.h ****     inline char const* GetSuiteName ()
   7:/home/asoreyh/Dropbox/projects/lago/lago-software/acqua/brc/lago/makestuff/libs/libutpp/TestSuite.h ****     {
  38              		.loc 2 7 0
  39              		.cfi_startproc
  40 0000 55       		pushq	%rbp
  41              		.cfi_def_cfa_offset 16
  42              		.cfi_offset 6, -16
  43 0001 4889E5   		movq	%rsp, %rbp
  44              		.cfi_def_cfa_register 6
   8:/home/asoreyh/Dropbox/projects/lago/lago-software/acqua/brc/lago/makestuff/libs/libutpp/TestSuite.h ****         return "DefaultSuite";
  45              		.loc 2 8 0
  46 0004 B8000000 		movl	$.LC0, %eax
  46      00
   9:/home/asoreyh/Dropbox/projects/lago/lago-software/acqua/brc/lago/makestuff/libs/libutpp/TestSuite.h ****     }
  47              		.loc 2 9 0
  48 0009 5D       		popq	%rbp
  49              		.cfi_def_cfa 7, 8
  50 000a C3       		ret
  51              		.cfi_endproc
  52              	.LFE1081:
  54              		.section	.text._ZN8UnitTest15MemoryOutStreamC1Ev,"axG",@progbits,_ZN8UnitTest15MemoryOutStreamC1Ev
  55              		.align 2
  56              		.weak	_ZN8UnitTest15MemoryOutStreamC1Ev
  58              	_ZN8UnitTest15MemoryOutStreamC1Ev:
  59              	.LFB1117:
  60              		.file 3 "/home/asoreyh/Dropbox/projects/lago/lago-software/acqua/brc/lago/makestuff/libs/libutpp/M
   1:/home/asoreyh/Dropbox/projects/lago/lago-software/acqua/brc/lago/makestuff/libs/libutpp/MemoryOutStream.h **** #ifndef UNITTEST_MEMORYOUTSTREAM_H
   2:/home/asoreyh/Dropbox/projects/lago/lago-software/acqua/brc/lago/makestuff/libs/libutpp/MemoryOutStream.h **** #define UNITTEST_MEMORYOUTSTREAM_H
   3:/home/asoreyh/Dropbox/projects/lago/lago-software/acqua/brc/lago/makestuff/libs/libutpp/MemoryOutStream.h **** 
   4:/home/asoreyh/Dropbox/projects/lago/lago-software/acqua/brc/lago/makestuff/libs/libutpp/MemoryOutStream.h **** #include "Config.h"
   5:/home/asoreyh/Dropbox/projects/lago/lago-software/acqua/brc/lago/makestuff/libs/libutpp/MemoryOutStream.h **** 
   6:/home/asoreyh/Dropbox/projects/lago/lago-software/acqua/brc/lago/makestuff/libs/libutpp/MemoryOutStream.h **** #ifndef UNITTEST_USE_CUSTOM_STREAMS
   7:/home/asoreyh/Dropbox/projects/lago/lago-software/acqua/brc/lago/makestuff/libs/libutpp/MemoryOutStream.h **** 
   8:/home/asoreyh/Dropbox/projects/lago/lago-software/acqua/brc/lago/makestuff/libs/libutpp/MemoryOutStream.h **** #include <sstream>
   9:/home/asoreyh/Dropbox/projects/lago/lago-software/acqua/brc/lago/makestuff/libs/libutpp/MemoryOutStream.h **** 
  10:/home/asoreyh/Dropbox/projects/lago/lago-software/acqua/brc/lago/makestuff/libs/libutpp/MemoryOutStream.h **** namespace UnitTest
  11:/home/asoreyh/Dropbox/projects/lago/lago-software/acqua/brc/lago/makestuff/libs/libutpp/MemoryOutStream.h **** {
  12:/home/asoreyh/Dropbox/projects/lago/lago-software/acqua/brc/lago/makestuff/libs/libutpp/MemoryOutStream.h **** 
  13:/home/asoreyh/Dropbox/projects/lago/lago-software/acqua/brc/lago/makestuff/libs/libutpp/MemoryOutStream.h **** class MemoryOutStream : public std::ostringstream
  14:/home/asoreyh/Dropbox/projects/lago/lago-software/acqua/brc/lago/makestuff/libs/libutpp/MemoryOutStream.h **** {
  15:/home/asoreyh/Dropbox/projects/lago/lago-software/acqua/brc/lago/makestuff/libs/libutpp/MemoryOutStream.h **** public:
  16:/home/asoreyh/Dropbox/projects/lago/lago-software/acqua/brc/lago/makestuff/libs/libutpp/MemoryOutStream.h ****     MemoryOutStream() {}
  61              		.loc 3 16 0
  62              		.cfi_startproc
  63              		.cfi_personality 0x3,__gxx_personality_v0
  64              		.cfi_lsda 0x3,.LLSDA1117
  65 0000 55       		pushq	%rbp
  66              		.cfi_def_cfa_offset 16
  67              		.cfi_offset 6, -16
  68 0001 4889E5   		movq	%rsp, %rbp
  69              		.cfi_def_cfa_register 6
  70 0004 53       		pushq	%rbx
  71 0005 4883EC18 		subq	$24, %rsp
  72              		.cfi_offset 3, -24
  73 0009 48897DE8 		movq	%rdi, -24(%rbp)
  74              	.LBB2:
  75              		.loc 3 16 0
  76 000d 488B45E8 		movq	-24(%rbp), %rax
  77 0011 4883C060 		addq	$96, %rax
  78 0015 4889C7   		movq	%rax, %rdi
  79              	.LEHB0:
  80 0018 E8000000 		call	_ZNSt9basic_iosIcSt11char_traitsIcEEC2Ev
  80      00
  81              	.LEHE0:
  82 001d B9000000 		movl	$_ZTTN8UnitTest15MemoryOutStreamE+8, %ecx
  82      00
  83 0022 488B45E8 		movq	-24(%rbp), %rax
  84 0026 BA100000 		movl	$16, %edx
  84      00
  85 002b 4889CE   		movq	%rcx, %rsi
  86 002e 4889C7   		movq	%rax, %rdi
  87              	.LEHB1:
  88 0031 E8000000 		call	_ZNSt19basic_ostringstreamIcSt11char_traitsIcESaIcEEC2ESt13_Ios_Openmode
  88      00
  89              	.LEHE1:
  90              		.loc 3 16 0 is_stmt 0 discriminator 9
  91 0036 BA000000 		movl	$_ZTVN8UnitTest15MemoryOutStreamE+24, %edx
  91      00
  92 003b 488B45E8 		movq	-24(%rbp), %rax
  93 003f 488910   		movq	%rdx, (%rax)
  94 0042 BA600000 		movl	$96, %edx
  94      00
  95 0047 488B45E8 		movq	-24(%rbp), %rax
  96 004b 4801D0   		addq	%rdx, %rax
  97 004e BA000000 		movl	$_ZTVN8UnitTest15MemoryOutStreamE+64, %edx
  97      00
  98 0053 488910   		movq	%rdx, (%rax)
  99 0056 488B45E8 		movq	-24(%rbp), %rax
 100 005a 4883C058 		addq	$88, %rax
 101 005e 4889C7   		movq	%rax, %rdi
 102              	.LEHB2:
 103 0061 E8000000 		call	_ZNSsC1Ev
 103      00
 104              	.LEHE2:
 105              	.LBE2:
 106              		.loc 3 16 0
 107 0066 EB37     		jmp	.L10
 108              	.L8:
 109 0068 4889C3   		movq	%rax, %rbx
 110              	.LBB3:
 111 006b BA000000 		movl	$_ZTTN8UnitTest15MemoryOutStreamE+8, %edx
 111      00
 112 0070 488B45E8 		movq	-24(%rbp), %rax
 113 0074 4889D6   		movq	%rdx, %rsi
 114 0077 4889C7   		movq	%rax, %rdi
 115 007a E8000000 		call	_ZNSt19basic_ostringstreamIcSt11char_traitsIcESaIcEED2Ev
 115      00
 116 007f EB03     		jmp	.L7
 117              	.L9:
 118 0081 4889C3   		movq	%rax, %rbx
 119              	.L7:
 120              		.loc 3 16 0 discriminator 28
 121 0084 488B45E8 		movq	-24(%rbp), %rax
 122 0088 4883C060 		addq	$96, %rax
 123 008c 4889C7   		movq	%rax, %rdi
 124 008f E8000000 		call	_ZNSt9basic_iosIcSt11char_traitsIcEED2Ev
 124      00
 125 0094 4889D8   		movq	%rbx, %rax
 126 0097 4889C7   		movq	%rax, %rdi
 127              	.LEHB3:
 128 009a E8000000 		call	_Unwind_Resume
 128      00
 129              	.LEHE3:
 130              	.L10:
 131              	.LBE3:
 132              		.loc 3 16 0
 133 009f 4883C418 		addq	$24, %rsp
 134 00a3 5B       		popq	%rbx
 135 00a4 5D       		popq	%rbp
 136              		.cfi_def_cfa 7, 8
 137 00a5 C3       		ret
 138              		.cfi_endproc
 139              	.LFE1117:
 140              		.globl	__gxx_personality_v0
 141              		.section	.gcc_except_table._ZN8UnitTest15MemoryOutStreamC1Ev,"aG",@progbits,_ZN8UnitTest15MemoryOu
 142              	.LLSDA1117:
 143 0000 FF       		.byte	0xff
 144 0001 FF       		.byte	0xff
 145 0002 01       		.byte	0x1
 146 0003 12       		.uleb128 .LLSDACSE1117-.LLSDACSB1117
 147              	.LLSDACSB1117:
 148 0004 18       		.uleb128 .LEHB0-.LFB1117
 149 0005 05       		.uleb128 .LEHE0-.LEHB0
 150 0006 00       		.uleb128 0
 151 0007 00       		.uleb128 0
 152 0008 31       		.uleb128 .LEHB1-.LFB1117
 153 0009 05       		.uleb128 .LEHE1-.LEHB1
 154 000a 8101     		.uleb128 .L9-.LFB1117
 155 000c 00       		.uleb128 0
 156 000d 61       		.uleb128 .LEHB2-.LFB1117
 157 000e 05       		.uleb128 .LEHE2-.LEHB2
 158 000f 68       		.uleb128 .L8-.LFB1117
 159 0010 00       		.uleb128 0
 160 0011 9A01     		.uleb128 .LEHB3-.LFB1117
 161 0013 05       		.uleb128 .LEHE3-.LEHB3
 162 0014 00       		.uleb128 0
 163 0015 00       		.uleb128 0
 164              	.LLSDACSE1117:
 165              		.section	.text._ZN8UnitTest15MemoryOutStreamC1Ev,"axG",@progbits,_ZN8UnitTest15MemoryOutStreamC1Ev
 167              		.section	.rodata
 168              	.LC1:
 169 000d 74657374 		.string	"testBinIO.cpp"
 169      42696E49 
 169      4F2E6370 
 169      7000
 170              	.LC2:
 171 001b 42696E49 		.string	"BinIO_testReadNonExistentFile"
 171      4F5F7465 
 171      73745265 
 171      61644E6F 
 171      6E457869 
 172              		.section	.text._ZN33TestBinIO_testReadNonExistentFileC2Ev,"axG",@progbits,_ZN33TestBinIO_testReadN
 173              		.align 2
 174              		.weak	_ZN33TestBinIO_testReadNonExistentFileC2Ev
 176              	_ZN33TestBinIO_testReadNonExistentFileC2Ev:
 177              	.LFB1134:
 178              		.file 4 "testBinIO.cpp"
   1:testBinIO.cpp **** /*
   2:testBinIO.cpp ****  * Copyright (C) 2009-2012 Chris McClelland
   3:testBinIO.cpp ****  *
   4:testBinIO.cpp ****  * This program is free software: you can redistribute it and/or modify
   5:testBinIO.cpp ****  * it under the terms of the GNU Lesser General Public License as published by
   6:testBinIO.cpp ****  * the Free Software Foundation, either version 3 of the License, or
   7:testBinIO.cpp ****  * (at your option) any later version.
   8:testBinIO.cpp ****  *
   9:testBinIO.cpp ****  * This program is distributed in the hope that it will be useful,
  10:testBinIO.cpp ****  * but WITHOUT ANY WARRANTY; without even the implied warranty of
  11:testBinIO.cpp ****  * MERCHANTABILITY or FITNESS FOR A PARTICULAR PURPOSE.  See the
  12:testBinIO.cpp ****  * GNU Lesser General Public License for more details.
  13:testBinIO.cpp ****  *
  14:testBinIO.cpp ****  * You should have received a copy of the GNU Lesser General Public License
  15:testBinIO.cpp ****  * along with this program.  If not, see <http://www.gnu.org/licenses/>.
  16:testBinIO.cpp ****  */
  17:testBinIO.cpp **** #include <string.h>
  18:testBinIO.cpp **** #include <fstream>
  19:testBinIO.cpp **** #include <UnitTest++.h>
  20:testBinIO.cpp **** #include "../libbuffer.h"
  21:testBinIO.cpp **** 
  22:testBinIO.cpp **** using namespace std;
  23:testBinIO.cpp **** 
  24:testBinIO.cpp **** TEST(BinIO_testReadNonExistentFile) {
 179              		.loc 4 24 0 is_stmt 1
 180              		.cfi_startproc
 181 0000 55       		pushq	%rbp
 182              		.cfi_def_cfa_offset 16
 183              		.cfi_offset 6, -16
 184 0001 4889E5   		movq	%rsp, %rbp
 185              		.cfi_def_cfa_register 6
 186 0004 4883EC10 		subq	$16, %rsp
 187 0008 48897DF8 		movq	%rdi, -8(%rbp)
 188              	.LBB4:
 189              		.loc 4 24 0
 190 000c E8000000 		call	_ZN13UnitTestSuite12GetSuiteNameEv
 190      00
 191 0011 4889C2   		movq	%rax, %rdx
 192 0014 488B45F8 		movq	-8(%rbp), %rax
 193 0018 41B81800 		movl	$24, %r8d
 193      0000
 194 001e B9000000 		movl	$.LC1, %ecx
 194      00
 195 0023 BE000000 		movl	$.LC2, %esi
 195      00
 196 0028 4889C7   		movq	%rax, %rdi
 197 002b E8000000 		call	_ZN8UnitTest4TestC2EPKcS2_S2_i
 197      00
 198 0030 488B45F8 		movq	-8(%rbp), %rax
 199 0034 48C70000 		movq	$_ZTV33TestBinIO_testReadNonExistentFile+16, (%rax)
 199      000000
 200              	.LBE4:
 201 003b C9       		leave
 202              		.cfi_def_cfa 7, 8
 203 003c C3       		ret
 204              		.cfi_endproc
 205              	.LFE1134:
 207              		.weak	_ZN33TestBinIO_testReadNonExistentFileC1Ev
 208              		.set	_ZN33TestBinIO_testReadNonExistentFileC1Ev,_ZN33TestBinIO_testReadNonExistentFileC2Ev
 209              		.globl	testBinIO_testReadNonExistentFileInstance
 210              		.bss
 211              		.align 32
 214              	testBinIO_testReadNonExistentFileInstance:
 215 0000 00000000 		.zero	56
 215      00000000 
 215      00000000 
 215      00000000 
 215      00000000 
 216              		.globl	adderBinIO_testReadNonExistentFile
 219              	adderBinIO_testReadNonExistentFile:
 220 0038 00       		.zero	1
 221              		.section	.rodata
 222              	.LC3:
 223 0039 6E6F6E45 		.string	"nonExistentFile.bin"
 223      78697374 
 223      656E7446 
 223      696C652E 
 223      62696E00 
 224 004d 000000   		.align 8
 225              	.LC4:
 226 0050 556E6861 		.string	"Unhandled exception in CHECK_EQUAL(BUF_SUCCESS, status)"
 226      6E646C65 
 226      64206578 
 226      63657074 
 226      696F6E20 
 227              		.align 8
 228              	.LC5:
 229 0088 556E6861 		.string	"Unhandled exception in CHECK_EQUAL(BUF_FOPEN, status)"
 229      6E646C65 
 229      64206578 
 229      63657074 
 229      696F6E20 
 230              		.text
 231              		.align 2
 232              		.globl	_ZNK33TestBinIO_testReadNonExistentFile7RunImplEv
 234              	_ZNK33TestBinIO_testReadNonExistentFile7RunImplEv:
 235              	.LFB1136:
 236              		.loc 4 24 0
 237              		.cfi_startproc
 238              		.cfi_personality 0x3,__gxx_personality_v0
 239              		.cfi_lsda 0x3,.LLSDA1136
 240 0000 55       		pushq	%rbp
 241              		.cfi_def_cfa_offset 16
 242              		.cfi_offset 6, -16
 243 0001 4889E5   		movq	%rsp, %rbp
 244              		.cfi_def_cfa_register 6
 245 0004 53       		pushq	%rbx
 246 0005 4883EC78 		subq	$120, %rsp
 247              		.cfi_offset 3, -24
 248 0009 48897D88 		movq	%rdi, -120(%rbp)
 249              		.loc 4 24 0
 250 000d 64488B04 		movq	%fs:40, %rax
 250      25280000 
 250      00
 251 0016 488945E8 		movq	%rax, -24(%rbp)
 252 001a 31C0     		xorl	%eax, %eax
 253              	.LBB5:
  25:testBinIO.cpp **** 	Buffer buf;
  26:testBinIO.cpp **** 	BufferStatus status = bufInitialise(&buf, 8, 0, NULL);
 254              		.loc 4 26 0
 255 001c 488D45A0 		leaq	-96(%rbp), %rax
 256 0020 B9000000 		movl	$0, %ecx
 256      00
 257 0025 BA000000 		movl	$0, %edx
 257      00
 258 002a BE080000 		movl	$8, %esi
 258      00
 259 002f 4889C7   		movq	%rax, %rdi
 260              	.LEHB4:
 261 0032 E8000000 		call	bufInitialise
 261      00
 262              	.LEHE4:
 263 0037 894598   		movl	%eax, -104(%rbp)
 264              	.LEHB5:
  27:testBinIO.cpp **** 	CHECK_EQUAL(BUF_SUCCESS, status);
 265              		.loc 4 27 0
 266 003a E8000000 		call	_ZN8UnitTest11CurrentTest7DetailsEv
 266      00
 267 003f 488B08   		movq	(%rax), %rcx
 268 0042 488D45C0 		leaq	-64(%rbp), %rax
 269 0046 BA1B0000 		movl	$27, %edx
 269      00
 270 004b 4889CE   		movq	%rcx, %rsi
 271 004e 4889C7   		movq	%rax, %rdi
 272 0051 E8000000 		call	_ZN8UnitTest11TestDetailsC1ERKS0_i
 272      00
 273              		.loc 4 27 0 is_stmt 0 discriminator 2
 274 0056 C7459C00 		movl	$0, -100(%rbp)
 274      000000
 275 005d E8000000 		call	_ZN8UnitTest11CurrentTest7ResultsEv
 275      00
 276 0062 488B00   		movq	(%rax), %rax
 277 0065 488D4DC0 		leaq	-64(%rbp), %rcx
 278 0069 488D5598 		leaq	-104(%rbp), %rdx
 279 006d 488D759C 		leaq	-100(%rbp), %rsi
 280 0071 4889C7   		movq	%rax, %rdi
 281 0074 E8000000 		call	_ZN8UnitTest10CheckEqualI12BufferStatusS1_EEvRNS_11TestResultsERKT_RKT0_RKNS_11TestDetailsE
 281      00
 282              	.LEHE5:
 283              	.L15:
  28:testBinIO.cpp **** 	status = bufAppendFromBinaryFile(&buf, "nonExistentFile.bin", NULL);
 284              		.loc 4 28 0 is_stmt 1
 285 0079 488D45A0 		leaq	-96(%rbp), %rax
 286 007d BA000000 		movl	$0, %edx
 286      00
 287 0082 BE000000 		movl	$.LC3, %esi
 287      00
 288 0087 4889C7   		movq	%rax, %rdi
 289              	.LEHB6:
 290 008a E8000000 		call	bufAppendFromBinaryFile
 290      00
 291              	.LEHE6:
 292 008f 894598   		movl	%eax, -104(%rbp)
 293              	.LEHB7:
  29:testBinIO.cpp **** 	CHECK_EQUAL(BUF_FOPEN, status);
 294              		.loc 4 29 0
 295 0092 E8000000 		call	_ZN8UnitTest11CurrentTest7DetailsEv
 295      00
 296 0097 488B08   		movq	(%rax), %rcx
 297 009a 488D45C0 		leaq	-64(%rbp), %rax
 298 009e BA1D0000 		movl	$29, %edx
 298      00
 299 00a3 4889CE   		movq	%rcx, %rsi
 300 00a6 4889C7   		movq	%rax, %rdi
 301 00a9 E8000000 		call	_ZN8UnitTest11TestDetailsC1ERKS0_i
 301      00
 302              		.loc 4 29 0 is_stmt 0 discriminator 2
 303 00ae C7459C02 		movl	$2, -100(%rbp)
 303      000000
 304 00b5 E8000000 		call	_ZN8UnitTest11CurrentTest7ResultsEv
 304      00
 305 00ba 488B00   		movq	(%rax), %rax
 306 00bd 488D4DC0 		leaq	-64(%rbp), %rcx
 307 00c1 488D5598 		leaq	-104(%rbp), %rdx
 308 00c5 488D759C 		leaq	-100(%rbp), %rsi
 309 00c9 4889C7   		movq	%rax, %rdi
 310 00cc E8000000 		call	_ZN8UnitTest10CheckEqualI12BufferStatusS1_EEvRNS_11TestResultsERKT_RKT0_RKNS_11TestDetailsE
 310      00
 311              	.LEHE7:
 312              	.L18:
  30:testBinIO.cpp **** 	bufDestroy(&buf);
 313              		.loc 4 30 0 is_stmt 1
 314 00d1 488D45A0 		leaq	-96(%rbp), %rax
 315 00d5 4889C7   		movq	%rax, %rdi
 316              	.LEHB8:
 317 00d8 E8000000 		call	bufDestroy
 317      00
 318              	.LEHE8:
 319              	.LBE5:
  31:testBinIO.cpp **** }
 320              		.loc 4 31 0
 321 00dd 488B45E8 		movq	-24(%rbp), %rax
 322 00e1 64483304 		xorq	%fs:40, %rax
 322      25280000 
 322      00
 323 00ea 0F84C400 		je	.L19
 323      0000
 324 00f0 E9BA0000 		jmp	.L24
 324      00
 325              	.L21:
 326 00f5 4889C3   		movq	%rax, %rbx
 327              	.LBB6:
  27:testBinIO.cpp **** 	status = bufAppendFromBinaryFile(&buf, "nonExistentFile.bin", NULL);
 328              		.loc 4 27 0
 329 00f8 E8000000 		call	__cxa_end_catch
 329      00
 330 00fd 4889D8   		movq	%rbx, %rax
 331 0100 4889C7   		movq	%rax, %rdi
 332              	.LEHB9:
 333 0103 E8000000 		call	_Unwind_Resume
 333      00
 334              	.LEHE9:
 335              	.L20:
 336 0108 4889C7   		movq	%rax, %rdi
 337 010b E8000000 		call	__cxa_begin_catch
 337      00
 338              	.LEHB10:
 339 0110 E8000000 		call	_ZN8UnitTest11CurrentTest7DetailsEv
 339      00
 340 0115 488B08   		movq	(%rax), %rcx
 341 0118 488D45C0 		leaq	-64(%rbp), %rax
 342 011c BA1B0000 		movl	$27, %edx
 342      00
 343 0121 4889CE   		movq	%rcx, %rsi
 344 0124 4889C7   		movq	%rax, %rdi
 345 0127 E8000000 		call	_ZN8UnitTest11TestDetailsC1ERKS0_i
 345      00
  27:testBinIO.cpp **** 	status = bufAppendFromBinaryFile(&buf, "nonExistentFile.bin", NULL);
 346              		.loc 4 27 0 is_stmt 0 discriminator 10
 347 012c E8000000 		call	_ZN8UnitTest11CurrentTest7ResultsEv
 347      00
 348 0131 488B00   		movq	(%rax), %rax
 349 0134 488D4DC0 		leaq	-64(%rbp), %rcx
 350 0138 BA000000 		movl	$.LC4, %edx
 350      00
 351 013d 4889CE   		movq	%rcx, %rsi
 352 0140 4889C7   		movq	%rax, %rdi
 353 0143 E8000000 		call	_ZN8UnitTest11TestResults13OnTestFailureERKNS_11TestDetailsEPKc
 353      00
 354              	.LEHE10:
 355              	.LEHB11:
  27:testBinIO.cpp **** 	status = bufAppendFromBinaryFile(&buf, "nonExistentFile.bin", NULL);
 356              		.loc 4 27 0 discriminator 14
 357 0148 E8000000 		call	__cxa_end_catch
 357      00
 358              	.LEHE11:
 359 014d E927FFFF 		jmp	.L15
 359      FF
 360              	.L23:
 361 0152 4889C3   		movq	%rax, %rbx
  29:testBinIO.cpp **** 	bufDestroy(&buf);
 362              		.loc 4 29 0 is_stmt 1
 363 0155 E8000000 		call	__cxa_end_catch
 363      00
 364 015a 4889D8   		movq	%rbx, %rax
 365 015d 4889C7   		movq	%rax, %rdi
 366              	.LEHB12:
 367 0160 E8000000 		call	_Unwind_Resume
 367      00
 368              	.LEHE12:
 369              	.L22:
 370 0165 4889C7   		movq	%rax, %rdi
 371 0168 E8000000 		call	__cxa_begin_catch
 371      00
 372              	.LEHB13:
 373 016d E8000000 		call	_ZN8UnitTest11CurrentTest7DetailsEv
 373      00
 374 0172 488B08   		movq	(%rax), %rcx
 375 0175 488D45C0 		leaq	-64(%rbp), %rax
 376 0179 BA1D0000 		movl	$29, %edx
 376      00
 377 017e 4889CE   		movq	%rcx, %rsi
 378 0181 4889C7   		movq	%rax, %rdi
 379 0184 E8000000 		call	_ZN8UnitTest11TestDetailsC1ERKS0_i
 379      00
  29:testBinIO.cpp **** 	bufDestroy(&buf);
 380              		.loc 4 29 0 is_stmt 0 discriminator 10
 381 0189 E8000000 		call	_ZN8UnitTest11CurrentTest7ResultsEv
 381      00
 382 018e 488B00   		movq	(%rax), %rax
 383 0191 488D4DC0 		leaq	-64(%rbp), %rcx
 384 0195 BA000000 		movl	$.LC5, %edx
 384      00
 385 019a 4889CE   		movq	%rcx, %rsi
 386 019d 4889C7   		movq	%rax, %rdi
 387 01a0 E8000000 		call	_ZN8UnitTest11TestResults13OnTestFailureERKNS_11TestDetailsEPKc
 387      00
 388              	.LEHE13:
 389              	.LEHB14:
  29:testBinIO.cpp **** 	bufDestroy(&buf);
 390              		.loc 4 29 0 discriminator 14
 391 01a5 E8000000 		call	__cxa_end_catch
 391      00
 392              	.LEHE14:
 393 01aa E922FFFF 		jmp	.L18
 393      FF
 394              	.L24:
 395              	.LBE6:
 396              		.loc 4 31 0 is_stmt 1
 397 01af E8000000 		call	__stack_chk_fail
 397      00
 398              	.L19:
 399 01b4 4883C478 		addq	$120, %rsp
 400 01b8 5B       		popq	%rbx
 401 01b9 5D       		popq	%rbp
 402              		.cfi_def_cfa 7, 8
 403 01ba C3       		ret
 404              		.cfi_endproc
 405              	.LFE1136:
 406              		.section	.gcc_except_table,"a",@progbits
 407              		.align 4
 408              	.LLSDA1136:
 409 0000 FF       		.byte	0xff
 410 0001 03       		.byte	0x3
 411 0002 41       		.uleb128 .LLSDATT1136-.LLSDATTD1136
 412              	.LLSDATTD1136:
 413 0003 01       		.byte	0x1
 414 0004 39       		.uleb128 .LLSDACSE1136-.LLSDACSB1136
 415              	.LLSDACSB1136:
 416 0005 32       		.uleb128 .LEHB4-.LFB1136
 417 0006 05       		.uleb128 .LEHE4-.LEHB4
 418 0007 00       		.uleb128 0
 419 0008 00       		.uleb128 0
 420 0009 3A       		.uleb128 .LEHB5-.LFB1136
 421 000a 3F       		.uleb128 .LEHE5-.LEHB5
 422 000b 8802     		.uleb128 .L20-.LFB1136
 423 000d 01       		.uleb128 0x1
 424 000e 8A01     		.uleb128 .LEHB6-.LFB1136
 425 0010 05       		.uleb128 .LEHE6-.LEHB6
 426 0011 00       		.uleb128 0
 427 0012 00       		.uleb128 0
 428 0013 9201     		.uleb128 .LEHB7-.LFB1136
 429 0015 3F       		.uleb128 .LEHE7-.LEHB7
 430 0016 E502     		.uleb128 .L22-.LFB1136
 431 0018 01       		.uleb128 0x1
 432 0019 D801     		.uleb128 .LEHB8-.LFB1136
 433 001b 05       		.uleb128 .LEHE8-.LEHB8
 434 001c 00       		.uleb128 0
 435 001d 00       		.uleb128 0
 436 001e 8302     		.uleb128 .LEHB9-.LFB1136
 437 0020 05       		.uleb128 .LEHE9-.LEHB9
 438 0021 00       		.uleb128 0
 439 0022 00       		.uleb128 0
 440 0023 9002     		.uleb128 .LEHB10-.LFB1136
 441 0025 38       		.uleb128 .LEHE10-.LEHB10
 442 0026 F501     		.uleb128 .L21-.LFB1136
 443 0028 00       		.uleb128 0
 444 0029 C802     		.uleb128 .LEHB11-.LFB1136
 445 002b 05       		.uleb128 .LEHE11-.LEHB11
 446 002c 00       		.uleb128 0
 447 002d 00       		.uleb128 0
 448 002e E002     		.uleb128 .LEHB12-.LFB1136
 449 0030 05       		.uleb128 .LEHE12-.LEHB12
 450 0031 00       		.uleb128 0
 451 0032 00       		.uleb128 0
 452 0033 ED02     		.uleb128 .LEHB13-.LFB1136
 453 0035 38       		.uleb128 .LEHE13-.LEHB13
 454 0036 D202     		.uleb128 .L23-.LFB1136
 455 0038 00       		.uleb128 0
 456 0039 A503     		.uleb128 .LEHB14-.LFB1136
 457 003b 05       		.uleb128 .LEHE14-.LEHB14
 458 003c 00       		.uleb128 0
 459 003d 00       		.uleb128 0
 460              	.LLSDACSE1136:
 461 003e 01       		.byte	0x1
 462 003f 00       		.byte	0
 463              		.align 4
 464 0040 00000000 		.long	0
 465              	
 466              	.LLSDATT1136:
 467              		.text
 469              		.section	.rodata
 470              	.LC6:
 471 00be 42696E49 		.string	"BinIO_testReadExistingFile"
 471      4F5F7465 
 471      73745265 
 471      61644578 
 471      69737469 
 472              		.section	.text._ZN30TestBinIO_testReadExistingFileC2Ev,"axG",@progbits,_ZN30TestBinIO_testReadExis
 473              		.align 2
 474              		.weak	_ZN30TestBinIO_testReadExistingFileC2Ev
 476              	_ZN30TestBinIO_testReadExistingFileC2Ev:
 477              	.LFB1138:
  32:testBinIO.cpp **** 
  33:testBinIO.cpp **** TEST(BinIO_testReadExistingFile) {
 478              		.loc 4 33 0
 479              		.cfi_startproc
 480 0000 55       		pushq	%rbp
 481              		.cfi_def_cfa_offset 16
 482              		.cfi_offset 6, -16
 483 0001 4889E5   		movq	%rsp, %rbp
 484              		.cfi_def_cfa_register 6
 485 0004 4883EC10 		subq	$16, %rsp
 486 0008 48897DF8 		movq	%rdi, -8(%rbp)
 487              	.LBB7:
 488              		.loc 4 33 0
 489 000c E8000000 		call	_ZN13UnitTestSuite12GetSuiteNameEv
 489      00
 490 0011 4889C2   		movq	%rax, %rdx
 491 0014 488B45F8 		movq	-8(%rbp), %rax
 492 0018 41B82100 		movl	$33, %r8d
 492      0000
 493 001e B9000000 		movl	$.LC1, %ecx
 493      00
 494 0023 BE000000 		movl	$.LC6, %esi
 494      00
 495 0028 4889C7   		movq	%rax, %rdi
 496 002b E8000000 		call	_ZN8UnitTest4TestC2EPKcS2_S2_i
 496      00
 497 0030 488B45F8 		movq	-8(%rbp), %rax
 498 0034 48C70000 		movq	$_ZTV30TestBinIO_testReadExistingFile+16, (%rax)
 498      000000
 499              	.LBE7:
 500 003b C9       		leave
 501              		.cfi_def_cfa 7, 8
 502 003c C3       		ret
 503              		.cfi_endproc
 504              	.LFE1138:
 506              		.weak	_ZN30TestBinIO_testReadExistingFileC1Ev
 507              		.set	_ZN30TestBinIO_testReadExistingFileC1Ev,_ZN30TestBinIO_testReadExistingFileC2Ev
 508              		.globl	testBinIO_testReadExistingFileInstance
 509              		.bss
 510 0039 00000000 		.align 32
 510      000000
 513              	testBinIO_testReadExistingFileInstance:
 514 0040 00000000 		.zero	56
 514      00000000 
 514      00000000 
 514      00000000 
 514      00000000 
 515              		.globl	adderBinIO_testReadExistingFile
 518              	adderBinIO_testReadExistingFile:
 519 0078 00       		.zero	1
 520              		.section	.rodata
 521              	.LC7:
 522 00d9 746D7046 		.string	"tmpFile.bin"
 522      696C652E 
 522      62696E00 
 523              	.LC8:
 524 00e5 4A757374 		.string	"Just some test data"
 524      20736F6D 
 524      65207465 
 524      73742064 
 524      61746100 
 525 00f9 00000000 		.align 8
 525      000000
 526              	.LC9:
 527 0100 556E6861 		.string	"Unhandled exception in CHECK_EQUAL(strlen(DATA), buf.length)"
 527      6E646C65 
 527      64206578 
 527      63657074 
 527      696F6E20 
 528 013d 000000   		.align 8
 529              	.LC10:
 530 0140 556E6861 		.string	"Unhandled exception in CHECK_ARRAY_EQUAL(DATA, buf.data)"
 530      6E646C65 
 530      64206578 
 530      63657074 
 530      696F6E20 
 531 0179 00000000 		.align 8
 531      000000
 532              	.LC11:
 533 0180 556E6861 		.string	"Unhandled exception in CHECK_EQUAL(2 * strlen(DATA), buf.length)"
 533      6E646C65 
 533      64206578 
 533      63657074 
 533      696F6E20 
 534 01c1 00000000 		.align 8
 534      000000
 535              	.LC12:
 536 01c8 556E6861 		.string	"Unhandled exception in CHECK_ARRAY_EQUAL(DATA, buf.data + strlen(DATA))"
 536      6E646C65 
 536      64206578 
 536      63657074 
 536      696F6E20 
 537              		.text
 538 01bb 90       		.align 2
 539              		.globl	_ZNK30TestBinIO_testReadExistingFile7RunImplEv
 541              	_ZNK30TestBinIO_testReadExistingFile7RunImplEv:
 542              	.LFB1140:
 543              		.loc 4 33 0
 544              		.cfi_startproc
 545              		.cfi_personality 0x3,__gxx_personality_v0
 546              		.cfi_lsda 0x3,.LLSDA1140
 547 01bc 55       		pushq	%rbp
 548              		.cfi_def_cfa_offset 16
 549              		.cfi_offset 6, -16
 550 01bd 4889E5   		movq	%rsp, %rbp
 551              		.cfi_def_cfa_register 6
 552 01c0 53       		pushq	%rbx
 553 01c1 4881EC88 		subq	$648, %rsp
 553      020000
 554              		.cfi_offset 3, -24
 555 01c8 4889BD78 		movq	%rdi, -648(%rbp)
 555      FDFFFF
 556              		.loc 4 33 0
 557 01cf 64488B04 		movq	%fs:40, %rax
 557      25280000 
 557      00
 558 01d8 488945E8 		movq	%rax, -24(%rbp)
 559 01dc 31C0     		xorl	%eax, %eax
 560              	.LBB8:
  34:testBinIO.cpp **** 	const char *const FILENAME = "tmpFile.bin";
 561              		.loc 4 34 0
 562 01de 48C78598 		movq	$.LC7, -616(%rbp)
 562      FDFFFF00 
 562      000000
  35:testBinIO.cpp **** 	const char *const DATA = "Just some test data";
 563              		.loc 4 35 0
 564 01e9 48C78588 		movq	$.LC8, -632(%rbp)
 564      FDFFFF00 
 564      000000
  36:testBinIO.cpp **** 	ofstream file;
 565              		.loc 4 36 0
 566 01f4 488D85E0 		leaq	-544(%rbp), %rax
 566      FDFFFF
 567 01fb 4889C7   		movq	%rax, %rdi
 568              	.LEHB15:
 569 01fe E8000000 		call	_ZNSt14basic_ofstreamIcSt11char_traitsIcEEC1Ev
 569      00
 570              	.LEHE15:
  37:testBinIO.cpp **** 	Buffer buf;
  38:testBinIO.cpp **** 	BufferStatus status = bufInitialise(&buf, 8, 0, NULL);
 571              		.loc 4 38 0
 572 0203 488D85A0 		leaq	-608(%rbp), %rax
 572      FDFFFF
 573 020a B9000000 		movl	$0, %ecx
 573      00
 574 020f BA000000 		movl	$0, %edx
 574      00
 575 0214 BE080000 		movl	$8, %esi
 575      00
 576 0219 4889C7   		movq	%rax, %rdi
 577              	.LEHB16:
 578 021c E8000000 		call	bufInitialise
 578      00
 579              	.LEHE16:
 580 0221 898584FD 		movl	%eax, -636(%rbp)
 580      FFFF
 581              	.LEHB17:
  39:testBinIO.cpp **** 	CHECK_EQUAL(BUF_SUCCESS, status);
 582              		.loc 4 39 0
 583 0227 E8000000 		call	_ZN8UnitTest11CurrentTest7DetailsEv
 583      00
 584              		.loc 4 39 0 is_stmt 0 discriminator 1
 585 022c 488B08   		movq	(%rax), %rcx
 586 022f 488D85C0 		leaq	-576(%rbp), %rax
 586      FDFFFF
 587 0236 BA270000 		movl	$39, %edx
 587      00
 588 023b 4889CE   		movq	%rcx, %rsi
 589 023e 4889C7   		movq	%rax, %rdi
 590 0241 E8000000 		call	_ZN8UnitTest11TestDetailsC1ERKS0_i
 590      00
 591              		.loc 4 39 0 discriminator 2
 592 0246 C78590FD 		movl	$0, -624(%rbp)
 592      FFFF0000 
 592      0000
 593 0250 E8000000 		call	_ZN8UnitTest11CurrentTest7ResultsEv
 593      00
 594 0255 488B00   		movq	(%rax), %rax
 595 0258 488D8DC0 		leaq	-576(%rbp), %rcx
 595      FDFFFF
 596 025f 488D9584 		leaq	-636(%rbp), %rdx
 596      FDFFFF
 597 0266 488DB590 		leaq	-624(%rbp), %rsi
 597      FDFFFF
 598 026d 4889C7   		movq	%rax, %rdi
 599 0270 E8000000 		call	_ZN8UnitTest10CheckEqualI12BufferStatusS1_EEvRNS_11TestResultsERKT_RKT0_RKNS_11TestDetailsE
 599      00
 600              	.LEHE17:
 601              	.L30:
  40:testBinIO.cpp **** 	file.open(FILENAME, ios::out|ios::binary);
 602              		.loc 4 40 0 is_stmt 1
 603 0275 BE040000 		movl	$4, %esi
 603      00
 604 027a BF100000 		movl	$16, %edi
 604      00
 605 027f E8000000 		call	_ZStorSt13_Ios_OpenmodeS_
 605      00
 606 0284 89C2     		movl	%eax, %edx
 607 0286 488D85E0 		leaq	-544(%rbp), %rax
 607      FDFFFF
 608 028d BE000000 		movl	$.LC7, %esi
 608      00
 609 0292 4889C7   		movq	%rax, %rdi
 610              	.LEHB18:
 611 0295 E8000000 		call	_ZNSt14basic_ofstreamIcSt11char_traitsIcEE4openEPKcSt13_Ios_Openmode
 611      00
  41:testBinIO.cpp **** 	file << DATA;
 612              		.loc 4 41 0
 613 029a 488D85E0 		leaq	-544(%rbp), %rax
 613      FDFFFF
 614 02a1 BE000000 		movl	$.LC8, %esi
 614      00
 615 02a6 4889C7   		movq	%rax, %rdi
 616 02a9 E8000000 		call	_ZStlsISt11char_traitsIcEERSt13basic_ostreamIcT_ES5_PKc
 616      00
  42:testBinIO.cpp **** 	file.close();
 617              		.loc 4 42 0
 618 02ae 488D85E0 		leaq	-544(%rbp), %rax
 618      FDFFFF
 619 02b5 4889C7   		movq	%rax, %rdi
 620 02b8 E8000000 		call	_ZNSt14basic_ofstreamIcSt11char_traitsIcEE5closeEv
 620      00
  43:testBinIO.cpp **** 	status = bufAppendFromBinaryFile(&buf, FILENAME, NULL);
 621              		.loc 4 43 0
 622 02bd 488D85A0 		leaq	-608(%rbp), %rax
 622      FDFFFF
 623 02c4 BA000000 		movl	$0, %edx
 623      00
 624 02c9 BE000000 		movl	$.LC7, %esi
 624      00
 625 02ce 4889C7   		movq	%rax, %rdi
 626 02d1 E8000000 		call	bufAppendFromBinaryFile
 626      00
 627              	.LEHE18:
 628 02d6 898584FD 		movl	%eax, -636(%rbp)
 628      FFFF
 629              	.LEHB19:
  44:testBinIO.cpp **** 	CHECK_EQUAL(BUF_SUCCESS, status);
 630              		.loc 4 44 0
 631 02dc E8000000 		call	_ZN8UnitTest11CurrentTest7DetailsEv
 631      00
 632              		.loc 4 44 0 is_stmt 0 discriminator 1
 633 02e1 488B08   		movq	(%rax), %rcx
 634 02e4 488D85C0 		leaq	-576(%rbp), %rax
 634      FDFFFF
 635 02eb BA2C0000 		movl	$44, %edx
 635      00
 636 02f0 4889CE   		movq	%rcx, %rsi
 637 02f3 4889C7   		movq	%rax, %rdi
 638 02f6 E8000000 		call	_ZN8UnitTest11TestDetailsC1ERKS0_i
 638      00
 639              		.loc 4 44 0 discriminator 2
 640 02fb C78590FD 		movl	$0, -624(%rbp)
 640      FFFF0000 
 640      0000
 641 0305 E8000000 		call	_ZN8UnitTest11CurrentTest7ResultsEv
 641      00
 642 030a 488B00   		movq	(%rax), %rax
 643 030d 488D8DC0 		leaq	-576(%rbp), %rcx
 643      FDFFFF
 644 0314 488D9584 		leaq	-636(%rbp), %rdx
 644      FDFFFF
 645 031b 488DB590 		leaq	-624(%rbp), %rsi
 645      FDFFFF
 646 0322 4889C7   		movq	%rax, %rdi
 647 0325 E8000000 		call	_ZN8UnitTest10CheckEqualI12BufferStatusS1_EEvRNS_11TestResultsERKT_RKT0_RKNS_11TestDetailsE
 647      00
 648              	.LEHE19:
 649              	.L33:
 650              	.LEHB20:
  45:testBinIO.cpp **** 	CHECK_EQUAL(strlen(DATA), buf.length);
 651              		.loc 4 45 0 is_stmt 1
 652 032a E8000000 		call	_ZN8UnitTest11CurrentTest7DetailsEv
 652      00
 653 032f 488B08   		movq	(%rax), %rcx
 654 0332 488D85C0 		leaq	-576(%rbp), %rax
 654      FDFFFF
 655 0339 BA2D0000 		movl	$45, %edx
 655      00
 656 033e 4889CE   		movq	%rcx, %rsi
 657 0341 4889C7   		movq	%rax, %rdi
 658 0344 E8000000 		call	_ZN8UnitTest11TestDetailsC1ERKS0_i
 658      00
 659              		.loc 4 45 0 is_stmt 0 discriminator 2
 660 0349 48C78590 		movq	$19, -624(%rbp)
 660      FDFFFF13 
 660      000000
 661 0354 E8000000 		call	_ZN8UnitTest11CurrentTest7ResultsEv
 661      00
 662 0359 488B00   		movq	(%rax), %rax
 663 035c 488D95C0 		leaq	-576(%rbp), %rdx
 663      FDFFFF
 664 0363 488D8DA0 		leaq	-608(%rbp), %rcx
 664      FDFFFF
 665 036a 488D7908 		leaq	8(%rcx), %rdi
 666 036e 488DB590 		leaq	-624(%rbp), %rsi
 666      FDFFFF
 667 0375 4889D1   		movq	%rdx, %rcx
 668 0378 4889FA   		movq	%rdi, %rdx
 669 037b 4889C7   		movq	%rax, %rdi
 670 037e E8000000 		call	_ZN8UnitTest10CheckEqualImjEEvRNS_11TestResultsERKT_RKT0_RKNS_11TestDetailsE
 670      00
 671              	.LEHE20:
 672              	.L36:
 673              	.LEHB21:
  46:testBinIO.cpp **** 	CHECK_ARRAY_EQUAL(DATA, buf.data, buf.length);
 674              		.loc 4 46 0 is_stmt 1
 675 0383 E8000000 		call	_ZN8UnitTest11CurrentTest7DetailsEv
 675      00
 676 0388 488B08   		movq	(%rax), %rcx
 677 038b 488D85C0 		leaq	-576(%rbp), %rax
 677      FDFFFF
 678 0392 BA2E0000 		movl	$46, %edx
 678      00
 679 0397 4889CE   		movq	%rcx, %rsi
 680 039a 4889C7   		movq	%rax, %rdi
 681 039d E8000000 		call	_ZN8UnitTest11TestDetailsC1ERKS0_i
 681      00
 682              		.loc 4 46 0 is_stmt 0 discriminator 2
 683 03a2 8B85A8FD 		movl	-600(%rbp), %eax
 683      FFFF
 684 03a8 89C3     		movl	%eax, %ebx
 685 03aa E8000000 		call	_ZN8UnitTest11CurrentTest7ResultsEv
 685      00
 686 03af 488B00   		movq	(%rax), %rax
 687 03b2 488D8DC0 		leaq	-576(%rbp), %rcx
 687      FDFFFF
 688 03b9 488D95A0 		leaq	-608(%rbp), %rdx
 688      FDFFFF
 689 03c0 488DB588 		leaq	-632(%rbp), %rsi
 689      FDFFFF
 690 03c7 4989C8   		movq	%rcx, %r8
 691 03ca 89D9     		movl	%ebx, %ecx
 692 03cc 4889C7   		movq	%rax, %rdi
 693 03cf E8000000 		call	_ZN8UnitTest15CheckArrayEqualIPKcPhEEvRNS_11TestResultsERKT_RKT0_iRKNS_11TestDetailsE
 693      00
 694              	.LEHE21:
 695              	.L39:
  47:testBinIO.cpp **** 	status = bufAppendFromBinaryFile(&buf, FILENAME, NULL);
 696              		.loc 4 47 0 is_stmt 1
 697 03d4 488D85A0 		leaq	-608(%rbp), %rax
 697      FDFFFF
 698 03db BA000000 		movl	$0, %edx
 698      00
 699 03e0 BE000000 		movl	$.LC7, %esi
 699      00
 700 03e5 4889C7   		movq	%rax, %rdi
 701              	.LEHB22:
 702 03e8 E8000000 		call	bufAppendFromBinaryFile
 702      00
 703              	.LEHE22:
 704 03ed 898584FD 		movl	%eax, -636(%rbp)
 704      FFFF
 705              	.LEHB23:
  48:testBinIO.cpp **** 	CHECK_EQUAL(BUF_SUCCESS, status);
 706              		.loc 4 48 0
 707 03f3 E8000000 		call	_ZN8UnitTest11CurrentTest7DetailsEv
 707      00
 708              		.loc 4 48 0 is_stmt 0 discriminator 1
 709 03f8 488B08   		movq	(%rax), %rcx
 710 03fb 488D85C0 		leaq	-576(%rbp), %rax
 710      FDFFFF
 711 0402 BA300000 		movl	$48, %edx
 711      00
 712 0407 4889CE   		movq	%rcx, %rsi
 713 040a 4889C7   		movq	%rax, %rdi
 714 040d E8000000 		call	_ZN8UnitTest11TestDetailsC1ERKS0_i
 714      00
 715              		.loc 4 48 0 discriminator 2
 716 0412 C78590FD 		movl	$0, -624(%rbp)
 716      FFFF0000 
 716      0000
 717 041c E8000000 		call	_ZN8UnitTest11CurrentTest7ResultsEv
 717      00
 718 0421 488B00   		movq	(%rax), %rax
 719 0424 488D8DC0 		leaq	-576(%rbp), %rcx
 719      FDFFFF
 720 042b 488D9584 		leaq	-636(%rbp), %rdx
 720      FDFFFF
 721 0432 488DB590 		leaq	-624(%rbp), %rsi
 721      FDFFFF
 722 0439 4889C7   		movq	%rax, %rdi
 723 043c E8000000 		call	_ZN8UnitTest10CheckEqualI12BufferStatusS1_EEvRNS_11TestResultsERKT_RKT0_RKNS_11TestDetailsE
 723      00
 724              	.LEHE23:
 725              	.L42:
 726              	.LEHB24:
  49:testBinIO.cpp **** 	CHECK_EQUAL(2 * strlen(DATA), buf.length);
 727              		.loc 4 49 0 is_stmt 1
 728 0441 E8000000 		call	_ZN8UnitTest11CurrentTest7DetailsEv
 728      00
 729 0446 488B08   		movq	(%rax), %rcx
 730 0449 488D85C0 		leaq	-576(%rbp), %rax
 730      FDFFFF
 731 0450 BA310000 		movl	$49, %edx
 731      00
 732 0455 4889CE   		movq	%rcx, %rsi
 733 0458 4889C7   		movq	%rax, %rdi
 734 045b E8000000 		call	_ZN8UnitTest11TestDetailsC1ERKS0_i
 734      00
 735              		.loc 4 49 0 is_stmt 0 discriminator 2
 736 0460 48C78590 		movq	$38, -624(%rbp)
 736      FDFFFF26 
 736      000000
 737 046b E8000000 		call	_ZN8UnitTest11CurrentTest7ResultsEv
 737      00
 738 0470 488B00   		movq	(%rax), %rax
 739 0473 488D95C0 		leaq	-576(%rbp), %rdx
 739      FDFFFF
 740 047a 488D8DA0 		leaq	-608(%rbp), %rcx
 740      FDFFFF
 741 0481 488D7908 		leaq	8(%rcx), %rdi
 742 0485 488DB590 		leaq	-624(%rbp), %rsi
 742      FDFFFF
 743 048c 4889D1   		movq	%rdx, %rcx
 744 048f 4889FA   		movq	%rdi, %rdx
 745 0492 4889C7   		movq	%rax, %rdi
 746 0495 E8000000 		call	_ZN8UnitTest10CheckEqualImjEEvRNS_11TestResultsERKT_RKT0_RKNS_11TestDetailsE
 746      00
 747              	.LEHE24:
 748              	.L45:
 749              	.LEHB25:
  50:testBinIO.cpp **** 	CHECK_ARRAY_EQUAL(DATA, buf.data + strlen(DATA), strlen(DATA));
 750              		.loc 4 50 0 is_stmt 1
 751 049a E8000000 		call	_ZN8UnitTest11CurrentTest7DetailsEv
 751      00
 752 049f 488B08   		movq	(%rax), %rcx
 753 04a2 488D85C0 		leaq	-576(%rbp), %rax
 753      FDFFFF
 754 04a9 BA320000 		movl	$50, %edx
 754      00
 755 04ae 4889CE   		movq	%rcx, %rsi
 756 04b1 4889C7   		movq	%rax, %rdi
 757 04b4 E8000000 		call	_ZN8UnitTest11TestDetailsC1ERKS0_i
 757      00
 758              		.loc 4 50 0 is_stmt 0 discriminator 2
 759 04b9 488B85A0 		movq	-608(%rbp), %rax
 759      FDFFFF
 760 04c0 4883C013 		addq	$19, %rax
 761 04c4 48898590 		movq	%rax, -624(%rbp)
 761      FDFFFF
 762 04cb E8000000 		call	_ZN8UnitTest11CurrentTest7ResultsEv
 762      00
 763 04d0 488B00   		movq	(%rax), %rax
 764 04d3 488D8DC0 		leaq	-576(%rbp), %rcx
 764      FDFFFF
 765 04da 488D9590 		leaq	-624(%rbp), %rdx
 765      FDFFFF
 766 04e1 488DB588 		leaq	-632(%rbp), %rsi
 766      FDFFFF
 767 04e8 4989C8   		movq	%rcx, %r8
 768 04eb B9130000 		movl	$19, %ecx
 768      00
 769 04f0 4889C7   		movq	%rax, %rdi
 770 04f3 E8000000 		call	_ZN8UnitTest15CheckArrayEqualIPKcPhEEvRNS_11TestResultsERKT_RKT0_iRKNS_11TestDetailsE
 770      00
 771              	.LEHE25:
 772              	.L48:
  51:testBinIO.cpp **** 	bufDestroy(&buf);
 773              		.loc 4 51 0 is_stmt 1
 774 04f8 488D85A0 		leaq	-608(%rbp), %rax
 774      FDFFFF
 775 04ff 4889C7   		movq	%rax, %rdi
 776              	.LEHB26:
 777 0502 E8000000 		call	bufDestroy
 777      00
 778              	.LEHE26:
 779              		.loc 4 51 0 is_stmt 0 discriminator 2
 780 0507 488D85E0 		leaq	-544(%rbp), %rax
 780      FDFFFF
 781 050e 4889C7   		movq	%rax, %rdi
 782              	.LEHB27:
 783 0511 E8000000 		call	_ZNSt14basic_ofstreamIcSt11char_traitsIcEED1Ev
 783      00
 784              	.LEHE27:
 785              	.LBE8:
  52:testBinIO.cpp **** }
 786              		.loc 4 52 0 is_stmt 1 discriminator 2
 787 0516 488B45E8 		movq	-24(%rbp), %rax
 788 051a 64483304 		xorq	%fs:40, %rax
 788      25280000 
 788      00
 789 0523 0F84AF02 		je	.L49
 789      0000
 790 0529 E9A50200 		jmp	.L65
 790      00
 791              	.L52:
 792 052e 4889C3   		movq	%rax, %rbx
 793              	.LBB9:
  39:testBinIO.cpp **** 	file.open(FILENAME, ios::out|ios::binary);
 794              		.loc 4 39 0
 795 0531 E8000000 		call	__cxa_end_catch
 795      00
 796 0536 E97E0200 		jmp	.L28
 796      00
 797              	.L51:
 798 053b 4889C7   		movq	%rax, %rdi
 799 053e E8000000 		call	__cxa_begin_catch
 799      00
 800              	.LEHB28:
 801 0543 E8000000 		call	_ZN8UnitTest11CurrentTest7DetailsEv
 801      00
 802 0548 488B08   		movq	(%rax), %rcx
 803 054b 488D85C0 		leaq	-576(%rbp), %rax
 803      FDFFFF
 804 0552 BA270000 		movl	$39, %edx
 804      00
 805 0557 4889CE   		movq	%rcx, %rsi
 806 055a 4889C7   		movq	%rax, %rdi
 807 055d E8000000 		call	_ZN8UnitTest11TestDetailsC1ERKS0_i
 807      00
  39:testBinIO.cpp **** 	file.open(FILENAME, ios::out|ios::binary);
 808              		.loc 4 39 0 is_stmt 0 discriminator 10
 809 0562 E8000000 		call	_ZN8UnitTest11CurrentTest7ResultsEv
 809      00
 810 0567 488B00   		movq	(%rax), %rax
 811 056a 488D8DC0 		leaq	-576(%rbp), %rcx
 811      FDFFFF
 812 0571 BA000000 		movl	$.LC4, %edx
 812      00
 813 0576 4889CE   		movq	%rcx, %rsi
 814 0579 4889C7   		movq	%rax, %rdi
 815 057c E8000000 		call	_ZN8UnitTest11TestResults13OnTestFailureERKNS_11TestDetailsEPKc
 815      00
 816              	.LEHE28:
 817              	.LEHB29:
  39:testBinIO.cpp **** 	file.open(FILENAME, ios::out|ios::binary);
 818              		.loc 4 39 0 discriminator 14
 819 0581 E8000000 		call	__cxa_end_catch
 819      00
 820              	.LEHE29:
  39:testBinIO.cpp **** 	file.open(FILENAME, ios::out|ios::binary);
 821              		.loc 4 39 0
 822 0586 E9EAFCFF 		jmp	.L30
 822      FF
 823              	.L54:
 824 058b 4889C3   		movq	%rax, %rbx
  44:testBinIO.cpp **** 	CHECK_EQUAL(strlen(DATA), buf.length);
 825              		.loc 4 44 0 is_stmt 1
 826 058e E8000000 		call	__cxa_end_catch
 826      00
 827 0593 E9210200 		jmp	.L28
 827      00
 828              	.L53:
 829 0598 4889C7   		movq	%rax, %rdi
 830 059b E8000000 		call	__cxa_begin_catch
 830      00
 831              	.LEHB30:
 832 05a0 E8000000 		call	_ZN8UnitTest11CurrentTest7DetailsEv
 832      00
 833 05a5 488B08   		movq	(%rax), %rcx
 834 05a8 488D85C0 		leaq	-576(%rbp), %rax
 834      FDFFFF
 835 05af BA2C0000 		movl	$44, %edx
 835      00
 836 05b4 4889CE   		movq	%rcx, %rsi
 837 05b7 4889C7   		movq	%rax, %rdi
 838 05ba E8000000 		call	_ZN8UnitTest11TestDetailsC1ERKS0_i
 838      00
  44:testBinIO.cpp **** 	CHECK_EQUAL(strlen(DATA), buf.length);
 839              		.loc 4 44 0 is_stmt 0 discriminator 10
 840 05bf E8000000 		call	_ZN8UnitTest11CurrentTest7ResultsEv
 840      00
 841 05c4 488B00   		movq	(%rax), %rax
 842 05c7 488D8DC0 		leaq	-576(%rbp), %rcx
 842      FDFFFF
 843 05ce BA000000 		movl	$.LC4, %edx
 843      00
 844 05d3 4889CE   		movq	%rcx, %rsi
 845 05d6 4889C7   		movq	%rax, %rdi
 846 05d9 E8000000 		call	_ZN8UnitTest11TestResults13OnTestFailureERKNS_11TestDetailsEPKc
 846      00
 847              	.LEHE30:
 848              	.LEHB31:
  44:testBinIO.cpp **** 	CHECK_EQUAL(strlen(DATA), buf.length);
 849              		.loc 4 44 0 discriminator 14
 850 05de E8000000 		call	__cxa_end_catch
 850      00
 851              	.LEHE31:
  44:testBinIO.cpp **** 	CHECK_EQUAL(strlen(DATA), buf.length);
 852              		.loc 4 44 0
 853 05e3 E942FDFF 		jmp	.L33
 853      FF
 854              	.L56:
 855 05e8 4889C3   		movq	%rax, %rbx
  45:testBinIO.cpp **** 	CHECK_ARRAY_EQUAL(DATA, buf.data, buf.length);
 856              		.loc 4 45 0 is_stmt 1
 857 05eb E8000000 		call	__cxa_end_catch
 857      00
 858 05f0 E9C40100 		jmp	.L28
 858      00
 859              	.L55:
 860 05f5 4889C7   		movq	%rax, %rdi
 861 05f8 E8000000 		call	__cxa_begin_catch
 861      00
 862              	.LEHB32:
 863 05fd E8000000 		call	_ZN8UnitTest11CurrentTest7DetailsEv
 863      00
 864 0602 488B08   		movq	(%rax), %rcx
 865 0605 488D85C0 		leaq	-576(%rbp), %rax
 865      FDFFFF
 866 060c BA2D0000 		movl	$45, %edx
 866      00
 867 0611 4889CE   		movq	%rcx, %rsi
 868 0614 4889C7   		movq	%rax, %rdi
 869 0617 E8000000 		call	_ZN8UnitTest11TestDetailsC1ERKS0_i
 869      00
  45:testBinIO.cpp **** 	CHECK_ARRAY_EQUAL(DATA, buf.data, buf.length);
 870              		.loc 4 45 0 is_stmt 0 discriminator 10
 871 061c E8000000 		call	_ZN8UnitTest11CurrentTest7ResultsEv
 871      00
 872 0621 488B00   		movq	(%rax), %rax
 873 0624 488D8DC0 		leaq	-576(%rbp), %rcx
 873      FDFFFF
 874 062b BA000000 		movl	$.LC9, %edx
 874      00
 875 0630 4889CE   		movq	%rcx, %rsi
 876 0633 4889C7   		movq	%rax, %rdi
 877 0636 E8000000 		call	_ZN8UnitTest11TestResults13OnTestFailureERKNS_11TestDetailsEPKc
 877      00
 878              	.LEHE32:
 879              	.LEHB33:
  45:testBinIO.cpp **** 	CHECK_ARRAY_EQUAL(DATA, buf.data, buf.length);
 880              		.loc 4 45 0 discriminator 14
 881 063b E8000000 		call	__cxa_end_catch
 881      00
 882              	.LEHE33:
  45:testBinIO.cpp **** 	CHECK_ARRAY_EQUAL(DATA, buf.data, buf.length);
 883              		.loc 4 45 0
 884 0640 E93EFDFF 		jmp	.L36
 884      FF
 885              	.L58:
 886 0645 4889C3   		movq	%rax, %rbx
  46:testBinIO.cpp **** 	status = bufAppendFromBinaryFile(&buf, FILENAME, NULL);
 887              		.loc 4 46 0 is_stmt 1
 888 0648 E8000000 		call	__cxa_end_catch
 888      00
 889 064d E9670100 		jmp	.L28
 889      00
 890              	.L57:
 891 0652 4889C7   		movq	%rax, %rdi
 892 0655 E8000000 		call	__cxa_begin_catch
 892      00
 893              	.LEHB34:
 894 065a E8000000 		call	_ZN8UnitTest11CurrentTest7DetailsEv
 894      00
 895 065f 488B08   		movq	(%rax), %rcx
 896 0662 488D85C0 		leaq	-576(%rbp), %rax
 896      FDFFFF
 897 0669 BA2E0000 		movl	$46, %edx
 897      00
 898 066e 4889CE   		movq	%rcx, %rsi
 899 0671 4889C7   		movq	%rax, %rdi
 900 0674 E8000000 		call	_ZN8UnitTest11TestDetailsC1ERKS0_i
 900      00
  46:testBinIO.cpp **** 	status = bufAppendFromBinaryFile(&buf, FILENAME, NULL);
 901              		.loc 4 46 0 is_stmt 0 discriminator 10
 902 0679 E8000000 		call	_ZN8UnitTest11CurrentTest7ResultsEv
 902      00
 903 067e 488B00   		movq	(%rax), %rax
 904 0681 488D8DC0 		leaq	-576(%rbp), %rcx
 904      FDFFFF
 905 0688 BA000000 		movl	$.LC10, %edx
 905      00
 906 068d 4889CE   		movq	%rcx, %rsi
 907 0690 4889C7   		movq	%rax, %rdi
 908 0693 E8000000 		call	_ZN8UnitTest11TestResults13OnTestFailureERKNS_11TestDetailsEPKc
 908      00
 909              	.LEHE34:
 910              	.LEHB35:
  46:testBinIO.cpp **** 	status = bufAppendFromBinaryFile(&buf, FILENAME, NULL);
 911              		.loc 4 46 0 discriminator 14
 912 0698 E8000000 		call	__cxa_end_catch
 912      00
 913              	.LEHE35:
  46:testBinIO.cpp **** 	status = bufAppendFromBinaryFile(&buf, FILENAME, NULL);
 914              		.loc 4 46 0
 915 069d E932FDFF 		jmp	.L39
 915      FF
 916              	.L60:
 917 06a2 4889C3   		movq	%rax, %rbx
  48:testBinIO.cpp **** 	CHECK_EQUAL(2 * strlen(DATA), buf.length);
 918              		.loc 4 48 0 is_stmt 1
 919 06a5 E8000000 		call	__cxa_end_catch
 919      00
 920 06aa E90A0100 		jmp	.L28
 920      00
 921              	.L59:
 922 06af 4889C7   		movq	%rax, %rdi
 923 06b2 E8000000 		call	__cxa_begin_catch
 923      00
 924              	.LEHB36:
 925 06b7 E8000000 		call	_ZN8UnitTest11CurrentTest7DetailsEv
 925      00
 926 06bc 488B08   		movq	(%rax), %rcx
 927 06bf 488D85C0 		leaq	-576(%rbp), %rax
 927      FDFFFF
 928 06c6 BA300000 		movl	$48, %edx
 928      00
 929 06cb 4889CE   		movq	%rcx, %rsi
 930 06ce 4889C7   		movq	%rax, %rdi
 931 06d1 E8000000 		call	_ZN8UnitTest11TestDetailsC1ERKS0_i
 931      00
  48:testBinIO.cpp **** 	CHECK_EQUAL(2 * strlen(DATA), buf.length);
 932              		.loc 4 48 0 is_stmt 0 discriminator 10
 933 06d6 E8000000 		call	_ZN8UnitTest11CurrentTest7ResultsEv
 933      00
 934 06db 488B00   		movq	(%rax), %rax
 935 06de 488D8DC0 		leaq	-576(%rbp), %rcx
 935      FDFFFF
 936 06e5 BA000000 		movl	$.LC4, %edx
 936      00
 937 06ea 4889CE   		movq	%rcx, %rsi
 938 06ed 4889C7   		movq	%rax, %rdi
 939 06f0 E8000000 		call	_ZN8UnitTest11TestResults13OnTestFailureERKNS_11TestDetailsEPKc
 939      00
 940              	.LEHE36:
 941              	.LEHB37:
  48:testBinIO.cpp **** 	CHECK_EQUAL(2 * strlen(DATA), buf.length);
 942              		.loc 4 48 0 discriminator 14
 943 06f5 E8000000 		call	__cxa_end_catch
 943      00
 944              	.LEHE37:
  48:testBinIO.cpp **** 	CHECK_EQUAL(2 * strlen(DATA), buf.length);
 945              		.loc 4 48 0
 946 06fa E942FDFF 		jmp	.L42
 946      FF
 947              	.L62:
 948 06ff 4889C3   		movq	%rax, %rbx
  49:testBinIO.cpp **** 	CHECK_ARRAY_EQUAL(DATA, buf.data + strlen(DATA), strlen(DATA));
 949              		.loc 4 49 0 is_stmt 1
 950 0702 E8000000 		call	__cxa_end_catch
 950      00
 951 0707 E9AD0000 		jmp	.L28
 951      00
 952              	.L61:
 953 070c 4889C7   		movq	%rax, %rdi
 954 070f E8000000 		call	__cxa_begin_catch
 954      00
 955              	.LEHB38:
 956 0714 E8000000 		call	_ZN8UnitTest11CurrentTest7DetailsEv
 956      00
 957 0719 488B08   		movq	(%rax), %rcx
 958 071c 488D85C0 		leaq	-576(%rbp), %rax
 958      FDFFFF
 959 0723 BA310000 		movl	$49, %edx
 959      00
 960 0728 4889CE   		movq	%rcx, %rsi
 961 072b 4889C7   		movq	%rax, %rdi
 962 072e E8000000 		call	_ZN8UnitTest11TestDetailsC1ERKS0_i
 962      00
  49:testBinIO.cpp **** 	CHECK_ARRAY_EQUAL(DATA, buf.data + strlen(DATA), strlen(DATA));
 963              		.loc 4 49 0 is_stmt 0 discriminator 10
 964 0733 E8000000 		call	_ZN8UnitTest11CurrentTest7ResultsEv
 964      00
 965 0738 488B00   		movq	(%rax), %rax
 966 073b 488D8DC0 		leaq	-576(%rbp), %rcx
 966      FDFFFF
 967 0742 BA000000 		movl	$.LC11, %edx
 967      00
 968 0747 4889CE   		movq	%rcx, %rsi
 969 074a 4889C7   		movq	%rax, %rdi
 970 074d E8000000 		call	_ZN8UnitTest11TestResults13OnTestFailureERKNS_11TestDetailsEPKc
 970      00
 971              	.LEHE38:
 972              	.LEHB39:
  49:testBinIO.cpp **** 	CHECK_ARRAY_EQUAL(DATA, buf.data + strlen(DATA), strlen(DATA));
 973              		.loc 4 49 0 discriminator 14
 974 0752 E8000000 		call	__cxa_end_catch
 974      00
 975              	.LEHE39:
  49:testBinIO.cpp **** 	CHECK_ARRAY_EQUAL(DATA, buf.data + strlen(DATA), strlen(DATA));
 976              		.loc 4 49 0
 977 0757 E93EFDFF 		jmp	.L45
 977      FF
 978              	.L64:
 979 075c 4889C3   		movq	%rax, %rbx
  50:testBinIO.cpp **** 	bufDestroy(&buf);
 980              		.loc 4 50 0 is_stmt 1
 981 075f E8000000 		call	__cxa_end_catch
 981      00
 982 0764 EB53     		jmp	.L28
 983              	.L63:
 984 0766 4889C7   		movq	%rax, %rdi
 985 0769 E8000000 		call	__cxa_begin_catch
 985      00
 986              	.LEHB40:
 987 076e E8000000 		call	_ZN8UnitTest11CurrentTest7DetailsEv
 987      00
 988 0773 488B08   		movq	(%rax), %rcx
 989 0776 488D85C0 		leaq	-576(%rbp), %rax
 989      FDFFFF
 990 077d BA320000 		movl	$50, %edx
 990      00
 991 0782 4889CE   		movq	%rcx, %rsi
 992 0785 4889C7   		movq	%rax, %rdi
 993 0788 E8000000 		call	_ZN8UnitTest11TestDetailsC1ERKS0_i
 993      00
  50:testBinIO.cpp **** 	bufDestroy(&buf);
 994              		.loc 4 50 0 is_stmt 0 discriminator 10
 995 078d E8000000 		call	_ZN8UnitTest11CurrentTest7ResultsEv
 995      00
 996 0792 488B00   		movq	(%rax), %rax
 997 0795 488D8DC0 		leaq	-576(%rbp), %rcx
 997      FDFFFF
 998 079c BA000000 		movl	$.LC12, %edx
 998      00
 999 07a1 4889CE   		movq	%rcx, %rsi
 1000 07a4 4889C7   		movq	%rax, %rdi
 1001 07a7 E8000000 		call	_ZN8UnitTest11TestResults13OnTestFailureERKNS_11TestDetailsEPKc
 1001      00
 1002              	.LEHE40:
 1003              	.LEHB41:
  50:testBinIO.cpp **** 	bufDestroy(&buf);
 1004              		.loc 4 50 0 discriminator 14
 1005 07ac E8000000 		call	__cxa_end_catch
 1005      00
 1006              	.LEHE41:
  50:testBinIO.cpp **** 	bufDestroy(&buf);
 1007              		.loc 4 50 0
 1008 07b1 E942FDFF 		jmp	.L48
 1008      FF
 1009              	.L50:
 1010 07b6 4889C3   		movq	%rax, %rbx
 1011              	.L28:
  51:testBinIO.cpp **** }
 1012              		.loc 4 51 0 is_stmt 1 discriminator 1
 1013 07b9 488D85E0 		leaq	-544(%rbp), %rax
 1013      FDFFFF
 1014 07c0 4889C7   		movq	%rax, %rdi
 1015 07c3 E8000000 		call	_ZNSt14basic_ofstreamIcSt11char_traitsIcEED1Ev
 1015      00
 1016 07c8 4889D8   		movq	%rbx, %rax
 1017 07cb 4889C7   		movq	%rax, %rdi
 1018              	.LEHB42:
 1019 07ce E8000000 		call	_Unwind_Resume
 1019      00
 1020              	.LEHE42:
 1021              	.L65:
 1022              	.LBE9:
 1023              		.loc 4 52 0
 1024 07d3 E8000000 		call	__stack_chk_fail
 1024      00
 1025              	.L49:
 1026 07d8 4881C488 		addq	$648, %rsp
 1026      020000
 1027 07df 5B       		popq	%rbx
 1028 07e0 5D       		popq	%rbp
 1029              		.cfi_def_cfa 7, 8
 1030 07e1 C3       		ret
 1031              		.cfi_endproc
 1032              	.LFE1140:
 1033              		.section	.gcc_except_table
 1034              		.align 4
 1035              	.LLSDA1140:
 1036 0044 FF       		.byte	0xff
 1037 0045 03       		.byte	0x3
 1038 0046 AC01     		.uleb128 .LLSDATT1140-.LLSDATTD1140
 1039              	.LLSDATTD1140:
 1040 0048 01       		.byte	0x1
 1041 0049 A201     		.uleb128 .LLSDACSE1140-.LLSDACSB1140
 1042              	.LLSDACSB1140:
 1043 004b 42       		.uleb128 .LEHB15-.LFB1140
 1044 004c 05       		.uleb128 .LEHE15-.LEHB15
 1045 004d 00       		.uleb128 0
 1046 004e 00       		.uleb128 0
 1047 004f 60       		.uleb128 .LEHB16-.LFB1140
 1048 0050 05       		.uleb128 .LEHE16-.LEHB16
 1049 0051 FA0B     		.uleb128 .L50-.LFB1140
 1050 0053 00       		.uleb128 0
 1051 0054 6B       		.uleb128 .LEHB17-.LFB1140
 1052 0055 4E       		.uleb128 .LEHE17-.LEHB17
 1053 0056 FF06     		.uleb128 .L51-.LFB1140
 1054 0058 01       		.uleb128 0x1
 1055 0059 D901     		.uleb128 .LEHB18-.LFB1140
 1056 005b 41       		.uleb128 .LEHE18-.LEHB18
 1057 005c FA0B     		.uleb128 .L50-.LFB1140
 1058 005e 00       		.uleb128 0
 1059 005f A002     		.uleb128 .LEHB19-.LFB1140
 1060 0061 4E       		.uleb128 .LEHE19-.LEHB19
 1061 0062 DC07     		.uleb128 .L53-.LFB1140
 1062 0064 01       		.uleb128 0x1
 1063 0065 EE02     		.uleb128 .LEHB20-.LFB1140
 1064 0067 59       		.uleb128 .LEHE20-.LEHB20
 1065 0068 B908     		.uleb128 .L55-.LFB1140
 1066 006a 01       		.uleb128 0x1
 1067 006b C703     		.uleb128 .LEHB21-.LFB1140
 1068 006d 51       		.uleb128 .LEHE21-.LEHB21
 1069 006e 9609     		.uleb128 .L57-.LFB1140
 1070 0070 01       		.uleb128 0x1
 1071 0071 AC04     		.uleb128 .LEHB22-.LFB1140
 1072 0073 05       		.uleb128 .LEHE22-.LEHB22
 1073 0074 FA0B     		.uleb128 .L50-.LFB1140
 1074 0076 00       		.uleb128 0
 1075 0077 B704     		.uleb128 .LEHB23-.LFB1140
 1076 0079 4E       		.uleb128 .LEHE23-.LEHB23
 1077 007a F309     		.uleb128 .L59-.LFB1140
 1078 007c 01       		.uleb128 0x1
 1079 007d 8505     		.uleb128 .LEHB24-.LFB1140
 1080 007f 59       		.uleb128 .LEHE24-.LEHB24
 1081 0080 D00A     		.uleb128 .L61-.LFB1140
 1082 0082 01       		.uleb128 0x1
 1083 0083 DE05     		.uleb128 .LEHB25-.LFB1140
 1084 0085 5E       		.uleb128 .LEHE25-.LEHB25
 1085 0086 AA0B     		.uleb128 .L63-.LFB1140
 1086 0088 01       		.uleb128 0x1
 1087 0089 C606     		.uleb128 .LEHB26-.LFB1140
 1088 008b 05       		.uleb128 .LEHE26-.LEHB26
 1089 008c FA0B     		.uleb128 .L50-.LFB1140
 1090 008e 00       		.uleb128 0
 1091 008f D506     		.uleb128 .LEHB27-.LFB1140
 1092 0091 05       		.uleb128 .LEHE27-.LEHB27
 1093 0092 00       		.uleb128 0
 1094 0093 00       		.uleb128 0
 1095 0094 8707     		.uleb128 .LEHB28-.LFB1140
 1096 0096 3E       		.uleb128 .LEHE28-.LEHB28
 1097 0097 F206     		.uleb128 .L52-.LFB1140
 1098 0099 00       		.uleb128 0
 1099 009a C507     		.uleb128 .LEHB29-.LFB1140
 1100 009c 05       		.uleb128 .LEHE29-.LEHB29
 1101 009d FA0B     		.uleb128 .L50-.LFB1140
 1102 009f 00       		.uleb128 0
 1103 00a0 E407     		.uleb128 .LEHB30-.LFB1140
 1104 00a2 3E       		.uleb128 .LEHE30-.LEHB30
 1105 00a3 CF07     		.uleb128 .L54-.LFB1140
 1106 00a5 00       		.uleb128 0
 1107 00a6 A208     		.uleb128 .LEHB31-.LFB1140
 1108 00a8 05       		.uleb128 .LEHE31-.LEHB31
 1109 00a9 FA0B     		.uleb128 .L50-.LFB1140
 1110 00ab 00       		.uleb128 0
 1111 00ac C108     		.uleb128 .LEHB32-.LFB1140
 1112 00ae 3E       		.uleb128 .LEHE32-.LEHB32
 1113 00af AC08     		.uleb128 .L56-.LFB1140
 1114 00b1 00       		.uleb128 0
 1115 00b2 FF08     		.uleb128 .LEHB33-.LFB1140
 1116 00b4 05       		.uleb128 .LEHE33-.LEHB33
 1117 00b5 FA0B     		.uleb128 .L50-.LFB1140
 1118 00b7 00       		.uleb128 0
 1119 00b8 9E09     		.uleb128 .LEHB34-.LFB1140
 1120 00ba 3E       		.uleb128 .LEHE34-.LEHB34
 1121 00bb 8909     		.uleb128 .L58-.LFB1140
 1122 00bd 00       		.uleb128 0
 1123 00be DC09     		.uleb128 .LEHB35-.LFB1140
 1124 00c0 05       		.uleb128 .LEHE35-.LEHB35
 1125 00c1 FA0B     		.uleb128 .L50-.LFB1140
 1126 00c3 00       		.uleb128 0
 1127 00c4 FB09     		.uleb128 .LEHB36-.LFB1140
 1128 00c6 3E       		.uleb128 .LEHE36-.LEHB36
 1129 00c7 E609     		.uleb128 .L60-.LFB1140
 1130 00c9 00       		.uleb128 0
 1131 00ca B90A     		.uleb128 .LEHB37-.LFB1140
 1132 00cc 05       		.uleb128 .LEHE37-.LEHB37
 1133 00cd FA0B     		.uleb128 .L50-.LFB1140
 1134 00cf 00       		.uleb128 0
 1135 00d0 D80A     		.uleb128 .LEHB38-.LFB1140
 1136 00d2 3E       		.uleb128 .LEHE38-.LEHB38
 1137 00d3 C30A     		.uleb128 .L62-.LFB1140
 1138 00d5 00       		.uleb128 0
 1139 00d6 960B     		.uleb128 .LEHB39-.LFB1140
 1140 00d8 05       		.uleb128 .LEHE39-.LEHB39
 1141 00d9 FA0B     		.uleb128 .L50-.LFB1140
 1142 00db 00       		.uleb128 0
 1143 00dc B20B     		.uleb128 .LEHB40-.LFB1140
 1144 00de 3E       		.uleb128 .LEHE40-.LEHB40
 1145 00df A00B     		.uleb128 .L64-.LFB1140
 1146 00e1 00       		.uleb128 0
 1147 00e2 F00B     		.uleb128 .LEHB41-.LFB1140
 1148 00e4 05       		.uleb128 .LEHE41-.LEHB41
 1149 00e5 FA0B     		.uleb128 .L50-.LFB1140
 1150 00e7 00       		.uleb128 0
 1151 00e8 920C     		.uleb128 .LEHB42-.LFB1140
 1152 00ea 05       		.uleb128 .LEHE42-.LEHB42
 1153 00eb 00       		.uleb128 0
 1154 00ec 00       		.uleb128 0
 1155              	.LLSDACSE1140:
 1156 00ed 01       		.byte	0x1
 1157 00ee 00       		.byte	0
 1158 00ef 00       		.align 4
 1159 00f0 00000000 		.long	0
 1160              	
 1161              	.LLSDATT1140:
 1162              		.text
 1164              		.section	.rodata
 1165              	.LC13:
 1166 0210 42696E49 		.string	"BinIO_testWriteFile"
 1166      4F5F7465 
 1166      73745772 
 1166      69746546 
 1166      696C6500 
 1167              		.section	.text._ZN23TestBinIO_testWriteFileC2Ev,"axG",@progbits,_ZN23TestBinIO_testWriteFileC5Ev,c
 1168              		.align 2
 1169              		.weak	_ZN23TestBinIO_testWriteFileC2Ev
 1171              	_ZN23TestBinIO_testWriteFileC2Ev:
 1172              	.LFB1142:
  53:testBinIO.cpp **** 
  54:testBinIO.cpp **** TEST(BinIO_testWriteFile) {
 1173              		.loc 4 54 0
 1174              		.cfi_startproc
 1175 0000 55       		pushq	%rbp
 1176              		.cfi_def_cfa_offset 16
 1177              		.cfi_offset 6, -16
 1178 0001 4889E5   		movq	%rsp, %rbp
 1179              		.cfi_def_cfa_register 6
 1180 0004 4883EC10 		subq	$16, %rsp
 1181 0008 48897DF8 		movq	%rdi, -8(%rbp)
 1182              	.LBB10:
 1183              		.loc 4 54 0
 1184 000c E8000000 		call	_ZN13UnitTestSuite12GetSuiteNameEv
 1184      00
 1185 0011 4889C2   		movq	%rax, %rdx
 1186 0014 488B45F8 		movq	-8(%rbp), %rax
 1187 0018 41B83600 		movl	$54, %r8d
 1187      0000
 1188 001e B9000000 		movl	$.LC1, %ecx
 1188      00
 1189 0023 BE000000 		movl	$.LC13, %esi
 1189      00
 1190 0028 4889C7   		movq	%rax, %rdi
 1191 002b E8000000 		call	_ZN8UnitTest4TestC2EPKcS2_S2_i
 1191      00
 1192 0030 488B45F8 		movq	-8(%rbp), %rax
 1193 0034 48C70000 		movq	$_ZTV23TestBinIO_testWriteFile+16, (%rax)
 1193      000000
 1194              	.LBE10:
 1195 003b C9       		leave
 1196              		.cfi_def_cfa 7, 8
 1197 003c C3       		ret
 1198              		.cfi_endproc
 1199              	.LFE1142:
 1201              		.weak	_ZN23TestBinIO_testWriteFileC1Ev
 1202              		.set	_ZN23TestBinIO_testWriteFileC1Ev,_ZN23TestBinIO_testWriteFileC2Ev
 1203              		.globl	testBinIO_testWriteFileInstance
 1204              		.bss
 1205 0079 00000000 		.align 32
 1205      000000
 1208              	testBinIO_testWriteFileInstance:
 1209 0080 00000000 		.zero	56
 1209      00000000 
 1209      00000000 
 1209      00000000 
 1209      00000000 
 1210              		.globl	adderBinIO_testWriteFile
 1213              	adderBinIO_testWriteFile:
 1214 00b8 00       		.zero	1
 1215              		.section	.rodata
 1216              	.LC14:
 1217 0224 66696C65 		.string	"file.is_open()"
 1217      2E69735F 
 1217      6F70656E 
 1217      282900
 1218 0233 00000000 		.align 8
 1218      00
 1219              	.LC15:
 1220 0238 556E6861 		.string	"Unhandled exception in CHECK(file.is_open())"
 1220      6E646C65 
 1220      64206578 
 1220      63657074 
 1220      696F6E20 
 1221 0265 000000   		.align 8
 1222              	.LC16:
 1223 0268 556E6861 		.string	"Unhandled exception in CHECK_EQUAL(strlen(DATA), (size_t)length)"
 1223      6E646C65 
 1223      64206578 
 1223      63657074 
 1223      696F6E20 
 1224 02a9 00000000 		.align 8
 1224      000000
 1225              	.LC17:
 1226 02b0 556E6861 		.string	"Unhandled exception in CHECK_ARRAY_EQUAL(DATA, fileData)"
 1226      6E646C65 
 1226      64206578 
 1226      63657074 
 1226      696F6E20 
 1227 02e9 00000000 		.align 8
 1227      000000
 1228              	.LC18:
 1229 02f0 556E6861 		.string	"Unhandled exception in CHECK_EQUAL(9, length)"
 1229      6E646C65 
 1229      64206578 
 1229      63657074 
 1229      696F6E20 
 1230 031e 0000     		.align 8
 1231              	.LC19:
 1232 0320 556E6861 		.string	"Unhandled exception in CHECK_ARRAY_EQUAL(DATA+5, fileData)"
 1232      6E646C65 
 1232      64206578 
 1232      63657074 
 1232      696F6E20 
 1233              		.text
 1234              		.align 2
 1235              		.globl	_ZNK23TestBinIO_testWriteFile7RunImplEv
 1237              	_ZNK23TestBinIO_testWriteFile7RunImplEv:
 1238              	.LFB1144:
 1239              		.loc 4 54 0
 1240              		.cfi_startproc
 1241              		.cfi_personality 0x3,__gxx_personality_v0
 1242              		.cfi_lsda 0x3,.LLSDA1144
 1243 07e2 55       		pushq	%rbp
 1244              		.cfi_def_cfa_offset 16
 1245              		.cfi_offset 6, -16
 1246 07e3 4889E5   		movq	%rsp, %rbp
 1247              		.cfi_def_cfa_register 6
 1248 07e6 53       		pushq	%rbx
 1249 07e7 4881ECA8 		subq	$680, %rsp
 1249      020000
 1250              		.cfi_offset 3, -24
 1251 07ee 4889BD58 		movq	%rdi, -680(%rbp)
 1251      FDFFFF
 1252              		.loc 4 54 0
 1253 07f5 64488B04 		movq	%fs:40, %rax
 1253      25280000 
 1253      00
 1254 07fe 488945E8 		movq	%rax, -24(%rbp)
 1255 0802 31C0     		xorl	%eax, %eax
 1256              	.LBB11:
  55:testBinIO.cpp **** 	const char *const FILENAME = "tmpFile.bin";
 1257              		.loc 4 55 0
 1258 0804 48C78588 		movq	$.LC7, -632(%rbp)
 1258      FDFFFF00 
 1258      000000
  56:testBinIO.cpp **** 	const char *const DATA = "Just some test data";
 1259              		.loc 4 56 0
 1260 080f 48C78570 		movq	$.LC8, -656(%rbp)
 1260      FDFFFF00 
 1260      000000
  57:testBinIO.cpp **** 	ifstream file;
 1261              		.loc 4 57 0
 1262 081a 488D85E0 		leaq	-544(%rbp), %rax
 1262      FDFFFF
 1263 0821 4889C7   		movq	%rax, %rdi
 1264              	.LEHB43:
 1265 0824 E8000000 		call	_ZNSt14basic_ifstreamIcSt11char_traitsIcEEC1Ev
 1265      00
 1266              	.LEHE43:
  58:testBinIO.cpp **** 	ifstream::pos_type length;
 1267              		.loc 4 58 0
 1268 0829 488D8590 		leaq	-624(%rbp), %rax
 1268      FDFFFF
 1269 0830 4889C7   		movq	%rax, %rdi
 1270 0833 E8000000 		call	_ZNSt4fposI11__mbstate_tEC1Ev
 1270      00
  59:testBinIO.cpp **** 	char *fileData;
  60:testBinIO.cpp **** 	Buffer buf;
  61:testBinIO.cpp **** 	BufferStatus status = bufInitialise(&buf, 8, 0, NULL);
 1271              		.loc 4 61 0
 1272 0838 488D85A0 		leaq	-608(%rbp), %rax
 1272      FDFFFF
 1273 083f B9000000 		movl	$0, %ecx
 1273      00
 1274 0844 BA000000 		movl	$0, %edx
 1274      00
 1275 0849 BE080000 		movl	$8, %esi
 1275      00
 1276 084e 4889C7   		movq	%rax, %rdi
 1277              	.LEHB44:
 1278 0851 E8000000 		call	bufInitialise
 1278      00
 1279              	.LEHE44:
 1280 0856 89856CFD 		movl	%eax, -660(%rbp)
 1280      FFFF
 1281              	.LEHB45:
  62:testBinIO.cpp **** 	CHECK_EQUAL(BUF_SUCCESS, status);
 1282              		.loc 4 62 0
 1283 085c E8000000 		call	_ZN8UnitTest11CurrentTest7DetailsEv
 1283      00
 1284              		.loc 4 62 0 is_stmt 0 discriminator 1
 1285 0861 488B08   		movq	(%rax), %rcx
 1286 0864 488D85C0 		leaq	-576(%rbp), %rax
 1286      FDFFFF
 1287 086b BA3E0000 		movl	$62, %edx
 1287      00
 1288 0870 4889CE   		movq	%rcx, %rsi
 1289 0873 4889C7   		movq	%rax, %rdi
 1290 0876 E8000000 		call	_ZN8UnitTest11TestDetailsC1ERKS0_i
 1290      00
 1291              		.loc 4 62 0 discriminator 2
 1292 087b C78580FD 		movl	$0, -640(%rbp)
 1292      FFFF0000 
 1292      0000
 1293 0885 E8000000 		call	_ZN8UnitTest11CurrentTest7ResultsEv
 1293      00
 1294 088a 488B00   		movq	(%rax), %rax
 1295 088d 488D8DC0 		leaq	-576(%rbp), %rcx
 1295      FDFFFF
 1296 0894 488D956C 		leaq	-660(%rbp), %rdx
 1296      FDFFFF
 1297 089b 488DB580 		leaq	-640(%rbp), %rsi
 1297      FDFFFF
 1298 08a2 4889C7   		movq	%rax, %rdi
 1299 08a5 E8000000 		call	_ZN8UnitTest10CheckEqualI12BufferStatusS1_EEvRNS_11TestResultsERKT_RKT0_RKNS_11TestDetailsE
 1299      00
 1300              	.LEHE45:
 1301              	.L74:
  63:testBinIO.cpp **** 	status = bufAppendBlock(&buf, (const uint8 *)DATA, strlen(DATA), NULL);
 1302              		.loc 4 63 0 is_stmt 1
 1303 08aa 488D85A0 		leaq	-608(%rbp), %rax
 1303      FDFFFF
 1304 08b1 B9000000 		movl	$0, %ecx
 1304      00
 1305 08b6 BA130000 		movl	$19, %edx
 1305      00
 1306 08bb BE000000 		movl	$.LC8, %esi
 1306      00
 1307 08c0 4889C7   		movq	%rax, %rdi
 1308              	.LEHB46:
 1309 08c3 E8000000 		call	bufAppendBlock
 1309      00
 1310              	.LEHE46:
 1311 08c8 89856CFD 		movl	%eax, -660(%rbp)
 1311      FFFF
 1312              	.LEHB47:
  64:testBinIO.cpp **** 	CHECK_EQUAL(BUF_SUCCESS, status);
 1313              		.loc 4 64 0
 1314 08ce E8000000 		call	_ZN8UnitTest11CurrentTest7DetailsEv
 1314      00
 1315              		.loc 4 64 0 is_stmt 0 discriminator 1
 1316 08d3 488B08   		movq	(%rax), %rcx
 1317 08d6 488D85C0 		leaq	-576(%rbp), %rax
 1317      FDFFFF
 1318 08dd BA400000 		movl	$64, %edx
 1318      00
 1319 08e2 4889CE   		movq	%rcx, %rsi
 1320 08e5 4889C7   		movq	%rax, %rdi
 1321 08e8 E8000000 		call	_ZN8UnitTest11TestDetailsC1ERKS0_i
 1321      00
 1322              		.loc 4 64 0 discriminator 2
 1323 08ed C78580FD 		movl	$0, -640(%rbp)
 1323      FFFF0000 
 1323      0000
 1324 08f7 E8000000 		call	_ZN8UnitTest11CurrentTest7ResultsEv
 1324      00
 1325 08fc 488B00   		movq	(%rax), %rax
 1326 08ff 488D8DC0 		leaq	-576(%rbp), %rcx
 1326      FDFFFF
 1327 0906 488D956C 		leaq	-660(%rbp), %rdx
 1327      FDFFFF
 1328 090d 488DB580 		leaq	-640(%rbp), %rsi
 1328      FDFFFF
 1329 0914 4889C7   		movq	%rax, %rdi
 1330 0917 E8000000 		call	_ZN8UnitTest10CheckEqualI12BufferStatusS1_EEvRNS_11TestResultsERKT_RKT0_RKNS_11TestDetailsE
 1330      00
 1331              	.LEHE47:
 1332              	.L77:
  65:testBinIO.cpp **** 
  66:testBinIO.cpp **** 	status = bufWriteBinaryFile(&buf, FILENAME, 0, buf.length, NULL);
 1333              		.loc 4 66 0 is_stmt 1
 1334 091c 8B95A8FD 		movl	-600(%rbp), %edx
 1334      FFFF
 1335 0922 488D85A0 		leaq	-608(%rbp), %rax
 1335      FDFFFF
 1336 0929 41B80000 		movl	$0, %r8d
 1336      0000
 1337 092f 89D1     		movl	%edx, %ecx
 1338 0931 BA000000 		movl	$0, %edx
 1338      00
 1339 0936 BE000000 		movl	$.LC7, %esi
 1339      00
 1340 093b 4889C7   		movq	%rax, %rdi
 1341              	.LEHB48:
 1342 093e E8000000 		call	bufWriteBinaryFile
 1342      00
 1343              	.LEHE48:
 1344 0943 89856CFD 		movl	%eax, -660(%rbp)
 1344      FFFF
 1345              	.LEHB49:
  67:testBinIO.cpp **** 	CHECK_EQUAL(BUF_SUCCESS, status);
 1346              		.loc 4 67 0
 1347 0949 E8000000 		call	_ZN8UnitTest11CurrentTest7DetailsEv
 1347      00
 1348              		.loc 4 67 0 is_stmt 0 discriminator 1
 1349 094e 488B08   		movq	(%rax), %rcx
 1350 0951 488D85C0 		leaq	-576(%rbp), %rax
 1350      FDFFFF
 1351 0958 BA430000 		movl	$67, %edx
 1351      00
 1352 095d 4889CE   		movq	%rcx, %rsi
 1353 0960 4889C7   		movq	%rax, %rdi
 1354 0963 E8000000 		call	_ZN8UnitTest11TestDetailsC1ERKS0_i
 1354      00
 1355              		.loc 4 67 0 discriminator 2
 1356 0968 C78580FD 		movl	$0, -640(%rbp)
 1356      FFFF0000 
 1356      0000
 1357 0972 E8000000 		call	_ZN8UnitTest11CurrentTest7ResultsEv
 1357      00
 1358 0977 488B00   		movq	(%rax), %rax
 1359 097a 488D8DC0 		leaq	-576(%rbp), %rcx
 1359      FDFFFF
 1360 0981 488D956C 		leaq	-660(%rbp), %rdx
 1360      FDFFFF
 1361 0988 488DB580 		leaq	-640(%rbp), %rsi
 1361      FDFFFF
 1362 098f 4889C7   		movq	%rax, %rdi
 1363 0992 E8000000 		call	_ZN8UnitTest10CheckEqualI12BufferStatusS1_EEvRNS_11TestResultsERKT_RKT0_RKNS_11TestDetailsE
 1363      00
 1364              	.LEHE49:
 1365              	.L80:
  68:testBinIO.cpp **** 	file.open(FILENAME, ios::in|ios::binary|ios::ate);
 1366              		.loc 4 68 0 is_stmt 1
 1367 0997 BE040000 		movl	$4, %esi
 1367      00
 1368 099c BF080000 		movl	$8, %edi
 1368      00
 1369 09a1 E8000000 		call	_ZStorSt13_Ios_OpenmodeS_
 1369      00
 1370 09a6 BE020000 		movl	$2, %esi
 1370      00
 1371 09ab 89C7     		movl	%eax, %edi
 1372 09ad E8000000 		call	_ZStorSt13_Ios_OpenmodeS_
 1372      00
 1373 09b2 89C2     		movl	%eax, %edx
 1374 09b4 488D85E0 		leaq	-544(%rbp), %rax
 1374      FDFFFF
 1375 09bb BE000000 		movl	$.LC7, %esi
 1375      00
 1376 09c0 4889C7   		movq	%rax, %rdi
 1377              	.LEHB50:
 1378 09c3 E8000000 		call	_ZNSt14basic_ifstreamIcSt11char_traitsIcEE4openEPKcSt13_Ios_Openmode
 1378      00
 1379              	.LEHE50:
  69:testBinIO.cpp **** 	CHECK(file.is_open());
 1380              		.loc 4 69 0
 1381 09c8 488D85E0 		leaq	-544(%rbp), %rax
 1381      FDFFFF
 1382 09cf 4889C7   		movq	%rax, %rdi
 1383              	.LEHB51:
 1384 09d2 E8000000 		call	_ZNSt14basic_ifstreamIcSt11char_traitsIcEE7is_openEv
 1384      00
 1385 09d7 0FB6C0   		movzbl	%al, %eax
 1386 09da 89C7     		movl	%eax, %edi
 1387 09dc E8000000 		call	_ZN8UnitTest5CheckIbEEbT_
 1387      00
 1388 09e1 83F001   		xorl	$1, %eax
 1389 09e4 84C0     		testb	%al, %al
 1390 09e6 743E     		je	.L68
 1391              		.loc 4 69 0 is_stmt 0 discriminator 2
 1392 09e8 E8000000 		call	_ZN8UnitTest11CurrentTest7DetailsEv
 1392      00
 1393 09ed 488B08   		movq	(%rax), %rcx
 1394 09f0 488D85C0 		leaq	-576(%rbp), %rax
 1394      FDFFFF
 1395 09f7 BA450000 		movl	$69, %edx
 1395      00
 1396 09fc 4889CE   		movq	%rcx, %rsi
 1397 09ff 4889C7   		movq	%rax, %rdi
 1398 0a02 E8000000 		call	_ZN8UnitTest11TestDetailsC1ERKS0_i
 1398      00
 1399              		.loc 4 69 0 discriminator 4
 1400 0a07 E8000000 		call	_ZN8UnitTest11CurrentTest7ResultsEv
 1400      00
 1401 0a0c 488B00   		movq	(%rax), %rax
 1402 0a0f 488D8DC0 		leaq	-576(%rbp), %rcx
 1402      FDFFFF
 1403 0a16 BA000000 		movl	$.LC14, %edx
 1403      00
 1404 0a1b 4889CE   		movq	%rcx, %rsi
 1405 0a1e 4889C7   		movq	%rax, %rdi
 1406 0a21 E8000000 		call	_ZN8UnitTest11TestResults13OnTestFailureERKNS_11TestDetailsEPKc
 1406      00
 1407              	.LEHE51:
 1408              	.L68:
  70:testBinIO.cpp **** 	length = file.tellg();
 1409              		.loc 4 70 0 is_stmt 1
 1410 0a26 488D85E0 		leaq	-544(%rbp), %rax
 1410      FDFFFF
 1411 0a2d 4889C7   		movq	%rax, %rdi
 1412              	.LEHB52:
 1413 0a30 E8000000 		call	_ZNSi5tellgEv
 1413      00
 1414              	.LEHE52:
 1415 0a35 48898590 		movq	%rax, -624(%rbp)
 1415      FDFFFF
 1416 0a3c 48899598 		movq	%rdx, -616(%rbp)
 1416      FDFFFF
 1417              	.LEHB53:
  71:testBinIO.cpp **** 	CHECK_EQUAL(strlen(DATA), (size_t)length);
 1418              		.loc 4 71 0
 1419 0a43 E8000000 		call	_ZN8UnitTest11CurrentTest7DetailsEv
 1419      00
 1420 0a48 488B08   		movq	(%rax), %rcx
 1421 0a4b 488D85C0 		leaq	-576(%rbp), %rax
 1421      FDFFFF
 1422 0a52 BA470000 		movl	$71, %edx
 1422      00
 1423 0a57 4889CE   		movq	%rcx, %rsi
 1424 0a5a 4889C7   		movq	%rax, %rdi
 1425 0a5d E8000000 		call	_ZN8UnitTest11TestDetailsC1ERKS0_i
 1425      00
 1426              		.loc 4 71 0 is_stmt 0 discriminator 2
 1427 0a62 488D8590 		leaq	-624(%rbp), %rax
 1427      FDFFFF
 1428 0a69 4889C7   		movq	%rax, %rdi
 1429 0a6c E8000000 		call	_ZNKSt4fposI11__mbstate_tEcvlEv
 1429      00
 1430 0a71 48898580 		movq	%rax, -640(%rbp)
 1430      FDFFFF
 1431 0a78 48C78578 		movq	$19, -648(%rbp)
 1431      FDFFFF13 
 1431      000000
 1432 0a83 E8000000 		call	_ZN8UnitTest11CurrentTest7ResultsEv
 1432      00
 1433 0a88 488B00   		movq	(%rax), %rax
 1434 0a8b 488D8DC0 		leaq	-576(%rbp), %rcx
 1434      FDFFFF
 1435 0a92 488D9580 		leaq	-640(%rbp), %rdx
 1435      FDFFFF
 1436 0a99 488DB578 		leaq	-648(%rbp), %rsi
 1436      FDFFFF
 1437 0aa0 4889C7   		movq	%rax, %rdi
 1438 0aa3 E8000000 		call	_ZN8UnitTest10CheckEqualImmEEvRNS_11TestResultsERKT_RKT0_RKNS_11TestDetailsE
 1438      00
 1439              	.LEHE53:
 1440              	.L85:
  72:testBinIO.cpp **** 	fileData = new char[(unsigned int)length];
 1441              		.loc 4 72 0 is_stmt 1
 1442 0aa8 488D8590 		leaq	-624(%rbp), %rax
 1442      FDFFFF
 1443 0aaf 4889C7   		movq	%rax, %rdi
 1444 0ab2 E8000000 		call	_ZNKSt4fposI11__mbstate_tEcvlEv
 1444      00
 1445 0ab7 89C0     		movl	%eax, %eax
 1446 0ab9 4889C7   		movq	%rax, %rdi
 1447              	.LEHB54:
 1448 0abc E8000000 		call	_Znam
 1448      00
 1449 0ac1 48898578 		movq	%rax, -648(%rbp)
 1449      FDFFFF
  73:testBinIO.cpp **** 	file.seekg(0, ios::beg);
 1450              		.loc 4 73 0
 1451 0ac8 488D85E0 		leaq	-544(%rbp), %rax
 1451      FDFFFF
 1452 0acf BA000000 		movl	$0, %edx
 1452      00
 1453 0ad4 BE000000 		movl	$0, %esi
 1453      00
 1454 0ad9 4889C7   		movq	%rax, %rdi
 1455 0adc E8000000 		call	_ZNSi5seekgElSt12_Ios_Seekdir
 1455      00
  74:testBinIO.cpp **** 	file.read(fileData, length);
 1456              		.loc 4 74 0
 1457 0ae1 488D8590 		leaq	-624(%rbp), %rax
 1457      FDFFFF
 1458 0ae8 4889C7   		movq	%rax, %rdi
 1459 0aeb E8000000 		call	_ZNKSt4fposI11__mbstate_tEcvlEv
 1459      00
 1460 0af0 4889C2   		movq	%rax, %rdx
 1461 0af3 488B8D78 		movq	-648(%rbp), %rcx
 1461      FDFFFF
 1462 0afa 488D85E0 		leaq	-544(%rbp), %rax
 1462      FDFFFF
 1463 0b01 4889CE   		movq	%rcx, %rsi
 1464 0b04 4889C7   		movq	%rax, %rdi
 1465 0b07 E8000000 		call	_ZNSi4readEPcl
 1465      00
  75:testBinIO.cpp **** 	file.close();
 1466              		.loc 4 75 0
 1467 0b0c 488D85E0 		leaq	-544(%rbp), %rax
 1467      FDFFFF
 1468 0b13 4889C7   		movq	%rax, %rdi
 1469 0b16 E8000000 		call	_ZNSt14basic_ifstreamIcSt11char_traitsIcEE5closeEv
 1469      00
 1470              	.LEHE54:
 1471              	.LEHB55:
  76:testBinIO.cpp **** 	CHECK_ARRAY_EQUAL(DATA, fileData, (int)length);
 1472              		.loc 4 76 0
 1473 0b1b E8000000 		call	_ZN8UnitTest11CurrentTest7DetailsEv
 1473      00
 1474 0b20 488B08   		movq	(%rax), %rcx
 1475 0b23 488D85C0 		leaq	-576(%rbp), %rax
 1475      FDFFFF
 1476 0b2a BA4C0000 		movl	$76, %edx
 1476      00
 1477 0b2f 4889CE   		movq	%rcx, %rsi
 1478 0b32 4889C7   		movq	%rax, %rdi
 1479 0b35 E8000000 		call	_ZN8UnitTest11TestDetailsC1ERKS0_i
 1479      00
 1480              		.loc 4 76 0 is_stmt 0 discriminator 2
 1481 0b3a 488D8590 		leaq	-624(%rbp), %rax
 1481      FDFFFF
 1482 0b41 4889C7   		movq	%rax, %rdi
 1483 0b44 E8000000 		call	_ZNKSt4fposI11__mbstate_tEcvlEv
 1483      00
 1484 0b49 89C3     		movl	%eax, %ebx
 1485 0b4b E8000000 		call	_ZN8UnitTest11CurrentTest7ResultsEv
 1485      00
 1486 0b50 488B00   		movq	(%rax), %rax
 1487 0b53 488D8DC0 		leaq	-576(%rbp), %rcx
 1487      FDFFFF
 1488 0b5a 488D9578 		leaq	-648(%rbp), %rdx
 1488      FDFFFF
 1489 0b61 488DB570 		leaq	-656(%rbp), %rsi
 1489      FDFFFF
 1490 0b68 4989C8   		movq	%rcx, %r8
 1491 0b6b 89D9     		movl	%ebx, %ecx
 1492 0b6d 4889C7   		movq	%rax, %rdi
 1493 0b70 E8000000 		call	_ZN8UnitTest15CheckArrayEqualIPKcPcEEvRNS_11TestResultsERKT_RKT0_iRKNS_11TestDetailsE
 1493      00
 1494              	.LEHE55:
 1495              	.L88:
  77:testBinIO.cpp **** 
  78:testBinIO.cpp **** 	status = bufWriteBinaryFile(&buf, FILENAME, 5, 9, NULL);
 1496              		.loc 4 78 0 is_stmt 1
 1497 0b75 488D85A0 		leaq	-608(%rbp), %rax
 1497      FDFFFF
 1498 0b7c 41B80000 		movl	$0, %r8d
 1498      0000
 1499 0b82 B9090000 		movl	$9, %ecx
 1499      00
 1500 0b87 BA050000 		movl	$5, %edx
 1500      00
 1501 0b8c BE000000 		movl	$.LC7, %esi
 1501      00
 1502 0b91 4889C7   		movq	%rax, %rdi
 1503              	.LEHB56:
 1504 0b94 E8000000 		call	bufWriteBinaryFile
 1504      00
 1505              	.LEHE56:
 1506 0b99 89856CFD 		movl	%eax, -660(%rbp)
 1506      FFFF
 1507              	.LEHB57:
  79:testBinIO.cpp **** 	CHECK_EQUAL(BUF_SUCCESS, status);
 1508              		.loc 4 79 0
 1509 0b9f E8000000 		call	_ZN8UnitTest11CurrentTest7DetailsEv
 1509      00
 1510              		.loc 4 79 0 is_stmt 0 discriminator 1
 1511 0ba4 488B08   		movq	(%rax), %rcx
 1512 0ba7 488D85C0 		leaq	-576(%rbp), %rax
 1512      FDFFFF
 1513 0bae BA4F0000 		movl	$79, %edx
 1513      00
 1514 0bb3 4889CE   		movq	%rcx, %rsi
 1515 0bb6 4889C7   		movq	%rax, %rdi
 1516 0bb9 E8000000 		call	_ZN8UnitTest11TestDetailsC1ERKS0_i
 1516      00
 1517              		.loc 4 79 0 discriminator 2
 1518 0bbe C78580FD 		movl	$0, -640(%rbp)
 1518      FFFF0000 
 1518      0000
 1519 0bc8 E8000000 		call	_ZN8UnitTest11CurrentTest7ResultsEv
 1519      00
 1520 0bcd 488B00   		movq	(%rax), %rax
 1521 0bd0 488D8DC0 		leaq	-576(%rbp), %rcx
 1521      FDFFFF
 1522 0bd7 488D956C 		leaq	-660(%rbp), %rdx
 1522      FDFFFF
 1523 0bde 488DB580 		leaq	-640(%rbp), %rsi
 1523      FDFFFF
 1524 0be5 4889C7   		movq	%rax, %rdi
 1525 0be8 E8000000 		call	_ZN8UnitTest10CheckEqualI12BufferStatusS1_EEvRNS_11TestResultsERKT_RKT0_RKNS_11TestDetailsE
 1525      00
 1526              	.LEHE57:
 1527              	.L91:
  80:testBinIO.cpp **** 	file.open(FILENAME, ios::in|ios::binary|ios::ate);
 1528              		.loc 4 80 0 is_stmt 1
 1529 0bed BE040000 		movl	$4, %esi
 1529      00
 1530 0bf2 BF080000 		movl	$8, %edi
 1530      00
 1531 0bf7 E8000000 		call	_ZStorSt13_Ios_OpenmodeS_
 1531      00
 1532 0bfc BE020000 		movl	$2, %esi
 1532      00
 1533 0c01 89C7     		movl	%eax, %edi
 1534 0c03 E8000000 		call	_ZStorSt13_Ios_OpenmodeS_
 1534      00
 1535 0c08 89C2     		movl	%eax, %edx
 1536 0c0a 488D85E0 		leaq	-544(%rbp), %rax
 1536      FDFFFF
 1537 0c11 BE000000 		movl	$.LC7, %esi
 1537      00
 1538 0c16 4889C7   		movq	%rax, %rdi
 1539              	.LEHB58:
 1540 0c19 E8000000 		call	_ZNSt14basic_ifstreamIcSt11char_traitsIcEE4openEPKcSt13_Ios_Openmode
 1540      00
 1541              	.LEHE58:
  81:testBinIO.cpp **** 	CHECK(file.is_open());
 1542              		.loc 4 81 0
 1543 0c1e 488D85E0 		leaq	-544(%rbp), %rax
 1543      FDFFFF
 1544 0c25 4889C7   		movq	%rax, %rdi
 1545              	.LEHB59:
 1546 0c28 E8000000 		call	_ZNSt14basic_ifstreamIcSt11char_traitsIcEE7is_openEv
 1546      00
 1547 0c2d 0FB6C0   		movzbl	%al, %eax
 1548 0c30 89C7     		movl	%eax, %edi
 1549 0c32 E8000000 		call	_ZN8UnitTest5CheckIbEEbT_
 1549      00
 1550 0c37 83F001   		xorl	$1, %eax
 1551 0c3a 84C0     		testb	%al, %al
 1552 0c3c 743E     		je	.L69
 1553              		.loc 4 81 0 is_stmt 0 discriminator 2
 1554 0c3e E8000000 		call	_ZN8UnitTest11CurrentTest7DetailsEv
 1554      00
 1555 0c43 488B08   		movq	(%rax), %rcx
 1556 0c46 488D85C0 		leaq	-576(%rbp), %rax
 1556      FDFFFF
 1557 0c4d BA510000 		movl	$81, %edx
 1557      00
 1558 0c52 4889CE   		movq	%rcx, %rsi
 1559 0c55 4889C7   		movq	%rax, %rdi
 1560 0c58 E8000000 		call	_ZN8UnitTest11TestDetailsC1ERKS0_i
 1560      00
 1561              		.loc 4 81 0 discriminator 4
 1562 0c5d E8000000 		call	_ZN8UnitTest11CurrentTest7ResultsEv
 1562      00
 1563 0c62 488B00   		movq	(%rax), %rax
 1564 0c65 488D8DC0 		leaq	-576(%rbp), %rcx
 1564      FDFFFF
 1565 0c6c BA000000 		movl	$.LC14, %edx
 1565      00
 1566 0c71 4889CE   		movq	%rcx, %rsi
 1567 0c74 4889C7   		movq	%rax, %rdi
 1568 0c77 E8000000 		call	_ZN8UnitTest11TestResults13OnTestFailureERKNS_11TestDetailsEPKc
 1568      00
 1569              	.LEHE59:
 1570              	.L69:
  82:testBinIO.cpp **** 	length = file.tellg();
 1571              		.loc 4 82 0 is_stmt 1
 1572 0c7c 488D85E0 		leaq	-544(%rbp), %rax
 1572      FDFFFF
 1573 0c83 4889C7   		movq	%rax, %rdi
 1574              	.LEHB60:
 1575 0c86 E8000000 		call	_ZNSi5tellgEv
 1575      00
 1576              	.LEHE60:
 1577 0c8b 48898590 		movq	%rax, -624(%rbp)
 1577      FDFFFF
 1578 0c92 48899598 		movq	%rdx, -616(%rbp)
 1578      FDFFFF
 1579              	.LEHB61:
  83:testBinIO.cpp **** 	CHECK_EQUAL(9, length);
 1580              		.loc 4 83 0
 1581 0c99 E8000000 		call	_ZN8UnitTest11CurrentTest7DetailsEv
 1581      00
 1582 0c9e 488B08   		movq	(%rax), %rcx
 1583 0ca1 488D85C0 		leaq	-576(%rbp), %rax
 1583      FDFFFF
 1584 0ca8 BA530000 		movl	$83, %edx
 1584      00
 1585 0cad 4889CE   		movq	%rcx, %rsi
 1586 0cb0 4889C7   		movq	%rax, %rdi
 1587 0cb3 E8000000 		call	_ZN8UnitTest11TestDetailsC1ERKS0_i
 1587      00
 1588              		.loc 4 83 0 is_stmt 0 discriminator 2
 1589 0cb8 C78580FD 		movl	$9, -640(%rbp)
 1589      FFFF0900 
 1589      0000
 1590 0cc2 E8000000 		call	_ZN8UnitTest11CurrentTest7ResultsEv
 1590      00
 1591 0cc7 488B00   		movq	(%rax), %rax
 1592 0cca 488D8DC0 		leaq	-576(%rbp), %rcx
 1592      FDFFFF
 1593 0cd1 488D9590 		leaq	-624(%rbp), %rdx
 1593      FDFFFF
 1594 0cd8 488DB580 		leaq	-640(%rbp), %rsi
 1594      FDFFFF
 1595 0cdf 4889C7   		movq	%rax, %rdi
 1596 0ce2 E8000000 		call	_ZN8UnitTest10CheckEqualIiSt4fposI11__mbstate_tEEEvRNS_11TestResultsERKT_RKT0_RKNS_11TestDeta
 1596      00
 1597              	.LEHE61:
 1598              	.L96:
  84:testBinIO.cpp **** 	file.seekg(0, ios::beg);
 1599              		.loc 4 84 0 is_stmt 1
 1600 0ce7 488D85E0 		leaq	-544(%rbp), %rax
 1600      FDFFFF
 1601 0cee BA000000 		movl	$0, %edx
 1601      00
 1602 0cf3 BE000000 		movl	$0, %esi
 1602      00
 1603 0cf8 4889C7   		movq	%rax, %rdi
 1604              	.LEHB62:
 1605 0cfb E8000000 		call	_ZNSi5seekgElSt12_Ios_Seekdir
 1605      00
  85:testBinIO.cpp **** 	file.read(fileData, length);
 1606              		.loc 4 85 0
 1607 0d00 488D8590 		leaq	-624(%rbp), %rax
 1607      FDFFFF
 1608 0d07 4889C7   		movq	%rax, %rdi
 1609 0d0a E8000000 		call	_ZNKSt4fposI11__mbstate_tEcvlEv
 1609      00
 1610 0d0f 4889C2   		movq	%rax, %rdx
 1611 0d12 488B8D78 		movq	-648(%rbp), %rcx
 1611      FDFFFF
 1612 0d19 488D85E0 		leaq	-544(%rbp), %rax
 1612      FDFFFF
 1613 0d20 4889CE   		movq	%rcx, %rsi
 1614 0d23 4889C7   		movq	%rax, %rdi
 1615 0d26 E8000000 		call	_ZNSi4readEPcl
 1615      00
  86:testBinIO.cpp **** 	file.close();
 1616              		.loc 4 86 0
 1617 0d2b 488D85E0 		leaq	-544(%rbp), %rax
 1617      FDFFFF
 1618 0d32 4889C7   		movq	%rax, %rdi
 1619 0d35 E8000000 		call	_ZNSt14basic_ifstreamIcSt11char_traitsIcEE5closeEv
 1619      00
 1620              	.LEHE62:
 1621              	.LEHB63:
  87:testBinIO.cpp **** 	CHECK_ARRAY_EQUAL(DATA+5, fileData, (int)length);
 1622              		.loc 4 87 0
 1623 0d3a E8000000 		call	_ZN8UnitTest11CurrentTest7DetailsEv
 1623      00
 1624 0d3f 488B08   		movq	(%rax), %rcx
 1625 0d42 488D85C0 		leaq	-576(%rbp), %rax
 1625      FDFFFF
 1626 0d49 BA570000 		movl	$87, %edx
 1626      00
 1627 0d4e 4889CE   		movq	%rcx, %rsi
 1628 0d51 4889C7   		movq	%rax, %rdi
 1629 0d54 E8000000 		call	_ZN8UnitTest11TestDetailsC1ERKS0_i
 1629      00
 1630              		.loc 4 87 0 is_stmt 0 discriminator 2
 1631 0d59 488D8590 		leaq	-624(%rbp), %rax
 1631      FDFFFF
 1632 0d60 4889C7   		movq	%rax, %rdi
 1633 0d63 E8000000 		call	_ZNKSt4fposI11__mbstate_tEcvlEv
 1633      00
 1634 0d68 89C3     		movl	%eax, %ebx
 1635 0d6a 48C78580 		movq	$.LC8+5, -640(%rbp)
 1635      FDFFFF00 
 1635      000000
 1636 0d75 E8000000 		call	_ZN8UnitTest11CurrentTest7ResultsEv
 1636      00
 1637 0d7a 488B00   		movq	(%rax), %rax
 1638 0d7d 488D8DC0 		leaq	-576(%rbp), %rcx
 1638      FDFFFF
 1639 0d84 488D9578 		leaq	-648(%rbp), %rdx
 1639      FDFFFF
 1640 0d8b 488DB580 		leaq	-640(%rbp), %rsi
 1640      FDFFFF
 1641 0d92 4989C8   		movq	%rcx, %r8
 1642 0d95 89D9     		movl	%ebx, %ecx
 1643 0d97 4889C7   		movq	%rax, %rdi
 1644 0d9a E8000000 		call	_ZN8UnitTest15CheckArrayEqualIPKcPcEEvRNS_11TestResultsERKT_RKT0_iRKNS_11TestDetailsE
 1644      00
 1645              	.LEHE63:
 1646              	.L99:
  88:testBinIO.cpp **** 
  89:testBinIO.cpp **** 	delete[] fileData;
 1647              		.loc 4 89 0 is_stmt 1
 1648 0d9f 488B8578 		movq	-648(%rbp), %rax
 1648      FDFFFF
 1649 0da6 4885C0   		testq	%rax, %rax
 1650 0da9 740F     		je	.L70
 1651              		.loc 4 89 0 is_stmt 0 discriminator 1
 1652 0dab 488B8578 		movq	-648(%rbp), %rax
 1652      FDFFFF
 1653 0db2 4889C7   		movq	%rax, %rdi
 1654 0db5 E8000000 		call	_ZdaPv
 1654      00
 1655              	.L70:
  90:testBinIO.cpp **** 	bufDestroy(&buf);
 1656              		.loc 4 90 0 is_stmt 1
 1657 0dba 488D85A0 		leaq	-608(%rbp), %rax
 1657      FDFFFF
 1658 0dc1 4889C7   		movq	%rax, %rdi
 1659              	.LEHB64:
 1660 0dc4 E8000000 		call	bufDestroy
 1660      00
 1661              	.LEHE64:
 1662              		.loc 4 90 0 is_stmt 0 discriminator 2
 1663 0dc9 488D85E0 		leaq	-544(%rbp), %rax
 1663      FDFFFF
 1664 0dd0 4889C7   		movq	%rax, %rdi
 1665              	.LEHB65:
 1666 0dd3 E8000000 		call	_ZNSt14basic_ifstreamIcSt11char_traitsIcEED1Ev
 1666      00
 1667              	.LEHE65:
 1668              	.LBE11:
  91:testBinIO.cpp **** }
 1669              		.loc 4 91 0 is_stmt 1 discriminator 2
 1670 0dd8 488B45E8 		movq	-24(%rbp), %rax
 1671 0ddc 64483304 		xorq	%fs:40, %rax
 1671      25280000 
 1671      00
 1672 0de5 0F84C603 		je	.L100
 1672      0000
 1673 0deb E9BC0300 		jmp	.L122
 1673      00
 1674              	.L103:
 1675 0df0 4889C3   		movq	%rax, %rbx
 1676              	.LBB12:
  62:testBinIO.cpp **** 	status = bufAppendBlock(&buf, (const uint8 *)DATA, strlen(DATA), NULL);
 1677              		.loc 4 62 0
 1678 0df3 E8000000 		call	__cxa_end_catch
 1678      00
 1679 0df8 E9950300 		jmp	.L72
 1679      00
 1680              	.L102:
 1681 0dfd 4889C7   		movq	%rax, %rdi
 1682 0e00 E8000000 		call	__cxa_begin_catch
 1682      00
 1683              	.LEHB66:
 1684 0e05 E8000000 		call	_ZN8UnitTest11CurrentTest7DetailsEv
 1684      00
 1685 0e0a 488B08   		movq	(%rax), %rcx
 1686 0e0d 488D85C0 		leaq	-576(%rbp), %rax
 1686      FDFFFF
 1687 0e14 BA3E0000 		movl	$62, %edx
 1687      00
 1688 0e19 4889CE   		movq	%rcx, %rsi
 1689 0e1c 4889C7   		movq	%rax, %rdi
 1690 0e1f E8000000 		call	_ZN8UnitTest11TestDetailsC1ERKS0_i
 1690      00
  62:testBinIO.cpp **** 	status = bufAppendBlock(&buf, (const uint8 *)DATA, strlen(DATA), NULL);
 1691              		.loc 4 62 0 is_stmt 0 discriminator 10
 1692 0e24 E8000000 		call	_ZN8UnitTest11CurrentTest7ResultsEv
 1692      00
 1693 0e29 488B00   		movq	(%rax), %rax
 1694 0e2c 488D8DC0 		leaq	-576(%rbp), %rcx
 1694      FDFFFF
 1695 0e33 BA000000 		movl	$.LC4, %edx
 1695      00
 1696 0e38 4889CE   		movq	%rcx, %rsi
 1697 0e3b 4889C7   		movq	%rax, %rdi
 1698 0e3e E8000000 		call	_ZN8UnitTest11TestResults13OnTestFailureERKNS_11TestDetailsEPKc
 1698      00
 1699              	.LEHE66:
 1700              	.LEHB67:
  62:testBinIO.cpp **** 	status = bufAppendBlock(&buf, (const uint8 *)DATA, strlen(DATA), NULL);
 1701              		.loc 4 62 0 discriminator 14
 1702 0e43 E8000000 		call	__cxa_end_catch
 1702      00
 1703              	.LEHE67:
  62:testBinIO.cpp **** 	status = bufAppendBlock(&buf, (const uint8 *)DATA, strlen(DATA), NULL);
 1704              		.loc 4 62 0
 1705 0e48 E95DFAFF 		jmp	.L74
 1705      FF
 1706              	.L105:
 1707 0e4d 4889C3   		movq	%rax, %rbx
  64:testBinIO.cpp **** 
 1708              		.loc 4 64 0 is_stmt 1
 1709 0e50 E8000000 		call	__cxa_end_catch
 1709      00
 1710 0e55 E9380300 		jmp	.L72
 1710      00
 1711              	.L104:
 1712 0e5a 4889C7   		movq	%rax, %rdi
 1713 0e5d E8000000 		call	__cxa_begin_catch
 1713      00
 1714              	.LEHB68:
 1715 0e62 E8000000 		call	_ZN8UnitTest11CurrentTest7DetailsEv
 1715      00
 1716 0e67 488B08   		movq	(%rax), %rcx
 1717 0e6a 488D85C0 		leaq	-576(%rbp), %rax
 1717      FDFFFF
 1718 0e71 BA400000 		movl	$64, %edx
 1718      00
 1719 0e76 4889CE   		movq	%rcx, %rsi
 1720 0e79 4889C7   		movq	%rax, %rdi
 1721 0e7c E8000000 		call	_ZN8UnitTest11TestDetailsC1ERKS0_i
 1721      00
  64:testBinIO.cpp **** 
 1722              		.loc 4 64 0 is_stmt 0 discriminator 10
 1723 0e81 E8000000 		call	_ZN8UnitTest11CurrentTest7ResultsEv
 1723      00
 1724 0e86 488B00   		movq	(%rax), %rax
 1725 0e89 488D8DC0 		leaq	-576(%rbp), %rcx
 1725      FDFFFF
 1726 0e90 BA000000 		movl	$.LC4, %edx
 1726      00
 1727 0e95 4889CE   		movq	%rcx, %rsi
 1728 0e98 4889C7   		movq	%rax, %rdi
 1729 0e9b E8000000 		call	_ZN8UnitTest11TestResults13OnTestFailureERKNS_11TestDetailsEPKc
 1729      00
 1730              	.LEHE68:
 1731              	.LEHB69:
  64:testBinIO.cpp **** 
 1732              		.loc 4 64 0 discriminator 14
 1733 0ea0 E8000000 		call	__cxa_end_catch
 1733      00
 1734              	.LEHE69:
  64:testBinIO.cpp **** 
 1735              		.loc 4 64 0
 1736 0ea5 E972FAFF 		jmp	.L77
 1736      FF
 1737              	.L107:
 1738 0eaa 4889C3   		movq	%rax, %rbx
  67:testBinIO.cpp **** 	file.open(FILENAME, ios::in|ios::binary|ios::ate);
 1739              		.loc 4 67 0 is_stmt 1
 1740 0ead E8000000 		call	__cxa_end_catch
 1740      00
 1741 0eb2 E9DB0200 		jmp	.L72
 1741      00
 1742              	.L106:
 1743 0eb7 4889C7   		movq	%rax, %rdi
 1744 0eba E8000000 		call	__cxa_begin_catch
 1744      00
 1745              	.LEHB70:
 1746 0ebf E8000000 		call	_ZN8UnitTest11CurrentTest7DetailsEv
 1746      00
 1747 0ec4 488B08   		movq	(%rax), %rcx
 1748 0ec7 488D85C0 		leaq	-576(%rbp), %rax
 1748      FDFFFF
 1749 0ece BA430000 		movl	$67, %edx
 1749      00
 1750 0ed3 4889CE   		movq	%rcx, %rsi
 1751 0ed6 4889C7   		movq	%rax, %rdi
 1752 0ed9 E8000000 		call	_ZN8UnitTest11TestDetailsC1ERKS0_i
 1752      00
  67:testBinIO.cpp **** 	file.open(FILENAME, ios::in|ios::binary|ios::ate);
 1753              		.loc 4 67 0 is_stmt 0 discriminator 10
 1754 0ede E8000000 		call	_ZN8UnitTest11CurrentTest7ResultsEv
 1754      00
 1755 0ee3 488B00   		movq	(%rax), %rax
 1756 0ee6 488D8DC0 		leaq	-576(%rbp), %rcx
 1756      FDFFFF
 1757 0eed BA000000 		movl	$.LC4, %edx
 1757      00
 1758 0ef2 4889CE   		movq	%rcx, %rsi
 1759 0ef5 4889C7   		movq	%rax, %rdi
 1760 0ef8 E8000000 		call	_ZN8UnitTest11TestResults13OnTestFailureERKNS_11TestDetailsEPKc
 1760      00
 1761              	.LEHE70:
 1762              	.LEHB71:
  67:testBinIO.cpp **** 	file.open(FILENAME, ios::in|ios::binary|ios::ate);
 1763              		.loc 4 67 0 discriminator 14
 1764 0efd E8000000 		call	__cxa_end_catch
 1764      00
 1765              	.LEHE71:
  67:testBinIO.cpp **** 	file.open(FILENAME, ios::in|ios::binary|ios::ate);
 1766              		.loc 4 67 0
 1767 0f02 E990FAFF 		jmp	.L80
 1767      FF
 1768              	.L109:
 1769 0f07 4889C3   		movq	%rax, %rbx
  69:testBinIO.cpp **** 	length = file.tellg();
 1770              		.loc 4 69 0 is_stmt 1
 1771 0f0a E8000000 		call	__cxa_end_catch
 1771      00
 1772 0f0f E97E0200 		jmp	.L72
 1772      00
 1773              	.L108:
 1774 0f14 4889C7   		movq	%rax, %rdi
 1775 0f17 E8000000 		call	__cxa_begin_catch
 1775      00
 1776              	.LEHB72:
 1777 0f1c E8000000 		call	_ZN8UnitTest11CurrentTest7DetailsEv
 1777      00
 1778 0f21 488B08   		movq	(%rax), %rcx
 1779 0f24 488D85C0 		leaq	-576(%rbp), %rax
 1779      FDFFFF
 1780 0f2b BA450000 		movl	$69, %edx
 1780      00
 1781 0f30 4889CE   		movq	%rcx, %rsi
 1782 0f33 4889C7   		movq	%rax, %rdi
 1783 0f36 E8000000 		call	_ZN8UnitTest11TestDetailsC1ERKS0_i
 1783      00
  69:testBinIO.cpp **** 	length = file.tellg();
 1784              		.loc 4 69 0 is_stmt 0 discriminator 12
 1785 0f3b E8000000 		call	_ZN8UnitTest11CurrentTest7ResultsEv
 1785      00
 1786 0f40 488B00   		movq	(%rax), %rax
 1787 0f43 488D8DC0 		leaq	-576(%rbp), %rcx
 1787      FDFFFF
 1788 0f4a BA000000 		movl	$.LC15, %edx
 1788      00
 1789 0f4f 4889CE   		movq	%rcx, %rsi
 1790 0f52 4889C7   		movq	%rax, %rdi
 1791 0f55 E8000000 		call	_ZN8UnitTest11TestResults13OnTestFailureERKNS_11TestDetailsEPKc
 1791      00
 1792              	.LEHE72:
 1793              	.LEHB73:
  69:testBinIO.cpp **** 	length = file.tellg();
 1794              		.loc 4 69 0 discriminator 16
 1795 0f5a E8000000 		call	__cxa_end_catch
 1795      00
 1796              	.LEHE73:
  69:testBinIO.cpp **** 	length = file.tellg();
 1797              		.loc 4 69 0
 1798 0f5f E9C2FAFF 		jmp	.L68
 1798      FF
 1799              	.L111:
 1800 0f64 4889C3   		movq	%rax, %rbx
  71:testBinIO.cpp **** 	fileData = new char[(unsigned int)length];
 1801              		.loc 4 71 0 is_stmt 1
 1802 0f67 E8000000 		call	__cxa_end_catch
 1802      00
 1803 0f6c E9210200 		jmp	.L72
 1803      00
 1804              	.L110:
 1805 0f71 4889C7   		movq	%rax, %rdi
 1806 0f74 E8000000 		call	__cxa_begin_catch
 1806      00
 1807              	.LEHB74:
 1808 0f79 E8000000 		call	_ZN8UnitTest11CurrentTest7DetailsEv
 1808      00
 1809 0f7e 488B08   		movq	(%rax), %rcx
 1810 0f81 488D85C0 		leaq	-576(%rbp), %rax
 1810      FDFFFF
 1811 0f88 BA470000 		movl	$71, %edx
 1811      00
 1812 0f8d 4889CE   		movq	%rcx, %rsi
 1813 0f90 4889C7   		movq	%rax, %rdi
 1814 0f93 E8000000 		call	_ZN8UnitTest11TestDetailsC1ERKS0_i
 1814      00
  71:testBinIO.cpp **** 	fileData = new char[(unsigned int)length];
 1815              		.loc 4 71 0 is_stmt 0 discriminator 10
 1816 0f98 E8000000 		call	_ZN8UnitTest11CurrentTest7ResultsEv
 1816      00
 1817 0f9d 488B00   		movq	(%rax), %rax
 1818 0fa0 488D8DC0 		leaq	-576(%rbp), %rcx
 1818      FDFFFF
 1819 0fa7 BA000000 		movl	$.LC16, %edx
 1819      00
 1820 0fac 4889CE   		movq	%rcx, %rsi
 1821 0faf 4889C7   		movq	%rax, %rdi
 1822 0fb2 E8000000 		call	_ZN8UnitTest11TestResults13OnTestFailureERKNS_11TestDetailsEPKc
 1822      00
 1823              	.LEHE74:
 1824              	.LEHB75:
  71:testBinIO.cpp **** 	fileData = new char[(unsigned int)length];
 1825              		.loc 4 71 0 discriminator 14
 1826 0fb7 E8000000 		call	__cxa_end_catch
 1826      00
 1827              	.LEHE75:
  71:testBinIO.cpp **** 	fileData = new char[(unsigned int)length];
 1828              		.loc 4 71 0
 1829 0fbc E9E7FAFF 		jmp	.L85
 1829      FF
 1830              	.L113:
 1831 0fc1 4889C3   		movq	%rax, %rbx
  76:testBinIO.cpp **** 
 1832              		.loc 4 76 0 is_stmt 1
 1833 0fc4 E8000000 		call	__cxa_end_catch
 1833      00
 1834 0fc9 E9C40100 		jmp	.L72
 1834      00
 1835              	.L112:
 1836 0fce 4889C7   		movq	%rax, %rdi
 1837 0fd1 E8000000 		call	__cxa_begin_catch
 1837      00
 1838              	.LEHB76:
 1839 0fd6 E8000000 		call	_ZN8UnitTest11CurrentTest7DetailsEv
 1839      00
 1840 0fdb 488B08   		movq	(%rax), %rcx
 1841 0fde 488D85C0 		leaq	-576(%rbp), %rax
 1841      FDFFFF
 1842 0fe5 BA4C0000 		movl	$76, %edx
 1842      00
 1843 0fea 4889CE   		movq	%rcx, %rsi
 1844 0fed 4889C7   		movq	%rax, %rdi
 1845 0ff0 E8000000 		call	_ZN8UnitTest11TestDetailsC1ERKS0_i
 1845      00
  76:testBinIO.cpp **** 
 1846              		.loc 4 76 0 is_stmt 0 discriminator 10
 1847 0ff5 E8000000 		call	_ZN8UnitTest11CurrentTest7ResultsEv
 1847      00
 1848 0ffa 488B00   		movq	(%rax), %rax
 1849 0ffd 488D8DC0 		leaq	-576(%rbp), %rcx
 1849      FDFFFF
 1850 1004 BA000000 		movl	$.LC17, %edx
 1850      00
 1851 1009 4889CE   		movq	%rcx, %rsi
 1852 100c 4889C7   		movq	%rax, %rdi
 1853 100f E8000000 		call	_ZN8UnitTest11TestResults13OnTestFailureERKNS_11TestDetailsEPKc
 1853      00
 1854              	.LEHE76:
 1855              	.LEHB77:
  76:testBinIO.cpp **** 
 1856              		.loc 4 76 0 discriminator 14
 1857 1014 E8000000 		call	__cxa_end_catch
 1857      00
 1858              	.LEHE77:
  76:testBinIO.cpp **** 
 1859              		.loc 4 76 0
 1860 1019 E957FBFF 		jmp	.L88
 1860      FF
 1861              	.L115:
 1862 101e 4889C3   		movq	%rax, %rbx
  79:testBinIO.cpp **** 	file.open(FILENAME, ios::in|ios::binary|ios::ate);
 1863              		.loc 4 79 0 is_stmt 1
 1864 1021 E8000000 		call	__cxa_end_catch
 1864      00
 1865 1026 E9670100 		jmp	.L72
 1865      00
 1866              	.L114:
 1867 102b 4889C7   		movq	%rax, %rdi
 1868 102e E8000000 		call	__cxa_begin_catch
 1868      00
 1869              	.LEHB78:
 1870 1033 E8000000 		call	_ZN8UnitTest11CurrentTest7DetailsEv
 1870      00
 1871 1038 488B08   		movq	(%rax), %rcx
 1872 103b 488D85C0 		leaq	-576(%rbp), %rax
 1872      FDFFFF
 1873 1042 BA4F0000 		movl	$79, %edx
 1873      00
 1874 1047 4889CE   		movq	%rcx, %rsi
 1875 104a 4889C7   		movq	%rax, %rdi
 1876 104d E8000000 		call	_ZN8UnitTest11TestDetailsC1ERKS0_i
 1876      00
  79:testBinIO.cpp **** 	file.open(FILENAME, ios::in|ios::binary|ios::ate);
 1877              		.loc 4 79 0 is_stmt 0 discriminator 10
 1878 1052 E8000000 		call	_ZN8UnitTest11CurrentTest7ResultsEv
 1878      00
 1879 1057 488B00   		movq	(%rax), %rax
 1880 105a 488D8DC0 		leaq	-576(%rbp), %rcx
 1880      FDFFFF
 1881 1061 BA000000 		movl	$.LC4, %edx
 1881      00
 1882 1066 4889CE   		movq	%rcx, %rsi
 1883 1069 4889C7   		movq	%rax, %rdi
 1884 106c E8000000 		call	_ZN8UnitTest11TestResults13OnTestFailureERKNS_11TestDetailsEPKc
 1884      00
 1885              	.LEHE78:
 1886              	.LEHB79:
  79:testBinIO.cpp **** 	file.open(FILENAME, ios::in|ios::binary|ios::ate);
 1887              		.loc 4 79 0 discriminator 14
 1888 1071 E8000000 		call	__cxa_end_catch
 1888      00
 1889              	.LEHE79:
  79:testBinIO.cpp **** 	file.open(FILENAME, ios::in|ios::binary|ios::ate);
 1890              		.loc 4 79 0
 1891 1076 E972FBFF 		jmp	.L91
 1891      FF
 1892              	.L117:
 1893 107b 4889C3   		movq	%rax, %rbx
  81:testBinIO.cpp **** 	length = file.tellg();
 1894              		.loc 4 81 0 is_stmt 1
 1895 107e E8000000 		call	__cxa_end_catch
 1895      00
 1896 1083 E90A0100 		jmp	.L72
 1896      00
 1897              	.L116:
 1898 1088 4889C7   		movq	%rax, %rdi
 1899 108b E8000000 		call	__cxa_begin_catch
 1899      00
 1900              	.LEHB80:
 1901 1090 E8000000 		call	_ZN8UnitTest11CurrentTest7DetailsEv
 1901      00
 1902 1095 488B08   		movq	(%rax), %rcx
 1903 1098 488D85C0 		leaq	-576(%rbp), %rax
 1903      FDFFFF
 1904 109f BA510000 		movl	$81, %edx
 1904      00
 1905 10a4 4889CE   		movq	%rcx, %rsi
 1906 10a7 4889C7   		movq	%rax, %rdi
 1907 10aa E8000000 		call	_ZN8UnitTest11TestDetailsC1ERKS0_i
 1907      00
  81:testBinIO.cpp **** 	length = file.tellg();
 1908              		.loc 4 81 0 is_stmt 0 discriminator 12
 1909 10af E8000000 		call	_ZN8UnitTest11CurrentTest7ResultsEv
 1909      00
 1910 10b4 488B00   		movq	(%rax), %rax
 1911 10b7 488D8DC0 		leaq	-576(%rbp), %rcx
 1911      FDFFFF
 1912 10be BA000000 		movl	$.LC15, %edx
 1912      00
 1913 10c3 4889CE   		movq	%rcx, %rsi
 1914 10c6 4889C7   		movq	%rax, %rdi
 1915 10c9 E8000000 		call	_ZN8UnitTest11TestResults13OnTestFailureERKNS_11TestDetailsEPKc
 1915      00
 1916              	.LEHE80:
 1917              	.LEHB81:
  81:testBinIO.cpp **** 	length = file.tellg();
 1918              		.loc 4 81 0 discriminator 16
 1919 10ce E8000000 		call	__cxa_end_catch
 1919      00
 1920              	.LEHE81:
  81:testBinIO.cpp **** 	length = file.tellg();
 1921              		.loc 4 81 0
 1922 10d3 E9A4FBFF 		jmp	.L69
 1922      FF
 1923              	.L119:
 1924 10d8 4889C3   		movq	%rax, %rbx
  83:testBinIO.cpp **** 	file.seekg(0, ios::beg);
 1925              		.loc 4 83 0 is_stmt 1
 1926 10db E8000000 		call	__cxa_end_catch
 1926      00
 1927 10e0 E9AD0000 		jmp	.L72
 1927      00
 1928              	.L118:
 1929 10e5 4889C7   		movq	%rax, %rdi
 1930 10e8 E8000000 		call	__cxa_begin_catch
 1930      00
 1931              	.LEHB82:
 1932 10ed E8000000 		call	_ZN8UnitTest11CurrentTest7DetailsEv
 1932      00
 1933 10f2 488B08   		movq	(%rax), %rcx
 1934 10f5 488D85C0 		leaq	-576(%rbp), %rax
 1934      FDFFFF
 1935 10fc BA530000 		movl	$83, %edx
 1935      00
 1936 1101 4889CE   		movq	%rcx, %rsi
 1937 1104 4889C7   		movq	%rax, %rdi
 1938 1107 E8000000 		call	_ZN8UnitTest11TestDetailsC1ERKS0_i
 1938      00
  83:testBinIO.cpp **** 	file.seekg(0, ios::beg);
 1939              		.loc 4 83 0 is_stmt 0 discriminator 10
 1940 110c E8000000 		call	_ZN8UnitTest11CurrentTest7ResultsEv
 1940      00
 1941 1111 488B00   		movq	(%rax), %rax
 1942 1114 488D8DC0 		leaq	-576(%rbp), %rcx
 1942      FDFFFF
 1943 111b BA000000 		movl	$.LC18, %edx
 1943      00
 1944 1120 4889CE   		movq	%rcx, %rsi
 1945 1123 4889C7   		movq	%rax, %rdi
 1946 1126 E8000000 		call	_ZN8UnitTest11TestResults13OnTestFailureERKNS_11TestDetailsEPKc
 1946      00
 1947              	.LEHE82:
 1948              	.LEHB83:
  83:testBinIO.cpp **** 	file.seekg(0, ios::beg);
 1949              		.loc 4 83 0 discriminator 14
 1950 112b E8000000 		call	__cxa_end_catch
 1950      00
 1951              	.LEHE83:
  83:testBinIO.cpp **** 	file.seekg(0, ios::beg);
 1952              		.loc 4 83 0
 1953 1130 E9B2FBFF 		jmp	.L96
 1953      FF
 1954              	.L121:
 1955 1135 4889C3   		movq	%rax, %rbx
  87:testBinIO.cpp **** 
 1956              		.loc 4 87 0 is_stmt 1
 1957 1138 E8000000 		call	__cxa_end_catch
 1957      00
 1958 113d EB53     		jmp	.L72
 1959              	.L120:
 1960 113f 4889C7   		movq	%rax, %rdi
 1961 1142 E8000000 		call	__cxa_begin_catch
 1961      00
 1962              	.LEHB84:
 1963 1147 E8000000 		call	_ZN8UnitTest11CurrentTest7DetailsEv
 1963      00
 1964 114c 488B08   		movq	(%rax), %rcx
 1965 114f 488D85C0 		leaq	-576(%rbp), %rax
 1965      FDFFFF
 1966 1156 BA570000 		movl	$87, %edx
 1966      00
 1967 115b 4889CE   		movq	%rcx, %rsi
 1968 115e 4889C7   		movq	%rax, %rdi
 1969 1161 E8000000 		call	_ZN8UnitTest11TestDetailsC1ERKS0_i
 1969      00
  87:testBinIO.cpp **** 
 1970              		.loc 4 87 0 is_stmt 0 discriminator 10
 1971 1166 E8000000 		call	_ZN8UnitTest11CurrentTest7ResultsEv
 1971      00
 1972 116b 488B00   		movq	(%rax), %rax
 1973 116e 488D8DC0 		leaq	-576(%rbp), %rcx
 1973      FDFFFF
 1974 1175 BA000000 		movl	$.LC19, %edx
 1974      00
 1975 117a 4889CE   		movq	%rcx, %rsi
 1976 117d 4889C7   		movq	%rax, %rdi
 1977 1180 E8000000 		call	_ZN8UnitTest11TestResults13OnTestFailureERKNS_11TestDetailsEPKc
 1977      00
 1978              	.LEHE84:
 1979              	.LEHB85:
  87:testBinIO.cpp **** 
 1980              		.loc 4 87 0 discriminator 14
 1981 1185 E8000000 		call	__cxa_end_catch
 1981      00
 1982              	.LEHE85:
  87:testBinIO.cpp **** 
 1983              		.loc 4 87 0
 1984 118a E910FCFF 		jmp	.L99
 1984      FF
 1985              	.L101:
 1986 118f 4889C3   		movq	%rax, %rbx
 1987              	.L72:
  90:testBinIO.cpp **** }
 1988              		.loc 4 90 0 is_stmt 1 discriminator 1
 1989 1192 488D85E0 		leaq	-544(%rbp), %rax
 1989      FDFFFF
 1990 1199 4889C7   		movq	%rax, %rdi
 1991 119c E8000000 		call	_ZNSt14basic_ifstreamIcSt11char_traitsIcEED1Ev
 1991      00
 1992 11a1 4889D8   		movq	%rbx, %rax
 1993 11a4 4889C7   		movq	%rax, %rdi
 1994              	.LEHB86:
 1995 11a7 E8000000 		call	_Unwind_Resume
 1995      00
 1996              	.LEHE86:
 1997              	.L122:
 1998              	.LBE12:
 1999              		.loc 4 91 0
 2000 11ac E8000000 		call	__stack_chk_fail
 2000      00
 2001              	.L100:
 2002 11b1 4881C4A8 		addq	$680, %rsp
 2002      020000
 2003 11b8 5B       		popq	%rbx
 2004 11b9 5D       		popq	%rbp
 2005              		.cfi_def_cfa 7, 8
 2006 11ba C3       		ret
 2007              		.cfi_endproc
 2008              	.LFE1144:
 2009              		.section	.gcc_except_table
 2010              		.align 4
 2011              	.LLSDA1144:
 2012 00f4 FF       		.byte	0xff
 2013 00f5 03       		.byte	0x3
 2014 00f6 8C02     		.uleb128 .LLSDATT1144-.LLSDATTD1144
 2015              	.LLSDATTD1144:
 2016 00f8 01       		.byte	0x1
 2017 00f9 8202     		.uleb128 .LLSDACSE1144-.LLSDACSB1144
 2018              	.LLSDACSB1144:
 2019 00fb 42       		.uleb128 .LEHB43-.LFB1144
 2020 00fc 05       		.uleb128 .LEHE43-.LEHB43
 2021 00fd 00       		.uleb128 0
 2022 00fe 00       		.uleb128 0
 2023 00ff 6F       		.uleb128 .LEHB44-.LFB1144
 2024 0100 05       		.uleb128 .LEHE44-.LEHB44
 2025 0101 AD13     		.uleb128 .L101-.LFB1144
 2026 0103 00       		.uleb128 0
 2027 0104 7A       		.uleb128 .LEHB45-.LFB1144
 2028 0105 4E       		.uleb128 .LEHE45-.LEHB45
 2029 0106 9B0C     		.uleb128 .L102-.LFB1144
 2030 0108 01       		.uleb128 0x1
 2031 0109 E101     		.uleb128 .LEHB46-.LFB1144
 2032 010b 05       		.uleb128 .LEHE46-.LEHB46
 2033 010c AD13     		.uleb128 .L101-.LFB1144
 2034 010e 00       		.uleb128 0
 2035 010f EC01     		.uleb128 .LEHB47-.LFB1144
 2036 0111 4E       		.uleb128 .LEHE47-.LEHB47
 2037 0112 F80C     		.uleb128 .L104-.LFB1144
 2038 0114 01       		.uleb128 0x1
 2039 0115 DC02     		.uleb128 .LEHB48-.LFB1144
 2040 0117 05       		.uleb128 .LEHE48-.LEHB48
 2041 0118 AD13     		.uleb128 .L101-.LFB1144
 2042 011a 00       		.uleb128 0
 2043 011b E702     		.uleb128 .LEHB49-.LFB1144
 2044 011d 4E       		.uleb128 .LEHE49-.LEHB49
 2045 011e D50D     		.uleb128 .L106-.LFB1144
 2046 0120 01       		.uleb128 0x1
 2047 0121 E103     		.uleb128 .LEHB50-.LFB1144
 2048 0123 05       		.uleb128 .LEHE50-.LEHB50
 2049 0124 AD13     		.uleb128 .L101-.LFB1144
 2050 0126 00       		.uleb128 0
 2051 0127 F003     		.uleb128 .LEHB51-.LFB1144
 2052 0129 54       		.uleb128 .LEHE51-.LEHB51
 2053 012a B20E     		.uleb128 .L108-.LFB1144
 2054 012c 01       		.uleb128 0x1
 2055 012d CE04     		.uleb128 .LEHB52-.LFB1144
 2056 012f 05       		.uleb128 .LEHE52-.LEHB52
 2057 0130 AD13     		.uleb128 .L101-.LFB1144
 2058 0132 00       		.uleb128 0
 2059 0133 E104     		.uleb128 .LEHB53-.LFB1144
 2060 0135 65       		.uleb128 .LEHE53-.LEHB53
 2061 0136 8F0F     		.uleb128 .L110-.LFB1144
 2062 0138 01       		.uleb128 0x1
 2063 0139 DA05     		.uleb128 .LEHB54-.LFB1144
 2064 013b 5F       		.uleb128 .LEHE54-.LEHB54
 2065 013c AD13     		.uleb128 .L101-.LFB1144
 2066 013e 00       		.uleb128 0
 2067 013f B906     		.uleb128 .LEHB55-.LFB1144
 2068 0141 5A       		.uleb128 .LEHE55-.LEHB55
 2069 0142 EC0F     		.uleb128 .L112-.LFB1144
 2070 0144 01       		.uleb128 0x1
 2071 0145 B207     		.uleb128 .LEHB56-.LFB1144
 2072 0147 05       		.uleb128 .LEHE56-.LEHB56
 2073 0148 AD13     		.uleb128 .L101-.LFB1144
 2074 014a 00       		.uleb128 0
 2075 014b BD07     		.uleb128 .LEHB57-.LFB1144
 2076 014d 4E       		.uleb128 .LEHE57-.LEHB57
 2077 014e C910     		.uleb128 .L114-.LFB1144
 2078 0150 01       		.uleb128 0x1
 2079 0151 B708     		.uleb128 .LEHB58-.LFB1144
 2080 0153 05       		.uleb128 .LEHE58-.LEHB58
 2081 0154 AD13     		.uleb128 .L101-.LFB1144
 2082 0156 00       		.uleb128 0
 2083 0157 C608     		.uleb128 .LEHB59-.LFB1144
 2084 0159 54       		.uleb128 .LEHE59-.LEHB59
 2085 015a A611     		.uleb128 .L116-.LFB1144
 2086 015c 01       		.uleb128 0x1
 2087 015d A409     		.uleb128 .LEHB60-.LFB1144
 2088 015f 05       		.uleb128 .LEHE60-.LEHB60
 2089 0160 AD13     		.uleb128 .L101-.LFB1144
 2090 0162 00       		.uleb128 0
 2091 0163 B709     		.uleb128 .LEHB61-.LFB1144
 2092 0165 4E       		.uleb128 .LEHE61-.LEHB61
 2093 0166 8312     		.uleb128 .L118-.LFB1144
 2094 0168 01       		.uleb128 0x1
 2095 0169 990A     		.uleb128 .LEHB62-.LFB1144
 2096 016b 3F       		.uleb128 .LEHE62-.LEHB62
 2097 016c AD13     		.uleb128 .L101-.LFB1144
 2098 016e 00       		.uleb128 0
 2099 016f D80A     		.uleb128 .LEHB63-.LFB1144
 2100 0171 65       		.uleb128 .LEHE63-.LEHB63
 2101 0172 DD12     		.uleb128 .L120-.LFB1144
 2102 0174 01       		.uleb128 0x1
 2103 0175 E20B     		.uleb128 .LEHB64-.LFB1144
 2104 0177 05       		.uleb128 .LEHE64-.LEHB64
 2105 0178 AD13     		.uleb128 .L101-.LFB1144
 2106 017a 00       		.uleb128 0
 2107 017b F10B     		.uleb128 .LEHB65-.LFB1144
 2108 017d 05       		.uleb128 .LEHE65-.LEHB65
 2109 017e 00       		.uleb128 0
 2110 017f 00       		.uleb128 0
 2111 0180 A30C     		.uleb128 .LEHB66-.LFB1144
 2112 0182 3E       		.uleb128 .LEHE66-.LEHB66
 2113 0183 8E0C     		.uleb128 .L103-.LFB1144
 2114 0185 00       		.uleb128 0
 2115 0186 E10C     		.uleb128 .LEHB67-.LFB1144
 2116 0188 05       		.uleb128 .LEHE67-.LEHB67
 2117 0189 AD13     		.uleb128 .L101-.LFB1144
 2118 018b 00       		.uleb128 0
 2119 018c 800D     		.uleb128 .LEHB68-.LFB1144
 2120 018e 3E       		.uleb128 .LEHE68-.LEHB68
 2121 018f EB0C     		.uleb128 .L105-.LFB1144
 2122 0191 00       		.uleb128 0
 2123 0192 BE0D     		.uleb128 .LEHB69-.LFB1144
 2124 0194 05       		.uleb128 .LEHE69-.LEHB69
 2125 0195 AD13     		.uleb128 .L101-.LFB1144
 2126 0197 00       		.uleb128 0
 2127 0198 DD0D     		.uleb128 .LEHB70-.LFB1144
 2128 019a 3E       		.uleb128 .LEHE70-.LEHB70
 2129 019b C80D     		.uleb128 .L107-.LFB1144
 2130 019d 00       		.uleb128 0
 2131 019e 9B0E     		.uleb128 .LEHB71-.LFB1144
 2132 01a0 05       		.uleb128 .LEHE71-.LEHB71
 2133 01a1 AD13     		.uleb128 .L101-.LFB1144
 2134 01a3 00       		.uleb128 0
 2135 01a4 BA0E     		.uleb128 .LEHB72-.LFB1144
 2136 01a6 3E       		.uleb128 .LEHE72-.LEHB72
 2137 01a7 A50E     		.uleb128 .L109-.LFB1144
 2138 01a9 00       		.uleb128 0
 2139 01aa F80E     		.uleb128 .LEHB73-.LFB1144
 2140 01ac 05       		.uleb128 .LEHE73-.LEHB73
 2141 01ad AD13     		.uleb128 .L101-.LFB1144
 2142 01af 00       		.uleb128 0
 2143 01b0 970F     		.uleb128 .LEHB74-.LFB1144
 2144 01b2 3E       		.uleb128 .LEHE74-.LEHB74
 2145 01b3 820F     		.uleb128 .L111-.LFB1144
 2146 01b5 00       		.uleb128 0
 2147 01b6 D50F     		.uleb128 .LEHB75-.LFB1144
 2148 01b8 05       		.uleb128 .LEHE75-.LEHB75
 2149 01b9 AD13     		.uleb128 .L101-.LFB1144
 2150 01bb 00       		.uleb128 0
 2151 01bc F40F     		.uleb128 .LEHB76-.LFB1144
 2152 01be 3E       		.uleb128 .LEHE76-.LEHB76
 2153 01bf DF0F     		.uleb128 .L113-.LFB1144
 2154 01c1 00       		.uleb128 0
 2155 01c2 B210     		.uleb128 .LEHB77-.LFB1144
 2156 01c4 05       		.uleb128 .LEHE77-.LEHB77
 2157 01c5 AD13     		.uleb128 .L101-.LFB1144
 2158 01c7 00       		.uleb128 0
 2159 01c8 D110     		.uleb128 .LEHB78-.LFB1144
 2160 01ca 3E       		.uleb128 .LEHE78-.LEHB78
 2161 01cb BC10     		.uleb128 .L115-.LFB1144
 2162 01cd 00       		.uleb128 0
 2163 01ce 8F11     		.uleb128 .LEHB79-.LFB1144
 2164 01d0 05       		.uleb128 .LEHE79-.LEHB79
 2165 01d1 AD13     		.uleb128 .L101-.LFB1144
 2166 01d3 00       		.uleb128 0
 2167 01d4 AE11     		.uleb128 .LEHB80-.LFB1144
 2168 01d6 3E       		.uleb128 .LEHE80-.LEHB80
 2169 01d7 9911     		.uleb128 .L117-.LFB1144
 2170 01d9 00       		.uleb128 0
 2171 01da EC11     		.uleb128 .LEHB81-.LFB1144
 2172 01dc 05       		.uleb128 .LEHE81-.LEHB81
 2173 01dd AD13     		.uleb128 .L101-.LFB1144
 2174 01df 00       		.uleb128 0
 2175 01e0 8B12     		.uleb128 .LEHB82-.LFB1144
 2176 01e2 3E       		.uleb128 .LEHE82-.LEHB82
 2177 01e3 F611     		.uleb128 .L119-.LFB1144
 2178 01e5 00       		.uleb128 0
 2179 01e6 C912     		.uleb128 .LEHB83-.LFB1144
 2180 01e8 05       		.uleb128 .LEHE83-.LEHB83
 2181 01e9 AD13     		.uleb128 .L101-.LFB1144
 2182 01eb 00       		.uleb128 0
 2183 01ec E512     		.uleb128 .LEHB84-.LFB1144
 2184 01ee 3E       		.uleb128 .LEHE84-.LEHB84
 2185 01ef D312     		.uleb128 .L121-.LFB1144
 2186 01f1 00       		.uleb128 0
 2187 01f2 A313     		.uleb128 .LEHB85-.LFB1144
 2188 01f4 05       		.uleb128 .LEHE85-.LEHB85
 2189 01f5 AD13     		.uleb128 .L101-.LFB1144
 2190 01f7 00       		.uleb128 0
 2191 01f8 C513     		.uleb128 .LEHB86-.LFB1144
 2192 01fa 05       		.uleb128 .LEHE86-.LEHB86
 2193 01fb 00       		.uleb128 0
 2194 01fc 00       		.uleb128 0
 2195              	.LLSDACSE1144:
 2196 01fd 01       		.byte	0x1
 2197 01fe 00       		.byte	0
 2198 01ff 00       		.align 4
 2199 0200 00000000 		.long	0
 2200              	
 2201              	.LLSDATT1144:
 2202              		.text
 2204              		.section	.text._ZN8UnitTest15MemoryOutStreamD1Ev,"axG",@progbits,_ZN8UnitTest15MemoryOutStreamD1Ev
 2205              		.align 2
 2206              		.weak	_ZN8UnitTest15MemoryOutStreamD1Ev
 2208              	_ZN8UnitTest15MemoryOutStreamD1Ev:
 2209              	.LFB1175:
  13:/home/asoreyh/Dropbox/projects/lago/lago-software/acqua/brc/lago/makestuff/libs/libutpp/MemoryOutStream.h **** {
 2210              		.loc 3 13 0
 2211              		.cfi_startproc
 2212              		.cfi_personality 0x3,__gxx_personality_v0
 2213              		.cfi_lsda 0x3,.LLSDA1175
 2214 0000 55       		pushq	%rbp
 2215              		.cfi_def_cfa_offset 16
 2216              		.cfi_offset 6, -16
 2217 0001 4889E5   		movq	%rsp, %rbp
 2218              		.cfi_def_cfa_register 6
 2219 0004 53       		pushq	%rbx
 2220 0005 4883EC18 		subq	$24, %rsp
 2221              		.cfi_offset 3, -24
 2222 0009 48897DE8 		movq	%rdi, -24(%rbp)
 2223              	.LBB13:
  13:/home/asoreyh/Dropbox/projects/lago/lago-software/acqua/brc/lago/makestuff/libs/libutpp/MemoryOutStream.h **** {
 2224              		.loc 3 13 0
 2225 000d BA000000 		movl	$_ZTVN8UnitTest15MemoryOutStreamE+24, %edx
 2225      00
 2226 0012 488B45E8 		movq	-24(%rbp), %rax
 2227 0016 488910   		movq	%rdx, (%rax)
 2228 0019 BA600000 		movl	$96, %edx
 2228      00
 2229 001e 488B45E8 		movq	-24(%rbp), %rax
 2230 0022 4801D0   		addq	%rdx, %rax
 2231 0025 BA000000 		movl	$_ZTVN8UnitTest15MemoryOutStreamE+64, %edx
 2231      00
 2232 002a 488910   		movq	%rdx, (%rax)
 2233 002d 488B45E8 		movq	-24(%rbp), %rax
 2234 0031 4883C058 		addq	$88, %rax
 2235 0035 4889C7   		movq	%rax, %rdi
 2236              	.LEHB87:
 2237 0038 E8000000 		call	_ZNSsD1Ev
 2237      00
 2238              	.LEHE87:
  13:/home/asoreyh/Dropbox/projects/lago/lago-software/acqua/brc/lago/makestuff/libs/libutpp/MemoryOutStream.h **** {
 2239              		.loc 3 13 0 is_stmt 0 discriminator 14
 2240 003d BA000000 		movl	$_ZTTN8UnitTest15MemoryOutStreamE+8, %edx
 2240      00
 2241 0042 488B45E8 		movq	-24(%rbp), %rax
 2242 0046 4889D6   		movq	%rdx, %rsi
 2243 0049 4889C7   		movq	%rax, %rdi
 2244              	.LEHB88:
 2245 004c E8000000 		call	_ZNSt19basic_ostringstreamIcSt11char_traitsIcESaIcEED2Ev
 2245      00
 2246              	.LEHE88:
  13:/home/asoreyh/Dropbox/projects/lago/lago-software/acqua/brc/lago/makestuff/libs/libutpp/MemoryOutStream.h **** {
 2247              		.loc 3 13 0 discriminator 20
 2248 0051 B8020000 		movl	$2, %eax
 2248      00
 2249 0056 85C0     		testl	%eax, %eax
 2250 0058 7410     		je	.L125
  13:/home/asoreyh/Dropbox/projects/lago/lago-software/acqua/brc/lago/makestuff/libs/libutpp/MemoryOutStream.h **** {
 2251              		.loc 3 13 0 discriminator 21
 2252 005a 488B45E8 		movq	-24(%rbp), %rax
 2253 005e 4883C060 		addq	$96, %rax
 2254 0062 4889C7   		movq	%rax, %rdi
 2255              	.LEHB89:
 2256 0065 E8000000 		call	_ZNSt9basic_iosIcSt11char_traitsIcEED2Ev
 2256      00
 2257              	.LEHE89:
 2258              	.L125:
 2259              	.LBE13:
  13:/home/asoreyh/Dropbox/projects/lago/lago-software/acqua/brc/lago/makestuff/libs/libutpp/MemoryOutStream.h **** {
 2260              		.loc 3 13 0 discriminator 24
 2261 006a B8000000 		movl	$0, %eax
 2261      00
 2262 006f 85C0     		testl	%eax, %eax
 2263 0071 744E     		je	.L132
  13:/home/asoreyh/Dropbox/projects/lago/lago-software/acqua/brc/lago/makestuff/libs/libutpp/MemoryOutStream.h **** {
 2264              		.loc 3 13 0 discriminator 25
 2265 0073 488B45E8 		movq	-24(%rbp), %rax
 2266 0077 4889C7   		movq	%rax, %rdi
 2267 007a E8000000 		call	_ZdlPv
 2267      00
 2268 007f EB40     		jmp	.L132
 2269              	.L130:
 2270 0081 4889C3   		movq	%rax, %rbx
 2271              	.LBB14:
  13:/home/asoreyh/Dropbox/projects/lago/lago-software/acqua/brc/lago/makestuff/libs/libutpp/MemoryOutStream.h **** {
 2272              		.loc 3 13 0
 2273 0084 BA000000 		movl	$_ZTTN8UnitTest15MemoryOutStreamE+8, %edx
 2273      00
 2274 0089 488B45E8 		movq	-24(%rbp), %rax
 2275 008d 4889D6   		movq	%rdx, %rsi
 2276 0090 4889C7   		movq	%rax, %rdi
 2277 0093 E8000000 		call	_ZNSt19basic_ostringstreamIcSt11char_traitsIcESaIcEED2Ev
 2277      00
 2278 0098 EB03     		jmp	.L128
 2279              	.L131:
 2280 009a 4889C3   		movq	%rax, %rbx
 2281              	.L128:
  13:/home/asoreyh/Dropbox/projects/lago/lago-software/acqua/brc/lago/makestuff/libs/libutpp/MemoryOutStream.h **** {
 2282              		.loc 3 13 0 discriminator 19
 2283 009d B8020000 		movl	$2, %eax
 2283      00
 2284 00a2 85C0     		testl	%eax, %eax
 2285 00a4 7410     		je	.L129
  13:/home/asoreyh/Dropbox/projects/lago/lago-software/acqua/brc/lago/makestuff/libs/libutpp/MemoryOutStream.h **** {
 2286              		.loc 3 13 0 discriminator 32
 2287 00a6 488B45E8 		movq	-24(%rbp), %rax
 2288 00aa 4883C060 		addq	$96, %rax
 2289 00ae 4889C7   		movq	%rax, %rdi
 2290 00b1 E8000000 		call	_ZNSt9basic_iosIcSt11char_traitsIcEED2Ev
 2290      00
 2291              	.L129:
 2292 00b6 4889D8   		movq	%rbx, %rax
 2293 00b9 4889C7   		movq	%rax, %rdi
 2294              	.LEHB90:
 2295 00bc E8000000 		call	_Unwind_Resume
 2295      00
 2296              	.LEHE90:
 2297              	.L132:
 2298              	.LBE14:
  13:/home/asoreyh/Dropbox/projects/lago/lago-software/acqua/brc/lago/makestuff/libs/libutpp/MemoryOutStream.h **** {
 2299              		.loc 3 13 0
 2300 00c1 4883C418 		addq	$24, %rsp
 2301 00c5 5B       		popq	%rbx
 2302 00c6 5D       		popq	%rbp
 2303              		.cfi_def_cfa 7, 8
 2304 00c7 C3       		ret
 2305              		.cfi_endproc
 2306              	.LFE1175:
 2307              		.section	.gcc_except_table
 2308              	.LLSDA1175:
 2309 0204 FF       		.byte	0xff
 2310 0205 FF       		.byte	0xff
 2311 0206 01       		.byte	0x1
 2312 0207 13       		.uleb128 .LLSDACSE1175-.LLSDACSB1175
 2313              	.LLSDACSB1175:
 2314 0208 38       		.uleb128 .LEHB87-.LFB1175
 2315 0209 05       		.uleb128 .LEHE87-.LEHB87
 2316 020a 8101     		.uleb128 .L130-.LFB1175
 2317 020c 00       		.uleb128 0
 2318 020d 4C       		.uleb128 .LEHB88-.LFB1175
 2319 020e 05       		.uleb128 .LEHE88-.LEHB88
 2320 020f 9A01     		.uleb128 .L131-.LFB1175
 2321 0211 00       		.uleb128 0
 2322 0212 65       		.uleb128 .LEHB89-.LFB1175
 2323 0213 05       		.uleb128 .LEHE89-.LEHB89
 2324 0214 00       		.uleb128 0
 2325 0215 00       		.uleb128 0
 2326 0216 BC01     		.uleb128 .LEHB90-.LFB1175
 2327 0218 05       		.uleb128 .LEHE90-.LEHB90
 2328 0219 00       		.uleb128 0
 2329 021a 00       		.uleb128 0
 2330              	.LLSDACSE1175:
 2331              		.section	.text._ZN8UnitTest15MemoryOutStreamD1Ev,"axG",@progbits,_ZN8UnitTest15MemoryOutStreamD1Ev
 2333              		.set	.LTHUNK0,_ZN8UnitTest15MemoryOutStreamD1Ev
 2334              		.weak	_ZTv0_n24_N8UnitTest15MemoryOutStreamD1Ev
 2336              	_ZTv0_n24_N8UnitTest15MemoryOutStreamD1Ev:
 2337              	.LFB1285:
  13:/home/asoreyh/Dropbox/projects/lago/lago-software/acqua/brc/lago/makestuff/libs/libutpp/MemoryOutStream.h **** {
 2338              		.loc 3 13 0 is_stmt 1
 2339              		.cfi_startproc
 2340 00c8 4C8B17   		movq	(%rdi), %r10
 2341 00cb 49037AE8 		addq	-24(%r10), %rdi
 2342 00cf E92CFFFF 		jmp	.LTHUNK0
 2342      FF
 2343              		.cfi_endproc
 2344              	.LFE1285:
 2346              		.section	.text._ZN8UnitTest15MemoryOutStreamD0Ev,"axG",@progbits,_ZN8UnitTest15MemoryOutStreamD0Ev
 2347              		.align 2
 2348              		.weak	_ZN8UnitTest15MemoryOutStreamD0Ev
 2350              	_ZN8UnitTest15MemoryOutStreamD0Ev:
 2351              	.LFB1176:
  13:/home/asoreyh/Dropbox/projects/lago/lago-software/acqua/brc/lago/makestuff/libs/libutpp/MemoryOutStream.h **** {
 2352              		.loc 3 13 0
 2353              		.cfi_startproc
 2354 0000 55       		pushq	%rbp
 2355              		.cfi_def_cfa_offset 16
 2356              		.cfi_offset 6, -16
 2357 0001 4889E5   		movq	%rsp, %rbp
 2358              		.cfi_def_cfa_register 6
 2359 0004 4883EC10 		subq	$16, %rsp
 2360 0008 48897DF8 		movq	%rdi, -8(%rbp)
  13:/home/asoreyh/Dropbox/projects/lago/lago-software/acqua/brc/lago/makestuff/libs/libutpp/MemoryOutStream.h **** {
 2361              		.loc 3 13 0
 2362 000c 488B45F8 		movq	-8(%rbp), %rax
 2363 0010 4889C7   		movq	%rax, %rdi
 2364 0013 E8000000 		call	_ZN8UnitTest15MemoryOutStreamD1Ev
 2364      00
 2365 0018 488B45F8 		movq	-8(%rbp), %rax
 2366 001c 4889C7   		movq	%rax, %rdi
 2367 001f E8000000 		call	_ZdlPv
 2367      00
 2368 0024 C9       		leave
 2369              		.cfi_def_cfa 7, 8
 2370 0025 C3       		ret
 2371              		.cfi_endproc
 2372              	.LFE1176:
 2374              		.set	.LTHUNK1,_ZN8UnitTest15MemoryOutStreamD0Ev
 2375              		.weak	_ZTv0_n24_N8UnitTest15MemoryOutStreamD0Ev
 2377              	_ZTv0_n24_N8UnitTest15MemoryOutStreamD0Ev:
 2378              	.LFB1286:
  13:/home/asoreyh/Dropbox/projects/lago/lago-software/acqua/brc/lago/makestuff/libs/libutpp/MemoryOutStream.h **** {
 2379              		.loc 3 13 0
 2380              		.cfi_startproc
 2381 0026 4C8B17   		movq	(%rdi), %r10
 2382 0029 49037AE8 		addq	-24(%r10), %rdi
 2383 002d EBD1     		jmp	.LTHUNK1
 2384              		.cfi_endproc
 2385              	.LFE1286:
 2387              		.section	.rodata
 2388              	.LC20:
 2389 035b 45787065 		.string	"Expected "
 2389      63746564 
 2389      2000
 2390              	.LC21:
 2391 0365 20627574 		.string	" but was "
 2391      20776173 
 2391      2000
 2392              		.section	.text._ZN8UnitTest10CheckEqualI12BufferStatusS1_EEvRNS_11TestResultsERKT_RKT0_RKNS_11Test
 2393              		.weak	_ZN8UnitTest10CheckEqualI12BufferStatusS1_EEvRNS_11TestResultsERKT_RKT0_RKNS_11TestDetailsE
 2395              	_ZN8UnitTest10CheckEqualI12BufferStatusS1_EEvRNS_11TestResultsERKT_RKT0_RKNS_11TestDetailsE:
 2396              	.LFB1172:
 2397              		.file 5 "/home/asoreyh/Dropbox/projects/lago/lago-software/acqua/brc/lago/makestuff/libs/libutpp/C
   1:/home/asoreyh/Dropbox/projects/lago/lago-software/acqua/brc/lago/makestuff/libs/libutpp/Checks.h **** #ifndef UNITTEST_CHECKS_H
   2:/home/asoreyh/Dropbox/projects/lago/lago-software/acqua/brc/lago/makestuff/libs/libutpp/Checks.h **** #define UNITTEST_CHECKS_H
   3:/home/asoreyh/Dropbox/projects/lago/lago-software/acqua/brc/lago/makestuff/libs/libutpp/Checks.h **** 
   4:/home/asoreyh/Dropbox/projects/lago/lago-software/acqua/brc/lago/makestuff/libs/libutpp/Checks.h **** #include "Config.h"
   5:/home/asoreyh/Dropbox/projects/lago/lago-software/acqua/brc/lago/makestuff/libs/libutpp/Checks.h **** #include "TestResults.h"
   6:/home/asoreyh/Dropbox/projects/lago/lago-software/acqua/brc/lago/makestuff/libs/libutpp/Checks.h **** #include "MemoryOutStream.h"
   7:/home/asoreyh/Dropbox/projects/lago/lago-software/acqua/brc/lago/makestuff/libs/libutpp/Checks.h **** 
   8:/home/asoreyh/Dropbox/projects/lago/lago-software/acqua/brc/lago/makestuff/libs/libutpp/Checks.h **** namespace UnitTest {
   9:/home/asoreyh/Dropbox/projects/lago/lago-software/acqua/brc/lago/makestuff/libs/libutpp/Checks.h **** 
  10:/home/asoreyh/Dropbox/projects/lago/lago-software/acqua/brc/lago/makestuff/libs/libutpp/Checks.h **** 
  11:/home/asoreyh/Dropbox/projects/lago/lago-software/acqua/brc/lago/makestuff/libs/libutpp/Checks.h **** template< typename Value >
  12:/home/asoreyh/Dropbox/projects/lago/lago-software/acqua/brc/lago/makestuff/libs/libutpp/Checks.h **** bool Check(Value const value)
  13:/home/asoreyh/Dropbox/projects/lago/lago-software/acqua/brc/lago/makestuff/libs/libutpp/Checks.h **** {
  14:/home/asoreyh/Dropbox/projects/lago/lago-software/acqua/brc/lago/makestuff/libs/libutpp/Checks.h ****     return !!value; // doing double negative to avoid silly VS warnings
  15:/home/asoreyh/Dropbox/projects/lago/lago-software/acqua/brc/lago/makestuff/libs/libutpp/Checks.h **** }
  16:/home/asoreyh/Dropbox/projects/lago/lago-software/acqua/brc/lago/makestuff/libs/libutpp/Checks.h **** 
  17:/home/asoreyh/Dropbox/projects/lago/lago-software/acqua/brc/lago/makestuff/libs/libutpp/Checks.h **** 
  18:/home/asoreyh/Dropbox/projects/lago/lago-software/acqua/brc/lago/makestuff/libs/libutpp/Checks.h **** template< typename Expected, typename Actual >
  19:/home/asoreyh/Dropbox/projects/lago/lago-software/acqua/brc/lago/makestuff/libs/libutpp/Checks.h **** void CheckEqual(TestResults& results, Expected const& expected, Actual const& actual, TestDetails c
 2398              		.loc 5 19 0
 2399              		.cfi_startproc
 2400              		.cfi_personality 0x3,__gxx_personality_v0
 2401              		.cfi_lsda 0x3,.LLSDA1172
 2402 0000 55       		pushq	%rbp
 2403              		.cfi_def_cfa_offset 16
 2404              		.cfi_offset 6, -16
 2405 0001 4889E5   		movq	%rsp, %rbp
 2406              		.cfi_def_cfa_register 6
 2407 0004 4154     		pushq	%r12
 2408 0006 53       		pushq	%rbx
 2409 0007 4881EC90 		subq	$400, %rsp
 2409      010000
 2410              		.cfi_offset 12, -24
 2411              		.cfi_offset 3, -32
 2412 000e 4889BD78 		movq	%rdi, -392(%rbp)
 2412      FEFFFF
 2413 0015 4889B570 		movq	%rsi, -400(%rbp)
 2413      FEFFFF
 2414 001c 48899568 		movq	%rdx, -408(%rbp)
 2414      FEFFFF
 2415 0023 48898D60 		movq	%rcx, -416(%rbp)
 2415      FEFFFF
 2416              		.loc 5 19 0
 2417 002a 64488B04 		movq	%fs:40, %rax
 2417      25280000 
 2417      00
 2418 0033 488945E8 		movq	%rax, -24(%rbp)
 2419 0037 31C0     		xorl	%eax, %eax
 2420              	.LBB15:
 2421              	.LBB16:
  20:/home/asoreyh/Dropbox/projects/lago/lago-software/acqua/brc/lago/makestuff/libs/libutpp/Checks.h **** {
  21:/home/asoreyh/Dropbox/projects/lago/lago-software/acqua/brc/lago/makestuff/libs/libutpp/Checks.h ****     if (!(expected == actual))
 2422              		.loc 5 21 0
 2423 0039 488B8570 		movq	-400(%rbp), %rax
 2423      FEFFFF
 2424 0040 8B10     		movl	(%rax), %edx
 2425 0042 488B8568 		movq	-408(%rbp), %rax
 2425      FEFFFF
 2426 0049 8B00     		movl	(%rax), %eax
 2427 004b 39C2     		cmpl	%eax, %edx
 2428 004d 0F849600 		je	.L136
 2428      0000
 2429              	.LBB17:
  22:/home/asoreyh/Dropbox/projects/lago/lago-software/acqua/brc/lago/makestuff/libs/libutpp/Checks.h ****     {
  23:/home/asoreyh/Dropbox/projects/lago/lago-software/acqua/brc/lago/makestuff/libs/libutpp/Checks.h ****         UnitTest::MemoryOutStream stream;
 2430              		.loc 5 23 0
 2431 0053 488D8580 		leaq	-384(%rbp), %rax
 2431      FEFFFF
 2432 005a 4889C7   		movq	%rax, %rdi
 2433              	.LEHB91:
 2434 005d E8000000 		call	_ZN8UnitTest15MemoryOutStreamC1Ev
 2434      00
 2435              	.LEHE91:
  24:/home/asoreyh/Dropbox/projects/lago/lago-software/acqua/brc/lago/makestuff/libs/libutpp/Checks.h ****         stream << "Expected " << expected << " but was " << actual;
 2436              		.loc 5 24 0
 2437 0062 488B8568 		movq	-408(%rbp), %rax
 2437      FEFFFF
 2438 0069 8B00     		movl	(%rax), %eax
 2439 006b 89C3     		movl	%eax, %ebx
 2440 006d 488B8570 		movq	-400(%rbp), %rax
 2440      FEFFFF
 2441 0074 8B00     		movl	(%rax), %eax
 2442 0076 4189C4   		movl	%eax, %r12d
 2443 0079 488D8580 		leaq	-384(%rbp), %rax
 2443      FEFFFF
 2444 0080 BE000000 		movl	$.LC20, %esi
 2444      00
 2445 0085 4889C7   		movq	%rax, %rdi
 2446              	.LEHB92:
 2447 0088 E8000000 		call	_ZStlsISt11char_traitsIcEERSt13basic_ostreamIcT_ES5_PKc
 2447      00
 2448 008d 4489E6   		movl	%r12d, %esi
 2449 0090 4889C7   		movq	%rax, %rdi
 2450 0093 E8000000 		call	_ZNSolsEi
 2450      00
 2451              		.loc 5 24 0 is_stmt 0 discriminator 1
 2452 0098 BE000000 		movl	$.LC21, %esi
 2452      00
 2453 009d 4889C7   		movq	%rax, %rdi
 2454 00a0 E8000000 		call	_ZStlsISt11char_traitsIcEERSt13basic_ostreamIcT_ES5_PKc
 2454      00
 2455              		.loc 5 24 0 discriminator 2
 2456 00a5 89DE     		movl	%ebx, %esi
 2457 00a7 4889C7   		movq	%rax, %rdi
 2458 00aa E8000000 		call	_ZNSolsEi
 2458      00
  25:/home/asoreyh/Dropbox/projects/lago/lago-software/acqua/brc/lago/makestuff/libs/libutpp/Checks.h **** 
  26:/home/asoreyh/Dropbox/projects/lago/lago-software/acqua/brc/lago/makestuff/libs/libutpp/Checks.h ****         results.OnTestFailure(details, stream.GetText());
 2459              		.loc 5 26 0 is_stmt 1
 2460 00af 488D8580 		leaq	-384(%rbp), %rax
 2460      FEFFFF
 2461 00b6 4889C7   		movq	%rax, %rdi
 2462 00b9 E8000000 		call	_ZNK8UnitTest15MemoryOutStream7GetTextEv
 2462      00
 2463 00be 4889C2   		movq	%rax, %rdx
 2464 00c1 488B8D60 		movq	-416(%rbp), %rcx
 2464      FEFFFF
 2465 00c8 488B8578 		movq	-392(%rbp), %rax
 2465      FEFFFF
 2466 00cf 4889CE   		movq	%rcx, %rsi
 2467 00d2 4889C7   		movq	%rax, %rdi
 2468 00d5 E8000000 		call	_ZN8UnitTest11TestResults13OnTestFailureERKNS_11TestDetailsEPKc
 2468      00
 2469              	.LEHE92:
 2470              		.loc 5 26 0 is_stmt 0 discriminator 4
 2471 00da 488D8580 		leaq	-384(%rbp), %rax
 2471      FEFFFF
 2472 00e1 4889C7   		movq	%rax, %rdi
 2473              	.LEHB93:
 2474 00e4 E8000000 		call	_ZN8UnitTest15MemoryOutStreamD1Ev
 2474      00
 2475              	.LEHE93:
 2476              	.L136:
 2477              	.LBE17:
 2478              	.LBE16:
 2479              	.LBE15:
  27:/home/asoreyh/Dropbox/projects/lago/lago-software/acqua/brc/lago/makestuff/libs/libutpp/Checks.h ****     }
  28:/home/asoreyh/Dropbox/projects/lago/lago-software/acqua/brc/lago/makestuff/libs/libutpp/Checks.h **** }
 2480              		.loc 5 28 0 is_stmt 1
 2481 00e9 488B45E8 		movq	-24(%rbp), %rax
 2482 00ed 64483304 		xorq	%fs:40, %rax
 2482      25280000 
 2482      00
 2483 00f6 7424     		je	.L138
 2484 00f8 EB1D     		jmp	.L140
 2485              	.L139:
 2486 00fa 4889C3   		movq	%rax, %rbx
 2487              	.LBB20:
 2488              	.LBB19:
 2489              	.LBB18:
  26:/home/asoreyh/Dropbox/projects/lago/lago-software/acqua/brc/lago/makestuff/libs/libutpp/Checks.h ****     }
 2490              		.loc 5 26 0
 2491 00fd 488D8580 		leaq	-384(%rbp), %rax
 2491      FEFFFF
 2492 0104 4889C7   		movq	%rax, %rdi
 2493 0107 E8000000 		call	_ZN8UnitTest15MemoryOutStreamD1Ev
 2493      00
 2494 010c 4889D8   		movq	%rbx, %rax
 2495 010f 4889C7   		movq	%rax, %rdi
 2496              	.LEHB94:
 2497 0112 E8000000 		call	_Unwind_Resume
 2497      00
 2498              	.LEHE94:
 2499              	.L140:
 2500              	.LBE18:
 2501              	.LBE19:
 2502              	.LBE20:
 2503              		.loc 5 28 0
 2504 0117 E8000000 		call	__stack_chk_fail
 2504      00
 2505              	.L138:
 2506 011c 4881C490 		addq	$400, %rsp
 2506      010000
 2507 0123 5B       		popq	%rbx
 2508 0124 415C     		popq	%r12
 2509 0126 5D       		popq	%rbp
 2510              		.cfi_def_cfa 7, 8
 2511 0127 C3       		ret
 2512              		.cfi_endproc
 2513              	.LFE1172:
 2514              		.section	.gcc_except_table
 2515              	.LLSDA1172:
 2516 021b FF       		.byte	0xff
 2517 021c FF       		.byte	0xff
 2518 021d 01       		.byte	0x1
 2519 021e 14       		.uleb128 .LLSDACSE1172-.LLSDACSB1172
 2520              	.LLSDACSB1172:
 2521 021f 5D       		.uleb128 .LEHB91-.LFB1172
 2522 0220 05       		.uleb128 .LEHE91-.LEHB91
 2523 0221 00       		.uleb128 0
 2524 0222 00       		.uleb128 0
 2525 0223 8801     		.uleb128 .LEHB92-.LFB1172
 2526 0225 52       		.uleb128 .LEHE92-.LEHB92
 2527 0226 FA01     		.uleb128 .L139-.LFB1172
 2528 0228 00       		.uleb128 0
 2529 0229 E401     		.uleb128 .LEHB93-.LFB1172
 2530 022b 05       		.uleb128 .LEHE93-.LEHB93
 2531 022c 00       		.uleb128 0
 2532 022d 00       		.uleb128 0
 2533 022e 9202     		.uleb128 .LEHB94-.LFB1172
 2534 0230 05       		.uleb128 .LEHE94-.LEHB94
 2535 0231 00       		.uleb128 0
 2536 0232 00       		.uleb128 0
 2537              	.LLSDACSE1172:
 2538              		.section	.text._ZN8UnitTest10CheckEqualI12BufferStatusS1_EEvRNS_11TestResultsERKT_RKT0_RKNS_11Test
 2540              		.section	.text._ZN8UnitTest10CheckEqualImjEEvRNS_11TestResultsERKT_RKT0_RKNS_11TestDetailsE,"axG",
 2541              		.weak	_ZN8UnitTest10CheckEqualImjEEvRNS_11TestResultsERKT_RKT0_RKNS_11TestDetailsE
 2543              	_ZN8UnitTest10CheckEqualImjEEvRNS_11TestResultsERKT_RKT0_RKNS_11TestDetailsE:
 2544              	.LFB1187:
  19:/home/asoreyh/Dropbox/projects/lago/lago-software/acqua/brc/lago/makestuff/libs/libutpp/Checks.h **** {
 2545              		.loc 5 19 0
 2546              		.cfi_startproc
 2547              		.cfi_personality 0x3,__gxx_personality_v0
 2548              		.cfi_lsda 0x3,.LLSDA1187
 2549 0000 55       		pushq	%rbp
 2550              		.cfi_def_cfa_offset 16
 2551              		.cfi_offset 6, -16
 2552 0001 4889E5   		movq	%rsp, %rbp
 2553              		.cfi_def_cfa_register 6
 2554 0004 4154     		pushq	%r12
 2555 0006 53       		pushq	%rbx
 2556 0007 4881EC90 		subq	$400, %rsp
 2556      010000
 2557              		.cfi_offset 12, -24
 2558              		.cfi_offset 3, -32
 2559 000e 4889BD78 		movq	%rdi, -392(%rbp)
 2559      FEFFFF
 2560 0015 4889B570 		movq	%rsi, -400(%rbp)
 2560      FEFFFF
 2561 001c 48899568 		movq	%rdx, -408(%rbp)
 2561      FEFFFF
 2562 0023 48898D60 		movq	%rcx, -416(%rbp)
 2562      FEFFFF
  19:/home/asoreyh/Dropbox/projects/lago/lago-software/acqua/brc/lago/makestuff/libs/libutpp/Checks.h **** {
 2563              		.loc 5 19 0
 2564 002a 64488B04 		movq	%fs:40, %rax
 2564      25280000 
 2564      00
 2565 0033 488945E8 		movq	%rax, -24(%rbp)
 2566 0037 31C0     		xorl	%eax, %eax
 2567              	.LBB21:
 2568              	.LBB22:
  21:/home/asoreyh/Dropbox/projects/lago/lago-software/acqua/brc/lago/makestuff/libs/libutpp/Checks.h ****     {
 2569              		.loc 5 21 0
 2570 0039 488B8570 		movq	-400(%rbp), %rax
 2570      FEFFFF
 2571 0040 488B10   		movq	(%rax), %rdx
 2572 0043 488B8568 		movq	-408(%rbp), %rax
 2572      FEFFFF
 2573 004a 8B00     		movl	(%rax), %eax
 2574 004c 89C0     		movl	%eax, %eax
 2575 004e 4839C2   		cmpq	%rax, %rdx
 2576 0051 0F849200 		je	.L142
 2576      0000
 2577              	.LBB23:
  23:/home/asoreyh/Dropbox/projects/lago/lago-software/acqua/brc/lago/makestuff/libs/libutpp/Checks.h ****         stream << "Expected " << expected << " but was " << actual;
 2578              		.loc 5 23 0
 2579 0057 488D8580 		leaq	-384(%rbp), %rax
 2579      FEFFFF
 2580 005e 4889C7   		movq	%rax, %rdi
 2581              	.LEHB95:
 2582 0061 E8000000 		call	_ZN8UnitTest15MemoryOutStreamC1Ev
 2582      00
 2583              	.LEHE95:
  24:/home/asoreyh/Dropbox/projects/lago/lago-software/acqua/brc/lago/makestuff/libs/libutpp/Checks.h **** 
 2584              		.loc 5 24 0
 2585 0066 488B8568 		movq	-408(%rbp), %rax
 2585      FEFFFF
 2586 006d 8B18     		movl	(%rax), %ebx
 2587 006f 488B8570 		movq	-400(%rbp), %rax
 2587      FEFFFF
 2588 0076 4C8B20   		movq	(%rax), %r12
 2589 0079 488D8580 		leaq	-384(%rbp), %rax
 2589      FEFFFF
 2590 0080 BE000000 		movl	$.LC20, %esi
 2590      00
 2591 0085 4889C7   		movq	%rax, %rdi
 2592              	.LEHB96:
 2593 0088 E8000000 		call	_ZStlsISt11char_traitsIcEERSt13basic_ostreamIcT_ES5_PKc
 2593      00
 2594 008d 4C89E6   		movq	%r12, %rsi
 2595 0090 4889C7   		movq	%rax, %rdi
 2596 0093 E8000000 		call	_ZNSolsEm
 2596      00
  24:/home/asoreyh/Dropbox/projects/lago/lago-software/acqua/brc/lago/makestuff/libs/libutpp/Checks.h **** 
 2597              		.loc 5 24 0 is_stmt 0 discriminator 1
 2598 0098 BE000000 		movl	$.LC21, %esi
 2598      00
 2599 009d 4889C7   		movq	%rax, %rdi
 2600 00a0 E8000000 		call	_ZStlsISt11char_traitsIcEERSt13basic_ostreamIcT_ES5_PKc
 2600      00
  24:/home/asoreyh/Dropbox/projects/lago/lago-software/acqua/brc/lago/makestuff/libs/libutpp/Checks.h **** 
 2601              		.loc 5 24 0 discriminator 2
 2602 00a5 89DE     		movl	%ebx, %esi
 2603 00a7 4889C7   		movq	%rax, %rdi
 2604 00aa E8000000 		call	_ZNSolsEj
 2604      00
  26:/home/asoreyh/Dropbox/projects/lago/lago-software/acqua/brc/lago/makestuff/libs/libutpp/Checks.h ****     }
 2605              		.loc 5 26 0 is_stmt 1
 2606 00af 488D8580 		leaq	-384(%rbp), %rax
 2606      FEFFFF
 2607 00b6 4889C7   		movq	%rax, %rdi
 2608 00b9 E8000000 		call	_ZNK8UnitTest15MemoryOutStream7GetTextEv
 2608      00
 2609 00be 4889C2   		movq	%rax, %rdx
 2610 00c1 488B8D60 		movq	-416(%rbp), %rcx
 2610      FEFFFF
 2611 00c8 488B8578 		movq	-392(%rbp), %rax
 2611      FEFFFF
 2612 00cf 4889CE   		movq	%rcx, %rsi
 2613 00d2 4889C7   		movq	%rax, %rdi
 2614 00d5 E8000000 		call	_ZN8UnitTest11TestResults13OnTestFailureERKNS_11TestDetailsEPKc
 2614      00
 2615              	.LEHE96:
  26:/home/asoreyh/Dropbox/projects/lago/lago-software/acqua/brc/lago/makestuff/libs/libutpp/Checks.h ****     }
 2616              		.loc 5 26 0 is_stmt 0 discriminator 4
 2617 00da 488D8580 		leaq	-384(%rbp), %rax
 2617      FEFFFF
 2618 00e1 4889C7   		movq	%rax, %rdi
 2619              	.LEHB97:
 2620 00e4 E8000000 		call	_ZN8UnitTest15MemoryOutStreamD1Ev
 2620      00
 2621              	.LEHE97:
 2622              	.L142:
 2623              	.LBE23:
 2624              	.LBE22:
 2625              	.LBE21:
 2626              		.loc 5 28 0 is_stmt 1
 2627 00e9 488B45E8 		movq	-24(%rbp), %rax
 2628 00ed 64483304 		xorq	%fs:40, %rax
 2628      25280000 
 2628      00
 2629 00f6 7424     		je	.L144
 2630 00f8 EB1D     		jmp	.L146
 2631              	.L145:
 2632 00fa 4889C3   		movq	%rax, %rbx
 2633              	.LBB26:
 2634              	.LBB25:
 2635              	.LBB24:
  26:/home/asoreyh/Dropbox/projects/lago/lago-software/acqua/brc/lago/makestuff/libs/libutpp/Checks.h ****     }
 2636              		.loc 5 26 0
 2637 00fd 488D8580 		leaq	-384(%rbp), %rax
 2637      FEFFFF
 2638 0104 4889C7   		movq	%rax, %rdi
 2639 0107 E8000000 		call	_ZN8UnitTest15MemoryOutStreamD1Ev
 2639      00
 2640 010c 4889D8   		movq	%rbx, %rax
 2641 010f 4889C7   		movq	%rax, %rdi
 2642              	.LEHB98:
 2643 0112 E8000000 		call	_Unwind_Resume
 2643      00
 2644              	.LEHE98:
 2645              	.L146:
 2646              	.LBE24:
 2647              	.LBE25:
 2648              	.LBE26:
 2649              		.loc 5 28 0
 2650 0117 E8000000 		call	__stack_chk_fail
 2650      00
 2651              	.L144:
 2652 011c 4881C490 		addq	$400, %rsp
 2652      010000
 2653 0123 5B       		popq	%rbx
 2654 0124 415C     		popq	%r12
 2655 0126 5D       		popq	%rbp
 2656              		.cfi_def_cfa 7, 8
 2657 0127 C3       		ret
 2658              		.cfi_endproc
 2659              	.LFE1187:
 2660              		.section	.gcc_except_table
 2661              	.LLSDA1187:
 2662 0233 FF       		.byte	0xff
 2663 0234 FF       		.byte	0xff
 2664 0235 01       		.byte	0x1
 2665 0236 14       		.uleb128 .LLSDACSE1187-.LLSDACSB1187
 2666              	.LLSDACSB1187:
 2667 0237 61       		.uleb128 .LEHB95-.LFB1187
 2668 0238 05       		.uleb128 .LEHE95-.LEHB95
 2669 0239 00       		.uleb128 0
 2670 023a 00       		.uleb128 0
 2671 023b 8801     		.uleb128 .LEHB96-.LFB1187
 2672 023d 52       		.uleb128 .LEHE96-.LEHB96
 2673 023e FA01     		.uleb128 .L145-.LFB1187
 2674 0240 00       		.uleb128 0
 2675 0241 E401     		.uleb128 .LEHB97-.LFB1187
 2676 0243 05       		.uleb128 .LEHE97-.LEHB97
 2677 0244 00       		.uleb128 0
 2678 0245 00       		.uleb128 0
 2679 0246 9202     		.uleb128 .LEHB98-.LFB1187
 2680 0248 05       		.uleb128 .LEHE98-.LEHB98
 2681 0249 00       		.uleb128 0
 2682 024a 00       		.uleb128 0
 2683              	.LLSDACSE1187:
 2684              		.section	.text._ZN8UnitTest10CheckEqualImjEEvRNS_11TestResultsERKT_RKT0_RKNS_11TestDetailsE,"axG",
 2686              		.section	.rodata
 2687              	.LC22:
 2688 036f 45787065 		.string	"Expected [ "
 2688      63746564 
 2688      205B2000 
 2689              	.LC23:
 2690 037b 2000     		.string	" "
 2691              	.LC24:
 2692 037d 5D206275 		.string	"] but was [ "
 2692      74207761 
 2692      73205B20 
 2692      00
 2693              	.LC25:
 2694 038a 5D00     		.string	"]"
 2695              		.section	.text._ZN8UnitTest15CheckArrayEqualIPKcPhEEvRNS_11TestResultsERKT_RKT0_iRKNS_11TestDetail
 2696              		.weak	_ZN8UnitTest15CheckArrayEqualIPKcPhEEvRNS_11TestResultsERKT_RKT0_iRKNS_11TestDetailsE
 2698              	_ZN8UnitTest15CheckArrayEqualIPKcPhEEvRNS_11TestResultsERKT_RKT0_iRKNS_11TestDetailsE:
 2699              	.LFB1188:
  29:/home/asoreyh/Dropbox/projects/lago/lago-software/acqua/brc/lago/makestuff/libs/libutpp/Checks.h **** 
  30:/home/asoreyh/Dropbox/projects/lago/lago-software/acqua/brc/lago/makestuff/libs/libutpp/Checks.h **** void CheckEqual(TestResults& results, char const* expected, char const* actual, TestDetails const& 
  31:/home/asoreyh/Dropbox/projects/lago/lago-software/acqua/brc/lago/makestuff/libs/libutpp/Checks.h **** 
  32:/home/asoreyh/Dropbox/projects/lago/lago-software/acqua/brc/lago/makestuff/libs/libutpp/Checks.h **** void CheckEqual(TestResults& results, char* expected, char* actual, TestDetails const& details);
  33:/home/asoreyh/Dropbox/projects/lago/lago-software/acqua/brc/lago/makestuff/libs/libutpp/Checks.h **** 
  34:/home/asoreyh/Dropbox/projects/lago/lago-software/acqua/brc/lago/makestuff/libs/libutpp/Checks.h **** void CheckEqual(TestResults& results, char* expected, char const* actual, TestDetails const& detail
  35:/home/asoreyh/Dropbox/projects/lago/lago-software/acqua/brc/lago/makestuff/libs/libutpp/Checks.h **** 
  36:/home/asoreyh/Dropbox/projects/lago/lago-software/acqua/brc/lago/makestuff/libs/libutpp/Checks.h **** void CheckEqual(TestResults& results, char const* expected, char* actual, TestDetails const& detail
  37:/home/asoreyh/Dropbox/projects/lago/lago-software/acqua/brc/lago/makestuff/libs/libutpp/Checks.h **** 
  38:/home/asoreyh/Dropbox/projects/lago/lago-software/acqua/brc/lago/makestuff/libs/libutpp/Checks.h **** template< typename Expected, typename Actual, typename Tolerance >
  39:/home/asoreyh/Dropbox/projects/lago/lago-software/acqua/brc/lago/makestuff/libs/libutpp/Checks.h **** bool AreClose(Expected const& expected, Actual const& actual, Tolerance const& tolerance)
  40:/home/asoreyh/Dropbox/projects/lago/lago-software/acqua/brc/lago/makestuff/libs/libutpp/Checks.h **** {
  41:/home/asoreyh/Dropbox/projects/lago/lago-software/acqua/brc/lago/makestuff/libs/libutpp/Checks.h ****     return (actual >= (expected - tolerance)) && (actual <= (expected + tolerance));
  42:/home/asoreyh/Dropbox/projects/lago/lago-software/acqua/brc/lago/makestuff/libs/libutpp/Checks.h **** }
  43:/home/asoreyh/Dropbox/projects/lago/lago-software/acqua/brc/lago/makestuff/libs/libutpp/Checks.h **** 
  44:/home/asoreyh/Dropbox/projects/lago/lago-software/acqua/brc/lago/makestuff/libs/libutpp/Checks.h **** template< typename Expected, typename Actual, typename Tolerance >
  45:/home/asoreyh/Dropbox/projects/lago/lago-software/acqua/brc/lago/makestuff/libs/libutpp/Checks.h **** void CheckClose(TestResults& results, Expected const& expected, Actual const& actual, Tolerance con
  46:/home/asoreyh/Dropbox/projects/lago/lago-software/acqua/brc/lago/makestuff/libs/libutpp/Checks.h ****                 TestDetails const& details)
  47:/home/asoreyh/Dropbox/projects/lago/lago-software/acqua/brc/lago/makestuff/libs/libutpp/Checks.h **** {
  48:/home/asoreyh/Dropbox/projects/lago/lago-software/acqua/brc/lago/makestuff/libs/libutpp/Checks.h ****     if (!AreClose(expected, actual, tolerance))
  49:/home/asoreyh/Dropbox/projects/lago/lago-software/acqua/brc/lago/makestuff/libs/libutpp/Checks.h ****     { 
  50:/home/asoreyh/Dropbox/projects/lago/lago-software/acqua/brc/lago/makestuff/libs/libutpp/Checks.h ****         UnitTest::MemoryOutStream stream;
  51:/home/asoreyh/Dropbox/projects/lago/lago-software/acqua/brc/lago/makestuff/libs/libutpp/Checks.h ****         stream << "Expected " << expected << " +/- " << tolerance << " but was " << actual;
  52:/home/asoreyh/Dropbox/projects/lago/lago-software/acqua/brc/lago/makestuff/libs/libutpp/Checks.h **** 
  53:/home/asoreyh/Dropbox/projects/lago/lago-software/acqua/brc/lago/makestuff/libs/libutpp/Checks.h ****         results.OnTestFailure(details, stream.GetText());
  54:/home/asoreyh/Dropbox/projects/lago/lago-software/acqua/brc/lago/makestuff/libs/libutpp/Checks.h ****     }
  55:/home/asoreyh/Dropbox/projects/lago/lago-software/acqua/brc/lago/makestuff/libs/libutpp/Checks.h **** }
  56:/home/asoreyh/Dropbox/projects/lago/lago-software/acqua/brc/lago/makestuff/libs/libutpp/Checks.h **** 
  57:/home/asoreyh/Dropbox/projects/lago/lago-software/acqua/brc/lago/makestuff/libs/libutpp/Checks.h **** 
  58:/home/asoreyh/Dropbox/projects/lago/lago-software/acqua/brc/lago/makestuff/libs/libutpp/Checks.h **** template< typename Expected, typename Actual >
  59:/home/asoreyh/Dropbox/projects/lago/lago-software/acqua/brc/lago/makestuff/libs/libutpp/Checks.h **** void CheckArrayEqual(TestResults& results, Expected const& expected, Actual const& actual,
 2700              		.loc 5 59 0
 2701              		.cfi_startproc
 2702              		.cfi_personality 0x3,__gxx_personality_v0
 2703              		.cfi_lsda 0x3,.LLSDA1188
 2704 0000 55       		pushq	%rbp
 2705              		.cfi_def_cfa_offset 16
 2706              		.cfi_offset 6, -16
 2707 0001 4889E5   		movq	%rsp, %rbp
 2708              		.cfi_def_cfa_register 6
 2709 0004 53       		pushq	%rbx
 2710 0005 4881ECB8 		subq	$440, %rsp
 2710      010000
 2711              		.cfi_offset 3, -24
 2712 000c 4889BD68 		movq	%rdi, -408(%rbp)
 2712      FEFFFF
 2713 0013 4889B560 		movq	%rsi, -416(%rbp)
 2713      FEFFFF
 2714 001a 48899558 		movq	%rdx, -424(%rbp)
 2714      FEFFFF
 2715 0021 898D54FE 		movl	%ecx, -428(%rbp)
 2715      FFFF
 2716 0027 4C898548 		movq	%r8, -440(%rbp)
 2716      FEFFFF
 2717              		.loc 5 59 0
 2718 002e 64488B04 		movq	%fs:40, %rax
 2718      25280000 
 2718      00
 2719 0037 488945E8 		movq	%rax, -24(%rbp)
 2720 003b 31C0     		xorl	%eax, %eax
 2721              	.LBB27:
  60:/home/asoreyh/Dropbox/projects/lago/lago-software/acqua/brc/lago/makestuff/libs/libutpp/Checks.h ****                 int const count, TestDetails const& details)
  61:/home/asoreyh/Dropbox/projects/lago/lago-software/acqua/brc/lago/makestuff/libs/libutpp/Checks.h **** {
  62:/home/asoreyh/Dropbox/projects/lago/lago-software/acqua/brc/lago/makestuff/libs/libutpp/Checks.h ****     bool equal = true;
 2722              		.loc 5 62 0
 2723 003d C68573FE 		movb	$1, -397(%rbp)
 2723      FFFF01
 2724              	.LBB28:
  63:/home/asoreyh/Dropbox/projects/lago/lago-software/acqua/brc/lago/makestuff/libs/libutpp/Checks.h ****     for (int i = 0; i < count; ++i)
 2725              		.loc 5 63 0
 2726 0044 C78574FE 		movl	$0, -396(%rbp)
 2726      FFFF0000 
 2726      0000
 2727 004e EB59     		jmp	.L148
 2728              	.L149:
  64:/home/asoreyh/Dropbox/projects/lago/lago-software/acqua/brc/lago/makestuff/libs/libutpp/Checks.h ****         equal &= (expected[i] == actual[i]);
 2729              		.loc 5 64 0 discriminator 3
 2730 0050 0FB69573 		movzbl	-397(%rbp), %edx
 2730      FEFFFF
 2731 0057 488B8560 		movq	-416(%rbp), %rax
 2731      FEFFFF
 2732 005e 488B08   		movq	(%rax), %rcx
 2733 0061 8B8574FE 		movl	-396(%rbp), %eax
 2733      FFFF
 2734 0067 4898     		cltq
 2735 0069 4801C8   		addq	%rcx, %rax
 2736 006c 0FB600   		movzbl	(%rax), %eax
 2737 006f 0FBEC8   		movsbl	%al, %ecx
 2738 0072 488B8558 		movq	-424(%rbp), %rax
 2738      FEFFFF
 2739 0079 488B30   		movq	(%rax), %rsi
 2740 007c 8B8574FE 		movl	-396(%rbp), %eax
 2740      FFFF
 2741 0082 4898     		cltq
 2742 0084 4801F0   		addq	%rsi, %rax
 2743 0087 0FB600   		movzbl	(%rax), %eax
 2744 008a 0FB6C0   		movzbl	%al, %eax
 2745 008d 39C1     		cmpl	%eax, %ecx
 2746 008f 0F94C0   		sete	%al
 2747 0092 0FB6C0   		movzbl	%al, %eax
 2748 0095 21D0     		andl	%edx, %eax
 2749 0097 85C0     		testl	%eax, %eax
 2750 0099 0F95C0   		setne	%al
 2751 009c 888573FE 		movb	%al, -397(%rbp)
 2751      FFFF
  63:/home/asoreyh/Dropbox/projects/lago/lago-software/acqua/brc/lago/makestuff/libs/libutpp/Checks.h ****     for (int i = 0; i < count; ++i)
 2752              		.loc 5 63 0 discriminator 3
 2753 00a2 838574FE 		addl	$1, -396(%rbp)
 2753      FFFF01
 2754              	.L148:
  63:/home/asoreyh/Dropbox/projects/lago/lago-software/acqua/brc/lago/makestuff/libs/libutpp/Checks.h ****     for (int i = 0; i < count; ++i)
 2755              		.loc 5 63 0 is_stmt 0 discriminator 1
 2756 00a9 8B8574FE 		movl	-396(%rbp), %eax
 2756      FFFF
 2757 00af 3B8554FE 		cmpl	-428(%rbp), %eax
 2757      FFFF
 2758 00b5 7C99     		jl	.L149
 2759              	.LBE28:
 2760              	.LBB29:
  65:/home/asoreyh/Dropbox/projects/lago/lago-software/acqua/brc/lago/makestuff/libs/libutpp/Checks.h **** 
  66:/home/asoreyh/Dropbox/projects/lago/lago-software/acqua/brc/lago/makestuff/libs/libutpp/Checks.h ****     if (!equal)
 2761              		.loc 5 66 0 is_stmt 1
 2762 00b7 0FB68573 		movzbl	-397(%rbp), %eax
 2762      FEFFFF
 2763 00be 83F001   		xorl	$1, %eax
 2764 00c1 84C0     		testb	%al, %al
 2765 00c3 0F843901 		je	.L150
 2765      0000
 2766              	.LBB30:
  67:/home/asoreyh/Dropbox/projects/lago/lago-software/acqua/brc/lago/makestuff/libs/libutpp/Checks.h ****     {
  68:/home/asoreyh/Dropbox/projects/lago/lago-software/acqua/brc/lago/makestuff/libs/libutpp/Checks.h ****         UnitTest::MemoryOutStream stream;
 2767              		.loc 5 68 0
 2768 00c9 488D8580 		leaq	-384(%rbp), %rax
 2768      FEFFFF
 2769 00d0 4889C7   		movq	%rax, %rdi
 2770              	.LEHB99:
 2771 00d3 E8000000 		call	_ZN8UnitTest15MemoryOutStreamC1Ev
 2771      00
 2772              	.LEHE99:
  69:/home/asoreyh/Dropbox/projects/lago/lago-software/acqua/brc/lago/makestuff/libs/libutpp/Checks.h **** 
  70:/home/asoreyh/Dropbox/projects/lago/lago-software/acqua/brc/lago/makestuff/libs/libutpp/Checks.h **** 		stream << "Expected [ ";
 2773              		.loc 5 70 0
 2774 00d8 488D8580 		leaq	-384(%rbp), %rax
 2774      FEFFFF
 2775 00df BE000000 		movl	$.LC22, %esi
 2775      00
 2776 00e4 4889C7   		movq	%rax, %rdi
 2777              	.LEHB100:
 2778 00e7 E8000000 		call	_ZStlsISt11char_traitsIcEERSt13basic_ostreamIcT_ES5_PKc
 2778      00
 2779              	.LBB31:
  71:/home/asoreyh/Dropbox/projects/lago/lago-software/acqua/brc/lago/makestuff/libs/libutpp/Checks.h **** 
  72:/home/asoreyh/Dropbox/projects/lago/lago-software/acqua/brc/lago/makestuff/libs/libutpp/Checks.h **** 		for (int expectedIndex = 0; expectedIndex < count; ++expectedIndex)
 2780              		.loc 5 72 0
 2781 00ec C78578FE 		movl	$0, -392(%rbp)
 2781      FFFF0000 
 2781      0000
 2782 00f6 EB40     		jmp	.L151
 2783              	.L152:
  73:/home/asoreyh/Dropbox/projects/lago/lago-software/acqua/brc/lago/makestuff/libs/libutpp/Checks.h ****             stream << expected[expectedIndex] << " ";
 2784              		.loc 5 73 0
 2785 00f8 488B8560 		movq	-416(%rbp), %rax
 2785      FEFFFF
 2786 00ff 488B10   		movq	(%rax), %rdx
 2787 0102 8B8578FE 		movl	-392(%rbp), %eax
 2787      FFFF
 2788 0108 4898     		cltq
 2789 010a 4801D0   		addq	%rdx, %rax
 2790 010d 0FB600   		movzbl	(%rax), %eax
 2791 0110 0FBED0   		movsbl	%al, %edx
 2792 0113 488D8580 		leaq	-384(%rbp), %rax
 2792      FEFFFF
 2793 011a 89D6     		movl	%edx, %esi
 2794 011c 4889C7   		movq	%rax, %rdi
 2795 011f E8000000 		call	_ZStlsISt11char_traitsIcEERSt13basic_ostreamIcT_ES5_c
 2795      00
 2796 0124 BE000000 		movl	$.LC23, %esi
 2796      00
 2797 0129 4889C7   		movq	%rax, %rdi
 2798 012c E8000000 		call	_ZStlsISt11char_traitsIcEERSt13basic_ostreamIcT_ES5_PKc
 2798      00
  72:/home/asoreyh/Dropbox/projects/lago/lago-software/acqua/brc/lago/makestuff/libs/libutpp/Checks.h ****             stream << expected[expectedIndex] << " ";
 2799              		.loc 5 72 0 discriminator 2
 2800 0131 838578FE 		addl	$1, -392(%rbp)
 2800      FFFF01
 2801              	.L151:
  72:/home/asoreyh/Dropbox/projects/lago/lago-software/acqua/brc/lago/makestuff/libs/libutpp/Checks.h ****             stream << expected[expectedIndex] << " ";
 2802              		.loc 5 72 0 is_stmt 0 discriminator 1
 2803 0138 8B8578FE 		movl	-392(%rbp), %eax
 2803      FFFF
 2804 013e 3B8554FE 		cmpl	-428(%rbp), %eax
 2804      FFFF
 2805 0144 7CB2     		jl	.L152
 2806              	.LBE31:
  74:/home/asoreyh/Dropbox/projects/lago/lago-software/acqua/brc/lago/makestuff/libs/libutpp/Checks.h **** 
  75:/home/asoreyh/Dropbox/projects/lago/lago-software/acqua/brc/lago/makestuff/libs/libutpp/Checks.h **** 		stream << "] but was [ ";
 2807              		.loc 5 75 0 is_stmt 1
 2808 0146 488D8580 		leaq	-384(%rbp), %rax
 2808      FEFFFF
 2809 014d BE000000 		movl	$.LC24, %esi
 2809      00
 2810 0152 4889C7   		movq	%rax, %rdi
 2811 0155 E8000000 		call	_ZStlsISt11char_traitsIcEERSt13basic_ostreamIcT_ES5_PKc
 2811      00
 2812              	.LBB32:
  76:/home/asoreyh/Dropbox/projects/lago/lago-software/acqua/brc/lago/makestuff/libs/libutpp/Checks.h **** 
  77:/home/asoreyh/Dropbox/projects/lago/lago-software/acqua/brc/lago/makestuff/libs/libutpp/Checks.h **** 		for (int actualIndex = 0; actualIndex < count; ++actualIndex)
 2813              		.loc 5 77 0
 2814 015a C7857CFE 		movl	$0, -388(%rbp)
 2814      FFFF0000 
 2814      0000
 2815 0164 EB40     		jmp	.L153
 2816              	.L154:
  78:/home/asoreyh/Dropbox/projects/lago/lago-software/acqua/brc/lago/makestuff/libs/libutpp/Checks.h ****             stream << actual[actualIndex] << " ";
 2817              		.loc 5 78 0
 2818 0166 488B8558 		movq	-424(%rbp), %rax
 2818      FEFFFF
 2819 016d 488B10   		movq	(%rax), %rdx
 2820 0170 8B857CFE 		movl	-388(%rbp), %eax
 2820      FFFF
 2821 0176 4898     		cltq
 2822 0178 4801D0   		addq	%rdx, %rax
 2823 017b 0FB600   		movzbl	(%rax), %eax
 2824 017e 0FB6D0   		movzbl	%al, %edx
 2825 0181 488D8580 		leaq	-384(%rbp), %rax
 2825      FEFFFF
 2826 0188 89D6     		movl	%edx, %esi
 2827 018a 4889C7   		movq	%rax, %rdi
 2828 018d E8000000 		call	_ZStlsISt11char_traitsIcEERSt13basic_ostreamIcT_ES5_h
 2828      00
 2829 0192 BE000000 		movl	$.LC23, %esi
 2829      00
 2830 0197 4889C7   		movq	%rax, %rdi
 2831 019a E8000000 		call	_ZStlsISt11char_traitsIcEERSt13basic_ostreamIcT_ES5_PKc
 2831      00
  77:/home/asoreyh/Dropbox/projects/lago/lago-software/acqua/brc/lago/makestuff/libs/libutpp/Checks.h ****             stream << actual[actualIndex] << " ";
 2832              		.loc 5 77 0 discriminator 2
 2833 019f 83857CFE 		addl	$1, -388(%rbp)
 2833      FFFF01
 2834              	.L153:
  77:/home/asoreyh/Dropbox/projects/lago/lago-software/acqua/brc/lago/makestuff/libs/libutpp/Checks.h ****             stream << actual[actualIndex] << " ";
 2835              		.loc 5 77 0 is_stmt 0 discriminator 1
 2836 01a6 8B857CFE 		movl	-388(%rbp), %eax
 2836      FFFF
 2837 01ac 3B8554FE 		cmpl	-428(%rbp), %eax
 2837      FFFF
 2838 01b2 7CB2     		jl	.L154
 2839              	.LBE32:
  79:/home/asoreyh/Dropbox/projects/lago/lago-software/acqua/brc/lago/makestuff/libs/libutpp/Checks.h **** 
  80:/home/asoreyh/Dropbox/projects/lago/lago-software/acqua/brc/lago/makestuff/libs/libutpp/Checks.h **** 		stream << "]";
 2840              		.loc 5 80 0 is_stmt 1
 2841 01b4 488D8580 		leaq	-384(%rbp), %rax
 2841      FEFFFF
 2842 01bb BE000000 		movl	$.LC25, %esi
 2842      00
 2843 01c0 4889C7   		movq	%rax, %rdi
 2844 01c3 E8000000 		call	_ZStlsISt11char_traitsIcEERSt13basic_ostreamIcT_ES5_PKc
 2844      00
  81:/home/asoreyh/Dropbox/projects/lago/lago-software/acqua/brc/lago/makestuff/libs/libutpp/Checks.h **** 
  82:/home/asoreyh/Dropbox/projects/lago/lago-software/acqua/brc/lago/makestuff/libs/libutpp/Checks.h ****         results.OnTestFailure(details, stream.GetText());
 2845              		.loc 5 82 0
 2846 01c8 488D8580 		leaq	-384(%rbp), %rax
 2846      FEFFFF
 2847 01cf 4889C7   		movq	%rax, %rdi
 2848 01d2 E8000000 		call	_ZNK8UnitTest15MemoryOutStream7GetTextEv
 2848      00
 2849 01d7 4889C2   		movq	%rax, %rdx
 2850 01da 488B8D48 		movq	-440(%rbp), %rcx
 2850      FEFFFF
 2851 01e1 488B8568 		movq	-408(%rbp), %rax
 2851      FEFFFF
 2852 01e8 4889CE   		movq	%rcx, %rsi
 2853 01eb 4889C7   		movq	%rax, %rdi
 2854 01ee E8000000 		call	_ZN8UnitTest11TestResults13OnTestFailureERKNS_11TestDetailsEPKc
 2854      00
 2855              	.LEHE100:
 2856              		.loc 5 82 0 is_stmt 0 discriminator 4
 2857 01f3 488D8580 		leaq	-384(%rbp), %rax
 2857      FEFFFF
 2858 01fa 4889C7   		movq	%rax, %rdi
 2859              	.LEHB101:
 2860 01fd E8000000 		call	_ZN8UnitTest15MemoryOutStreamD1Ev
 2860      00
 2861              	.LEHE101:
 2862              	.L150:
 2863              	.LBE30:
 2864              	.LBE29:
 2865              	.LBE27:
  83:/home/asoreyh/Dropbox/projects/lago/lago-software/acqua/brc/lago/makestuff/libs/libutpp/Checks.h ****     }
  84:/home/asoreyh/Dropbox/projects/lago/lago-software/acqua/brc/lago/makestuff/libs/libutpp/Checks.h **** }
 2866              		.loc 5 84 0 is_stmt 1
 2867 0202 488B45E8 		movq	-24(%rbp), %rax
 2868 0206 64483304 		xorq	%fs:40, %rax
 2868      25280000 
 2868      00
 2869 020f 7424     		je	.L156
 2870 0211 EB1D     		jmp	.L158
 2871              	.L157:
 2872 0213 4889C3   		movq	%rax, %rbx
 2873              	.LBB35:
 2874              	.LBB34:
 2875              	.LBB33:
  82:/home/asoreyh/Dropbox/projects/lago/lago-software/acqua/brc/lago/makestuff/libs/libutpp/Checks.h ****     }
 2876              		.loc 5 82 0
 2877 0216 488D8580 		leaq	-384(%rbp), %rax
 2877      FEFFFF
 2878 021d 4889C7   		movq	%rax, %rdi
 2879 0220 E8000000 		call	_ZN8UnitTest15MemoryOutStreamD1Ev
 2879      00
 2880 0225 4889D8   		movq	%rbx, %rax
 2881 0228 4889C7   		movq	%rax, %rdi
 2882              	.LEHB102:
 2883 022b E8000000 		call	_Unwind_Resume
 2883      00
 2884              	.LEHE102:
 2885              	.L158:
 2886              	.LBE33:
 2887              	.LBE34:
 2888              	.LBE35:
 2889              		.loc 5 84 0
 2890 0230 E8000000 		call	__stack_chk_fail
 2890      00
 2891              	.L156:
 2892 0235 4881C4B8 		addq	$440, %rsp
 2892      010000
 2893 023c 5B       		popq	%rbx
 2894 023d 5D       		popq	%rbp
 2895              		.cfi_def_cfa 7, 8
 2896 023e C3       		ret
 2897              		.cfi_endproc
 2898              	.LFE1188:
 2899              		.section	.gcc_except_table
 2900              	.LLSDA1188:
 2901 024b FF       		.byte	0xff
 2902 024c FF       		.byte	0xff
 2903 024d 01       		.byte	0x1
 2904 024e 16       		.uleb128 .LLSDACSE1188-.LLSDACSB1188
 2905              	.LLSDACSB1188:
 2906 024f D301     		.uleb128 .LEHB99-.LFB1188
 2907 0251 05       		.uleb128 .LEHE99-.LEHB99
 2908 0252 00       		.uleb128 0
 2909 0253 00       		.uleb128 0
 2910 0254 E701     		.uleb128 .LEHB100-.LFB1188
 2911 0256 8C02     		.uleb128 .LEHE100-.LEHB100
 2912 0258 9304     		.uleb128 .L157-.LFB1188
 2913 025a 00       		.uleb128 0
 2914 025b FD03     		.uleb128 .LEHB101-.LFB1188
 2915 025d 05       		.uleb128 .LEHE101-.LEHB101
 2916 025e 00       		.uleb128 0
 2917 025f 00       		.uleb128 0
 2918 0260 AB04     		.uleb128 .LEHB102-.LFB1188
 2919 0262 05       		.uleb128 .LEHE102-.LEHB102
 2920 0263 00       		.uleb128 0
 2921 0264 00       		.uleb128 0
 2922              	.LLSDACSE1188:
 2923              		.section	.text._ZN8UnitTest15CheckArrayEqualIPKcPhEEvRNS_11TestResultsERKT_RKT0_iRKNS_11TestDetail
 2925              		.section	.text._ZNSt4fposI11__mbstate_tEC2Ev,"axG",@progbits,_ZNSt4fposI11__mbstate_tEC5Ev,comdat
 2926              		.align 2
 2927              		.weak	_ZNSt4fposI11__mbstate_tEC2Ev
 2929              	_ZNSt4fposI11__mbstate_tEC2Ev:
 2930              	.LFB1197:
 2931              		.file 6 "/usr/include/c++/4.9/bits/postypes.h"
   1:/usr/include/c++/4.9/bits/postypes.h **** // Position types -*- C++ -*-
   2:/usr/include/c++/4.9/bits/postypes.h **** 
   3:/usr/include/c++/4.9/bits/postypes.h **** // Copyright (C) 1997-2014 Free Software Foundation, Inc.
   4:/usr/include/c++/4.9/bits/postypes.h **** //
   5:/usr/include/c++/4.9/bits/postypes.h **** // This file is part of the GNU ISO C++ Library.  This library is free
   6:/usr/include/c++/4.9/bits/postypes.h **** // software; you can redistribute it and/or modify it under the
   7:/usr/include/c++/4.9/bits/postypes.h **** // terms of the GNU General Public License as published by the
   8:/usr/include/c++/4.9/bits/postypes.h **** // Free Software Foundation; either version 3, or (at your option)
   9:/usr/include/c++/4.9/bits/postypes.h **** // any later version.
  10:/usr/include/c++/4.9/bits/postypes.h **** 
  11:/usr/include/c++/4.9/bits/postypes.h **** // This library is distributed in the hope that it will be useful,
  12:/usr/include/c++/4.9/bits/postypes.h **** // but WITHOUT ANY WARRANTY; without even the implied warranty of
  13:/usr/include/c++/4.9/bits/postypes.h **** // MERCHANTABILITY or FITNESS FOR A PARTICULAR PURPOSE.  See the
  14:/usr/include/c++/4.9/bits/postypes.h **** // GNU General Public License for more details.
  15:/usr/include/c++/4.9/bits/postypes.h **** 
  16:/usr/include/c++/4.9/bits/postypes.h **** // Under Section 7 of GPL version 3, you are granted additional
  17:/usr/include/c++/4.9/bits/postypes.h **** // permissions described in the GCC Runtime Library Exception, version
  18:/usr/include/c++/4.9/bits/postypes.h **** // 3.1, as published by the Free Software Foundation.
  19:/usr/include/c++/4.9/bits/postypes.h **** 
  20:/usr/include/c++/4.9/bits/postypes.h **** // You should have received a copy of the GNU General Public License and
  21:/usr/include/c++/4.9/bits/postypes.h **** // a copy of the GCC Runtime Library Exception along with this program;
  22:/usr/include/c++/4.9/bits/postypes.h **** // see the files COPYING3 and COPYING.RUNTIME respectively.  If not, see
  23:/usr/include/c++/4.9/bits/postypes.h **** // <http://www.gnu.org/licenses/>.
  24:/usr/include/c++/4.9/bits/postypes.h **** 
  25:/usr/include/c++/4.9/bits/postypes.h **** /** @file bits/postypes.h
  26:/usr/include/c++/4.9/bits/postypes.h ****  *  This is an internal header file, included by other library headers.
  27:/usr/include/c++/4.9/bits/postypes.h ****  *  Do not attempt to use it directly. @headername{iosfwd}
  28:/usr/include/c++/4.9/bits/postypes.h ****  */
  29:/usr/include/c++/4.9/bits/postypes.h **** 
  30:/usr/include/c++/4.9/bits/postypes.h **** //
  31:/usr/include/c++/4.9/bits/postypes.h **** // ISO C++ 14882: 27.4.1 - Types
  32:/usr/include/c++/4.9/bits/postypes.h **** // ISO C++ 14882: 27.4.3 - Template class fpos
  33:/usr/include/c++/4.9/bits/postypes.h **** //
  34:/usr/include/c++/4.9/bits/postypes.h **** 
  35:/usr/include/c++/4.9/bits/postypes.h **** #ifndef _GLIBCXX_POSTYPES_H
  36:/usr/include/c++/4.9/bits/postypes.h **** #define _GLIBCXX_POSTYPES_H 1
  37:/usr/include/c++/4.9/bits/postypes.h **** 
  38:/usr/include/c++/4.9/bits/postypes.h **** #pragma GCC system_header
  39:/usr/include/c++/4.9/bits/postypes.h **** 
  40:/usr/include/c++/4.9/bits/postypes.h **** #include <cwchar> // For mbstate_t
  41:/usr/include/c++/4.9/bits/postypes.h **** 
  42:/usr/include/c++/4.9/bits/postypes.h **** // XXX If <stdint.h> is really needed, make sure to define the macros
  43:/usr/include/c++/4.9/bits/postypes.h **** // before including it, in order not to break <tr1/cstdint> (and <cstdint>
  44:/usr/include/c++/4.9/bits/postypes.h **** // in C++0x).  Reconsider all this as soon as possible...
  45:/usr/include/c++/4.9/bits/postypes.h **** #if (defined(_GLIBCXX_HAVE_INT64_T) && !defined(_GLIBCXX_HAVE_INT64_T_LONG) \
  46:/usr/include/c++/4.9/bits/postypes.h ****      && !defined(_GLIBCXX_HAVE_INT64_T_LONG_LONG))
  47:/usr/include/c++/4.9/bits/postypes.h **** 
  48:/usr/include/c++/4.9/bits/postypes.h **** #ifndef __STDC_LIMIT_MACROS
  49:/usr/include/c++/4.9/bits/postypes.h **** # define _UNDEF__STDC_LIMIT_MACROS
  50:/usr/include/c++/4.9/bits/postypes.h **** # define __STDC_LIMIT_MACROS
  51:/usr/include/c++/4.9/bits/postypes.h **** #endif
  52:/usr/include/c++/4.9/bits/postypes.h **** #ifndef __STDC_CONSTANT_MACROS
  53:/usr/include/c++/4.9/bits/postypes.h **** # define _UNDEF__STDC_CONSTANT_MACROS
  54:/usr/include/c++/4.9/bits/postypes.h **** # define __STDC_CONSTANT_MACROS
  55:/usr/include/c++/4.9/bits/postypes.h **** #endif
  56:/usr/include/c++/4.9/bits/postypes.h **** #include <stdint.h> // For int64_t
  57:/usr/include/c++/4.9/bits/postypes.h **** #ifdef _UNDEF__STDC_LIMIT_MACROS
  58:/usr/include/c++/4.9/bits/postypes.h **** # undef __STDC_LIMIT_MACROS
  59:/usr/include/c++/4.9/bits/postypes.h **** # undef _UNDEF__STDC_LIMIT_MACROS
  60:/usr/include/c++/4.9/bits/postypes.h **** #endif
  61:/usr/include/c++/4.9/bits/postypes.h **** #ifdef _UNDEF__STDC_CONSTANT_MACROS
  62:/usr/include/c++/4.9/bits/postypes.h **** # undef __STDC_CONSTANT_MACROS
  63:/usr/include/c++/4.9/bits/postypes.h **** # undef _UNDEF__STDC_CONSTANT_MACROS
  64:/usr/include/c++/4.9/bits/postypes.h **** #endif
  65:/usr/include/c++/4.9/bits/postypes.h **** 
  66:/usr/include/c++/4.9/bits/postypes.h **** #endif
  67:/usr/include/c++/4.9/bits/postypes.h **** 
  68:/usr/include/c++/4.9/bits/postypes.h **** namespace std _GLIBCXX_VISIBILITY(default)
  69:/usr/include/c++/4.9/bits/postypes.h **** {
  70:/usr/include/c++/4.9/bits/postypes.h **** _GLIBCXX_BEGIN_NAMESPACE_VERSION
  71:/usr/include/c++/4.9/bits/postypes.h **** 
  72:/usr/include/c++/4.9/bits/postypes.h ****   // The types streamoff, streampos and wstreampos and the class
  73:/usr/include/c++/4.9/bits/postypes.h ****   // template fpos<> are described in clauses 21.1.2, 21.1.3, 27.1.2,
  74:/usr/include/c++/4.9/bits/postypes.h ****   // 27.2, 27.4.1, 27.4.3 and D.6. Despite all this verbiage, the
  75:/usr/include/c++/4.9/bits/postypes.h ****   // behaviour of these types is mostly implementation defined or
  76:/usr/include/c++/4.9/bits/postypes.h ****   // unspecified. The behaviour in this implementation is as noted
  77:/usr/include/c++/4.9/bits/postypes.h ****   // below.
  78:/usr/include/c++/4.9/bits/postypes.h **** 
  79:/usr/include/c++/4.9/bits/postypes.h ****   /**
  80:/usr/include/c++/4.9/bits/postypes.h ****    *  @brief  Type used by fpos, char_traits<char>, and char_traits<wchar_t>.
  81:/usr/include/c++/4.9/bits/postypes.h ****    *
  82:/usr/include/c++/4.9/bits/postypes.h ****    *  In clauses 21.1.3.1 and 27.4.1 streamoff is described as an
  83:/usr/include/c++/4.9/bits/postypes.h ****    *  implementation defined type.
  84:/usr/include/c++/4.9/bits/postypes.h ****    *  Note: In versions of GCC up to and including GCC 3.3, streamoff
  85:/usr/include/c++/4.9/bits/postypes.h ****    *  was typedef long.
  86:/usr/include/c++/4.9/bits/postypes.h ****   */  
  87:/usr/include/c++/4.9/bits/postypes.h **** #ifdef _GLIBCXX_HAVE_INT64_T_LONG
  88:/usr/include/c++/4.9/bits/postypes.h ****   typedef long          streamoff;
  89:/usr/include/c++/4.9/bits/postypes.h **** #elif defined(_GLIBCXX_HAVE_INT64_T_LONG_LONG)
  90:/usr/include/c++/4.9/bits/postypes.h ****   typedef long long     streamoff;
  91:/usr/include/c++/4.9/bits/postypes.h **** #elif defined(_GLIBCXX_HAVE_INT64_T) 
  92:/usr/include/c++/4.9/bits/postypes.h ****   typedef int64_t       streamoff;
  93:/usr/include/c++/4.9/bits/postypes.h **** #else
  94:/usr/include/c++/4.9/bits/postypes.h ****   typedef long long     streamoff;
  95:/usr/include/c++/4.9/bits/postypes.h **** #endif
  96:/usr/include/c++/4.9/bits/postypes.h **** 
  97:/usr/include/c++/4.9/bits/postypes.h ****   /// Integral type for I/O operation counts and buffer sizes.
  98:/usr/include/c++/4.9/bits/postypes.h ****   typedef ptrdiff_t	streamsize; // Signed integral type
  99:/usr/include/c++/4.9/bits/postypes.h **** 
 100:/usr/include/c++/4.9/bits/postypes.h ****   /**
 101:/usr/include/c++/4.9/bits/postypes.h ****    *  @brief  Class representing stream positions.
 102:/usr/include/c++/4.9/bits/postypes.h ****    *
 103:/usr/include/c++/4.9/bits/postypes.h ****    *  The standard places no requirements upon the template parameter StateT.
 104:/usr/include/c++/4.9/bits/postypes.h ****    *  In this implementation StateT must be DefaultConstructible,
 105:/usr/include/c++/4.9/bits/postypes.h ****    *  CopyConstructible and Assignable.  The standard only requires that fpos
 106:/usr/include/c++/4.9/bits/postypes.h ****    *  should contain a member of type StateT. In this implementation it also
 107:/usr/include/c++/4.9/bits/postypes.h ****    *  contains an offset stored as a signed integer.
 108:/usr/include/c++/4.9/bits/postypes.h ****    *
 109:/usr/include/c++/4.9/bits/postypes.h ****    *  @param  StateT  Type passed to and returned from state().
 110:/usr/include/c++/4.9/bits/postypes.h ****    */
 111:/usr/include/c++/4.9/bits/postypes.h ****   template<typename _StateT>
 112:/usr/include/c++/4.9/bits/postypes.h ****     class fpos
 113:/usr/include/c++/4.9/bits/postypes.h ****     {
 114:/usr/include/c++/4.9/bits/postypes.h ****     private:
 115:/usr/include/c++/4.9/bits/postypes.h ****       streamoff	                _M_off;
 116:/usr/include/c++/4.9/bits/postypes.h ****       _StateT			_M_state;
 117:/usr/include/c++/4.9/bits/postypes.h **** 
 118:/usr/include/c++/4.9/bits/postypes.h ****     public:
 119:/usr/include/c++/4.9/bits/postypes.h ****       // The standard doesn't require that fpos objects can be default
 120:/usr/include/c++/4.9/bits/postypes.h ****       // constructed. This implementation provides a default
 121:/usr/include/c++/4.9/bits/postypes.h ****       // constructor that initializes the offset to 0 and default
 122:/usr/include/c++/4.9/bits/postypes.h ****       // constructs the state.
 123:/usr/include/c++/4.9/bits/postypes.h ****       fpos()
 2932              		.loc 6 123 0
 2933              		.cfi_startproc
 2934 0000 55       		pushq	%rbp
 2935              		.cfi_def_cfa_offset 16
 2936              		.cfi_offset 6, -16
 2937 0001 4889E5   		movq	%rsp, %rbp
 2938              		.cfi_def_cfa_register 6
 2939 0004 48897DF8 		movq	%rdi, -8(%rbp)
 2940              	.LBB36:
 124:/usr/include/c++/4.9/bits/postypes.h ****       : _M_off(0), _M_state() { }
 2941              		.loc 6 124 0
 2942 0008 488B45F8 		movq	-8(%rbp), %rax
 2943 000c 48C70000 		movq	$0, (%rax)
 2943      000000
 2944 0013 488B45F8 		movq	-8(%rbp), %rax
 2945 0017 C7400800 		movl	$0, 8(%rax)
 2945      000000
 2946 001e 488B45F8 		movq	-8(%rbp), %rax
 2947 0022 C7400C00 		movl	$0, 12(%rax)
 2947      000000
 2948              	.LBE36:
 2949 0029 5D       		popq	%rbp
 2950              		.cfi_def_cfa 7, 8
 2951 002a C3       		ret
 2952              		.cfi_endproc
 2953              	.LFE1197:
 2955              		.weak	_ZNSt4fposI11__mbstate_tEC1Ev
 2956              		.set	_ZNSt4fposI11__mbstate_tEC1Ev,_ZNSt4fposI11__mbstate_tEC2Ev
 2957              		.section	.text._ZN8UnitTest5CheckIbEEbT_,"axG",@progbits,_ZN8UnitTest5CheckIbEEbT_,comdat
 2958              		.weak	_ZN8UnitTest5CheckIbEEbT_
 2960              	_ZN8UnitTest5CheckIbEEbT_:
 2961              	.LFB1201:
  12:/home/asoreyh/Dropbox/projects/lago/lago-software/acqua/brc/lago/makestuff/libs/libutpp/Checks.h **** {
 2962              		.loc 5 12 0
 2963              		.cfi_startproc
 2964 0000 55       		pushq	%rbp
 2965              		.cfi_def_cfa_offset 16
 2966              		.cfi_offset 6, -16
 2967 0001 4889E5   		movq	%rsp, %rbp
 2968              		.cfi_def_cfa_register 6
 2969 0004 89F8     		movl	%edi, %eax
 2970 0006 8845FC   		movb	%al, -4(%rbp)
  14:/home/asoreyh/Dropbox/projects/lago/lago-software/acqua/brc/lago/makestuff/libs/libutpp/Checks.h **** }
 2971              		.loc 5 14 0
 2972 0009 0FB645FC 		movzbl	-4(%rbp), %eax
  15:/home/asoreyh/Dropbox/projects/lago/lago-software/acqua/brc/lago/makestuff/libs/libutpp/Checks.h **** 
 2973              		.loc 5 15 0
 2974 000d 5D       		popq	%rbp
 2975              		.cfi_def_cfa 7, 8
 2976 000e C3       		ret
 2977              		.cfi_endproc
 2978              	.LFE1201:
 2980              		.section	.text._ZNKSt4fposI11__mbstate_tEcvlEv,"axG",@progbits,_ZNKSt4fposI11__mbstate_tEcvlEv,com
 2981              		.align 2
 2982              		.weak	_ZNKSt4fposI11__mbstate_tEcvlEv
 2984              	_ZNKSt4fposI11__mbstate_tEcvlEv:
 2985              	.LFB1202:
 125:/usr/include/c++/4.9/bits/postypes.h **** 
 126:/usr/include/c++/4.9/bits/postypes.h ****       // The standard requires that fpos objects can be constructed
 127:/usr/include/c++/4.9/bits/postypes.h ****       // from streamoff objects using the constructor syntax, and
 128:/usr/include/c++/4.9/bits/postypes.h ****       // fails to give any meaningful semantics. In this
 129:/usr/include/c++/4.9/bits/postypes.h ****       // implementation implicit conversion is also allowed, and this
 130:/usr/include/c++/4.9/bits/postypes.h ****       // constructor stores the streamoff as the offset and default
 131:/usr/include/c++/4.9/bits/postypes.h ****       // constructs the state.
 132:/usr/include/c++/4.9/bits/postypes.h ****       /// Construct position from offset.
 133:/usr/include/c++/4.9/bits/postypes.h ****       fpos(streamoff __off)
 134:/usr/include/c++/4.9/bits/postypes.h ****       : _M_off(__off), _M_state() { }
 135:/usr/include/c++/4.9/bits/postypes.h **** 
 136:/usr/include/c++/4.9/bits/postypes.h ****       /// Convert to streamoff.
 137:/usr/include/c++/4.9/bits/postypes.h ****       operator streamoff() const { return _M_off; }
 2986              		.loc 6 137 0
 2987              		.cfi_startproc
 2988 0000 55       		pushq	%rbp
 2989              		.cfi_def_cfa_offset 16
 2990              		.cfi_offset 6, -16
 2991 0001 4889E5   		movq	%rsp, %rbp
 2992              		.cfi_def_cfa_register 6
 2993 0004 48897DF8 		movq	%rdi, -8(%rbp)
 2994              		.loc 6 137 0
 2995 0008 488B45F8 		movq	-8(%rbp), %rax
 2996 000c 488B00   		movq	(%rax), %rax
 2997 000f 5D       		popq	%rbp
 2998              		.cfi_def_cfa 7, 8
 2999 0010 C3       		ret
 3000              		.cfi_endproc
 3001              	.LFE1202:
 3003              		.section	.text._ZN8UnitTest10CheckEqualImmEEvRNS_11TestResultsERKT_RKT0_RKNS_11TestDetailsE,"axG",
 3004              		.weak	_ZN8UnitTest10CheckEqualImmEEvRNS_11TestResultsERKT_RKT0_RKNS_11TestDetailsE
 3006              	_ZN8UnitTest10CheckEqualImmEEvRNS_11TestResultsERKT_RKT0_RKNS_11TestDetailsE:
 3007              	.LFB1203:
  19:/home/asoreyh/Dropbox/projects/lago/lago-software/acqua/brc/lago/makestuff/libs/libutpp/Checks.h **** {
 3008              		.loc 5 19 0
 3009              		.cfi_startproc
 3010              		.cfi_personality 0x3,__gxx_personality_v0
 3011              		.cfi_lsda 0x3,.LLSDA1203
 3012 0000 55       		pushq	%rbp
 3013              		.cfi_def_cfa_offset 16
 3014              		.cfi_offset 6, -16
 3015 0001 4889E5   		movq	%rsp, %rbp
 3016              		.cfi_def_cfa_register 6
 3017 0004 4154     		pushq	%r12
 3018 0006 53       		pushq	%rbx
 3019 0007 4881EC90 		subq	$400, %rsp
 3019      010000
 3020              		.cfi_offset 12, -24
 3021              		.cfi_offset 3, -32
 3022 000e 4889BD78 		movq	%rdi, -392(%rbp)
 3022      FEFFFF
 3023 0015 4889B570 		movq	%rsi, -400(%rbp)
 3023      FEFFFF
 3024 001c 48899568 		movq	%rdx, -408(%rbp)
 3024      FEFFFF
 3025 0023 48898D60 		movq	%rcx, -416(%rbp)
 3025      FEFFFF
  19:/home/asoreyh/Dropbox/projects/lago/lago-software/acqua/brc/lago/makestuff/libs/libutpp/Checks.h **** {
 3026              		.loc 5 19 0
 3027 002a 64488B04 		movq	%fs:40, %rax
 3027      25280000 
 3027      00
 3028 0033 488945E8 		movq	%rax, -24(%rbp)
 3029 0037 31C0     		xorl	%eax, %eax
 3030              	.LBB37:
 3031              	.LBB38:
  21:/home/asoreyh/Dropbox/projects/lago/lago-software/acqua/brc/lago/makestuff/libs/libutpp/Checks.h ****     {
 3032              		.loc 5 21 0
 3033 0039 488B8570 		movq	-400(%rbp), %rax
 3033      FEFFFF
 3034 0040 488B10   		movq	(%rax), %rdx
 3035 0043 488B8568 		movq	-408(%rbp), %rax
 3035      FEFFFF
 3036 004a 488B00   		movq	(%rax), %rax
 3037 004d 4839C2   		cmpq	%rax, %rdx
 3038 0050 0F849400 		je	.L165
 3038      0000
 3039              	.LBB39:
  23:/home/asoreyh/Dropbox/projects/lago/lago-software/acqua/brc/lago/makestuff/libs/libutpp/Checks.h ****         stream << "Expected " << expected << " but was " << actual;
 3040              		.loc 5 23 0
 3041 0056 488D8580 		leaq	-384(%rbp), %rax
 3041      FEFFFF
 3042 005d 4889C7   		movq	%rax, %rdi
 3043              	.LEHB103:
 3044 0060 E8000000 		call	_ZN8UnitTest15MemoryOutStreamC1Ev
 3044      00
 3045              	.LEHE103:
  24:/home/asoreyh/Dropbox/projects/lago/lago-software/acqua/brc/lago/makestuff/libs/libutpp/Checks.h **** 
 3046              		.loc 5 24 0
 3047 0065 488B8568 		movq	-408(%rbp), %rax
 3047      FEFFFF
 3048 006c 488B18   		movq	(%rax), %rbx
 3049 006f 488B8570 		movq	-400(%rbp), %rax
 3049      FEFFFF
 3050 0076 4C8B20   		movq	(%rax), %r12
 3051 0079 488D8580 		leaq	-384(%rbp), %rax
 3051      FEFFFF
 3052 0080 BE000000 		movl	$.LC20, %esi
 3052      00
 3053 0085 4889C7   		movq	%rax, %rdi
 3054              	.LEHB104:
 3055 0088 E8000000 		call	_ZStlsISt11char_traitsIcEERSt13basic_ostreamIcT_ES5_PKc
 3055      00
 3056 008d 4C89E6   		movq	%r12, %rsi
 3057 0090 4889C7   		movq	%rax, %rdi
 3058 0093 E8000000 		call	_ZNSolsEm
 3058      00
  24:/home/asoreyh/Dropbox/projects/lago/lago-software/acqua/brc/lago/makestuff/libs/libutpp/Checks.h **** 
 3059              		.loc 5 24 0 is_stmt 0 discriminator 1
 3060 0098 BE000000 		movl	$.LC21, %esi
 3060      00
 3061 009d 4889C7   		movq	%rax, %rdi
 3062 00a0 E8000000 		call	_ZStlsISt11char_traitsIcEERSt13basic_ostreamIcT_ES5_PKc
 3062      00
  24:/home/asoreyh/Dropbox/projects/lago/lago-software/acqua/brc/lago/makestuff/libs/libutpp/Checks.h **** 
 3063              		.loc 5 24 0 discriminator 2
 3064 00a5 4889DE   		movq	%rbx, %rsi
 3065 00a8 4889C7   		movq	%rax, %rdi
 3066 00ab E8000000 		call	_ZNSolsEm
 3066      00
  26:/home/asoreyh/Dropbox/projects/lago/lago-software/acqua/brc/lago/makestuff/libs/libutpp/Checks.h ****     }
 3067              		.loc 5 26 0 is_stmt 1
 3068 00b0 488D8580 		leaq	-384(%rbp), %rax
 3068      FEFFFF
 3069 00b7 4889C7   		movq	%rax, %rdi
 3070 00ba E8000000 		call	_ZNK8UnitTest15MemoryOutStream7GetTextEv
 3070      00
 3071 00bf 4889C2   		movq	%rax, %rdx
 3072 00c2 488B8D60 		movq	-416(%rbp), %rcx
 3072      FEFFFF
 3073 00c9 488B8578 		movq	-392(%rbp), %rax
 3073      FEFFFF
 3074 00d0 4889CE   		movq	%rcx, %rsi
 3075 00d3 4889C7   		movq	%rax, %rdi
 3076 00d6 E8000000 		call	_ZN8UnitTest11TestResults13OnTestFailureERKNS_11TestDetailsEPKc
 3076      00
 3077              	.LEHE104:
  26:/home/asoreyh/Dropbox/projects/lago/lago-software/acqua/brc/lago/makestuff/libs/libutpp/Checks.h ****     }
 3078              		.loc 5 26 0 is_stmt 0 discriminator 4
 3079 00db 488D8580 		leaq	-384(%rbp), %rax
 3079      FEFFFF
 3080 00e2 4889C7   		movq	%rax, %rdi
 3081              	.LEHB105:
 3082 00e5 E8000000 		call	_ZN8UnitTest15MemoryOutStreamD1Ev
 3082      00
 3083              	.LEHE105:
 3084              	.L165:
 3085              	.LBE39:
 3086              	.LBE38:
 3087              	.LBE37:
  28:/home/asoreyh/Dropbox/projects/lago/lago-software/acqua/brc/lago/makestuff/libs/libutpp/Checks.h **** 
 3088              		.loc 5 28 0 is_stmt 1
 3089 00ea 488B45E8 		movq	-24(%rbp), %rax
 3090 00ee 64483304 		xorq	%fs:40, %rax
 3090      25280000 
 3090      00
 3091 00f7 7424     		je	.L167
 3092 00f9 EB1D     		jmp	.L169
 3093              	.L168:
 3094 00fb 4889C3   		movq	%rax, %rbx
 3095              	.LBB42:
 3096              	.LBB41:
 3097              	.LBB40:
  26:/home/asoreyh/Dropbox/projects/lago/lago-software/acqua/brc/lago/makestuff/libs/libutpp/Checks.h ****     }
 3098              		.loc 5 26 0
 3099 00fe 488D8580 		leaq	-384(%rbp), %rax
 3099      FEFFFF
 3100 0105 4889C7   		movq	%rax, %rdi
 3101 0108 E8000000 		call	_ZN8UnitTest15MemoryOutStreamD1Ev
 3101      00
 3102 010d 4889D8   		movq	%rbx, %rax
 3103 0110 4889C7   		movq	%rax, %rdi
 3104              	.LEHB106:
 3105 0113 E8000000 		call	_Unwind_Resume
 3105      00
 3106              	.LEHE106:
 3107              	.L169:
 3108              	.LBE40:
 3109              	.LBE41:
 3110              	.LBE42:
  28:/home/asoreyh/Dropbox/projects/lago/lago-software/acqua/brc/lago/makestuff/libs/libutpp/Checks.h **** 
 3111              		.loc 5 28 0
 3112 0118 E8000000 		call	__stack_chk_fail
 3112      00
 3113              	.L167:
 3114 011d 4881C490 		addq	$400, %rsp
 3114      010000
 3115 0124 5B       		popq	%rbx
 3116 0125 415C     		popq	%r12
 3117 0127 5D       		popq	%rbp
 3118              		.cfi_def_cfa 7, 8
 3119 0128 C3       		ret
 3120              		.cfi_endproc
 3121              	.LFE1203:
 3122              		.section	.gcc_except_table
 3123              	.LLSDA1203:
 3124 0265 FF       		.byte	0xff
 3125 0266 FF       		.byte	0xff
 3126 0267 01       		.byte	0x1
 3127 0268 14       		.uleb128 .LLSDACSE1203-.LLSDACSB1203
 3128              	.LLSDACSB1203:
 3129 0269 60       		.uleb128 .LEHB103-.LFB1203
 3130 026a 05       		.uleb128 .LEHE103-.LEHB103
 3131 026b 00       		.uleb128 0
 3132 026c 00       		.uleb128 0
 3133 026d 8801     		.uleb128 .LEHB104-.LFB1203
 3134 026f 53       		.uleb128 .LEHE104-.LEHB104
 3135 0270 FB01     		.uleb128 .L168-.LFB1203
 3136 0272 00       		.uleb128 0
 3137 0273 E501     		.uleb128 .LEHB105-.LFB1203
 3138 0275 05       		.uleb128 .LEHE105-.LEHB105
 3139 0276 00       		.uleb128 0
 3140 0277 00       		.uleb128 0
 3141 0278 9302     		.uleb128 .LEHB106-.LFB1203
 3142 027a 05       		.uleb128 .LEHE106-.LEHB106
 3143 027b 00       		.uleb128 0
 3144 027c 00       		.uleb128 0
 3145              	.LLSDACSE1203:
 3146              		.section	.text._ZN8UnitTest10CheckEqualImmEEvRNS_11TestResultsERKT_RKT0_RKNS_11TestDetailsE,"axG",
 3148              		.section	.text._ZN8UnitTest15CheckArrayEqualIPKcPcEEvRNS_11TestResultsERKT_RKT0_iRKNS_11TestDetail
 3149              		.weak	_ZN8UnitTest15CheckArrayEqualIPKcPcEEvRNS_11TestResultsERKT_RKT0_iRKNS_11TestDetailsE
 3151              	_ZN8UnitTest15CheckArrayEqualIPKcPcEEvRNS_11TestResultsERKT_RKT0_iRKNS_11TestDetailsE:
 3152              	.LFB1205:
  59:/home/asoreyh/Dropbox/projects/lago/lago-software/acqua/brc/lago/makestuff/libs/libutpp/Checks.h ****                 int const count, TestDetails const& details)
 3153              		.loc 5 59 0
 3154              		.cfi_startproc
 3155              		.cfi_personality 0x3,__gxx_personality_v0
 3156              		.cfi_lsda 0x3,.LLSDA1205
 3157 0000 55       		pushq	%rbp
 3158              		.cfi_def_cfa_offset 16
 3159              		.cfi_offset 6, -16
 3160 0001 4889E5   		movq	%rsp, %rbp
 3161              		.cfi_def_cfa_register 6
 3162 0004 53       		pushq	%rbx
 3163 0005 4881ECB8 		subq	$440, %rsp
 3163      010000
 3164              		.cfi_offset 3, -24
 3165 000c 4889BD68 		movq	%rdi, -408(%rbp)
 3165      FEFFFF
 3166 0013 4889B560 		movq	%rsi, -416(%rbp)
 3166      FEFFFF
 3167 001a 48899558 		movq	%rdx, -424(%rbp)
 3167      FEFFFF
 3168 0021 898D54FE 		movl	%ecx, -428(%rbp)
 3168      FFFF
 3169 0027 4C898548 		movq	%r8, -440(%rbp)
 3169      FEFFFF
  59:/home/asoreyh/Dropbox/projects/lago/lago-software/acqua/brc/lago/makestuff/libs/libutpp/Checks.h ****                 int const count, TestDetails const& details)
 3170              		.loc 5 59 0
 3171 002e 64488B04 		movq	%fs:40, %rax
 3171      25280000 
 3171      00
 3172 0037 488945E8 		movq	%rax, -24(%rbp)
 3173 003b 31C0     		xorl	%eax, %eax
 3174              	.LBB43:
  62:/home/asoreyh/Dropbox/projects/lago/lago-software/acqua/brc/lago/makestuff/libs/libutpp/Checks.h ****     for (int i = 0; i < count; ++i)
 3175              		.loc 5 62 0
 3176 003d C68573FE 		movb	$1, -397(%rbp)
 3176      FFFF01
 3177              	.LBB44:
  63:/home/asoreyh/Dropbox/projects/lago/lago-software/acqua/brc/lago/makestuff/libs/libutpp/Checks.h ****         equal &= (expected[i] == actual[i]);
 3178              		.loc 5 63 0
 3179 0044 C78574FE 		movl	$0, -396(%rbp)
 3179      FFFF0000 
 3179      0000
 3180 004e EB53     		jmp	.L171
 3181              	.L172:
  64:/home/asoreyh/Dropbox/projects/lago/lago-software/acqua/brc/lago/makestuff/libs/libutpp/Checks.h **** 
 3182              		.loc 5 64 0 discriminator 3
 3183 0050 0FB69573 		movzbl	-397(%rbp), %edx
 3183      FEFFFF
 3184 0057 488B8560 		movq	-416(%rbp), %rax
 3184      FEFFFF
 3185 005e 488B08   		movq	(%rax), %rcx
 3186 0061 8B8574FE 		movl	-396(%rbp), %eax
 3186      FFFF
 3187 0067 4898     		cltq
 3188 0069 4801C8   		addq	%rcx, %rax
 3189 006c 0FB608   		movzbl	(%rax), %ecx
 3190 006f 488B8558 		movq	-424(%rbp), %rax
 3190      FEFFFF
 3191 0076 488B30   		movq	(%rax), %rsi
 3192 0079 8B8574FE 		movl	-396(%rbp), %eax
 3192      FFFF
 3193 007f 4898     		cltq
 3194 0081 4801F0   		addq	%rsi, %rax
 3195 0084 0FB600   		movzbl	(%rax), %eax
 3196 0087 38C1     		cmpb	%al, %cl
 3197 0089 0F94C0   		sete	%al
 3198 008c 0FB6C0   		movzbl	%al, %eax
 3199 008f 21D0     		andl	%edx, %eax
 3200 0091 85C0     		testl	%eax, %eax
 3201 0093 0F95C0   		setne	%al
 3202 0096 888573FE 		movb	%al, -397(%rbp)
 3202      FFFF
  63:/home/asoreyh/Dropbox/projects/lago/lago-software/acqua/brc/lago/makestuff/libs/libutpp/Checks.h ****         equal &= (expected[i] == actual[i]);
 3203              		.loc 5 63 0 discriminator 3
 3204 009c 838574FE 		addl	$1, -396(%rbp)
 3204      FFFF01
 3205              	.L171:
  63:/home/asoreyh/Dropbox/projects/lago/lago-software/acqua/brc/lago/makestuff/libs/libutpp/Checks.h ****         equal &= (expected[i] == actual[i]);
 3206              		.loc 5 63 0 is_stmt 0 discriminator 1
 3207 00a3 8B8574FE 		movl	-396(%rbp), %eax
 3207      FFFF
 3208 00a9 3B8554FE 		cmpl	-428(%rbp), %eax
 3208      FFFF
 3209 00af 7C9F     		jl	.L172
 3210              	.LBE44:
 3211              	.LBB45:
  66:/home/asoreyh/Dropbox/projects/lago/lago-software/acqua/brc/lago/makestuff/libs/libutpp/Checks.h ****     {
 3212              		.loc 5 66 0 is_stmt 1
 3213 00b1 0FB68573 		movzbl	-397(%rbp), %eax
 3213      FEFFFF
 3214 00b8 83F001   		xorl	$1, %eax
 3215 00bb 84C0     		testb	%al, %al
 3216 00bd 0F843901 		je	.L173
 3216      0000
 3217              	.LBB46:
  68:/home/asoreyh/Dropbox/projects/lago/lago-software/acqua/brc/lago/makestuff/libs/libutpp/Checks.h **** 
 3218              		.loc 5 68 0
 3219 00c3 488D8580 		leaq	-384(%rbp), %rax
 3219      FEFFFF
 3220 00ca 4889C7   		movq	%rax, %rdi
 3221              	.LEHB107:
 3222 00cd E8000000 		call	_ZN8UnitTest15MemoryOutStreamC1Ev
 3222      00
 3223              	.LEHE107:
  70:/home/asoreyh/Dropbox/projects/lago/lago-software/acqua/brc/lago/makestuff/libs/libutpp/Checks.h **** 
 3224              		.loc 5 70 0
 3225 00d2 488D8580 		leaq	-384(%rbp), %rax
 3225      FEFFFF
 3226 00d9 BE000000 		movl	$.LC22, %esi
 3226      00
 3227 00de 4889C7   		movq	%rax, %rdi
 3228              	.LEHB108:
 3229 00e1 E8000000 		call	_ZStlsISt11char_traitsIcEERSt13basic_ostreamIcT_ES5_PKc
 3229      00
 3230              	.LBB47:
  72:/home/asoreyh/Dropbox/projects/lago/lago-software/acqua/brc/lago/makestuff/libs/libutpp/Checks.h ****             stream << expected[expectedIndex] << " ";
 3231              		.loc 5 72 0
 3232 00e6 C78578FE 		movl	$0, -392(%rbp)
 3232      FFFF0000 
 3232      0000
 3233 00f0 EB40     		jmp	.L174
 3234              	.L175:
  73:/home/asoreyh/Dropbox/projects/lago/lago-software/acqua/brc/lago/makestuff/libs/libutpp/Checks.h **** 
 3235              		.loc 5 73 0
 3236 00f2 488B8560 		movq	-416(%rbp), %rax
 3236      FEFFFF
 3237 00f9 488B10   		movq	(%rax), %rdx
 3238 00fc 8B8578FE 		movl	-392(%rbp), %eax
 3238      FFFF
 3239 0102 4898     		cltq
 3240 0104 4801D0   		addq	%rdx, %rax
 3241 0107 0FB600   		movzbl	(%rax), %eax
 3242 010a 0FBED0   		movsbl	%al, %edx
 3243 010d 488D8580 		leaq	-384(%rbp), %rax
 3243      FEFFFF
 3244 0114 89D6     		movl	%edx, %esi
 3245 0116 4889C7   		movq	%rax, %rdi
 3246 0119 E8000000 		call	_ZStlsISt11char_traitsIcEERSt13basic_ostreamIcT_ES5_c
 3246      00
 3247 011e BE000000 		movl	$.LC23, %esi
 3247      00
 3248 0123 4889C7   		movq	%rax, %rdi
 3249 0126 E8000000 		call	_ZStlsISt11char_traitsIcEERSt13basic_ostreamIcT_ES5_PKc
 3249      00
  72:/home/asoreyh/Dropbox/projects/lago/lago-software/acqua/brc/lago/makestuff/libs/libutpp/Checks.h ****             stream << expected[expectedIndex] << " ";
 3250              		.loc 5 72 0 discriminator 2
 3251 012b 838578FE 		addl	$1, -392(%rbp)
 3251      FFFF01
 3252              	.L174:
  72:/home/asoreyh/Dropbox/projects/lago/lago-software/acqua/brc/lago/makestuff/libs/libutpp/Checks.h ****             stream << expected[expectedIndex] << " ";
 3253              		.loc 5 72 0 is_stmt 0 discriminator 1
 3254 0132 8B8578FE 		movl	-392(%rbp), %eax
 3254      FFFF
 3255 0138 3B8554FE 		cmpl	-428(%rbp), %eax
 3255      FFFF
 3256 013e 7CB2     		jl	.L175
 3257              	.LBE47:
  75:/home/asoreyh/Dropbox/projects/lago/lago-software/acqua/brc/lago/makestuff/libs/libutpp/Checks.h **** 
 3258              		.loc 5 75 0 is_stmt 1
 3259 0140 488D8580 		leaq	-384(%rbp), %rax
 3259      FEFFFF
 3260 0147 BE000000 		movl	$.LC24, %esi
 3260      00
 3261 014c 4889C7   		movq	%rax, %rdi
 3262 014f E8000000 		call	_ZStlsISt11char_traitsIcEERSt13basic_ostreamIcT_ES5_PKc
 3262      00
 3263              	.LBB48:
  77:/home/asoreyh/Dropbox/projects/lago/lago-software/acqua/brc/lago/makestuff/libs/libutpp/Checks.h ****             stream << actual[actualIndex] << " ";
 3264              		.loc 5 77 0
 3265 0154 C7857CFE 		movl	$0, -388(%rbp)
 3265      FFFF0000 
 3265      0000
 3266 015e EB40     		jmp	.L176
 3267              	.L177:
  78:/home/asoreyh/Dropbox/projects/lago/lago-software/acqua/brc/lago/makestuff/libs/libutpp/Checks.h **** 
 3268              		.loc 5 78 0
 3269 0160 488B8558 		movq	-424(%rbp), %rax
 3269      FEFFFF
 3270 0167 488B10   		movq	(%rax), %rdx
 3271 016a 8B857CFE 		movl	-388(%rbp), %eax
 3271      FFFF
 3272 0170 4898     		cltq
 3273 0172 4801D0   		addq	%rdx, %rax
 3274 0175 0FB600   		movzbl	(%rax), %eax
 3275 0178 0FBED0   		movsbl	%al, %edx
 3276 017b 488D8580 		leaq	-384(%rbp), %rax
 3276      FEFFFF
 3277 0182 89D6     		movl	%edx, %esi
 3278 0184 4889C7   		movq	%rax, %rdi
 3279 0187 E8000000 		call	_ZStlsISt11char_traitsIcEERSt13basic_ostreamIcT_ES5_c
 3279      00
 3280 018c BE000000 		movl	$.LC23, %esi
 3280      00
 3281 0191 4889C7   		movq	%rax, %rdi
 3282 0194 E8000000 		call	_ZStlsISt11char_traitsIcEERSt13basic_ostreamIcT_ES5_PKc
 3282      00
  77:/home/asoreyh/Dropbox/projects/lago/lago-software/acqua/brc/lago/makestuff/libs/libutpp/Checks.h ****             stream << actual[actualIndex] << " ";
 3283              		.loc 5 77 0 discriminator 2
 3284 0199 83857CFE 		addl	$1, -388(%rbp)
 3284      FFFF01
 3285              	.L176:
  77:/home/asoreyh/Dropbox/projects/lago/lago-software/acqua/brc/lago/makestuff/libs/libutpp/Checks.h ****             stream << actual[actualIndex] << " ";
 3286              		.loc 5 77 0 is_stmt 0 discriminator 1
 3287 01a0 8B857CFE 		movl	-388(%rbp), %eax
 3287      FFFF
 3288 01a6 3B8554FE 		cmpl	-428(%rbp), %eax
 3288      FFFF
 3289 01ac 7CB2     		jl	.L177
 3290              	.LBE48:
  80:/home/asoreyh/Dropbox/projects/lago/lago-software/acqua/brc/lago/makestuff/libs/libutpp/Checks.h **** 
 3291              		.loc 5 80 0 is_stmt 1
 3292 01ae 488D8580 		leaq	-384(%rbp), %rax
 3292      FEFFFF
 3293 01b5 BE000000 		movl	$.LC25, %esi
 3293      00
 3294 01ba 4889C7   		movq	%rax, %rdi
 3295 01bd E8000000 		call	_ZStlsISt11char_traitsIcEERSt13basic_ostreamIcT_ES5_PKc
 3295      00
  82:/home/asoreyh/Dropbox/projects/lago/lago-software/acqua/brc/lago/makestuff/libs/libutpp/Checks.h ****     }
 3296              		.loc 5 82 0
 3297 01c2 488D8580 		leaq	-384(%rbp), %rax
 3297      FEFFFF
 3298 01c9 4889C7   		movq	%rax, %rdi
 3299 01cc E8000000 		call	_ZNK8UnitTest15MemoryOutStream7GetTextEv
 3299      00
 3300 01d1 4889C2   		movq	%rax, %rdx
 3301 01d4 488B8D48 		movq	-440(%rbp), %rcx
 3301      FEFFFF
 3302 01db 488B8568 		movq	-408(%rbp), %rax
 3302      FEFFFF
 3303 01e2 4889CE   		movq	%rcx, %rsi
 3304 01e5 4889C7   		movq	%rax, %rdi
 3305 01e8 E8000000 		call	_ZN8UnitTest11TestResults13OnTestFailureERKNS_11TestDetailsEPKc
 3305      00
 3306              	.LEHE108:
  82:/home/asoreyh/Dropbox/projects/lago/lago-software/acqua/brc/lago/makestuff/libs/libutpp/Checks.h ****     }
 3307              		.loc 5 82 0 is_stmt 0 discriminator 4
 3308 01ed 488D8580 		leaq	-384(%rbp), %rax
 3308      FEFFFF
 3309 01f4 4889C7   		movq	%rax, %rdi
 3310              	.LEHB109:
 3311 01f7 E8000000 		call	_ZN8UnitTest15MemoryOutStreamD1Ev
 3311      00
 3312              	.LEHE109:
 3313              	.L173:
 3314              	.LBE46:
 3315              	.LBE45:
 3316              	.LBE43:
 3317              		.loc 5 84 0 is_stmt 1
 3318 01fc 488B45E8 		movq	-24(%rbp), %rax
 3319 0200 64483304 		xorq	%fs:40, %rax
 3319      25280000 
 3319      00
 3320 0209 7424     		je	.L179
 3321 020b EB1D     		jmp	.L181
 3322              	.L180:
 3323 020d 4889C3   		movq	%rax, %rbx
 3324              	.LBB51:
 3325              	.LBB50:
 3326              	.LBB49:
  82:/home/asoreyh/Dropbox/projects/lago/lago-software/acqua/brc/lago/makestuff/libs/libutpp/Checks.h ****     }
 3327              		.loc 5 82 0
 3328 0210 488D8580 		leaq	-384(%rbp), %rax
 3328      FEFFFF
 3329 0217 4889C7   		movq	%rax, %rdi
 3330 021a E8000000 		call	_ZN8UnitTest15MemoryOutStreamD1Ev
 3330      00
 3331 021f 4889D8   		movq	%rbx, %rax
 3332 0222 4889C7   		movq	%rax, %rdi
 3333              	.LEHB110:
 3334 0225 E8000000 		call	_Unwind_Resume
 3334      00
 3335              	.LEHE110:
 3336              	.L181:
 3337              	.LBE49:
 3338              	.LBE50:
 3339              	.LBE51:
 3340              		.loc 5 84 0
 3341 022a E8000000 		call	__stack_chk_fail
 3341      00
 3342              	.L179:
 3343 022f 4881C4B8 		addq	$440, %rsp
 3343      010000
 3344 0236 5B       		popq	%rbx
 3345 0237 5D       		popq	%rbp
 3346              		.cfi_def_cfa 7, 8
 3347 0238 C3       		ret
 3348              		.cfi_endproc
 3349              	.LFE1205:
 3350              		.section	.gcc_except_table
 3351              	.LLSDA1205:
 3352 027d FF       		.byte	0xff
 3353 027e FF       		.byte	0xff
 3354 027f 01       		.byte	0x1
 3355 0280 16       		.uleb128 .LLSDACSE1205-.LLSDACSB1205
 3356              	.LLSDACSB1205:
 3357 0281 CD01     		.uleb128 .LEHB107-.LFB1205
 3358 0283 05       		.uleb128 .LEHE107-.LEHB107
 3359 0284 00       		.uleb128 0
 3360 0285 00       		.uleb128 0
 3361 0286 E101     		.uleb128 .LEHB108-.LFB1205
 3362 0288 8C02     		.uleb128 .LEHE108-.LEHB108
 3363 028a 8D04     		.uleb128 .L180-.LFB1205
 3364 028c 00       		.uleb128 0
 3365 028d F703     		.uleb128 .LEHB109-.LFB1205
 3366 028f 05       		.uleb128 .LEHE109-.LEHB109
 3367 0290 00       		.uleb128 0
 3368 0291 00       		.uleb128 0
 3369 0292 A504     		.uleb128 .LEHB110-.LFB1205
 3370 0294 05       		.uleb128 .LEHE110-.LEHB110
 3371 0295 00       		.uleb128 0
 3372 0296 00       		.uleb128 0
 3373              	.LLSDACSE1205:
 3374              		.section	.text._ZN8UnitTest15CheckArrayEqualIPKcPcEEvRNS_11TestResultsERKT_RKT0_iRKNS_11TestDetail
 3376              		.section	.text._ZN8UnitTest10CheckEqualIiSt4fposI11__mbstate_tEEEvRNS_11TestResultsERKT_RKT0_RKNS_
 3377              		.weak	_ZN8UnitTest10CheckEqualIiSt4fposI11__mbstate_tEEEvRNS_11TestResultsERKT_RKT0_RKNS_11TestDet
 3379              	_ZN8UnitTest10CheckEqualIiSt4fposI11__mbstate_tEEEvRNS_11TestResultsERKT_RKT0_RKNS_11TestDetailsE:
 3380              	.LFB1206:
  19:/home/asoreyh/Dropbox/projects/lago/lago-software/acqua/brc/lago/makestuff/libs/libutpp/Checks.h **** {
 3381              		.loc 5 19 0
 3382              		.cfi_startproc
 3383              		.cfi_personality 0x3,__gxx_personality_v0
 3384              		.cfi_lsda 0x3,.LLSDA1206
 3385 0000 55       		pushq	%rbp
 3386              		.cfi_def_cfa_offset 16
 3387              		.cfi_offset 6, -16
 3388 0001 4889E5   		movq	%rsp, %rbp
 3389              		.cfi_def_cfa_register 6
 3390 0004 4154     		pushq	%r12
 3391 0006 53       		pushq	%rbx
 3392 0007 4881EC90 		subq	$400, %rsp
 3392      010000
 3393              		.cfi_offset 12, -24
 3394              		.cfi_offset 3, -32
 3395 000e 4889BD78 		movq	%rdi, -392(%rbp)
 3395      FEFFFF
 3396 0015 4889B570 		movq	%rsi, -400(%rbp)
 3396      FEFFFF
 3397 001c 48899568 		movq	%rdx, -408(%rbp)
 3397      FEFFFF
 3398 0023 48898D60 		movq	%rcx, -416(%rbp)
 3398      FEFFFF
  19:/home/asoreyh/Dropbox/projects/lago/lago-software/acqua/brc/lago/makestuff/libs/libutpp/Checks.h **** {
 3399              		.loc 5 19 0
 3400 002a 64488B04 		movq	%fs:40, %rax
 3400      25280000 
 3400      00
 3401 0033 488945E8 		movq	%rax, -24(%rbp)
 3402 0037 31C0     		xorl	%eax, %eax
 3403              	.LBB52:
 3404              	.LBB53:
  21:/home/asoreyh/Dropbox/projects/lago/lago-software/acqua/brc/lago/makestuff/libs/libutpp/Checks.h ****     {
 3405              		.loc 5 21 0
 3406 0039 488B8570 		movq	-400(%rbp), %rax
 3406      FEFFFF
 3407 0040 8B00     		movl	(%rax), %eax
 3408 0042 4863D8   		movslq	%eax, %rbx
 3409 0045 488B8568 		movq	-408(%rbp), %rax
 3409      FEFFFF
 3410 004c 4889C7   		movq	%rax, %rdi
 3411 004f E8000000 		call	_ZNKSt4fposI11__mbstate_tEcvlEv
 3411      00
 3412 0054 4839C3   		cmpq	%rax, %rbx
 3413 0057 0F95C0   		setne	%al
 3414 005a 84C0     		testb	%al, %al
 3415 005c 0F849A00 		je	.L183
 3415      0000
 3416              	.LBB54:
  23:/home/asoreyh/Dropbox/projects/lago/lago-software/acqua/brc/lago/makestuff/libs/libutpp/Checks.h ****         stream << "Expected " << expected << " but was " << actual;
 3417              		.loc 5 23 0
 3418 0062 488D8580 		leaq	-384(%rbp), %rax
 3418      FEFFFF
 3419 0069 4889C7   		movq	%rax, %rdi
 3420              	.LEHB111:
 3421 006c E8000000 		call	_ZN8UnitTest15MemoryOutStreamC1Ev
 3421      00
 3422              	.LEHE111:
  24:/home/asoreyh/Dropbox/projects/lago/lago-software/acqua/brc/lago/makestuff/libs/libutpp/Checks.h **** 
 3423              		.loc 5 24 0
 3424 0071 488B8568 		movq	-408(%rbp), %rax
 3424      FEFFFF
 3425 0078 4889C7   		movq	%rax, %rdi
 3426 007b E8000000 		call	_ZNKSt4fposI11__mbstate_tEcvlEv
 3426      00
 3427 0080 4989C4   		movq	%rax, %r12
 3428 0083 488B8570 		movq	-400(%rbp), %rax
 3428      FEFFFF
 3429 008a 8B18     		movl	(%rax), %ebx
 3430 008c 488D8580 		leaq	-384(%rbp), %rax
 3430      FEFFFF
 3431 0093 BE000000 		movl	$.LC20, %esi
 3431      00
 3432 0098 4889C7   		movq	%rax, %rdi
 3433              	.LEHB112:
 3434 009b E8000000 		call	_ZStlsISt11char_traitsIcEERSt13basic_ostreamIcT_ES5_PKc
 3434      00
 3435 00a0 89DE     		movl	%ebx, %esi
 3436 00a2 4889C7   		movq	%rax, %rdi
 3437 00a5 E8000000 		call	_ZNSolsEi
 3437      00
  24:/home/asoreyh/Dropbox/projects/lago/lago-software/acqua/brc/lago/makestuff/libs/libutpp/Checks.h **** 
 3438              		.loc 5 24 0 is_stmt 0 discriminator 1
 3439 00aa BE000000 		movl	$.LC21, %esi
 3439      00
 3440 00af 4889C7   		movq	%rax, %rdi
 3441 00b2 E8000000 		call	_ZStlsISt11char_traitsIcEERSt13basic_ostreamIcT_ES5_PKc
 3441      00
  24:/home/asoreyh/Dropbox/projects/lago/lago-software/acqua/brc/lago/makestuff/libs/libutpp/Checks.h **** 
 3442              		.loc 5 24 0 discriminator 2
 3443 00b7 4C89E6   		movq	%r12, %rsi
 3444 00ba 4889C7   		movq	%rax, %rdi
 3445 00bd E8000000 		call	_ZNSolsEl
 3445      00
  26:/home/asoreyh/Dropbox/projects/lago/lago-software/acqua/brc/lago/makestuff/libs/libutpp/Checks.h ****     }
 3446              		.loc 5 26 0 is_stmt 1
 3447 00c2 488D8580 		leaq	-384(%rbp), %rax
 3447      FEFFFF
 3448 00c9 4889C7   		movq	%rax, %rdi
 3449 00cc E8000000 		call	_ZNK8UnitTest15MemoryOutStream7GetTextEv
 3449      00
 3450 00d1 4889C2   		movq	%rax, %rdx
 3451 00d4 488B8D60 		movq	-416(%rbp), %rcx
 3451      FEFFFF
 3452 00db 488B8578 		movq	-392(%rbp), %rax
 3452      FEFFFF
 3453 00e2 4889CE   		movq	%rcx, %rsi
 3454 00e5 4889C7   		movq	%rax, %rdi
 3455 00e8 E8000000 		call	_ZN8UnitTest11TestResults13OnTestFailureERKNS_11TestDetailsEPKc
 3455      00
 3456              	.LEHE112:
  26:/home/asoreyh/Dropbox/projects/lago/lago-software/acqua/brc/lago/makestuff/libs/libutpp/Checks.h ****     }
 3457              		.loc 5 26 0 is_stmt 0 discriminator 4
 3458 00ed 488D8580 		leaq	-384(%rbp), %rax
 3458      FEFFFF
 3459 00f4 4889C7   		movq	%rax, %rdi
 3460              	.LEHB113:
 3461 00f7 E8000000 		call	_ZN8UnitTest15MemoryOutStreamD1Ev
 3461      00
 3462              	.LEHE113:
 3463              	.L183:
 3464              	.LBE54:
 3465              	.LBE53:
 3466              	.LBE52:
  28:/home/asoreyh/Dropbox/projects/lago/lago-software/acqua/brc/lago/makestuff/libs/libutpp/Checks.h **** 
 3467              		.loc 5 28 0 is_stmt 1
 3468 00fc 488B45E8 		movq	-24(%rbp), %rax
 3469 0100 64483304 		xorq	%fs:40, %rax
 3469      25280000 
 3469      00
 3470 0109 7424     		je	.L185
 3471 010b EB1D     		jmp	.L187
 3472              	.L186:
 3473 010d 4889C3   		movq	%rax, %rbx
 3474              	.LBB57:
 3475              	.LBB56:
 3476              	.LBB55:
  26:/home/asoreyh/Dropbox/projects/lago/lago-software/acqua/brc/lago/makestuff/libs/libutpp/Checks.h ****     }
 3477              		.loc 5 26 0
 3478 0110 488D8580 		leaq	-384(%rbp), %rax
 3478      FEFFFF
 3479 0117 4889C7   		movq	%rax, %rdi
 3480 011a E8000000 		call	_ZN8UnitTest15MemoryOutStreamD1Ev
 3480      00
 3481 011f 4889D8   		movq	%rbx, %rax
 3482 0122 4889C7   		movq	%rax, %rdi
 3483              	.LEHB114:
 3484 0125 E8000000 		call	_Unwind_Resume
 3484      00
 3485              	.LEHE114:
 3486              	.L187:
 3487              	.LBE55:
 3488              	.LBE56:
 3489              	.LBE57:
  28:/home/asoreyh/Dropbox/projects/lago/lago-software/acqua/brc/lago/makestuff/libs/libutpp/Checks.h **** 
 3490              		.loc 5 28 0
 3491 012a E8000000 		call	__stack_chk_fail
 3491      00
 3492              	.L185:
 3493 012f 4881C490 		addq	$400, %rsp
 3493      010000
 3494 0136 5B       		popq	%rbx
 3495 0137 415C     		popq	%r12
 3496 0139 5D       		popq	%rbp
 3497              		.cfi_def_cfa 7, 8
 3498 013a C3       		ret
 3499              		.cfi_endproc
 3500              	.LFE1206:
 3501              		.section	.gcc_except_table
 3502              	.LLSDA1206:
 3503 0297 FF       		.byte	0xff
 3504 0298 FF       		.byte	0xff
 3505 0299 01       		.byte	0x1
 3506 029a 14       		.uleb128 .LLSDACSE1206-.LLSDACSB1206
 3507              	.LLSDACSB1206:
 3508 029b 6C       		.uleb128 .LEHB111-.LFB1206
 3509 029c 05       		.uleb128 .LEHE111-.LEHB111
 3510 029d 00       		.uleb128 0
 3511 029e 00       		.uleb128 0
 3512 029f 9B01     		.uleb128 .LEHB112-.LFB1206
 3513 02a1 52       		.uleb128 .LEHE112-.LEHB112
 3514 02a2 8D02     		.uleb128 .L186-.LFB1206
 3515 02a4 00       		.uleb128 0
 3516 02a5 F701     		.uleb128 .LEHB113-.LFB1206
 3517 02a7 05       		.uleb128 .LEHE113-.LEHB113
 3518 02a8 00       		.uleb128 0
 3519 02a9 00       		.uleb128 0
 3520 02aa A502     		.uleb128 .LEHB114-.LFB1206
 3521 02ac 05       		.uleb128 .LEHE114-.LEHB114
 3522 02ad 00       		.uleb128 0
 3523 02ae 00       		.uleb128 0
 3524              	.LLSDACSE1206:
 3525              		.section	.text._ZN8UnitTest10CheckEqualIiSt4fposI11__mbstate_tEEEvRNS_11TestResultsERKT_RKT0_RKNS_
 3527              		.weak	_ZTV23TestBinIO_testWriteFile
 3528              		.section	.rodata._ZTV23TestBinIO_testWriteFile,"aG",@progbits,_ZTV23TestBinIO_testWriteFile,comdat
 3529              		.align 32
 3532              	_ZTV23TestBinIO_testWriteFile:
 3533 0000 00000000 		.quad	0
 3533      00000000 
 3534 0008 00000000 		.quad	_ZTI23TestBinIO_testWriteFile
 3534      00000000 
 3535 0010 00000000 		.quad	_ZN23TestBinIO_testWriteFileD1Ev
 3535      00000000 
 3536 0018 00000000 		.quad	_ZN23TestBinIO_testWriteFileD0Ev
 3536      00000000 
 3537 0020 00000000 		.quad	_ZNK23TestBinIO_testWriteFile7RunImplEv
 3537      00000000 
 3538              		.section	.text._ZN23TestBinIO_testWriteFileD2Ev,"axG",@progbits,_ZN23TestBinIO_testWriteFileD5Ev,c
 3539              		.align 2
 3540              		.weak	_ZN23TestBinIO_testWriteFileD2Ev
 3542              	_ZN23TestBinIO_testWriteFileD2Ev:
 3543              	.LFB1272:
  54:testBinIO.cpp **** 	const char *const FILENAME = "tmpFile.bin";
 3544              		.loc 4 54 0
 3545              		.cfi_startproc
 3546 0000 55       		pushq	%rbp
 3547              		.cfi_def_cfa_offset 16
 3548              		.cfi_offset 6, -16
 3549 0001 4889E5   		movq	%rsp, %rbp
 3550              		.cfi_def_cfa_register 6
 3551 0004 4883EC10 		subq	$16, %rsp
 3552 0008 48897DF8 		movq	%rdi, -8(%rbp)
 3553              	.LBB58:
  54:testBinIO.cpp **** 	const char *const FILENAME = "tmpFile.bin";
 3554              		.loc 4 54 0
 3555 000c 488B45F8 		movq	-8(%rbp), %rax
 3556 0010 48C70000 		movq	$_ZTV23TestBinIO_testWriteFile+16, (%rax)
 3556      000000
 3557 0017 488B45F8 		movq	-8(%rbp), %rax
 3558 001b 4889C7   		movq	%rax, %rdi
 3559 001e E8000000 		call	_ZN8UnitTest4TestD2Ev
 3559      00
 3560              	.LBE58:
 3561 0023 B8000000 		movl	$0, %eax
 3561      00
 3562 0028 85C0     		testl	%eax, %eax
 3563 002a 740C     		je	.L188
  54:testBinIO.cpp **** 	const char *const FILENAME = "tmpFile.bin";
 3564              		.loc 4 54 0 is_stmt 0 discriminator 4
 3565 002c 488B45F8 		movq	-8(%rbp), %rax
 3566 0030 4889C7   		movq	%rax, %rdi
 3567 0033 E8000000 		call	_ZdlPv
 3567      00
 3568              	.L188:
  54:testBinIO.cpp **** 	const char *const FILENAME = "tmpFile.bin";
 3569              		.loc 4 54 0
 3570 0038 C9       		leave
 3571              		.cfi_def_cfa 7, 8
 3572 0039 C3       		ret
 3573              		.cfi_endproc
 3574              	.LFE1272:
 3576              		.weak	_ZN23TestBinIO_testWriteFileD1Ev
 3577              		.set	_ZN23TestBinIO_testWriteFileD1Ev,_ZN23TestBinIO_testWriteFileD2Ev
 3578              		.section	.text._ZN23TestBinIO_testWriteFileD0Ev,"axG",@progbits,_ZN23TestBinIO_testWriteFileD5Ev,c
 3579              		.align 2
 3580              		.weak	_ZN23TestBinIO_testWriteFileD0Ev
 3582              	_ZN23TestBinIO_testWriteFileD0Ev:
 3583              	.LFB1274:
  54:testBinIO.cpp **** 	const char *const FILENAME = "tmpFile.bin";
 3584              		.loc 4 54 0 is_stmt 1
 3585              		.cfi_startproc
 3586 0000 55       		pushq	%rbp
 3587              		.cfi_def_cfa_offset 16
 3588              		.cfi_offset 6, -16
 3589 0001 4889E5   		movq	%rsp, %rbp
 3590              		.cfi_def_cfa_register 6
 3591 0004 4883EC10 		subq	$16, %rsp
 3592 0008 48897DF8 		movq	%rdi, -8(%rbp)
  54:testBinIO.cpp **** 	const char *const FILENAME = "tmpFile.bin";
 3593              		.loc 4 54 0
 3594 000c 488B45F8 		movq	-8(%rbp), %rax
 3595 0010 4889C7   		movq	%rax, %rdi
 3596 0013 E8000000 		call	_ZN23TestBinIO_testWriteFileD1Ev
 3596      00
 3597 0018 488B45F8 		movq	-8(%rbp), %rax
 3598 001c 4889C7   		movq	%rax, %rdi
 3599 001f E8000000 		call	_ZdlPv
 3599      00
 3600 0024 C9       		leave
 3601              		.cfi_def_cfa 7, 8
 3602 0025 C3       		ret
 3603              		.cfi_endproc
 3604              	.LFE1274:
 3606              		.weak	_ZTV30TestBinIO_testReadExistingFile
 3607              		.section	.rodata._ZTV30TestBinIO_testReadExistingFile,"aG",@progbits,_ZTV30TestBinIO_testReadExist
 3608              		.align 32
 3611              	_ZTV30TestBinIO_testReadExistingFile:
 3612 0000 00000000 		.quad	0
 3612      00000000 
 3613 0008 00000000 		.quad	_ZTI30TestBinIO_testReadExistingFile
 3613      00000000 
 3614 0010 00000000 		.quad	_ZN30TestBinIO_testReadExistingFileD1Ev
 3614      00000000 
 3615 0018 00000000 		.quad	_ZN30TestBinIO_testReadExistingFileD0Ev
 3615      00000000 
 3616 0020 00000000 		.quad	_ZNK30TestBinIO_testReadExistingFile7RunImplEv
 3616      00000000 
 3617              		.section	.text._ZN30TestBinIO_testReadExistingFileD2Ev,"axG",@progbits,_ZN30TestBinIO_testReadExis
 3618              		.align 2
 3619              		.weak	_ZN30TestBinIO_testReadExistingFileD2Ev
 3621              	_ZN30TestBinIO_testReadExistingFileD2Ev:
 3622              	.LFB1276:
  33:testBinIO.cpp **** 	const char *const FILENAME = "tmpFile.bin";
 3623              		.loc 4 33 0
 3624              		.cfi_startproc
 3625 0000 55       		pushq	%rbp
 3626              		.cfi_def_cfa_offset 16
 3627              		.cfi_offset 6, -16
 3628 0001 4889E5   		movq	%rsp, %rbp
 3629              		.cfi_def_cfa_register 6
 3630 0004 4883EC10 		subq	$16, %rsp
 3631 0008 48897DF8 		movq	%rdi, -8(%rbp)
 3632              	.LBB59:
  33:testBinIO.cpp **** 	const char *const FILENAME = "tmpFile.bin";
 3633              		.loc 4 33 0
 3634 000c 488B45F8 		movq	-8(%rbp), %rax
 3635 0010 48C70000 		movq	$_ZTV30TestBinIO_testReadExistingFile+16, (%rax)
 3635      000000
 3636 0017 488B45F8 		movq	-8(%rbp), %rax
 3637 001b 4889C7   		movq	%rax, %rdi
 3638 001e E8000000 		call	_ZN8UnitTest4TestD2Ev
 3638      00
 3639              	.LBE59:
 3640 0023 B8000000 		movl	$0, %eax
 3640      00
 3641 0028 85C0     		testl	%eax, %eax
 3642 002a 740C     		je	.L193
  33:testBinIO.cpp **** 	const char *const FILENAME = "tmpFile.bin";
 3643              		.loc 4 33 0 is_stmt 0 discriminator 4
 3644 002c 488B45F8 		movq	-8(%rbp), %rax
 3645 0030 4889C7   		movq	%rax, %rdi
 3646 0033 E8000000 		call	_ZdlPv
 3646      00
 3647              	.L193:
  33:testBinIO.cpp **** 	const char *const FILENAME = "tmpFile.bin";
 3648              		.loc 4 33 0
 3649 0038 C9       		leave
 3650              		.cfi_def_cfa 7, 8
 3651 0039 C3       		ret
 3652              		.cfi_endproc
 3653              	.LFE1276:
 3655              		.weak	_ZN30TestBinIO_testReadExistingFileD1Ev
 3656              		.set	_ZN30TestBinIO_testReadExistingFileD1Ev,_ZN30TestBinIO_testReadExistingFileD2Ev
 3657              		.section	.text._ZN30TestBinIO_testReadExistingFileD0Ev,"axG",@progbits,_ZN30TestBinIO_testReadExis
 3658              		.align 2
 3659              		.weak	_ZN30TestBinIO_testReadExistingFileD0Ev
 3661              	_ZN30TestBinIO_testReadExistingFileD0Ev:
 3662              	.LFB1278:
  33:testBinIO.cpp **** 	const char *const FILENAME = "tmpFile.bin";
 3663              		.loc 4 33 0 is_stmt 1
 3664              		.cfi_startproc
 3665 0000 55       		pushq	%rbp
 3666              		.cfi_def_cfa_offset 16
 3667              		.cfi_offset 6, -16
 3668 0001 4889E5   		movq	%rsp, %rbp
 3669              		.cfi_def_cfa_register 6
 3670 0004 4883EC10 		subq	$16, %rsp
 3671 0008 48897DF8 		movq	%rdi, -8(%rbp)
  33:testBinIO.cpp **** 	const char *const FILENAME = "tmpFile.bin";
 3672              		.loc 4 33 0
 3673 000c 488B45F8 		movq	-8(%rbp), %rax
 3674 0010 4889C7   		movq	%rax, %rdi
 3675 0013 E8000000 		call	_ZN30TestBinIO_testReadExistingFileD1Ev
 3675      00
 3676 0018 488B45F8 		movq	-8(%rbp), %rax
 3677 001c 4889C7   		movq	%rax, %rdi
 3678 001f E8000000 		call	_ZdlPv
 3678      00
 3679 0024 C9       		leave
 3680              		.cfi_def_cfa 7, 8
 3681 0025 C3       		ret
 3682              		.cfi_endproc
 3683              	.LFE1278:
 3685              		.weak	_ZTV33TestBinIO_testReadNonExistentFile
 3686              		.section	.rodata._ZTV33TestBinIO_testReadNonExistentFile,"aG",@progbits,_ZTV33TestBinIO_testReadNo
 3687              		.align 32
 3690              	_ZTV33TestBinIO_testReadNonExistentFile:
 3691 0000 00000000 		.quad	0
 3691      00000000 
 3692 0008 00000000 		.quad	_ZTI33TestBinIO_testReadNonExistentFile
 3692      00000000 
 3693 0010 00000000 		.quad	_ZN33TestBinIO_testReadNonExistentFileD1Ev
 3693      00000000 
 3694 0018 00000000 		.quad	_ZN33TestBinIO_testReadNonExistentFileD0Ev
 3694      00000000 
 3695 0020 00000000 		.quad	_ZNK33TestBinIO_testReadNonExistentFile7RunImplEv
 3695      00000000 
 3696              		.section	.text._ZN33TestBinIO_testReadNonExistentFileD2Ev,"axG",@progbits,_ZN33TestBinIO_testReadN
 3697              		.align 2
 3698              		.weak	_ZN33TestBinIO_testReadNonExistentFileD2Ev
 3700              	_ZN33TestBinIO_testReadNonExistentFileD2Ev:
 3701              	.LFB1280:
  24:testBinIO.cpp **** 	Buffer buf;
 3702              		.loc 4 24 0
 3703              		.cfi_startproc
 3704 0000 55       		pushq	%rbp
 3705              		.cfi_def_cfa_offset 16
 3706              		.cfi_offset 6, -16
 3707 0001 4889E5   		movq	%rsp, %rbp
 3708              		.cfi_def_cfa_register 6
 3709 0004 4883EC10 		subq	$16, %rsp
 3710 0008 48897DF8 		movq	%rdi, -8(%rbp)
 3711              	.LBB60:
  24:testBinIO.cpp **** 	Buffer buf;
 3712              		.loc 4 24 0
 3713 000c 488B45F8 		movq	-8(%rbp), %rax
 3714 0010 48C70000 		movq	$_ZTV33TestBinIO_testReadNonExistentFile+16, (%rax)
 3714      000000
 3715 0017 488B45F8 		movq	-8(%rbp), %rax
 3716 001b 4889C7   		movq	%rax, %rdi
 3717 001e E8000000 		call	_ZN8UnitTest4TestD2Ev
 3717      00
 3718              	.LBE60:
 3719 0023 B8000000 		movl	$0, %eax
 3719      00
 3720 0028 85C0     		testl	%eax, %eax
 3721 002a 740C     		je	.L198
  24:testBinIO.cpp **** 	Buffer buf;
 3722              		.loc 4 24 0 is_stmt 0 discriminator 4
 3723 002c 488B45F8 		movq	-8(%rbp), %rax
 3724 0030 4889C7   		movq	%rax, %rdi
 3725 0033 E8000000 		call	_ZdlPv
 3725      00
 3726              	.L198:
  24:testBinIO.cpp **** 	Buffer buf;
 3727              		.loc 4 24 0
 3728 0038 C9       		leave
 3729              		.cfi_def_cfa 7, 8
 3730 0039 C3       		ret
 3731              		.cfi_endproc
 3732              	.LFE1280:
 3734              		.weak	_ZN33TestBinIO_testReadNonExistentFileD1Ev
 3735              		.set	_ZN33TestBinIO_testReadNonExistentFileD1Ev,_ZN33TestBinIO_testReadNonExistentFileD2Ev
 3736              		.section	.text._ZN33TestBinIO_testReadNonExistentFileD0Ev,"axG",@progbits,_ZN33TestBinIO_testReadN
 3737              		.align 2
 3738              		.weak	_ZN33TestBinIO_testReadNonExistentFileD0Ev
 3740              	_ZN33TestBinIO_testReadNonExistentFileD0Ev:
 3741              	.LFB1282:
  24:testBinIO.cpp **** 	Buffer buf;
 3742              		.loc 4 24 0 is_stmt 1
 3743              		.cfi_startproc
 3744 0000 55       		pushq	%rbp
 3745              		.cfi_def_cfa_offset 16
 3746              		.cfi_offset 6, -16
 3747 0001 4889E5   		movq	%rsp, %rbp
 3748              		.cfi_def_cfa_register 6
 3749 0004 4883EC10 		subq	$16, %rsp
 3750 0008 48897DF8 		movq	%rdi, -8(%rbp)
  24:testBinIO.cpp **** 	Buffer buf;
 3751              		.loc 4 24 0
 3752 000c 488B45F8 		movq	-8(%rbp), %rax
 3753 0010 4889C7   		movq	%rax, %rdi
 3754 0013 E8000000 		call	_ZN33TestBinIO_testReadNonExistentFileD1Ev
 3754      00
 3755 0018 488B45F8 		movq	-8(%rbp), %rax
 3756 001c 4889C7   		movq	%rax, %rdi
 3757 001f E8000000 		call	_ZdlPv
 3757      00
 3758 0024 C9       		leave
 3759              		.cfi_def_cfa 7, 8
 3760 0025 C3       		ret
 3761              		.cfi_endproc
 3762              	.LFE1282:
 3764              		.weak	_ZTVN8UnitTest15MemoryOutStreamE
 3765              		.section	.rodata._ZTVN8UnitTest15MemoryOutStreamE,"aG",@progbits,_ZTVN8UnitTest15MemoryOutStreamE,
 3766              		.align 64
 3769              	_ZTVN8UnitTest15MemoryOutStreamE:
 3770 0000 60000000 		.quad	96
 3770      00000000 
 3771 0008 00000000 		.quad	0
 3771      00000000 
 3772 0010 00000000 		.quad	_ZTIN8UnitTest15MemoryOutStreamE
 3772      00000000 
 3773 0018 00000000 		.quad	_ZN8UnitTest15MemoryOutStreamD1Ev
 3773      00000000 
 3774 0020 00000000 		.quad	_ZN8UnitTest15MemoryOutStreamD0Ev
 3774      00000000 
 3775 0028 A0FFFFFF 		.quad	-96
 3775      FFFFFFFF 
 3776 0030 A0FFFFFF 		.quad	-96
 3776      FFFFFFFF 
 3777 0038 00000000 		.quad	_ZTIN8UnitTest15MemoryOutStreamE
 3777      00000000 
 3778 0040 00000000 		.quad	_ZTv0_n24_N8UnitTest15MemoryOutStreamD1Ev
 3778      00000000 
 3779 0048 00000000 		.quad	_ZTv0_n24_N8UnitTest15MemoryOutStreamD0Ev
 3779      00000000 
 3780              		.weak	_ZTTN8UnitTest15MemoryOutStreamE
 3781              		.section	.rodata._ZTTN8UnitTest15MemoryOutStreamE,"aG",@progbits,_ZTVN8UnitTest15MemoryOutStreamE,
 3782              		.align 32
 3785              	_ZTTN8UnitTest15MemoryOutStreamE:
 3786 0000 00000000 		.quad	_ZTVN8UnitTest15MemoryOutStreamE+24
 3786      00000000 
 3787 0008 00000000 		.quad	_ZTCN8UnitTest15MemoryOutStreamE0_St19basic_ostringstreamIcSt11char_traitsIcESaIcEE+24
 3787      00000000 
 3788 0010 00000000 		.quad	_ZTCN8UnitTest15MemoryOutStreamE0_So+24
 3788      00000000 
 3789 0018 00000000 		.quad	_ZTCN8UnitTest15MemoryOutStreamE0_So+64
 3789      00000000 
 3790 0020 00000000 		.quad	_ZTCN8UnitTest15MemoryOutStreamE0_St19basic_ostringstreamIcSt11char_traitsIcESaIcEE+64
 3790      00000000 
 3791 0028 00000000 		.quad	_ZTVN8UnitTest15MemoryOutStreamE+64
 3791      00000000 
 3792              		.hidden	_ZTCN8UnitTest15MemoryOutStreamE0_St19basic_ostringstreamIcSt11char_traitsIcESaIcEE
 3793              		.weak	_ZTCN8UnitTest15MemoryOutStreamE0_St19basic_ostringstreamIcSt11char_traitsIcESaIcEE
 3794              		.section	.rodata._ZTCN8UnitTest15MemoryOutStreamE0_St19basic_ostringstreamIcSt11char_traitsIcESaIc
 3795              		.align 64
 3798              	_ZTCN8UnitTest15MemoryOutStreamE0_St19basic_ostringstreamIcSt11char_traitsIcESaIcEE:
 3799 0000 60000000 		.quad	96
 3799      00000000 
 3800 0008 00000000 		.quad	0
 3800      00000000 
 3801 0010 00000000 		.quad	_ZTISt19basic_ostringstreamIcSt11char_traitsIcESaIcEE
 3801      00000000 
 3802 0018 00000000 		.quad	0
 3802      00000000 
 3803 0020 00000000 		.quad	0
 3803      00000000 
 3804 0028 A0FFFFFF 		.quad	-96
 3804      FFFFFFFF 
 3805 0030 A0FFFFFF 		.quad	-96
 3805      FFFFFFFF 
 3806 0038 00000000 		.quad	_ZTISt19basic_ostringstreamIcSt11char_traitsIcESaIcEE
 3806      00000000 
 3807 0040 00000000 		.quad	0
 3807      00000000 
 3808 0048 00000000 		.quad	0
 3808      00000000 
 3809              		.hidden	_ZTCN8UnitTest15MemoryOutStreamE0_So
 3810              		.weak	_ZTCN8UnitTest15MemoryOutStreamE0_So
 3811              		.section	.rodata._ZTCN8UnitTest15MemoryOutStreamE0_So,"aG",@progbits,_ZTVN8UnitTest15MemoryOutStre
 3812              		.align 64
 3815              	_ZTCN8UnitTest15MemoryOutStreamE0_So:
 3816 0000 60000000 		.quad	96
 3816      00000000 
 3817 0008 00000000 		.quad	0
 3817      00000000 
 3818 0010 00000000 		.quad	_ZTISo
 3818      00000000 
 3819 0018 00000000 		.quad	0
 3819      00000000 
 3820 0020 00000000 		.quad	0
 3820      00000000 
 3821 0028 A0FFFFFF 		.quad	-96
 3821      FFFFFFFF 
 3822 0030 A0FFFFFF 		.quad	-96
 3822      FFFFFFFF 
 3823 0038 00000000 		.quad	_ZTISo
 3823      00000000 
 3824 0040 00000000 		.quad	0
 3824      00000000 
 3825 0048 00000000 		.quad	0
 3825      00000000 
 3826              		.weak	_ZTI23TestBinIO_testWriteFile
 3827              		.section	.rodata._ZTI23TestBinIO_testWriteFile,"aG",@progbits,_ZTI23TestBinIO_testWriteFile,comdat
 3828              		.align 16
 3831              	_ZTI23TestBinIO_testWriteFile:
 3832 0000 00000000 		.quad	_ZTVN10__cxxabiv120__si_class_type_infoE+16
 3832      00000000 
 3833 0008 00000000 		.quad	_ZTS23TestBinIO_testWriteFile
 3833      00000000 
 3834 0010 00000000 		.quad	_ZTIN8UnitTest4TestE
 3834      00000000 
 3835              		.weak	_ZTS23TestBinIO_testWriteFile
 3836              		.section	.rodata._ZTS23TestBinIO_testWriteFile,"aG",@progbits,_ZTS23TestBinIO_testWriteFile,comdat
 3837              		.align 16
 3840              	_ZTS23TestBinIO_testWriteFile:
 3841 0000 32335465 		.string	"23TestBinIO_testWriteFile"
 3841      73744269 
 3841      6E494F5F 
 3841      74657374 
 3841      57726974 
 3842              		.weak	_ZTI30TestBinIO_testReadExistingFile
 3843              		.section	.rodata._ZTI30TestBinIO_testReadExistingFile,"aG",@progbits,_ZTI30TestBinIO_testReadExist
 3844              		.align 16
 3847              	_ZTI30TestBinIO_testReadExistingFile:
 3848 0000 00000000 		.quad	_ZTVN10__cxxabiv120__si_class_type_infoE+16
 3848      00000000 
 3849 0008 00000000 		.quad	_ZTS30TestBinIO_testReadExistingFile
 3849      00000000 
 3850 0010 00000000 		.quad	_ZTIN8UnitTest4TestE
 3850      00000000 
 3851              		.weak	_ZTS30TestBinIO_testReadExistingFile
 3852              		.section	.rodata._ZTS30TestBinIO_testReadExistingFile,"aG",@progbits,_ZTS30TestBinIO_testReadExist
 3853              		.align 32
 3856              	_ZTS30TestBinIO_testReadExistingFile:
 3857 0000 33305465 		.string	"30TestBinIO_testReadExistingFile"
 3857      73744269 
 3857      6E494F5F 
 3857      74657374 
 3857      52656164 
 3858              		.weak	_ZTI33TestBinIO_testReadNonExistentFile
 3859              		.section	.rodata._ZTI33TestBinIO_testReadNonExistentFile,"aG",@progbits,_ZTI33TestBinIO_testReadNo
 3860              		.align 16
 3863              	_ZTI33TestBinIO_testReadNonExistentFile:
 3864 0000 00000000 		.quad	_ZTVN10__cxxabiv120__si_class_type_infoE+16
 3864      00000000 
 3865 0008 00000000 		.quad	_ZTS33TestBinIO_testReadNonExistentFile
 3865      00000000 
 3866 0010 00000000 		.quad	_ZTIN8UnitTest4TestE
 3866      00000000 
 3867              		.weak	_ZTS33TestBinIO_testReadNonExistentFile
 3868              		.section	.rodata._ZTS33TestBinIO_testReadNonExistentFile,"aG",@progbits,_ZTS33TestBinIO_testReadNo
 3869              		.align 32
 3872              	_ZTS33TestBinIO_testReadNonExistentFile:
 3873 0000 33335465 		.string	"33TestBinIO_testReadNonExistentFile"
 3873      73744269 
 3873      6E494F5F 
 3873      74657374 
 3873      52656164 
 3874              		.weak	_ZTSN8UnitTest15MemoryOutStreamE
 3875              		.section	.rodata._ZTSN8UnitTest15MemoryOutStreamE,"aG",@progbits,_ZTSN8UnitTest15MemoryOutStreamE,
 3876              		.align 16
 3879              	_ZTSN8UnitTest15MemoryOutStreamE:
 3880 0000 4E38556E 		.string	"N8UnitTest15MemoryOutStreamE"
 3880      69745465 
 3880      73743135 
 3880      4D656D6F 
 3880      72794F75 
 3881              		.weak	_ZTIN8UnitTest15MemoryOutStreamE
 3882              		.section	.rodata._ZTIN8UnitTest15MemoryOutStreamE,"aG",@progbits,_ZTIN8UnitTest15MemoryOutStreamE,
 3883              		.align 16
 3886              	_ZTIN8UnitTest15MemoryOutStreamE:
 3887 0000 00000000 		.quad	_ZTVN10__cxxabiv120__si_class_type_infoE+16
 3887      00000000 
 3888 0008 00000000 		.quad	_ZTSN8UnitTest15MemoryOutStreamE
 3888      00000000 
 3889 0010 00000000 		.quad	_ZTISt19basic_ostringstreamIcSt11char_traitsIcESaIcEE
 3889      00000000 
 3890              		.text
 3892              	_Z41__static_initialization_and_destruction_0ii:
 3893              	.LFB1283:
 3894              		.loc 4 91 0
 3895              		.cfi_startproc
 3896 11bb 55       		pushq	%rbp
 3897              		.cfi_def_cfa_offset 16
 3898              		.cfi_offset 6, -16
 3899 11bc 4889E5   		movq	%rsp, %rbp
 3900              		.cfi_def_cfa_register 6
 3901 11bf 4883EC10 		subq	$16, %rsp
 3902 11c3 897DFC   		movl	%edi, -4(%rbp)
 3903 11c6 8975F8   		movl	%esi, -8(%rbp)
 3904              		.loc 4 91 0
 3905 11c9 837DFC01 		cmpl	$1, -4(%rbp)
 3906 11cd 0F85AC00 		jne	.L203
 3906      0000
 3907              		.loc 4 91 0 is_stmt 0 discriminator 1
 3908 11d3 817DF8FF 		cmpl	$65535, -8(%rbp)
 3908      FF0000
 3909 11da 0F859F00 		jne	.L203
 3909      0000
  24:testBinIO.cpp **** 	Buffer buf;
 3910              		.loc 4 24 0 is_stmt 1
 3911 11e0 BF000000 		movl	$testBinIO_testReadNonExistentFileInstance, %edi
 3911      00
 3912 11e5 E8000000 		call	_ZN33TestBinIO_testReadNonExistentFileC1Ev
 3912      00
 3913 11ea BA000000 		movl	$__dso_handle, %edx
 3913      00
 3914 11ef BE000000 		movl	$testBinIO_testReadNonExistentFileInstance, %esi
 3914      00
 3915 11f4 BF000000 		movl	$_ZN33TestBinIO_testReadNonExistentFileD1Ev, %edi
 3915      00
 3916 11f9 E8000000 		call	__cxa_atexit
 3916      00
 3917 11fe E8000000 		call	_ZN8UnitTest4Test11GetTestListEv
 3917      00
 3918 1203 BA000000 		movl	$testBinIO_testReadNonExistentFileInstance, %edx
 3918      00
 3919 1208 4889C6   		movq	%rax, %rsi
 3920 120b BF000000 		movl	$adderBinIO_testReadNonExistentFile, %edi
 3920      00
 3921 1210 E8000000 		call	_ZN8UnitTest9ListAdderC1ERNS_8TestListEPNS_4TestE
 3921      00
  33:testBinIO.cpp **** 	const char *const FILENAME = "tmpFile.bin";
 3922              		.loc 4 33 0
 3923 1215 BF000000 		movl	$testBinIO_testReadExistingFileInstance, %edi
 3923      00
 3924 121a E8000000 		call	_ZN30TestBinIO_testReadExistingFileC1Ev
 3924      00
 3925 121f BA000000 		movl	$__dso_handle, %edx
 3925      00
 3926 1224 BE000000 		movl	$testBinIO_testReadExistingFileInstance, %esi
 3926      00
 3927 1229 BF000000 		movl	$_ZN30TestBinIO_testReadExistingFileD1Ev, %edi
 3927      00
 3928 122e E8000000 		call	__cxa_atexit
 3928      00
 3929 1233 E8000000 		call	_ZN8UnitTest4Test11GetTestListEv
 3929      00
 3930 1238 BA000000 		movl	$testBinIO_testReadExistingFileInstance, %edx
 3930      00
 3931 123d 4889C6   		movq	%rax, %rsi
 3932 1240 BF000000 		movl	$adderBinIO_testReadExistingFile, %edi
 3932      00
 3933 1245 E8000000 		call	_ZN8UnitTest9ListAdderC1ERNS_8TestListEPNS_4TestE
 3933      00
  54:testBinIO.cpp **** 	const char *const FILENAME = "tmpFile.bin";
 3934              		.loc 4 54 0
 3935 124a BF000000 		movl	$testBinIO_testWriteFileInstance, %edi
 3935      00
 3936 124f E8000000 		call	_ZN23TestBinIO_testWriteFileC1Ev
 3936      00
 3937 1254 BA000000 		movl	$__dso_handle, %edx
 3937      00
 3938 1259 BE000000 		movl	$testBinIO_testWriteFileInstance, %esi
 3938      00
 3939 125e BF000000 		movl	$_ZN23TestBinIO_testWriteFileD1Ev, %edi
 3939      00
 3940 1263 E8000000 		call	__cxa_atexit
 3940      00
 3941 1268 E8000000 		call	_ZN8UnitTest4Test11GetTestListEv
 3941      00
 3942 126d BA000000 		movl	$testBinIO_testWriteFileInstance, %edx
 3942      00
 3943 1272 4889C6   		movq	%rax, %rsi
 3944 1275 BF000000 		movl	$adderBinIO_testWriteFile, %edi
 3944      00
 3945 127a E8000000 		call	_ZN8UnitTest9ListAdderC1ERNS_8TestListEPNS_4TestE
 3945      00
 3946              	.L203:
 3947              		.loc 4 91 0
 3948 127f C9       		leave
 3949              		.cfi_def_cfa 7, 8
 3950 1280 C3       		ret
 3951              		.cfi_endproc
 3952              	.LFE1283:
 3955              	_GLOBAL__sub_I_testBinIO_testReadNonExistentFileInstance:
 3956              	.LFB1284:
 3957              		.loc 4 91 0
 3958              		.cfi_startproc
 3959 1281 55       		pushq	%rbp
 3960              		.cfi_def_cfa_offset 16
 3961              		.cfi_offset 6, -16
 3962 1282 4889E5   		movq	%rsp, %rbp
 3963              		.cfi_def_cfa_register 6
 3964              		.loc 4 91 0
 3965 1285 BEFFFF00 		movl	$65535, %esi
 3965      00
 3966 128a BF010000 		movl	$1, %edi
 3966      00
 3967 128f E827FFFF 		call	_Z41__static_initialization_and_destruction_0ii
 3967      FF
 3968 1294 5D       		popq	%rbp
 3969              		.cfi_def_cfa 7, 8
 3970 1295 C3       		ret
 3971              		.cfi_endproc
 3972              	.LFE1284:
 3974              		.section	.init_array,"aw"
 3975              		.align 8
 3976 0000 00000000 		.quad	_GLOBAL__sub_I_testBinIO_testReadNonExistentFileInstance
 3976      00000000 
 3977              		.section	.rodata
 3978 038c 00000000 		.align 8
 3981              	_ZZL18__gthread_active_pvE20__gthread_active_ptr:
 3982 0390 00000000 		.quad	_ZL28__gthrw___pthread_key_createPjPFvPvE
 3982      00000000 
 3983              		.weakref	_ZL28__gthrw___pthread_key_createPjPFvPvE,__pthread_key_create
 3984              		.text
 3985              	.Letext0:
 3986              		.file 7 "/usr/lib/gcc/x86_64-linux-gnu/4.9/include/stddef.h"
 3987              		.file 8 "/usr/include/stdio.h"
 3988              		.file 9 "/usr/include/libio.h"
 3989              		.file 10 "<built-in>"
 3990              		.file 11 "/usr/include/wchar.h"
 3991              		.file 12 "/usr/include/c++/4.9/cwchar"
 3992              		.file 13 "/usr/include/c++/4.9/bits/char_traits.h"
 3993              		.file 14 "/usr/include/x86_64-linux-gnu/c++/4.9/bits/c++config.h"
 3994              		.file 15 "/usr/include/c++/4.9/clocale"
 3995              		.file 16 "/usr/include/c++/4.9/bits/allocator.h"
 3996              		.file 17 "/usr/include/c++/4.9/bits/basic_string.h"
 3997              		.file 18 "/usr/include/c++/4.9/bits/basic_string.tcc"
 3998              		.file 19 "/usr/include/c++/4.9/bits/stringfwd.h"
 3999              		.file 20 "/usr/include/c++/4.9/cwctype"
 4000              		.file 21 "/usr/include/c++/4.9/cstdio"
 4001              		.file 22 "/usr/include/c++/4.9/iosfwd"
 4002              		.file 23 "/usr/include/c++/4.9/fstream"
 4003              		.file 24 "/usr/include/time.h"
 4004              		.file 25 "/usr/include/c++/4.9/debug/debug.h"
 4005              		.file 26 "/usr/include/c++/4.9/bits/predefined_ops.h"
 4006              		.file 27 "/usr/include/c++/4.9/ext/new_allocator.h"
 4007              		.file 28 "/usr/include/c++/4.9/ext/numeric_traits.h"
 4008              		.file 29 "/usr/include/locale.h"
 4009              		.file 30 "/usr/include/x86_64-linux-gnu/bits/types.h"
 4010              		.file 31 "/usr/include/x86_64-linux-gnu/c++/4.9/bits/atomic_word.h"
 4011              		.file 32 "/usr/include/wctype.h"
 4012              		.file 33 "/usr/include/_G_config.h"
 4013              		.file 34 "/home/asoreyh/Dropbox/projects/lago/lago-software/acqua/brc/lago/makestuff/libs/libutpp/
 4014              		.file 35 "/home/asoreyh/Dropbox/projects/lago/lago-software/acqua/brc/lago/makestuff/libs/libutpp/
 4015              		.file 36 "/home/asoreyh/Dropbox/projects/lago/lago-software/acqua/brc/lago/makestuff/libs/libutpp/
 4016              		.file 37 "/home/asoreyh/Dropbox/projects/lago/lago-software/acqua/brc/lago/makestuff/common/makest
 4017              		.file 38 "../libbuffer.h"
DEFINED SYMBOLS
                            *ABS*:0000000000000000 testBinIO.cpp
     /tmp/cca0wfTd.s:7      .text._ZStorSt13_Ios_OpenmodeS_:0000000000000000 _ZStorSt13_Ios_OpenmodeS_
     /tmp/cca0wfTd.s:35     .text._ZN13UnitTestSuite12GetSuiteNameEv:0000000000000000 _ZN13UnitTestSuite12GetSuiteNameEv
     /tmp/cca0wfTd.s:58     .text._ZN8UnitTest15MemoryOutStreamC1Ev:0000000000000000 _ZN8UnitTest15MemoryOutStreamC1Ev
     /tmp/cca0wfTd.s:3785   .rodata._ZTTN8UnitTest15MemoryOutStreamE:0000000000000000 _ZTTN8UnitTest15MemoryOutStreamE
     /tmp/cca0wfTd.s:3769   .rodata._ZTVN8UnitTest15MemoryOutStreamE:0000000000000000 _ZTVN8UnitTest15MemoryOutStreamE
     /tmp/cca0wfTd.s:176    .text._ZN33TestBinIO_testReadNonExistentFileC2Ev:0000000000000000 _ZN33TestBinIO_testReadNonExistentFileC2Ev
     /tmp/cca0wfTd.s:3690   .rodata._ZTV33TestBinIO_testReadNonExistentFile:0000000000000000 _ZTV33TestBinIO_testReadNonExistentFile
     /tmp/cca0wfTd.s:176    .text._ZN33TestBinIO_testReadNonExistentFileC2Ev:0000000000000000 _ZN33TestBinIO_testReadNonExistentFileC1Ev
     /tmp/cca0wfTd.s:214    .bss:0000000000000000 testBinIO_testReadNonExistentFileInstance
     /tmp/cca0wfTd.s:219    .bss:0000000000000038 adderBinIO_testReadNonExistentFile
     /tmp/cca0wfTd.s:234    .text:0000000000000000 _ZNK33TestBinIO_testReadNonExistentFile7RunImplEv
     /tmp/cca0wfTd.s:2395   .text._ZN8UnitTest10CheckEqualI12BufferStatusS1_EEvRNS_11TestResultsERKT_RKT0_RKNS_11TestDetailsE:0000000000000000 _ZN8UnitTest10CheckEqualI12BufferStatusS1_EEvRNS_11TestResultsERKT_RKT0_RKNS_11TestDetailsE
     /tmp/cca0wfTd.s:476    .text._ZN30TestBinIO_testReadExistingFileC2Ev:0000000000000000 _ZN30TestBinIO_testReadExistingFileC2Ev
     /tmp/cca0wfTd.s:3611   .rodata._ZTV30TestBinIO_testReadExistingFile:0000000000000000 _ZTV30TestBinIO_testReadExistingFile
     /tmp/cca0wfTd.s:476    .text._ZN30TestBinIO_testReadExistingFileC2Ev:0000000000000000 _ZN30TestBinIO_testReadExistingFileC1Ev
     /tmp/cca0wfTd.s:513    .bss:0000000000000040 testBinIO_testReadExistingFileInstance
     /tmp/cca0wfTd.s:518    .bss:0000000000000078 adderBinIO_testReadExistingFile
     /tmp/cca0wfTd.s:541    .text:00000000000001bc _ZNK30TestBinIO_testReadExistingFile7RunImplEv
     /tmp/cca0wfTd.s:2543   .text._ZN8UnitTest10CheckEqualImjEEvRNS_11TestResultsERKT_RKT0_RKNS_11TestDetailsE:0000000000000000 _ZN8UnitTest10CheckEqualImjEEvRNS_11TestResultsERKT_RKT0_RKNS_11TestDetailsE
     /tmp/cca0wfTd.s:2698   .text._ZN8UnitTest15CheckArrayEqualIPKcPhEEvRNS_11TestResultsERKT_RKT0_iRKNS_11TestDetailsE:0000000000000000 _ZN8UnitTest15CheckArrayEqualIPKcPhEEvRNS_11TestResultsERKT_RKT0_iRKNS_11TestDetailsE
     /tmp/cca0wfTd.s:1171   .text._ZN23TestBinIO_testWriteFileC2Ev:0000000000000000 _ZN23TestBinIO_testWriteFileC2Ev
     /tmp/cca0wfTd.s:3532   .rodata._ZTV23TestBinIO_testWriteFile:0000000000000000 _ZTV23TestBinIO_testWriteFile
     /tmp/cca0wfTd.s:1171   .text._ZN23TestBinIO_testWriteFileC2Ev:0000000000000000 _ZN23TestBinIO_testWriteFileC1Ev
     /tmp/cca0wfTd.s:1208   .bss:0000000000000080 testBinIO_testWriteFileInstance
     /tmp/cca0wfTd.s:1213   .bss:00000000000000b8 adderBinIO_testWriteFile
     /tmp/cca0wfTd.s:1237   .text:00000000000007e2 _ZNK23TestBinIO_testWriteFile7RunImplEv
     /tmp/cca0wfTd.s:2929   .text._ZNSt4fposI11__mbstate_tEC2Ev:0000000000000000 _ZNSt4fposI11__mbstate_tEC1Ev
     /tmp/cca0wfTd.s:2960   .text._ZN8UnitTest5CheckIbEEbT_:0000000000000000 _ZN8UnitTest5CheckIbEEbT_
     /tmp/cca0wfTd.s:2984   .text._ZNKSt4fposI11__mbstate_tEcvlEv:0000000000000000 _ZNKSt4fposI11__mbstate_tEcvlEv
     /tmp/cca0wfTd.s:3006   .text._ZN8UnitTest10CheckEqualImmEEvRNS_11TestResultsERKT_RKT0_RKNS_11TestDetailsE:0000000000000000 _ZN8UnitTest10CheckEqualImmEEvRNS_11TestResultsERKT_RKT0_RKNS_11TestDetailsE
     /tmp/cca0wfTd.s:3151   .text._ZN8UnitTest15CheckArrayEqualIPKcPcEEvRNS_11TestResultsERKT_RKT0_iRKNS_11TestDetailsE:0000000000000000 _ZN8UnitTest15CheckArrayEqualIPKcPcEEvRNS_11TestResultsERKT_RKT0_iRKNS_11TestDetailsE
     /tmp/cca0wfTd.s:3379   .text._ZN8UnitTest10CheckEqualIiSt4fposI11__mbstate_tEEEvRNS_11TestResultsERKT_RKT0_RKNS_11TestDetailsE:0000000000000000 _ZN8UnitTest10CheckEqualIiSt4fposI11__mbstate_tEEEvRNS_11TestResultsERKT_RKT0_RKNS_11TestDetailsE
     /tmp/cca0wfTd.s:2208   .text._ZN8UnitTest15MemoryOutStreamD1Ev:0000000000000000 _ZN8UnitTest15MemoryOutStreamD1Ev
     /tmp/cca0wfTd.s:2336   .text._ZN8UnitTest15MemoryOutStreamD1Ev:00000000000000c8 _ZTv0_n24_N8UnitTest15MemoryOutStreamD1Ev
     /tmp/cca0wfTd.s:2350   .text._ZN8UnitTest15MemoryOutStreamD0Ev:0000000000000000 _ZN8UnitTest15MemoryOutStreamD0Ev
     /tmp/cca0wfTd.s:2377   .text._ZN8UnitTest15MemoryOutStreamD0Ev:0000000000000026 _ZTv0_n24_N8UnitTest15MemoryOutStreamD0Ev
     /tmp/cca0wfTd.s:2929   .text._ZNSt4fposI11__mbstate_tEC2Ev:0000000000000000 _ZNSt4fposI11__mbstate_tEC2Ev
     /tmp/cca0wfTd.s:3831   .rodata._ZTI23TestBinIO_testWriteFile:0000000000000000 _ZTI23TestBinIO_testWriteFile
     /tmp/cca0wfTd.s:3542   .text._ZN23TestBinIO_testWriteFileD2Ev:0000000000000000 _ZN23TestBinIO_testWriteFileD1Ev
     /tmp/cca0wfTd.s:3582   .text._ZN23TestBinIO_testWriteFileD0Ev:0000000000000000 _ZN23TestBinIO_testWriteFileD0Ev
     /tmp/cca0wfTd.s:3542   .text._ZN23TestBinIO_testWriteFileD2Ev:0000000000000000 _ZN23TestBinIO_testWriteFileD2Ev
     /tmp/cca0wfTd.s:3847   .rodata._ZTI30TestBinIO_testReadExistingFile:0000000000000000 _ZTI30TestBinIO_testReadExistingFile
     /tmp/cca0wfTd.s:3621   .text._ZN30TestBinIO_testReadExistingFileD2Ev:0000000000000000 _ZN30TestBinIO_testReadExistingFileD1Ev
     /tmp/cca0wfTd.s:3661   .text._ZN30TestBinIO_testReadExistingFileD0Ev:0000000000000000 _ZN30TestBinIO_testReadExistingFileD0Ev
     /tmp/cca0wfTd.s:3621   .text._ZN30TestBinIO_testReadExistingFileD2Ev:0000000000000000 _ZN30TestBinIO_testReadExistingFileD2Ev
     /tmp/cca0wfTd.s:3863   .rodata._ZTI33TestBinIO_testReadNonExistentFile:0000000000000000 _ZTI33TestBinIO_testReadNonExistentFile
     /tmp/cca0wfTd.s:3700   .text._ZN33TestBinIO_testReadNonExistentFileD2Ev:0000000000000000 _ZN33TestBinIO_testReadNonExistentFileD1Ev
     /tmp/cca0wfTd.s:3740   .text._ZN33TestBinIO_testReadNonExistentFileD0Ev:0000000000000000 _ZN33TestBinIO_testReadNonExistentFileD0Ev
     /tmp/cca0wfTd.s:3700   .text._ZN33TestBinIO_testReadNonExistentFileD2Ev:0000000000000000 _ZN33TestBinIO_testReadNonExistentFileD2Ev
     /tmp/cca0wfTd.s:3886   .rodata._ZTIN8UnitTest15MemoryOutStreamE:0000000000000000 _ZTIN8UnitTest15MemoryOutStreamE
     /tmp/cca0wfTd.s:3798   .rodata._ZTCN8UnitTest15MemoryOutStreamE0_St19basic_ostringstreamIcSt11char_traitsIcESaIcEE:0000000000000000 _ZTCN8UnitTest15MemoryOutStreamE0_St19basic_ostringstreamIcSt11char_traitsIcESaIcEE
     /tmp/cca0wfTd.s:3815   .rodata._ZTCN8UnitTest15MemoryOutStreamE0_So:0000000000000000 _ZTCN8UnitTest15MemoryOutStreamE0_So
     /tmp/cca0wfTd.s:3840   .rodata._ZTS23TestBinIO_testWriteFile:0000000000000000 _ZTS23TestBinIO_testWriteFile
     /tmp/cca0wfTd.s:3856   .rodata._ZTS30TestBinIO_testReadExistingFile:0000000000000000 _ZTS30TestBinIO_testReadExistingFile
     /tmp/cca0wfTd.s:3872   .rodata._ZTS33TestBinIO_testReadNonExistentFile:0000000000000000 _ZTS33TestBinIO_testReadNonExistentFile
     /tmp/cca0wfTd.s:3879   .rodata._ZTSN8UnitTest15MemoryOutStreamE:0000000000000000 _ZTSN8UnitTest15MemoryOutStreamE
     /tmp/cca0wfTd.s:3892   .text:00000000000011bb _Z41__static_initialization_and_destruction_0ii
     /tmp/cca0wfTd.s:3955   .text:0000000000001281 _GLOBAL__sub_I_testBinIO_testReadNonExistentFileInstance
     /tmp/cca0wfTd.s:3981   .rodata:0000000000000390 _ZZL18__gthread_active_pvE20__gthread_active_ptr
                           .group:0000000000000000 _ZN33TestBinIO_testReadNonExistentFileC5Ev
                           .group:0000000000000000 _ZN30TestBinIO_testReadExistingFileC5Ev
                           .group:0000000000000000 _ZN23TestBinIO_testWriteFileC5Ev
                           .group:0000000000000000 _ZNSt4fposI11__mbstate_tEC5Ev
                           .group:0000000000000000 _ZN23TestBinIO_testWriteFileD5Ev
                           .group:0000000000000000 _ZN30TestBinIO_testReadExistingFileD5Ev
                           .group:0000000000000000 _ZN33TestBinIO_testReadNonExistentFileD5Ev

UNDEFINED SYMBOLS
__gxx_personality_v0
_ZNSt9basic_iosIcSt11char_traitsIcEEC2Ev
_ZNSt19basic_ostringstreamIcSt11char_traitsIcESaIcEEC2ESt13_Ios_Openmode
_ZNSsC1Ev
_ZNSt19basic_ostringstreamIcSt11char_traitsIcESaIcEED2Ev
_ZNSt9basic_iosIcSt11char_traitsIcEED2Ev
_Unwind_Resume
_ZN8UnitTest4TestC2EPKcS2_S2_i
bufInitialise
_ZN8UnitTest11CurrentTest7DetailsEv
_ZN8UnitTest11TestDetailsC1ERKS0_i
_ZN8UnitTest11CurrentTest7ResultsEv
bufAppendFromBinaryFile
bufDestroy
__cxa_end_catch
__cxa_begin_catch
_ZN8UnitTest11TestResults13OnTestFailureERKNS_11TestDetailsEPKc
__stack_chk_fail
_ZNSt14basic_ofstreamIcSt11char_traitsIcEEC1Ev
_ZNSt14basic_ofstreamIcSt11char_traitsIcEE4openEPKcSt13_Ios_Openmode
_ZStlsISt11char_traitsIcEERSt13basic_ostreamIcT_ES5_PKc
_ZNSt14basic_ofstreamIcSt11char_traitsIcEE5closeEv
_ZNSt14basic_ofstreamIcSt11char_traitsIcEED1Ev
_ZNSt14basic_ifstreamIcSt11char_traitsIcEEC1Ev
bufAppendBlock
bufWriteBinaryFile
_ZNSt14basic_ifstreamIcSt11char_traitsIcEE4openEPKcSt13_Ios_Openmode
_ZNSt14basic_ifstreamIcSt11char_traitsIcEE7is_openEv
_ZNSi5tellgEv
_Znam
_ZNSi5seekgElSt12_Ios_Seekdir
_ZNSi4readEPcl
_ZNSt14basic_ifstreamIcSt11char_traitsIcEE5closeEv
_ZdaPv
_ZNSt14basic_ifstreamIcSt11char_traitsIcEED1Ev
_ZNSsD1Ev
_ZdlPv
_ZNSolsEi
_ZNK8UnitTest15MemoryOutStream7GetTextEv
_ZNSolsEm
_ZNSolsEj
_ZStlsISt11char_traitsIcEERSt13basic_ostreamIcT_ES5_c
_ZStlsISt11char_traitsIcEERSt13basic_ostreamIcT_ES5_h
_ZNSolsEl
_ZN8UnitTest4TestD2Ev
_ZTISt19basic_ostringstreamIcSt11char_traitsIcESaIcEE
_ZTISo
_ZTVN10__cxxabiv120__si_class_type_infoE
_ZTIN8UnitTest4TestE
__dso_handle
__cxa_atexit
_ZN8UnitTest4Test11GetTestListEv
_ZN8UnitTest9ListAdderC1ERNS_8TestListEPNS_4TestE
__pthread_key_create
