   1              		.file	"testConv.cpp"
   2              		.text
   3              	.Ltext0:
   4              		.section	.rodata
   5              	.LC0:
   6 0000 44656661 		.string	"DefaultSuite"
   6      756C7453 
   6      75697465 
   6      00
   7              		.section	.text._ZN13UnitTestSuite12GetSuiteNameEv,"axG",@progbits,_ZN13UnitTestSuite12GetSuiteName
   8              		.weak	_ZN13UnitTestSuite12GetSuiteNameEv
  10              	_ZN13UnitTestSuite12GetSuiteNameEv:
  11              	.LFB0:
  12              		.file 1 "/home/asoreyh/Dropbox/projects/lago/lago-software/acqua/brc/lago/makestuff/libs/libutpp/T
   1:/home/asoreyh/Dropbox/projects/lago/lago-software/acqua/brc/lago/makestuff/libs/libutpp/TestSuite.h **** #ifndef UNITTEST_TESTSUITE_H
   2:/home/asoreyh/Dropbox/projects/lago/lago-software/acqua/brc/lago/makestuff/libs/libutpp/TestSuite.h **** #define UNITTEST_TESTSUITE_H
   3:/home/asoreyh/Dropbox/projects/lago/lago-software/acqua/brc/lago/makestuff/libs/libutpp/TestSuite.h **** 
   4:/home/asoreyh/Dropbox/projects/lago/lago-software/acqua/brc/lago/makestuff/libs/libutpp/TestSuite.h **** namespace UnitTestSuite {
   5:/home/asoreyh/Dropbox/projects/lago/lago-software/acqua/brc/lago/makestuff/libs/libutpp/TestSuite.h **** 
   6:/home/asoreyh/Dropbox/projects/lago/lago-software/acqua/brc/lago/makestuff/libs/libutpp/TestSuite.h ****     inline char const* GetSuiteName ()
   7:/home/asoreyh/Dropbox/projects/lago/lago-software/acqua/brc/lago/makestuff/libs/libutpp/TestSuite.h ****     {
  13              		.loc 1 7 0
  14              		.cfi_startproc
  15 0000 55       		pushq	%rbp
  16              		.cfi_def_cfa_offset 16
  17              		.cfi_offset 6, -16
  18 0001 4889E5   		movq	%rsp, %rbp
  19              		.cfi_def_cfa_register 6
   8:/home/asoreyh/Dropbox/projects/lago/lago-software/acqua/brc/lago/makestuff/libs/libutpp/TestSuite.h ****         return "DefaultSuite";
  20              		.loc 1 8 0
  21 0004 B8000000 		movl	$.LC0, %eax
  21      00
   9:/home/asoreyh/Dropbox/projects/lago/lago-software/acqua/brc/lago/makestuff/libs/libutpp/TestSuite.h ****     }
  22              		.loc 1 9 0
  23 0009 5D       		popq	%rbp
  24              		.cfi_def_cfa 7, 8
  25 000a C3       		ret
  26              		.cfi_endproc
  27              	.LFE0:
  29              		.section	.text._ZN8UnitTest15MemoryOutStreamC1Ev,"axG",@progbits,_ZN8UnitTest15MemoryOutStreamC1Ev
  30              		.align 2
  31              		.weak	_ZN8UnitTest15MemoryOutStreamC1Ev
  33              	_ZN8UnitTest15MemoryOutStreamC1Ev:
  34              	.LFB1053:
  35              		.file 2 "/home/asoreyh/Dropbox/projects/lago/lago-software/acqua/brc/lago/makestuff/libs/libutpp/M
   1:/home/asoreyh/Dropbox/projects/lago/lago-software/acqua/brc/lago/makestuff/libs/libutpp/MemoryOutStream.h **** #ifndef UNITTEST_MEMORYOUTSTREAM_H
   2:/home/asoreyh/Dropbox/projects/lago/lago-software/acqua/brc/lago/makestuff/libs/libutpp/MemoryOutStream.h **** #define UNITTEST_MEMORYOUTSTREAM_H
   3:/home/asoreyh/Dropbox/projects/lago/lago-software/acqua/brc/lago/makestuff/libs/libutpp/MemoryOutStream.h **** 
   4:/home/asoreyh/Dropbox/projects/lago/lago-software/acqua/brc/lago/makestuff/libs/libutpp/MemoryOutStream.h **** #include "Config.h"
   5:/home/asoreyh/Dropbox/projects/lago/lago-software/acqua/brc/lago/makestuff/libs/libutpp/MemoryOutStream.h **** 
   6:/home/asoreyh/Dropbox/projects/lago/lago-software/acqua/brc/lago/makestuff/libs/libutpp/MemoryOutStream.h **** #ifndef UNITTEST_USE_CUSTOM_STREAMS
   7:/home/asoreyh/Dropbox/projects/lago/lago-software/acqua/brc/lago/makestuff/libs/libutpp/MemoryOutStream.h **** 
   8:/home/asoreyh/Dropbox/projects/lago/lago-software/acqua/brc/lago/makestuff/libs/libutpp/MemoryOutStream.h **** #include <sstream>
   9:/home/asoreyh/Dropbox/projects/lago/lago-software/acqua/brc/lago/makestuff/libs/libutpp/MemoryOutStream.h **** 
  10:/home/asoreyh/Dropbox/projects/lago/lago-software/acqua/brc/lago/makestuff/libs/libutpp/MemoryOutStream.h **** namespace UnitTest
  11:/home/asoreyh/Dropbox/projects/lago/lago-software/acqua/brc/lago/makestuff/libs/libutpp/MemoryOutStream.h **** {
  12:/home/asoreyh/Dropbox/projects/lago/lago-software/acqua/brc/lago/makestuff/libs/libutpp/MemoryOutStream.h **** 
  13:/home/asoreyh/Dropbox/projects/lago/lago-software/acqua/brc/lago/makestuff/libs/libutpp/MemoryOutStream.h **** class MemoryOutStream : public std::ostringstream
  14:/home/asoreyh/Dropbox/projects/lago/lago-software/acqua/brc/lago/makestuff/libs/libutpp/MemoryOutStream.h **** {
  15:/home/asoreyh/Dropbox/projects/lago/lago-software/acqua/brc/lago/makestuff/libs/libutpp/MemoryOutStream.h **** public:
  16:/home/asoreyh/Dropbox/projects/lago/lago-software/acqua/brc/lago/makestuff/libs/libutpp/MemoryOutStream.h ****     MemoryOutStream() {}
  36              		.loc 2 16 0
  37              		.cfi_startproc
  38              		.cfi_personality 0x3,__gxx_personality_v0
  39              		.cfi_lsda 0x3,.LLSDA1053
  40 0000 55       		pushq	%rbp
  41              		.cfi_def_cfa_offset 16
  42              		.cfi_offset 6, -16
  43 0001 4889E5   		movq	%rsp, %rbp
  44              		.cfi_def_cfa_register 6
  45 0004 53       		pushq	%rbx
  46 0005 4883EC18 		subq	$24, %rsp
  47              		.cfi_offset 3, -24
  48 0009 48897DE8 		movq	%rdi, -24(%rbp)
  49              	.LBB2:
  50              		.loc 2 16 0
  51 000d 488B45E8 		movq	-24(%rbp), %rax
  52 0011 4883C060 		addq	$96, %rax
  53 0015 4889C7   		movq	%rax, %rdi
  54              	.LEHB0:
  55 0018 E8000000 		call	_ZNSt9basic_iosIcSt11char_traitsIcEEC2Ev
  55      00
  56              	.LEHE0:
  57 001d B9000000 		movl	$_ZTTN8UnitTest15MemoryOutStreamE+8, %ecx
  57      00
  58 0022 488B45E8 		movq	-24(%rbp), %rax
  59 0026 BA100000 		movl	$16, %edx
  59      00
  60 002b 4889CE   		movq	%rcx, %rsi
  61 002e 4889C7   		movq	%rax, %rdi
  62              	.LEHB1:
  63 0031 E8000000 		call	_ZNSt19basic_ostringstreamIcSt11char_traitsIcESaIcEEC2ESt13_Ios_Openmode
  63      00
  64              	.LEHE1:
  65              		.loc 2 16 0 is_stmt 0 discriminator 9
  66 0036 BA000000 		movl	$_ZTVN8UnitTest15MemoryOutStreamE+24, %edx
  66      00
  67 003b 488B45E8 		movq	-24(%rbp), %rax
  68 003f 488910   		movq	%rdx, (%rax)
  69 0042 BA600000 		movl	$96, %edx
  69      00
  70 0047 488B45E8 		movq	-24(%rbp), %rax
  71 004b 4801D0   		addq	%rdx, %rax
  72 004e BA000000 		movl	$_ZTVN8UnitTest15MemoryOutStreamE+64, %edx
  72      00
  73 0053 488910   		movq	%rdx, (%rax)
  74 0056 488B45E8 		movq	-24(%rbp), %rax
  75 005a 4883C058 		addq	$88, %rax
  76 005e 4889C7   		movq	%rax, %rdi
  77              	.LEHB2:
  78 0061 E8000000 		call	_ZNSsC1Ev
  78      00
  79              	.LEHE2:
  80              	.LBE2:
  81              		.loc 2 16 0
  82 0066 EB37     		jmp	.L8
  83              	.L6:
  84 0068 4889C3   		movq	%rax, %rbx
  85              	.LBB3:
  86 006b BA000000 		movl	$_ZTTN8UnitTest15MemoryOutStreamE+8, %edx
  86      00
  87 0070 488B45E8 		movq	-24(%rbp), %rax
  88 0074 4889D6   		movq	%rdx, %rsi
  89 0077 4889C7   		movq	%rax, %rdi
  90 007a E8000000 		call	_ZNSt19basic_ostringstreamIcSt11char_traitsIcESaIcEED2Ev
  90      00
  91 007f EB03     		jmp	.L5
  92              	.L7:
  93 0081 4889C3   		movq	%rax, %rbx
  94              	.L5:
  95              		.loc 2 16 0 discriminator 28
  96 0084 488B45E8 		movq	-24(%rbp), %rax
  97 0088 4883C060 		addq	$96, %rax
  98 008c 4889C7   		movq	%rax, %rdi
  99 008f E8000000 		call	_ZNSt9basic_iosIcSt11char_traitsIcEED2Ev
  99      00
 100 0094 4889D8   		movq	%rbx, %rax
 101 0097 4889C7   		movq	%rax, %rdi
 102              	.LEHB3:
 103 009a E8000000 		call	_Unwind_Resume
 103      00
 104              	.LEHE3:
 105              	.L8:
 106              	.LBE3:
 107              		.loc 2 16 0
 108 009f 4883C418 		addq	$24, %rsp
 109 00a3 5B       		popq	%rbx
 110 00a4 5D       		popq	%rbp
 111              		.cfi_def_cfa 7, 8
 112 00a5 C3       		ret
 113              		.cfi_endproc
 114              	.LFE1053:
 115              		.globl	__gxx_personality_v0
 116              		.section	.gcc_except_table._ZN8UnitTest15MemoryOutStreamC1Ev,"aG",@progbits,_ZN8UnitTest15MemoryOu
 117              	.LLSDA1053:
 118 0000 FF       		.byte	0xff
 119 0001 FF       		.byte	0xff
 120 0002 01       		.byte	0x1
 121 0003 12       		.uleb128 .LLSDACSE1053-.LLSDACSB1053
 122              	.LLSDACSB1053:
 123 0004 18       		.uleb128 .LEHB0-.LFB1053
 124 0005 05       		.uleb128 .LEHE0-.LEHB0
 125 0006 00       		.uleb128 0
 126 0007 00       		.uleb128 0
 127 0008 31       		.uleb128 .LEHB1-.LFB1053
 128 0009 05       		.uleb128 .LEHE1-.LEHB1
 129 000a 8101     		.uleb128 .L7-.LFB1053
 130 000c 00       		.uleb128 0
 131 000d 61       		.uleb128 .LEHB2-.LFB1053
 132 000e 05       		.uleb128 .LEHE2-.LEHB2
 133 000f 68       		.uleb128 .L6-.LFB1053
 134 0010 00       		.uleb128 0
 135 0011 9A01     		.uleb128 .LEHB3-.LFB1053
 136 0013 05       		.uleb128 .LEHE3-.LEHB3
 137 0014 00       		.uleb128 0
 138 0015 00       		.uleb128 0
 139              	.LLSDACSE1053:
 140              		.section	.text._ZN8UnitTest15MemoryOutStreamC1Ev,"axG",@progbits,_ZN8UnitTest15MemoryOutStreamC1Ev
 142              		.section	.rodata
 143              	.LC1:
 144 000d 74657374 		.string	"testConv.cpp"
 144      436F6E76 
 144      2E637070 
 144      00
 145              	.LC2:
 146 001a 436F6E76 		.string	"Conv_testGetHexNibble"
 146      5F746573 
 146      74476574 
 146      4865784E 
 146      6962626C 
 147              		.section	.text._ZN25TestConv_testGetHexNibbleC2Ev,"axG",@progbits,_ZN25TestConv_testGetHexNibbleC5
 148              		.align 2
 149              		.weak	_ZN25TestConv_testGetHexNibbleC2Ev
 151              	_ZN25TestConv_testGetHexNibbleC2Ev:
 152              	.LFB1070:
 153              		.file 3 "testConv.cpp"
   1:testConv.cpp  **** /*
   2:testConv.cpp  ****  * Copyright (C) 2009-2012 Chris McClelland
   3:testConv.cpp  ****  *
   4:testConv.cpp  ****  * This program is free software: you can redistribute it and/or modify
   5:testConv.cpp  ****  * it under the terms of the GNU Lesser General Public License as published by
   6:testConv.cpp  ****  * the Free Software Foundation, either version 3 of the License, or
   7:testConv.cpp  ****  * (at your option) any later version.
   8:testConv.cpp  ****  *
   9:testConv.cpp  ****  * This program is distributed in the hope that it will be useful,
  10:testConv.cpp  ****  * but WITHOUT ANY WARRANTY; without even the implied warranty of
  11:testConv.cpp  ****  * MERCHANTABILITY or FITNESS FOR A PARTICULAR PURPOSE.  See the
  12:testConv.cpp  ****  * GNU Lesser General Public License for more details.
  13:testConv.cpp  ****  *
  14:testConv.cpp  ****  * You should have received a copy of the GNU Lesser General Public License
  15:testConv.cpp  ****  * along with this program.  If not, see <http://www.gnu.org/licenses/>.
  16:testConv.cpp  ****  */
  17:testConv.cpp  **** #include <UnitTest++.h>
  18:testConv.cpp  **** #include "../conv.h"
  19:testConv.cpp  **** 
  20:testConv.cpp  **** TEST(Conv_testGetHexNibble) {
 154              		.loc 3 20 0 is_stmt 1
 155              		.cfi_startproc
 156 0000 55       		pushq	%rbp
 157              		.cfi_def_cfa_offset 16
 158              		.cfi_offset 6, -16
 159 0001 4889E5   		movq	%rsp, %rbp
 160              		.cfi_def_cfa_register 6
 161 0004 4883EC10 		subq	$16, %rsp
 162 0008 48897DF8 		movq	%rdi, -8(%rbp)
 163              	.LBB4:
 164              		.loc 3 20 0
 165 000c E8000000 		call	_ZN13UnitTestSuite12GetSuiteNameEv
 165      00
 166 0011 4889C2   		movq	%rax, %rdx
 167 0014 488B45F8 		movq	-8(%rbp), %rax
 168 0018 41B81400 		movl	$20, %r8d
 168      0000
 169 001e B9000000 		movl	$.LC1, %ecx
 169      00
 170 0023 BE000000 		movl	$.LC2, %esi
 170      00
 171 0028 4889C7   		movq	%rax, %rdi
 172 002b E8000000 		call	_ZN8UnitTest4TestC2EPKcS2_S2_i
 172      00
 173 0030 488B45F8 		movq	-8(%rbp), %rax
 174 0034 48C70000 		movq	$_ZTV25TestConv_testGetHexNibble+16, (%rax)
 174      000000
 175              	.LBE4:
 176 003b C9       		leave
 177              		.cfi_def_cfa 7, 8
 178 003c C3       		ret
 179              		.cfi_endproc
 180              	.LFE1070:
 182              		.weak	_ZN25TestConv_testGetHexNibbleC1Ev
 183              		.set	_ZN25TestConv_testGetHexNibbleC1Ev,_ZN25TestConv_testGetHexNibbleC2Ev
 184              		.globl	testConv_testGetHexNibbleInstance
 185              		.bss
 186              		.align 32
 189              	testConv_testGetHexNibbleInstance:
 190 0000 00000000 		.zero	56
 190      00000000 
 190      00000000 
 190      00000000 
 190      00000000 
 191              		.globl	adderConv_testGetHexNibble
 194              	adderConv_testGetHexNibble:
 195 0038 00       		.zero	1
 196              		.section	.rodata
 197              		.align 8
 198              	.LC3:
 199 0030 556E6861 		.string	"Unhandled exception in CHECK_EQUAL(false, status)"
 199      6E646C65 
 199      64206578 
 199      63657074 
 199      696F6E20 
 200 0062 00000000 		.align 8
 200      0000
 201              	.LC4:
 202 0068 556E6861 		.string	"Unhandled exception in CHECK_EQUAL(0, nibble)"
 202      6E646C65 
 202      64206578 
 202      63657074 
 202      696F6E20 
 203 0096 0000     		.align 8
 204              	.LC5:
 205 0098 556E6861 		.string	"Unhandled exception in CHECK_EQUAL(1, nibble)"
 205      6E646C65 
 205      64206578 
 205      63657074 
 205      696F6E20 
 206 00c6 0000     		.align 8
 207              	.LC6:
 208 00c8 556E6861 		.string	"Unhandled exception in CHECK_EQUAL(2, nibble)"
 208      6E646C65 
 208      64206578 
 208      63657074 
 208      696F6E20 
 209 00f6 0000     		.align 8
 210              	.LC7:
 211 00f8 556E6861 		.string	"Unhandled exception in CHECK_EQUAL(3, nibble)"
 211      6E646C65 
 211      64206578 
 211      63657074 
 211      696F6E20 
 212 0126 0000     		.align 8
 213              	.LC8:
 214 0128 556E6861 		.string	"Unhandled exception in CHECK_EQUAL(4, nibble)"
 214      6E646C65 
 214      64206578 
 214      63657074 
 214      696F6E20 
 215 0156 0000     		.align 8
 216              	.LC9:
 217 0158 556E6861 		.string	"Unhandled exception in CHECK_EQUAL(5, nibble)"
 217      6E646C65 
 217      64206578 
 217      63657074 
 217      696F6E20 
 218 0186 0000     		.align 8
 219              	.LC10:
 220 0188 556E6861 		.string	"Unhandled exception in CHECK_EQUAL(6, nibble)"
 220      6E646C65 
 220      64206578 
 220      63657074 
 220      696F6E20 
 221 01b6 0000     		.align 8
 222              	.LC11:
 223 01b8 556E6861 		.string	"Unhandled exception in CHECK_EQUAL(7, nibble)"
 223      6E646C65 
 223      64206578 
 223      63657074 
 223      696F6E20 
 224 01e6 0000     		.align 8
 225              	.LC12:
 226 01e8 556E6861 		.string	"Unhandled exception in CHECK_EQUAL(8, nibble)"
 226      6E646C65 
 226      64206578 
 226      63657074 
 226      696F6E20 
 227 0216 0000     		.align 8
 228              	.LC13:
 229 0218 556E6861 		.string	"Unhandled exception in CHECK_EQUAL(9, nibble)"
 229      6E646C65 
 229      64206578 
 229      63657074 
 229      696F6E20 
 230 0246 0000     		.align 8
 231              	.LC14:
 232 0248 556E6861 		.string	"Unhandled exception in CHECK_EQUAL(10, nibble)"
 232      6E646C65 
 232      64206578 
 232      63657074 
 232      696F6E20 
 233 0277 00       		.align 8
 234              	.LC15:
 235 0278 556E6861 		.string	"Unhandled exception in CHECK_EQUAL(11, nibble)"
 235      6E646C65 
 235      64206578 
 235      63657074 
 235      696F6E20 
 236 02a7 00       		.align 8
 237              	.LC16:
 238 02a8 556E6861 		.string	"Unhandled exception in CHECK_EQUAL(12, nibble)"
 238      6E646C65 
 238      64206578 
 238      63657074 
 238      696F6E20 
 239 02d7 00       		.align 8
 240              	.LC17:
 241 02d8 556E6861 		.string	"Unhandled exception in CHECK_EQUAL(13, nibble)"
 241      6E646C65 
 241      64206578 
 241      63657074 
 241      696F6E20 
 242 0307 00       		.align 8
 243              	.LC18:
 244 0308 556E6861 		.string	"Unhandled exception in CHECK_EQUAL(14, nibble)"
 244      6E646C65 
 244      64206578 
 244      63657074 
 244      696F6E20 
 245 0337 00       		.align 8
 246              	.LC19:
 247 0338 556E6861 		.string	"Unhandled exception in CHECK_EQUAL(15, nibble)"
 247      6E646C65 
 247      64206578 
 247      63657074 
 247      696F6E20 
 248 0367 00       		.align 8
 249              	.LC20:
 250 0368 556E6861 		.string	"Unhandled exception in CHECK_EQUAL(true, status)"
 250      6E646C65 
 250      64206578 
 250      63657074 
 250      696F6E20 
 251              		.text
 252              		.align 2
 253              		.globl	_ZNK25TestConv_testGetHexNibble7RunImplEv
 255              	_ZNK25TestConv_testGetHexNibble7RunImplEv:
 256              	.LFB1072:
 257              		.loc 3 20 0
 258              		.cfi_startproc
 259              		.cfi_personality 0x3,__gxx_personality_v0
 260              		.cfi_lsda 0x3,.LLSDA1072
 261 0000 55       		pushq	%rbp
 262              		.cfi_def_cfa_offset 16
 263              		.cfi_offset 6, -16
 264 0001 4889E5   		movq	%rsp, %rbp
 265              		.cfi_def_cfa_register 6
 266 0004 53       		pushq	%rbx
 267 0005 4883EC58 		subq	$88, %rsp
 268              		.cfi_offset 3, -24
 269 0009 48897DA8 		movq	%rdi, -88(%rbp)
 270              		.loc 3 20 0
 271 000d 64488B04 		movq	%fs:40, %rax
 271      25280000 
 271      00
 272 0016 488945E8 		movq	%rax, -24(%rbp)
 273 001a 31C0     		xorl	%eax, %eax
 274              	.LBB5:
  21:testConv.cpp  **** 	uint8 nibble;
  22:testConv.cpp  **** 	bool status;
  23:testConv.cpp  **** 	status = getHexNibble('0', &nibble);
 275              		.loc 3 23 0
 276 001c 488D45BA 		leaq	-70(%rbp), %rax
 277 0020 4889C6   		movq	%rax, %rsi
 278 0023 BF300000 		movl	$48, %edi
 278      00
 279              	.LEHB4:
 280 0028 E8000000 		call	getHexNibble
 280      00
 281              	.LEHE4:
 282 002d 8845BB   		movb	%al, -69(%rbp)
 283              	.LEHB5:
  24:testConv.cpp  **** 	CHECK_EQUAL(false, status);
 284              		.loc 3 24 0
 285 0030 E8000000 		call	_ZN8UnitTest11CurrentTest7DetailsEv
 285      00
 286 0035 488B08   		movq	(%rax), %rcx
 287 0038 488D45C0 		leaq	-64(%rbp), %rax
 288 003c BA180000 		movl	$24, %edx
 288      00
 289 0041 4889CE   		movq	%rcx, %rsi
 290 0044 4889C7   		movq	%rax, %rdi
 291 0047 E8000000 		call	_ZN8UnitTest11TestDetailsC1ERKS0_i
 291      00
 292              		.loc 3 24 0 is_stmt 0 discriminator 2
 293 004c C645BC00 		movb	$0, -68(%rbp)
 294 0050 E8000000 		call	_ZN8UnitTest11CurrentTest7ResultsEv
 294      00
 295 0055 488B00   		movq	(%rax), %rax
 296 0058 488D4DC0 		leaq	-64(%rbp), %rcx
 297 005c 488D55BB 		leaq	-69(%rbp), %rdx
 298 0060 488D75BC 		leaq	-68(%rbp), %rsi
 299 0064 4889C7   		movq	%rax, %rdi
 300 0067 E8000000 		call	_ZN8UnitTest10CheckEqualIbbEEvRNS_11TestResultsERKT_RKT0_RKNS_11TestDetailsE
 300      00
 301              	.LEHE5:
 302              	.L13:
 303              	.LEHB6:
  25:testConv.cpp  **** 	CHECK_EQUAL(0, nibble);
 304              		.loc 3 25 0 is_stmt 1
 305 006c E8000000 		call	_ZN8UnitTest11CurrentTest7DetailsEv
 305      00
 306 0071 488B08   		movq	(%rax), %rcx
 307 0074 488D45C0 		leaq	-64(%rbp), %rax
 308 0078 BA190000 		movl	$25, %edx
 308      00
 309 007d 4889CE   		movq	%rcx, %rsi
 310 0080 4889C7   		movq	%rax, %rdi
 311 0083 E8000000 		call	_ZN8UnitTest11TestDetailsC1ERKS0_i
 311      00
 312              		.loc 3 25 0 is_stmt 0 discriminator 2
 313 0088 C745BC00 		movl	$0, -68(%rbp)
 313      000000
 314 008f E8000000 		call	_ZN8UnitTest11CurrentTest7ResultsEv
 314      00
 315 0094 488B00   		movq	(%rax), %rax
 316 0097 488D4DC0 		leaq	-64(%rbp), %rcx
 317 009b 488D55BA 		leaq	-70(%rbp), %rdx
 318 009f 488D75BC 		leaq	-68(%rbp), %rsi
 319 00a3 4889C7   		movq	%rax, %rdi
 320 00a6 E8000000 		call	_ZN8UnitTest10CheckEqualIihEEvRNS_11TestResultsERKT_RKT0_RKNS_11TestDetailsE
 320      00
 321              	.LEHE6:
 322              	.L16:
  26:testConv.cpp  **** 	status = getHexNibble('1', &nibble);
 323              		.loc 3 26 0 is_stmt 1
 324 00ab 488D45BA 		leaq	-70(%rbp), %rax
 325 00af 4889C6   		movq	%rax, %rsi
 326 00b2 BF310000 		movl	$49, %edi
 326      00
 327              	.LEHB7:
 328 00b7 E8000000 		call	getHexNibble
 328      00
 329              	.LEHE7:
 330 00bc 8845BB   		movb	%al, -69(%rbp)
 331              	.LEHB8:
  27:testConv.cpp  **** 	CHECK_EQUAL(false, status);
 332              		.loc 3 27 0
 333 00bf E8000000 		call	_ZN8UnitTest11CurrentTest7DetailsEv
 333      00
 334 00c4 488B08   		movq	(%rax), %rcx
 335 00c7 488D45C0 		leaq	-64(%rbp), %rax
 336 00cb BA1B0000 		movl	$27, %edx
 336      00
 337 00d0 4889CE   		movq	%rcx, %rsi
 338 00d3 4889C7   		movq	%rax, %rdi
 339 00d6 E8000000 		call	_ZN8UnitTest11TestDetailsC1ERKS0_i
 339      00
 340              		.loc 3 27 0 is_stmt 0 discriminator 2
 341 00db C645BC00 		movb	$0, -68(%rbp)
 342 00df E8000000 		call	_ZN8UnitTest11CurrentTest7ResultsEv
 342      00
 343 00e4 488B00   		movq	(%rax), %rax
 344 00e7 488D4DC0 		leaq	-64(%rbp), %rcx
 345 00eb 488D55BB 		leaq	-69(%rbp), %rdx
 346 00ef 488D75BC 		leaq	-68(%rbp), %rsi
 347 00f3 4889C7   		movq	%rax, %rdi
 348 00f6 E8000000 		call	_ZN8UnitTest10CheckEqualIbbEEvRNS_11TestResultsERKT_RKT0_RKNS_11TestDetailsE
 348      00
 349              	.LEHE8:
 350              	.L19:
 351              	.LEHB9:
  28:testConv.cpp  **** 	CHECK_EQUAL(1, nibble);
 352              		.loc 3 28 0 is_stmt 1
 353 00fb E8000000 		call	_ZN8UnitTest11CurrentTest7DetailsEv
 353      00
 354 0100 488B08   		movq	(%rax), %rcx
 355 0103 488D45C0 		leaq	-64(%rbp), %rax
 356 0107 BA1C0000 		movl	$28, %edx
 356      00
 357 010c 4889CE   		movq	%rcx, %rsi
 358 010f 4889C7   		movq	%rax, %rdi
 359 0112 E8000000 		call	_ZN8UnitTest11TestDetailsC1ERKS0_i
 359      00
 360              		.loc 3 28 0 is_stmt 0 discriminator 2
 361 0117 C745BC01 		movl	$1, -68(%rbp)
 361      000000
 362 011e E8000000 		call	_ZN8UnitTest11CurrentTest7ResultsEv
 362      00
 363 0123 488B00   		movq	(%rax), %rax
 364 0126 488D4DC0 		leaq	-64(%rbp), %rcx
 365 012a 488D55BA 		leaq	-70(%rbp), %rdx
 366 012e 488D75BC 		leaq	-68(%rbp), %rsi
 367 0132 4889C7   		movq	%rax, %rdi
 368 0135 E8000000 		call	_ZN8UnitTest10CheckEqualIihEEvRNS_11TestResultsERKT_RKT0_RKNS_11TestDetailsE
 368      00
 369              	.LEHE9:
 370              	.L22:
  29:testConv.cpp  **** 	status = getHexNibble('2', &nibble);
 371              		.loc 3 29 0 is_stmt 1
 372 013a 488D45BA 		leaq	-70(%rbp), %rax
 373 013e 4889C6   		movq	%rax, %rsi
 374 0141 BF320000 		movl	$50, %edi
 374      00
 375              	.LEHB10:
 376 0146 E8000000 		call	getHexNibble
 376      00
 377              	.LEHE10:
 378 014b 8845BB   		movb	%al, -69(%rbp)
 379              	.LEHB11:
  30:testConv.cpp  **** 	CHECK_EQUAL(false, status);
 380              		.loc 3 30 0
 381 014e E8000000 		call	_ZN8UnitTest11CurrentTest7DetailsEv
 381      00
 382 0153 488B08   		movq	(%rax), %rcx
 383 0156 488D45C0 		leaq	-64(%rbp), %rax
 384 015a BA1E0000 		movl	$30, %edx
 384      00
 385 015f 4889CE   		movq	%rcx, %rsi
 386 0162 4889C7   		movq	%rax, %rdi
 387 0165 E8000000 		call	_ZN8UnitTest11TestDetailsC1ERKS0_i
 387      00
 388              		.loc 3 30 0 is_stmt 0 discriminator 2
 389 016a C645BC00 		movb	$0, -68(%rbp)
 390 016e E8000000 		call	_ZN8UnitTest11CurrentTest7ResultsEv
 390      00
 391 0173 488B00   		movq	(%rax), %rax
 392 0176 488D4DC0 		leaq	-64(%rbp), %rcx
 393 017a 488D55BB 		leaq	-69(%rbp), %rdx
 394 017e 488D75BC 		leaq	-68(%rbp), %rsi
 395 0182 4889C7   		movq	%rax, %rdi
 396 0185 E8000000 		call	_ZN8UnitTest10CheckEqualIbbEEvRNS_11TestResultsERKT_RKT0_RKNS_11TestDetailsE
 396      00
 397              	.LEHE11:
 398              	.L25:
 399              	.LEHB12:
  31:testConv.cpp  **** 	CHECK_EQUAL(2, nibble);
 400              		.loc 3 31 0 is_stmt 1
 401 018a E8000000 		call	_ZN8UnitTest11CurrentTest7DetailsEv
 401      00
 402 018f 488B08   		movq	(%rax), %rcx
 403 0192 488D45C0 		leaq	-64(%rbp), %rax
 404 0196 BA1F0000 		movl	$31, %edx
 404      00
 405 019b 4889CE   		movq	%rcx, %rsi
 406 019e 4889C7   		movq	%rax, %rdi
 407 01a1 E8000000 		call	_ZN8UnitTest11TestDetailsC1ERKS0_i
 407      00
 408              		.loc 3 31 0 is_stmt 0 discriminator 2
 409 01a6 C745BC02 		movl	$2, -68(%rbp)
 409      000000
 410 01ad E8000000 		call	_ZN8UnitTest11CurrentTest7ResultsEv
 410      00
 411 01b2 488B00   		movq	(%rax), %rax
 412 01b5 488D4DC0 		leaq	-64(%rbp), %rcx
 413 01b9 488D55BA 		leaq	-70(%rbp), %rdx
 414 01bd 488D75BC 		leaq	-68(%rbp), %rsi
 415 01c1 4889C7   		movq	%rax, %rdi
 416 01c4 E8000000 		call	_ZN8UnitTest10CheckEqualIihEEvRNS_11TestResultsERKT_RKT0_RKNS_11TestDetailsE
 416      00
 417              	.LEHE12:
 418              	.L28:
  32:testConv.cpp  **** 	status = getHexNibble('3', &nibble);
 419              		.loc 3 32 0 is_stmt 1
 420 01c9 488D45BA 		leaq	-70(%rbp), %rax
 421 01cd 4889C6   		movq	%rax, %rsi
 422 01d0 BF330000 		movl	$51, %edi
 422      00
 423              	.LEHB13:
 424 01d5 E8000000 		call	getHexNibble
 424      00
 425              	.LEHE13:
 426 01da 8845BB   		movb	%al, -69(%rbp)
 427              	.LEHB14:
  33:testConv.cpp  **** 	CHECK_EQUAL(false, status);
 428              		.loc 3 33 0
 429 01dd E8000000 		call	_ZN8UnitTest11CurrentTest7DetailsEv
 429      00
 430 01e2 488B08   		movq	(%rax), %rcx
 431 01e5 488D45C0 		leaq	-64(%rbp), %rax
 432 01e9 BA210000 		movl	$33, %edx
 432      00
 433 01ee 4889CE   		movq	%rcx, %rsi
 434 01f1 4889C7   		movq	%rax, %rdi
 435 01f4 E8000000 		call	_ZN8UnitTest11TestDetailsC1ERKS0_i
 435      00
 436              		.loc 3 33 0 is_stmt 0 discriminator 2
 437 01f9 C645BC00 		movb	$0, -68(%rbp)
 438 01fd E8000000 		call	_ZN8UnitTest11CurrentTest7ResultsEv
 438      00
 439 0202 488B00   		movq	(%rax), %rax
 440 0205 488D4DC0 		leaq	-64(%rbp), %rcx
 441 0209 488D55BB 		leaq	-69(%rbp), %rdx
 442 020d 488D75BC 		leaq	-68(%rbp), %rsi
 443 0211 4889C7   		movq	%rax, %rdi
 444 0214 E8000000 		call	_ZN8UnitTest10CheckEqualIbbEEvRNS_11TestResultsERKT_RKT0_RKNS_11TestDetailsE
 444      00
 445              	.LEHE14:
 446              	.L31:
 447              	.LEHB15:
  34:testConv.cpp  **** 	CHECK_EQUAL(3, nibble);
 448              		.loc 3 34 0 is_stmt 1
 449 0219 E8000000 		call	_ZN8UnitTest11CurrentTest7DetailsEv
 449      00
 450 021e 488B08   		movq	(%rax), %rcx
 451 0221 488D45C0 		leaq	-64(%rbp), %rax
 452 0225 BA220000 		movl	$34, %edx
 452      00
 453 022a 4889CE   		movq	%rcx, %rsi
 454 022d 4889C7   		movq	%rax, %rdi
 455 0230 E8000000 		call	_ZN8UnitTest11TestDetailsC1ERKS0_i
 455      00
 456              		.loc 3 34 0 is_stmt 0 discriminator 2
 457 0235 C745BC03 		movl	$3, -68(%rbp)
 457      000000
 458 023c E8000000 		call	_ZN8UnitTest11CurrentTest7ResultsEv
 458      00
 459 0241 488B00   		movq	(%rax), %rax
 460 0244 488D4DC0 		leaq	-64(%rbp), %rcx
 461 0248 488D55BA 		leaq	-70(%rbp), %rdx
 462 024c 488D75BC 		leaq	-68(%rbp), %rsi
 463 0250 4889C7   		movq	%rax, %rdi
 464 0253 E8000000 		call	_ZN8UnitTest10CheckEqualIihEEvRNS_11TestResultsERKT_RKT0_RKNS_11TestDetailsE
 464      00
 465              	.LEHE15:
 466              	.L34:
  35:testConv.cpp  **** 	status = getHexNibble('4', &nibble);
 467              		.loc 3 35 0 is_stmt 1
 468 0258 488D45BA 		leaq	-70(%rbp), %rax
 469 025c 4889C6   		movq	%rax, %rsi
 470 025f BF340000 		movl	$52, %edi
 470      00
 471              	.LEHB16:
 472 0264 E8000000 		call	getHexNibble
 472      00
 473              	.LEHE16:
 474 0269 8845BB   		movb	%al, -69(%rbp)
 475              	.LEHB17:
  36:testConv.cpp  **** 	CHECK_EQUAL(false, status);
 476              		.loc 3 36 0
 477 026c E8000000 		call	_ZN8UnitTest11CurrentTest7DetailsEv
 477      00
 478 0271 488B08   		movq	(%rax), %rcx
 479 0274 488D45C0 		leaq	-64(%rbp), %rax
 480 0278 BA240000 		movl	$36, %edx
 480      00
 481 027d 4889CE   		movq	%rcx, %rsi
 482 0280 4889C7   		movq	%rax, %rdi
 483 0283 E8000000 		call	_ZN8UnitTest11TestDetailsC1ERKS0_i
 483      00
 484              		.loc 3 36 0 is_stmt 0 discriminator 2
 485 0288 C645BC00 		movb	$0, -68(%rbp)
 486 028c E8000000 		call	_ZN8UnitTest11CurrentTest7ResultsEv
 486      00
 487 0291 488B00   		movq	(%rax), %rax
 488 0294 488D4DC0 		leaq	-64(%rbp), %rcx
 489 0298 488D55BB 		leaq	-69(%rbp), %rdx
 490 029c 488D75BC 		leaq	-68(%rbp), %rsi
 491 02a0 4889C7   		movq	%rax, %rdi
 492 02a3 E8000000 		call	_ZN8UnitTest10CheckEqualIbbEEvRNS_11TestResultsERKT_RKT0_RKNS_11TestDetailsE
 492      00
 493              	.LEHE17:
 494              	.L37:
 495              	.LEHB18:
  37:testConv.cpp  **** 	CHECK_EQUAL(4, nibble);
 496              		.loc 3 37 0 is_stmt 1
 497 02a8 E8000000 		call	_ZN8UnitTest11CurrentTest7DetailsEv
 497      00
 498 02ad 488B08   		movq	(%rax), %rcx
 499 02b0 488D45C0 		leaq	-64(%rbp), %rax
 500 02b4 BA250000 		movl	$37, %edx
 500      00
 501 02b9 4889CE   		movq	%rcx, %rsi
 502 02bc 4889C7   		movq	%rax, %rdi
 503 02bf E8000000 		call	_ZN8UnitTest11TestDetailsC1ERKS0_i
 503      00
 504              		.loc 3 37 0 is_stmt 0 discriminator 2
 505 02c4 C745BC04 		movl	$4, -68(%rbp)
 505      000000
 506 02cb E8000000 		call	_ZN8UnitTest11CurrentTest7ResultsEv
 506      00
 507 02d0 488B00   		movq	(%rax), %rax
 508 02d3 488D4DC0 		leaq	-64(%rbp), %rcx
 509 02d7 488D55BA 		leaq	-70(%rbp), %rdx
 510 02db 488D75BC 		leaq	-68(%rbp), %rsi
 511 02df 4889C7   		movq	%rax, %rdi
 512 02e2 E8000000 		call	_ZN8UnitTest10CheckEqualIihEEvRNS_11TestResultsERKT_RKT0_RKNS_11TestDetailsE
 512      00
 513              	.LEHE18:
 514              	.L40:
  38:testConv.cpp  **** 	status = getHexNibble('5', &nibble);
 515              		.loc 3 38 0 is_stmt 1
 516 02e7 488D45BA 		leaq	-70(%rbp), %rax
 517 02eb 4889C6   		movq	%rax, %rsi
 518 02ee BF350000 		movl	$53, %edi
 518      00
 519              	.LEHB19:
 520 02f3 E8000000 		call	getHexNibble
 520      00
 521              	.LEHE19:
 522 02f8 8845BB   		movb	%al, -69(%rbp)
 523              	.LEHB20:
  39:testConv.cpp  **** 	CHECK_EQUAL(false, status);
 524              		.loc 3 39 0
 525 02fb E8000000 		call	_ZN8UnitTest11CurrentTest7DetailsEv
 525      00
 526 0300 488B08   		movq	(%rax), %rcx
 527 0303 488D45C0 		leaq	-64(%rbp), %rax
 528 0307 BA270000 		movl	$39, %edx
 528      00
 529 030c 4889CE   		movq	%rcx, %rsi
 530 030f 4889C7   		movq	%rax, %rdi
 531 0312 E8000000 		call	_ZN8UnitTest11TestDetailsC1ERKS0_i
 531      00
 532              		.loc 3 39 0 is_stmt 0 discriminator 2
 533 0317 C645BC00 		movb	$0, -68(%rbp)
 534 031b E8000000 		call	_ZN8UnitTest11CurrentTest7ResultsEv
 534      00
 535 0320 488B00   		movq	(%rax), %rax
 536 0323 488D4DC0 		leaq	-64(%rbp), %rcx
 537 0327 488D55BB 		leaq	-69(%rbp), %rdx
 538 032b 488D75BC 		leaq	-68(%rbp), %rsi
 539 032f 4889C7   		movq	%rax, %rdi
 540 0332 E8000000 		call	_ZN8UnitTest10CheckEqualIbbEEvRNS_11TestResultsERKT_RKT0_RKNS_11TestDetailsE
 540      00
 541              	.LEHE20:
 542              	.L43:
 543              	.LEHB21:
  40:testConv.cpp  **** 	CHECK_EQUAL(5, nibble);
 544              		.loc 3 40 0 is_stmt 1
 545 0337 E8000000 		call	_ZN8UnitTest11CurrentTest7DetailsEv
 545      00
 546 033c 488B08   		movq	(%rax), %rcx
 547 033f 488D45C0 		leaq	-64(%rbp), %rax
 548 0343 BA280000 		movl	$40, %edx
 548      00
 549 0348 4889CE   		movq	%rcx, %rsi
 550 034b 4889C7   		movq	%rax, %rdi
 551 034e E8000000 		call	_ZN8UnitTest11TestDetailsC1ERKS0_i
 551      00
 552              		.loc 3 40 0 is_stmt 0 discriminator 2
 553 0353 C745BC05 		movl	$5, -68(%rbp)
 553      000000
 554 035a E8000000 		call	_ZN8UnitTest11CurrentTest7ResultsEv
 554      00
 555 035f 488B00   		movq	(%rax), %rax
 556 0362 488D4DC0 		leaq	-64(%rbp), %rcx
 557 0366 488D55BA 		leaq	-70(%rbp), %rdx
 558 036a 488D75BC 		leaq	-68(%rbp), %rsi
 559 036e 4889C7   		movq	%rax, %rdi
 560 0371 E8000000 		call	_ZN8UnitTest10CheckEqualIihEEvRNS_11TestResultsERKT_RKT0_RKNS_11TestDetailsE
 560      00
 561              	.LEHE21:
 562              	.L46:
  41:testConv.cpp  **** 	status = getHexNibble('6', &nibble);
 563              		.loc 3 41 0 is_stmt 1
 564 0376 488D45BA 		leaq	-70(%rbp), %rax
 565 037a 4889C6   		movq	%rax, %rsi
 566 037d BF360000 		movl	$54, %edi
 566      00
 567              	.LEHB22:
 568 0382 E8000000 		call	getHexNibble
 568      00
 569              	.LEHE22:
 570 0387 8845BB   		movb	%al, -69(%rbp)
 571              	.LEHB23:
  42:testConv.cpp  **** 	CHECK_EQUAL(false, status);
 572              		.loc 3 42 0
 573 038a E8000000 		call	_ZN8UnitTest11CurrentTest7DetailsEv
 573      00
 574 038f 488B08   		movq	(%rax), %rcx
 575 0392 488D45C0 		leaq	-64(%rbp), %rax
 576 0396 BA2A0000 		movl	$42, %edx
 576      00
 577 039b 4889CE   		movq	%rcx, %rsi
 578 039e 4889C7   		movq	%rax, %rdi
 579 03a1 E8000000 		call	_ZN8UnitTest11TestDetailsC1ERKS0_i
 579      00
 580              		.loc 3 42 0 is_stmt 0 discriminator 2
 581 03a6 C645BC00 		movb	$0, -68(%rbp)
 582 03aa E8000000 		call	_ZN8UnitTest11CurrentTest7ResultsEv
 582      00
 583 03af 488B00   		movq	(%rax), %rax
 584 03b2 488D4DC0 		leaq	-64(%rbp), %rcx
 585 03b6 488D55BB 		leaq	-69(%rbp), %rdx
 586 03ba 488D75BC 		leaq	-68(%rbp), %rsi
 587 03be 4889C7   		movq	%rax, %rdi
 588 03c1 E8000000 		call	_ZN8UnitTest10CheckEqualIbbEEvRNS_11TestResultsERKT_RKT0_RKNS_11TestDetailsE
 588      00
 589              	.LEHE23:
 590              	.L49:
 591              	.LEHB24:
  43:testConv.cpp  **** 	CHECK_EQUAL(6, nibble);
 592              		.loc 3 43 0 is_stmt 1
 593 03c6 E8000000 		call	_ZN8UnitTest11CurrentTest7DetailsEv
 593      00
 594 03cb 488B08   		movq	(%rax), %rcx
 595 03ce 488D45C0 		leaq	-64(%rbp), %rax
 596 03d2 BA2B0000 		movl	$43, %edx
 596      00
 597 03d7 4889CE   		movq	%rcx, %rsi
 598 03da 4889C7   		movq	%rax, %rdi
 599 03dd E8000000 		call	_ZN8UnitTest11TestDetailsC1ERKS0_i
 599      00
 600              		.loc 3 43 0 is_stmt 0 discriminator 2
 601 03e2 C745BC06 		movl	$6, -68(%rbp)
 601      000000
 602 03e9 E8000000 		call	_ZN8UnitTest11CurrentTest7ResultsEv
 602      00
 603 03ee 488B00   		movq	(%rax), %rax
 604 03f1 488D4DC0 		leaq	-64(%rbp), %rcx
 605 03f5 488D55BA 		leaq	-70(%rbp), %rdx
 606 03f9 488D75BC 		leaq	-68(%rbp), %rsi
 607 03fd 4889C7   		movq	%rax, %rdi
 608 0400 E8000000 		call	_ZN8UnitTest10CheckEqualIihEEvRNS_11TestResultsERKT_RKT0_RKNS_11TestDetailsE
 608      00
 609              	.LEHE24:
 610              	.L52:
  44:testConv.cpp  **** 	status = getHexNibble('7', &nibble);
 611              		.loc 3 44 0 is_stmt 1
 612 0405 488D45BA 		leaq	-70(%rbp), %rax
 613 0409 4889C6   		movq	%rax, %rsi
 614 040c BF370000 		movl	$55, %edi
 614      00
 615              	.LEHB25:
 616 0411 E8000000 		call	getHexNibble
 616      00
 617              	.LEHE25:
 618 0416 8845BB   		movb	%al, -69(%rbp)
 619              	.LEHB26:
  45:testConv.cpp  **** 	CHECK_EQUAL(false, status);
 620              		.loc 3 45 0
 621 0419 E8000000 		call	_ZN8UnitTest11CurrentTest7DetailsEv
 621      00
 622 041e 488B08   		movq	(%rax), %rcx
 623 0421 488D45C0 		leaq	-64(%rbp), %rax
 624 0425 BA2D0000 		movl	$45, %edx
 624      00
 625 042a 4889CE   		movq	%rcx, %rsi
 626 042d 4889C7   		movq	%rax, %rdi
 627 0430 E8000000 		call	_ZN8UnitTest11TestDetailsC1ERKS0_i
 627      00
 628              		.loc 3 45 0 is_stmt 0 discriminator 2
 629 0435 C645BC00 		movb	$0, -68(%rbp)
 630 0439 E8000000 		call	_ZN8UnitTest11CurrentTest7ResultsEv
 630      00
 631 043e 488B00   		movq	(%rax), %rax
 632 0441 488D4DC0 		leaq	-64(%rbp), %rcx
 633 0445 488D55BB 		leaq	-69(%rbp), %rdx
 634 0449 488D75BC 		leaq	-68(%rbp), %rsi
 635 044d 4889C7   		movq	%rax, %rdi
 636 0450 E8000000 		call	_ZN8UnitTest10CheckEqualIbbEEvRNS_11TestResultsERKT_RKT0_RKNS_11TestDetailsE
 636      00
 637              	.LEHE26:
 638              	.L55:
 639              	.LEHB27:
  46:testConv.cpp  **** 	CHECK_EQUAL(7, nibble);
 640              		.loc 3 46 0 is_stmt 1
 641 0455 E8000000 		call	_ZN8UnitTest11CurrentTest7DetailsEv
 641      00
 642 045a 488B08   		movq	(%rax), %rcx
 643 045d 488D45C0 		leaq	-64(%rbp), %rax
 644 0461 BA2E0000 		movl	$46, %edx
 644      00
 645 0466 4889CE   		movq	%rcx, %rsi
 646 0469 4889C7   		movq	%rax, %rdi
 647 046c E8000000 		call	_ZN8UnitTest11TestDetailsC1ERKS0_i
 647      00
 648              		.loc 3 46 0 is_stmt 0 discriminator 2
 649 0471 C745BC07 		movl	$7, -68(%rbp)
 649      000000
 650 0478 E8000000 		call	_ZN8UnitTest11CurrentTest7ResultsEv
 650      00
 651 047d 488B00   		movq	(%rax), %rax
 652 0480 488D4DC0 		leaq	-64(%rbp), %rcx
 653 0484 488D55BA 		leaq	-70(%rbp), %rdx
 654 0488 488D75BC 		leaq	-68(%rbp), %rsi
 655 048c 4889C7   		movq	%rax, %rdi
 656 048f E8000000 		call	_ZN8UnitTest10CheckEqualIihEEvRNS_11TestResultsERKT_RKT0_RKNS_11TestDetailsE
 656      00
 657              	.LEHE27:
 658              	.L58:
  47:testConv.cpp  **** 	status = getHexNibble('8', &nibble);
 659              		.loc 3 47 0 is_stmt 1
 660 0494 488D45BA 		leaq	-70(%rbp), %rax
 661 0498 4889C6   		movq	%rax, %rsi
 662 049b BF380000 		movl	$56, %edi
 662      00
 663              	.LEHB28:
 664 04a0 E8000000 		call	getHexNibble
 664      00
 665              	.LEHE28:
 666 04a5 8845BB   		movb	%al, -69(%rbp)
 667              	.LEHB29:
  48:testConv.cpp  **** 	CHECK_EQUAL(false, status);
 668              		.loc 3 48 0
 669 04a8 E8000000 		call	_ZN8UnitTest11CurrentTest7DetailsEv
 669      00
 670 04ad 488B08   		movq	(%rax), %rcx
 671 04b0 488D45C0 		leaq	-64(%rbp), %rax
 672 04b4 BA300000 		movl	$48, %edx
 672      00
 673 04b9 4889CE   		movq	%rcx, %rsi
 674 04bc 4889C7   		movq	%rax, %rdi
 675 04bf E8000000 		call	_ZN8UnitTest11TestDetailsC1ERKS0_i
 675      00
 676              		.loc 3 48 0 is_stmt 0 discriminator 2
 677 04c4 C645BC00 		movb	$0, -68(%rbp)
 678 04c8 E8000000 		call	_ZN8UnitTest11CurrentTest7ResultsEv
 678      00
 679 04cd 488B00   		movq	(%rax), %rax
 680 04d0 488D4DC0 		leaq	-64(%rbp), %rcx
 681 04d4 488D55BB 		leaq	-69(%rbp), %rdx
 682 04d8 488D75BC 		leaq	-68(%rbp), %rsi
 683 04dc 4889C7   		movq	%rax, %rdi
 684 04df E8000000 		call	_ZN8UnitTest10CheckEqualIbbEEvRNS_11TestResultsERKT_RKT0_RKNS_11TestDetailsE
 684      00
 685              	.LEHE29:
 686              	.L61:
 687              	.LEHB30:
  49:testConv.cpp  **** 	CHECK_EQUAL(8, nibble);
 688              		.loc 3 49 0 is_stmt 1
 689 04e4 E8000000 		call	_ZN8UnitTest11CurrentTest7DetailsEv
 689      00
 690 04e9 488B08   		movq	(%rax), %rcx
 691 04ec 488D45C0 		leaq	-64(%rbp), %rax
 692 04f0 BA310000 		movl	$49, %edx
 692      00
 693 04f5 4889CE   		movq	%rcx, %rsi
 694 04f8 4889C7   		movq	%rax, %rdi
 695 04fb E8000000 		call	_ZN8UnitTest11TestDetailsC1ERKS0_i
 695      00
 696              		.loc 3 49 0 is_stmt 0 discriminator 2
 697 0500 C745BC08 		movl	$8, -68(%rbp)
 697      000000
 698 0507 E8000000 		call	_ZN8UnitTest11CurrentTest7ResultsEv
 698      00
 699 050c 488B00   		movq	(%rax), %rax
 700 050f 488D4DC0 		leaq	-64(%rbp), %rcx
 701 0513 488D55BA 		leaq	-70(%rbp), %rdx
 702 0517 488D75BC 		leaq	-68(%rbp), %rsi
 703 051b 4889C7   		movq	%rax, %rdi
 704 051e E8000000 		call	_ZN8UnitTest10CheckEqualIihEEvRNS_11TestResultsERKT_RKT0_RKNS_11TestDetailsE
 704      00
 705              	.LEHE30:
 706              	.L64:
  50:testConv.cpp  **** 	status = getHexNibble('9', &nibble);
 707              		.loc 3 50 0 is_stmt 1
 708 0523 488D45BA 		leaq	-70(%rbp), %rax
 709 0527 4889C6   		movq	%rax, %rsi
 710 052a BF390000 		movl	$57, %edi
 710      00
 711              	.LEHB31:
 712 052f E8000000 		call	getHexNibble
 712      00
 713              	.LEHE31:
 714 0534 8845BB   		movb	%al, -69(%rbp)
 715              	.LEHB32:
  51:testConv.cpp  **** 	CHECK_EQUAL(false, status);
 716              		.loc 3 51 0
 717 0537 E8000000 		call	_ZN8UnitTest11CurrentTest7DetailsEv
 717      00
 718 053c 488B08   		movq	(%rax), %rcx
 719 053f 488D45C0 		leaq	-64(%rbp), %rax
 720 0543 BA330000 		movl	$51, %edx
 720      00
 721 0548 4889CE   		movq	%rcx, %rsi
 722 054b 4889C7   		movq	%rax, %rdi
 723 054e E8000000 		call	_ZN8UnitTest11TestDetailsC1ERKS0_i
 723      00
 724              		.loc 3 51 0 is_stmt 0 discriminator 2
 725 0553 C645BC00 		movb	$0, -68(%rbp)
 726 0557 E8000000 		call	_ZN8UnitTest11CurrentTest7ResultsEv
 726      00
 727 055c 488B00   		movq	(%rax), %rax
 728 055f 488D4DC0 		leaq	-64(%rbp), %rcx
 729 0563 488D55BB 		leaq	-69(%rbp), %rdx
 730 0567 488D75BC 		leaq	-68(%rbp), %rsi
 731 056b 4889C7   		movq	%rax, %rdi
 732 056e E8000000 		call	_ZN8UnitTest10CheckEqualIbbEEvRNS_11TestResultsERKT_RKT0_RKNS_11TestDetailsE
 732      00
 733              	.LEHE32:
 734              	.L67:
 735              	.LEHB33:
  52:testConv.cpp  **** 	CHECK_EQUAL(9, nibble);
 736              		.loc 3 52 0 is_stmt 1
 737 0573 E8000000 		call	_ZN8UnitTest11CurrentTest7DetailsEv
 737      00
 738 0578 488B08   		movq	(%rax), %rcx
 739 057b 488D45C0 		leaq	-64(%rbp), %rax
 740 057f BA340000 		movl	$52, %edx
 740      00
 741 0584 4889CE   		movq	%rcx, %rsi
 742 0587 4889C7   		movq	%rax, %rdi
 743 058a E8000000 		call	_ZN8UnitTest11TestDetailsC1ERKS0_i
 743      00
 744              		.loc 3 52 0 is_stmt 0 discriminator 2
 745 058f C745BC09 		movl	$9, -68(%rbp)
 745      000000
 746 0596 E8000000 		call	_ZN8UnitTest11CurrentTest7ResultsEv
 746      00
 747 059b 488B00   		movq	(%rax), %rax
 748 059e 488D4DC0 		leaq	-64(%rbp), %rcx
 749 05a2 488D55BA 		leaq	-70(%rbp), %rdx
 750 05a6 488D75BC 		leaq	-68(%rbp), %rsi
 751 05aa 4889C7   		movq	%rax, %rdi
 752 05ad E8000000 		call	_ZN8UnitTest10CheckEqualIihEEvRNS_11TestResultsERKT_RKT0_RKNS_11TestDetailsE
 752      00
 753              	.LEHE33:
 754              	.L70:
  53:testConv.cpp  **** 	status = getHexNibble('A', &nibble);
 755              		.loc 3 53 0 is_stmt 1
 756 05b2 488D45BA 		leaq	-70(%rbp), %rax
 757 05b6 4889C6   		movq	%rax, %rsi
 758 05b9 BF410000 		movl	$65, %edi
 758      00
 759              	.LEHB34:
 760 05be E8000000 		call	getHexNibble
 760      00
 761              	.LEHE34:
 762 05c3 8845BB   		movb	%al, -69(%rbp)
 763              	.LEHB35:
  54:testConv.cpp  **** 	CHECK_EQUAL(false, status);
 764              		.loc 3 54 0
 765 05c6 E8000000 		call	_ZN8UnitTest11CurrentTest7DetailsEv
 765      00
 766 05cb 488B08   		movq	(%rax), %rcx
 767 05ce 488D45C0 		leaq	-64(%rbp), %rax
 768 05d2 BA360000 		movl	$54, %edx
 768      00
 769 05d7 4889CE   		movq	%rcx, %rsi
 770 05da 4889C7   		movq	%rax, %rdi
 771 05dd E8000000 		call	_ZN8UnitTest11TestDetailsC1ERKS0_i
 771      00
 772              		.loc 3 54 0 is_stmt 0 discriminator 2
 773 05e2 C645BC00 		movb	$0, -68(%rbp)
 774 05e6 E8000000 		call	_ZN8UnitTest11CurrentTest7ResultsEv
 774      00
 775 05eb 488B00   		movq	(%rax), %rax
 776 05ee 488D4DC0 		leaq	-64(%rbp), %rcx
 777 05f2 488D55BB 		leaq	-69(%rbp), %rdx
 778 05f6 488D75BC 		leaq	-68(%rbp), %rsi
 779 05fa 4889C7   		movq	%rax, %rdi
 780 05fd E8000000 		call	_ZN8UnitTest10CheckEqualIbbEEvRNS_11TestResultsERKT_RKT0_RKNS_11TestDetailsE
 780      00
 781              	.LEHE35:
 782              	.L73:
 783              	.LEHB36:
  55:testConv.cpp  **** 	CHECK_EQUAL(10, nibble);
 784              		.loc 3 55 0 is_stmt 1
 785 0602 E8000000 		call	_ZN8UnitTest11CurrentTest7DetailsEv
 785      00
 786 0607 488B08   		movq	(%rax), %rcx
 787 060a 488D45C0 		leaq	-64(%rbp), %rax
 788 060e BA370000 		movl	$55, %edx
 788      00
 789 0613 4889CE   		movq	%rcx, %rsi
 790 0616 4889C7   		movq	%rax, %rdi
 791 0619 E8000000 		call	_ZN8UnitTest11TestDetailsC1ERKS0_i
 791      00
 792              		.loc 3 55 0 is_stmt 0 discriminator 2
 793 061e C745BC0A 		movl	$10, -68(%rbp)
 793      000000
 794 0625 E8000000 		call	_ZN8UnitTest11CurrentTest7ResultsEv
 794      00
 795 062a 488B00   		movq	(%rax), %rax
 796 062d 488D4DC0 		leaq	-64(%rbp), %rcx
 797 0631 488D55BA 		leaq	-70(%rbp), %rdx
 798 0635 488D75BC 		leaq	-68(%rbp), %rsi
 799 0639 4889C7   		movq	%rax, %rdi
 800 063c E8000000 		call	_ZN8UnitTest10CheckEqualIihEEvRNS_11TestResultsERKT_RKT0_RKNS_11TestDetailsE
 800      00
 801              	.LEHE36:
 802              	.L76:
  56:testConv.cpp  **** 	status = getHexNibble('B', &nibble);
 803              		.loc 3 56 0 is_stmt 1
 804 0641 488D45BA 		leaq	-70(%rbp), %rax
 805 0645 4889C6   		movq	%rax, %rsi
 806 0648 BF420000 		movl	$66, %edi
 806      00
 807              	.LEHB37:
 808 064d E8000000 		call	getHexNibble
 808      00
 809              	.LEHE37:
 810 0652 8845BB   		movb	%al, -69(%rbp)
 811              	.LEHB38:
  57:testConv.cpp  **** 	CHECK_EQUAL(false, status);
 812              		.loc 3 57 0
 813 0655 E8000000 		call	_ZN8UnitTest11CurrentTest7DetailsEv
 813      00
 814 065a 488B08   		movq	(%rax), %rcx
 815 065d 488D45C0 		leaq	-64(%rbp), %rax
 816 0661 BA390000 		movl	$57, %edx
 816      00
 817 0666 4889CE   		movq	%rcx, %rsi
 818 0669 4889C7   		movq	%rax, %rdi
 819 066c E8000000 		call	_ZN8UnitTest11TestDetailsC1ERKS0_i
 819      00
 820              		.loc 3 57 0 is_stmt 0 discriminator 2
 821 0671 C645BC00 		movb	$0, -68(%rbp)
 822 0675 E8000000 		call	_ZN8UnitTest11CurrentTest7ResultsEv
 822      00
 823 067a 488B00   		movq	(%rax), %rax
 824 067d 488D4DC0 		leaq	-64(%rbp), %rcx
 825 0681 488D55BB 		leaq	-69(%rbp), %rdx
 826 0685 488D75BC 		leaq	-68(%rbp), %rsi
 827 0689 4889C7   		movq	%rax, %rdi
 828 068c E8000000 		call	_ZN8UnitTest10CheckEqualIbbEEvRNS_11TestResultsERKT_RKT0_RKNS_11TestDetailsE
 828      00
 829              	.LEHE38:
 830              	.L79:
 831              	.LEHB39:
  58:testConv.cpp  **** 	CHECK_EQUAL(11, nibble);
 832              		.loc 3 58 0 is_stmt 1
 833 0691 E8000000 		call	_ZN8UnitTest11CurrentTest7DetailsEv
 833      00
 834 0696 488B08   		movq	(%rax), %rcx
 835 0699 488D45C0 		leaq	-64(%rbp), %rax
 836 069d BA3A0000 		movl	$58, %edx
 836      00
 837 06a2 4889CE   		movq	%rcx, %rsi
 838 06a5 4889C7   		movq	%rax, %rdi
 839 06a8 E8000000 		call	_ZN8UnitTest11TestDetailsC1ERKS0_i
 839      00
 840              		.loc 3 58 0 is_stmt 0 discriminator 2
 841 06ad C745BC0B 		movl	$11, -68(%rbp)
 841      000000
 842 06b4 E8000000 		call	_ZN8UnitTest11CurrentTest7ResultsEv
 842      00
 843 06b9 488B00   		movq	(%rax), %rax
 844 06bc 488D4DC0 		leaq	-64(%rbp), %rcx
 845 06c0 488D55BA 		leaq	-70(%rbp), %rdx
 846 06c4 488D75BC 		leaq	-68(%rbp), %rsi
 847 06c8 4889C7   		movq	%rax, %rdi
 848 06cb E8000000 		call	_ZN8UnitTest10CheckEqualIihEEvRNS_11TestResultsERKT_RKT0_RKNS_11TestDetailsE
 848      00
 849              	.LEHE39:
 850              	.L82:
  59:testConv.cpp  **** 	status = getHexNibble('C', &nibble);
 851              		.loc 3 59 0 is_stmt 1
 852 06d0 488D45BA 		leaq	-70(%rbp), %rax
 853 06d4 4889C6   		movq	%rax, %rsi
 854 06d7 BF430000 		movl	$67, %edi
 854      00
 855              	.LEHB40:
 856 06dc E8000000 		call	getHexNibble
 856      00
 857              	.LEHE40:
 858 06e1 8845BB   		movb	%al, -69(%rbp)
 859              	.LEHB41:
  60:testConv.cpp  **** 	CHECK_EQUAL(false, status);
 860              		.loc 3 60 0
 861 06e4 E8000000 		call	_ZN8UnitTest11CurrentTest7DetailsEv
 861      00
 862 06e9 488B08   		movq	(%rax), %rcx
 863 06ec 488D45C0 		leaq	-64(%rbp), %rax
 864 06f0 BA3C0000 		movl	$60, %edx
 864      00
 865 06f5 4889CE   		movq	%rcx, %rsi
 866 06f8 4889C7   		movq	%rax, %rdi
 867 06fb E8000000 		call	_ZN8UnitTest11TestDetailsC1ERKS0_i
 867      00
 868              		.loc 3 60 0 is_stmt 0 discriminator 2
 869 0700 C645BC00 		movb	$0, -68(%rbp)
 870 0704 E8000000 		call	_ZN8UnitTest11CurrentTest7ResultsEv
 870      00
 871 0709 488B00   		movq	(%rax), %rax
 872 070c 488D4DC0 		leaq	-64(%rbp), %rcx
 873 0710 488D55BB 		leaq	-69(%rbp), %rdx
 874 0714 488D75BC 		leaq	-68(%rbp), %rsi
 875 0718 4889C7   		movq	%rax, %rdi
 876 071b E8000000 		call	_ZN8UnitTest10CheckEqualIbbEEvRNS_11TestResultsERKT_RKT0_RKNS_11TestDetailsE
 876      00
 877              	.LEHE41:
 878              	.L85:
 879              	.LEHB42:
  61:testConv.cpp  **** 	CHECK_EQUAL(12, nibble);
 880              		.loc 3 61 0 is_stmt 1
 881 0720 E8000000 		call	_ZN8UnitTest11CurrentTest7DetailsEv
 881      00
 882 0725 488B08   		movq	(%rax), %rcx
 883 0728 488D45C0 		leaq	-64(%rbp), %rax
 884 072c BA3D0000 		movl	$61, %edx
 884      00
 885 0731 4889CE   		movq	%rcx, %rsi
 886 0734 4889C7   		movq	%rax, %rdi
 887 0737 E8000000 		call	_ZN8UnitTest11TestDetailsC1ERKS0_i
 887      00
 888              		.loc 3 61 0 is_stmt 0 discriminator 2
 889 073c C745BC0C 		movl	$12, -68(%rbp)
 889      000000
 890 0743 E8000000 		call	_ZN8UnitTest11CurrentTest7ResultsEv
 890      00
 891 0748 488B00   		movq	(%rax), %rax
 892 074b 488D4DC0 		leaq	-64(%rbp), %rcx
 893 074f 488D55BA 		leaq	-70(%rbp), %rdx
 894 0753 488D75BC 		leaq	-68(%rbp), %rsi
 895 0757 4889C7   		movq	%rax, %rdi
 896 075a E8000000 		call	_ZN8UnitTest10CheckEqualIihEEvRNS_11TestResultsERKT_RKT0_RKNS_11TestDetailsE
 896      00
 897              	.LEHE42:
 898              	.L88:
  62:testConv.cpp  **** 	status = getHexNibble('D', &nibble);
 899              		.loc 3 62 0 is_stmt 1
 900 075f 488D45BA 		leaq	-70(%rbp), %rax
 901 0763 4889C6   		movq	%rax, %rsi
 902 0766 BF440000 		movl	$68, %edi
 902      00
 903              	.LEHB43:
 904 076b E8000000 		call	getHexNibble
 904      00
 905              	.LEHE43:
 906 0770 8845BB   		movb	%al, -69(%rbp)
 907              	.LEHB44:
  63:testConv.cpp  **** 	CHECK_EQUAL(false, status);
 908              		.loc 3 63 0
 909 0773 E8000000 		call	_ZN8UnitTest11CurrentTest7DetailsEv
 909      00
 910 0778 488B08   		movq	(%rax), %rcx
 911 077b 488D45C0 		leaq	-64(%rbp), %rax
 912 077f BA3F0000 		movl	$63, %edx
 912      00
 913 0784 4889CE   		movq	%rcx, %rsi
 914 0787 4889C7   		movq	%rax, %rdi
 915 078a E8000000 		call	_ZN8UnitTest11TestDetailsC1ERKS0_i
 915      00
 916              		.loc 3 63 0 is_stmt 0 discriminator 2
 917 078f C645BC00 		movb	$0, -68(%rbp)
 918 0793 E8000000 		call	_ZN8UnitTest11CurrentTest7ResultsEv
 918      00
 919 0798 488B00   		movq	(%rax), %rax
 920 079b 488D4DC0 		leaq	-64(%rbp), %rcx
 921 079f 488D55BB 		leaq	-69(%rbp), %rdx
 922 07a3 488D75BC 		leaq	-68(%rbp), %rsi
 923 07a7 4889C7   		movq	%rax, %rdi
 924 07aa E8000000 		call	_ZN8UnitTest10CheckEqualIbbEEvRNS_11TestResultsERKT_RKT0_RKNS_11TestDetailsE
 924      00
 925              	.LEHE44:
 926              	.L91:
 927              	.LEHB45:
  64:testConv.cpp  **** 	CHECK_EQUAL(13, nibble);
 928              		.loc 3 64 0 is_stmt 1
 929 07af E8000000 		call	_ZN8UnitTest11CurrentTest7DetailsEv
 929      00
 930 07b4 488B08   		movq	(%rax), %rcx
 931 07b7 488D45C0 		leaq	-64(%rbp), %rax
 932 07bb BA400000 		movl	$64, %edx
 932      00
 933 07c0 4889CE   		movq	%rcx, %rsi
 934 07c3 4889C7   		movq	%rax, %rdi
 935 07c6 E8000000 		call	_ZN8UnitTest11TestDetailsC1ERKS0_i
 935      00
 936              		.loc 3 64 0 is_stmt 0 discriminator 2
 937 07cb C745BC0D 		movl	$13, -68(%rbp)
 937      000000
 938 07d2 E8000000 		call	_ZN8UnitTest11CurrentTest7ResultsEv
 938      00
 939 07d7 488B00   		movq	(%rax), %rax
 940 07da 488D4DC0 		leaq	-64(%rbp), %rcx
 941 07de 488D55BA 		leaq	-70(%rbp), %rdx
 942 07e2 488D75BC 		leaq	-68(%rbp), %rsi
 943 07e6 4889C7   		movq	%rax, %rdi
 944 07e9 E8000000 		call	_ZN8UnitTest10CheckEqualIihEEvRNS_11TestResultsERKT_RKT0_RKNS_11TestDetailsE
 944      00
 945              	.LEHE45:
 946              	.L94:
  65:testConv.cpp  **** 	status = getHexNibble('E', &nibble);
 947              		.loc 3 65 0 is_stmt 1
 948 07ee 488D45BA 		leaq	-70(%rbp), %rax
 949 07f2 4889C6   		movq	%rax, %rsi
 950 07f5 BF450000 		movl	$69, %edi
 950      00
 951              	.LEHB46:
 952 07fa E8000000 		call	getHexNibble
 952      00
 953              	.LEHE46:
 954 07ff 8845BB   		movb	%al, -69(%rbp)
 955              	.LEHB47:
  66:testConv.cpp  **** 	CHECK_EQUAL(false, status);
 956              		.loc 3 66 0
 957 0802 E8000000 		call	_ZN8UnitTest11CurrentTest7DetailsEv
 957      00
 958 0807 488B08   		movq	(%rax), %rcx
 959 080a 488D45C0 		leaq	-64(%rbp), %rax
 960 080e BA420000 		movl	$66, %edx
 960      00
 961 0813 4889CE   		movq	%rcx, %rsi
 962 0816 4889C7   		movq	%rax, %rdi
 963 0819 E8000000 		call	_ZN8UnitTest11TestDetailsC1ERKS0_i
 963      00
 964              		.loc 3 66 0 is_stmt 0 discriminator 2
 965 081e C645BC00 		movb	$0, -68(%rbp)
 966 0822 E8000000 		call	_ZN8UnitTest11CurrentTest7ResultsEv
 966      00
 967 0827 488B00   		movq	(%rax), %rax
 968 082a 488D4DC0 		leaq	-64(%rbp), %rcx
 969 082e 488D55BB 		leaq	-69(%rbp), %rdx
 970 0832 488D75BC 		leaq	-68(%rbp), %rsi
 971 0836 4889C7   		movq	%rax, %rdi
 972 0839 E8000000 		call	_ZN8UnitTest10CheckEqualIbbEEvRNS_11TestResultsERKT_RKT0_RKNS_11TestDetailsE
 972      00
 973              	.LEHE47:
 974              	.L97:
 975              	.LEHB48:
  67:testConv.cpp  **** 	CHECK_EQUAL(14, nibble);
 976              		.loc 3 67 0 is_stmt 1
 977 083e E8000000 		call	_ZN8UnitTest11CurrentTest7DetailsEv
 977      00
 978 0843 488B08   		movq	(%rax), %rcx
 979 0846 488D45C0 		leaq	-64(%rbp), %rax
 980 084a BA430000 		movl	$67, %edx
 980      00
 981 084f 4889CE   		movq	%rcx, %rsi
 982 0852 4889C7   		movq	%rax, %rdi
 983 0855 E8000000 		call	_ZN8UnitTest11TestDetailsC1ERKS0_i
 983      00
 984              		.loc 3 67 0 is_stmt 0 discriminator 2
 985 085a C745BC0E 		movl	$14, -68(%rbp)
 985      000000
 986 0861 E8000000 		call	_ZN8UnitTest11CurrentTest7ResultsEv
 986      00
 987 0866 488B00   		movq	(%rax), %rax
 988 0869 488D4DC0 		leaq	-64(%rbp), %rcx
 989 086d 488D55BA 		leaq	-70(%rbp), %rdx
 990 0871 488D75BC 		leaq	-68(%rbp), %rsi
 991 0875 4889C7   		movq	%rax, %rdi
 992 0878 E8000000 		call	_ZN8UnitTest10CheckEqualIihEEvRNS_11TestResultsERKT_RKT0_RKNS_11TestDetailsE
 992      00
 993              	.LEHE48:
 994              	.L100:
  68:testConv.cpp  **** 	status = getHexNibble('F', &nibble);
 995              		.loc 3 68 0 is_stmt 1
 996 087d 488D45BA 		leaq	-70(%rbp), %rax
 997 0881 4889C6   		movq	%rax, %rsi
 998 0884 BF460000 		movl	$70, %edi
 998      00
 999              	.LEHB49:
 1000 0889 E8000000 		call	getHexNibble
 1000      00
 1001              	.LEHE49:
 1002 088e 8845BB   		movb	%al, -69(%rbp)
 1003              	.LEHB50:
  69:testConv.cpp  **** 	CHECK_EQUAL(false, status);
 1004              		.loc 3 69 0
 1005 0891 E8000000 		call	_ZN8UnitTest11CurrentTest7DetailsEv
 1005      00
 1006 0896 488B08   		movq	(%rax), %rcx
 1007 0899 488D45C0 		leaq	-64(%rbp), %rax
 1008 089d BA450000 		movl	$69, %edx
 1008      00
 1009 08a2 4889CE   		movq	%rcx, %rsi
 1010 08a5 4889C7   		movq	%rax, %rdi
 1011 08a8 E8000000 		call	_ZN8UnitTest11TestDetailsC1ERKS0_i
 1011      00
 1012              		.loc 3 69 0 is_stmt 0 discriminator 2
 1013 08ad C645BC00 		movb	$0, -68(%rbp)
 1014 08b1 E8000000 		call	_ZN8UnitTest11CurrentTest7ResultsEv
 1014      00
 1015 08b6 488B00   		movq	(%rax), %rax
 1016 08b9 488D4DC0 		leaq	-64(%rbp), %rcx
 1017 08bd 488D55BB 		leaq	-69(%rbp), %rdx
 1018 08c1 488D75BC 		leaq	-68(%rbp), %rsi
 1019 08c5 4889C7   		movq	%rax, %rdi
 1020 08c8 E8000000 		call	_ZN8UnitTest10CheckEqualIbbEEvRNS_11TestResultsERKT_RKT0_RKNS_11TestDetailsE
 1020      00
 1021              	.LEHE50:
 1022              	.L103:
 1023              	.LEHB51:
  70:testConv.cpp  **** 	CHECK_EQUAL(15, nibble);
 1024              		.loc 3 70 0 is_stmt 1
 1025 08cd E8000000 		call	_ZN8UnitTest11CurrentTest7DetailsEv
 1025      00
 1026 08d2 488B08   		movq	(%rax), %rcx
 1027 08d5 488D45C0 		leaq	-64(%rbp), %rax
 1028 08d9 BA460000 		movl	$70, %edx
 1028      00
 1029 08de 4889CE   		movq	%rcx, %rsi
 1030 08e1 4889C7   		movq	%rax, %rdi
 1031 08e4 E8000000 		call	_ZN8UnitTest11TestDetailsC1ERKS0_i
 1031      00
 1032              		.loc 3 70 0 is_stmt 0 discriminator 2
 1033 08e9 C745BC0F 		movl	$15, -68(%rbp)
 1033      000000
 1034 08f0 E8000000 		call	_ZN8UnitTest11CurrentTest7ResultsEv
 1034      00
 1035 08f5 488B00   		movq	(%rax), %rax
 1036 08f8 488D4DC0 		leaq	-64(%rbp), %rcx
 1037 08fc 488D55BA 		leaq	-70(%rbp), %rdx
 1038 0900 488D75BC 		leaq	-68(%rbp), %rsi
 1039 0904 4889C7   		movq	%rax, %rdi
 1040 0907 E8000000 		call	_ZN8UnitTest10CheckEqualIihEEvRNS_11TestResultsERKT_RKT0_RKNS_11TestDetailsE
 1040      00
 1041              	.LEHE51:
 1042              	.L106:
  71:testConv.cpp  **** 	status = getHexNibble('a', &nibble);
 1043              		.loc 3 71 0 is_stmt 1
 1044 090c 488D45BA 		leaq	-70(%rbp), %rax
 1045 0910 4889C6   		movq	%rax, %rsi
 1046 0913 BF610000 		movl	$97, %edi
 1046      00
 1047              	.LEHB52:
 1048 0918 E8000000 		call	getHexNibble
 1048      00
 1049              	.LEHE52:
 1050 091d 8845BB   		movb	%al, -69(%rbp)
 1051              	.LEHB53:
  72:testConv.cpp  **** 	CHECK_EQUAL(false, status);
 1052              		.loc 3 72 0
 1053 0920 E8000000 		call	_ZN8UnitTest11CurrentTest7DetailsEv
 1053      00
 1054 0925 488B08   		movq	(%rax), %rcx
 1055 0928 488D45C0 		leaq	-64(%rbp), %rax
 1056 092c BA480000 		movl	$72, %edx
 1056      00
 1057 0931 4889CE   		movq	%rcx, %rsi
 1058 0934 4889C7   		movq	%rax, %rdi
 1059 0937 E8000000 		call	_ZN8UnitTest11TestDetailsC1ERKS0_i
 1059      00
 1060              		.loc 3 72 0 is_stmt 0 discriminator 2
 1061 093c C645BC00 		movb	$0, -68(%rbp)
 1062 0940 E8000000 		call	_ZN8UnitTest11CurrentTest7ResultsEv
 1062      00
 1063 0945 488B00   		movq	(%rax), %rax
 1064 0948 488D4DC0 		leaq	-64(%rbp), %rcx
 1065 094c 488D55BB 		leaq	-69(%rbp), %rdx
 1066 0950 488D75BC 		leaq	-68(%rbp), %rsi
 1067 0954 4889C7   		movq	%rax, %rdi
 1068 0957 E8000000 		call	_ZN8UnitTest10CheckEqualIbbEEvRNS_11TestResultsERKT_RKT0_RKNS_11TestDetailsE
 1068      00
 1069              	.LEHE53:
 1070              	.L109:
 1071              	.LEHB54:
  73:testConv.cpp  **** 	CHECK_EQUAL(10, nibble);
 1072              		.loc 3 73 0 is_stmt 1
 1073 095c E8000000 		call	_ZN8UnitTest11CurrentTest7DetailsEv
 1073      00
 1074 0961 488B08   		movq	(%rax), %rcx
 1075 0964 488D45C0 		leaq	-64(%rbp), %rax
 1076 0968 BA490000 		movl	$73, %edx
 1076      00
 1077 096d 4889CE   		movq	%rcx, %rsi
 1078 0970 4889C7   		movq	%rax, %rdi
 1079 0973 E8000000 		call	_ZN8UnitTest11TestDetailsC1ERKS0_i
 1079      00
 1080              		.loc 3 73 0 is_stmt 0 discriminator 2
 1081 0978 C745BC0A 		movl	$10, -68(%rbp)
 1081      000000
 1082 097f E8000000 		call	_ZN8UnitTest11CurrentTest7ResultsEv
 1082      00
 1083 0984 488B00   		movq	(%rax), %rax
 1084 0987 488D4DC0 		leaq	-64(%rbp), %rcx
 1085 098b 488D55BA 		leaq	-70(%rbp), %rdx
 1086 098f 488D75BC 		leaq	-68(%rbp), %rsi
 1087 0993 4889C7   		movq	%rax, %rdi
 1088 0996 E8000000 		call	_ZN8UnitTest10CheckEqualIihEEvRNS_11TestResultsERKT_RKT0_RKNS_11TestDetailsE
 1088      00
 1089              	.LEHE54:
 1090              	.L112:
  74:testConv.cpp  **** 	status = getHexNibble('b', &nibble);
 1091              		.loc 3 74 0 is_stmt 1
 1092 099b 488D45BA 		leaq	-70(%rbp), %rax
 1093 099f 4889C6   		movq	%rax, %rsi
 1094 09a2 BF620000 		movl	$98, %edi
 1094      00
 1095              	.LEHB55:
 1096 09a7 E8000000 		call	getHexNibble
 1096      00
 1097              	.LEHE55:
 1098 09ac 8845BB   		movb	%al, -69(%rbp)
 1099              	.LEHB56:
  75:testConv.cpp  **** 	CHECK_EQUAL(false, status);
 1100              		.loc 3 75 0
 1101 09af E8000000 		call	_ZN8UnitTest11CurrentTest7DetailsEv
 1101      00
 1102 09b4 488B08   		movq	(%rax), %rcx
 1103 09b7 488D45C0 		leaq	-64(%rbp), %rax
 1104 09bb BA4B0000 		movl	$75, %edx
 1104      00
 1105 09c0 4889CE   		movq	%rcx, %rsi
 1106 09c3 4889C7   		movq	%rax, %rdi
 1107 09c6 E8000000 		call	_ZN8UnitTest11TestDetailsC1ERKS0_i
 1107      00
 1108              		.loc 3 75 0 is_stmt 0 discriminator 2
 1109 09cb C645BC00 		movb	$0, -68(%rbp)
 1110 09cf E8000000 		call	_ZN8UnitTest11CurrentTest7ResultsEv
 1110      00
 1111 09d4 488B00   		movq	(%rax), %rax
 1112 09d7 488D4DC0 		leaq	-64(%rbp), %rcx
 1113 09db 488D55BB 		leaq	-69(%rbp), %rdx
 1114 09df 488D75BC 		leaq	-68(%rbp), %rsi
 1115 09e3 4889C7   		movq	%rax, %rdi
 1116 09e6 E8000000 		call	_ZN8UnitTest10CheckEqualIbbEEvRNS_11TestResultsERKT_RKT0_RKNS_11TestDetailsE
 1116      00
 1117              	.LEHE56:
 1118              	.L115:
 1119              	.LEHB57:
  76:testConv.cpp  **** 	CHECK_EQUAL(11, nibble);
 1120              		.loc 3 76 0 is_stmt 1
 1121 09eb E8000000 		call	_ZN8UnitTest11CurrentTest7DetailsEv
 1121      00
 1122 09f0 488B08   		movq	(%rax), %rcx
 1123 09f3 488D45C0 		leaq	-64(%rbp), %rax
 1124 09f7 BA4C0000 		movl	$76, %edx
 1124      00
 1125 09fc 4889CE   		movq	%rcx, %rsi
 1126 09ff 4889C7   		movq	%rax, %rdi
 1127 0a02 E8000000 		call	_ZN8UnitTest11TestDetailsC1ERKS0_i
 1127      00
 1128              		.loc 3 76 0 is_stmt 0 discriminator 2
 1129 0a07 C745BC0B 		movl	$11, -68(%rbp)
 1129      000000
 1130 0a0e E8000000 		call	_ZN8UnitTest11CurrentTest7ResultsEv
 1130      00
 1131 0a13 488B00   		movq	(%rax), %rax
 1132 0a16 488D4DC0 		leaq	-64(%rbp), %rcx
 1133 0a1a 488D55BA 		leaq	-70(%rbp), %rdx
 1134 0a1e 488D75BC 		leaq	-68(%rbp), %rsi
 1135 0a22 4889C7   		movq	%rax, %rdi
 1136 0a25 E8000000 		call	_ZN8UnitTest10CheckEqualIihEEvRNS_11TestResultsERKT_RKT0_RKNS_11TestDetailsE
 1136      00
 1137              	.LEHE57:
 1138              	.L118:
  77:testConv.cpp  **** 	status = getHexNibble('c', &nibble);
 1139              		.loc 3 77 0 is_stmt 1
 1140 0a2a 488D45BA 		leaq	-70(%rbp), %rax
 1141 0a2e 4889C6   		movq	%rax, %rsi
 1142 0a31 BF630000 		movl	$99, %edi
 1142      00
 1143              	.LEHB58:
 1144 0a36 E8000000 		call	getHexNibble
 1144      00
 1145              	.LEHE58:
 1146 0a3b 8845BB   		movb	%al, -69(%rbp)
 1147              	.LEHB59:
  78:testConv.cpp  **** 	CHECK_EQUAL(false, status);
 1148              		.loc 3 78 0
 1149 0a3e E8000000 		call	_ZN8UnitTest11CurrentTest7DetailsEv
 1149      00
 1150 0a43 488B08   		movq	(%rax), %rcx
 1151 0a46 488D45C0 		leaq	-64(%rbp), %rax
 1152 0a4a BA4E0000 		movl	$78, %edx
 1152      00
 1153 0a4f 4889CE   		movq	%rcx, %rsi
 1154 0a52 4889C7   		movq	%rax, %rdi
 1155 0a55 E8000000 		call	_ZN8UnitTest11TestDetailsC1ERKS0_i
 1155      00
 1156              		.loc 3 78 0 is_stmt 0 discriminator 2
 1157 0a5a C645BC00 		movb	$0, -68(%rbp)
 1158 0a5e E8000000 		call	_ZN8UnitTest11CurrentTest7ResultsEv
 1158      00
 1159 0a63 488B00   		movq	(%rax), %rax
 1160 0a66 488D4DC0 		leaq	-64(%rbp), %rcx
 1161 0a6a 488D55BB 		leaq	-69(%rbp), %rdx
 1162 0a6e 488D75BC 		leaq	-68(%rbp), %rsi
 1163 0a72 4889C7   		movq	%rax, %rdi
 1164 0a75 E8000000 		call	_ZN8UnitTest10CheckEqualIbbEEvRNS_11TestResultsERKT_RKT0_RKNS_11TestDetailsE
 1164      00
 1165              	.LEHE59:
 1166              	.L121:
 1167              	.LEHB60:
  79:testConv.cpp  **** 	CHECK_EQUAL(12, nibble);
 1168              		.loc 3 79 0 is_stmt 1
 1169 0a7a E8000000 		call	_ZN8UnitTest11CurrentTest7DetailsEv
 1169      00
 1170 0a7f 488B08   		movq	(%rax), %rcx
 1171 0a82 488D45C0 		leaq	-64(%rbp), %rax
 1172 0a86 BA4F0000 		movl	$79, %edx
 1172      00
 1173 0a8b 4889CE   		movq	%rcx, %rsi
 1174 0a8e 4889C7   		movq	%rax, %rdi
 1175 0a91 E8000000 		call	_ZN8UnitTest11TestDetailsC1ERKS0_i
 1175      00
 1176              		.loc 3 79 0 is_stmt 0 discriminator 2
 1177 0a96 C745BC0C 		movl	$12, -68(%rbp)
 1177      000000
 1178 0a9d E8000000 		call	_ZN8UnitTest11CurrentTest7ResultsEv
 1178      00
 1179 0aa2 488B00   		movq	(%rax), %rax
 1180 0aa5 488D4DC0 		leaq	-64(%rbp), %rcx
 1181 0aa9 488D55BA 		leaq	-70(%rbp), %rdx
 1182 0aad 488D75BC 		leaq	-68(%rbp), %rsi
 1183 0ab1 4889C7   		movq	%rax, %rdi
 1184 0ab4 E8000000 		call	_ZN8UnitTest10CheckEqualIihEEvRNS_11TestResultsERKT_RKT0_RKNS_11TestDetailsE
 1184      00
 1185              	.LEHE60:
 1186              	.L124:
  80:testConv.cpp  **** 	status = getHexNibble('d', &nibble);
 1187              		.loc 3 80 0 is_stmt 1
 1188 0ab9 488D45BA 		leaq	-70(%rbp), %rax
 1189 0abd 4889C6   		movq	%rax, %rsi
 1190 0ac0 BF640000 		movl	$100, %edi
 1190      00
 1191              	.LEHB61:
 1192 0ac5 E8000000 		call	getHexNibble
 1192      00
 1193              	.LEHE61:
 1194 0aca 8845BB   		movb	%al, -69(%rbp)
 1195              	.LEHB62:
  81:testConv.cpp  **** 	CHECK_EQUAL(false, status);
 1196              		.loc 3 81 0
 1197 0acd E8000000 		call	_ZN8UnitTest11CurrentTest7DetailsEv
 1197      00
 1198 0ad2 488B08   		movq	(%rax), %rcx
 1199 0ad5 488D45C0 		leaq	-64(%rbp), %rax
 1200 0ad9 BA510000 		movl	$81, %edx
 1200      00
 1201 0ade 4889CE   		movq	%rcx, %rsi
 1202 0ae1 4889C7   		movq	%rax, %rdi
 1203 0ae4 E8000000 		call	_ZN8UnitTest11TestDetailsC1ERKS0_i
 1203      00
 1204              		.loc 3 81 0 is_stmt 0 discriminator 2
 1205 0ae9 C645BC00 		movb	$0, -68(%rbp)
 1206 0aed E8000000 		call	_ZN8UnitTest11CurrentTest7ResultsEv
 1206      00
 1207 0af2 488B00   		movq	(%rax), %rax
 1208 0af5 488D4DC0 		leaq	-64(%rbp), %rcx
 1209 0af9 488D55BB 		leaq	-69(%rbp), %rdx
 1210 0afd 488D75BC 		leaq	-68(%rbp), %rsi
 1211 0b01 4889C7   		movq	%rax, %rdi
 1212 0b04 E8000000 		call	_ZN8UnitTest10CheckEqualIbbEEvRNS_11TestResultsERKT_RKT0_RKNS_11TestDetailsE
 1212      00
 1213              	.LEHE62:
 1214              	.L127:
 1215              	.LEHB63:
  82:testConv.cpp  **** 	CHECK_EQUAL(13, nibble);
 1216              		.loc 3 82 0 is_stmt 1
 1217 0b09 E8000000 		call	_ZN8UnitTest11CurrentTest7DetailsEv
 1217      00
 1218 0b0e 488B08   		movq	(%rax), %rcx
 1219 0b11 488D45C0 		leaq	-64(%rbp), %rax
 1220 0b15 BA520000 		movl	$82, %edx
 1220      00
 1221 0b1a 4889CE   		movq	%rcx, %rsi
 1222 0b1d 4889C7   		movq	%rax, %rdi
 1223 0b20 E8000000 		call	_ZN8UnitTest11TestDetailsC1ERKS0_i
 1223      00
 1224              		.loc 3 82 0 is_stmt 0 discriminator 2
 1225 0b25 C745BC0D 		movl	$13, -68(%rbp)
 1225      000000
 1226 0b2c E8000000 		call	_ZN8UnitTest11CurrentTest7ResultsEv
 1226      00
 1227 0b31 488B00   		movq	(%rax), %rax
 1228 0b34 488D4DC0 		leaq	-64(%rbp), %rcx
 1229 0b38 488D55BA 		leaq	-70(%rbp), %rdx
 1230 0b3c 488D75BC 		leaq	-68(%rbp), %rsi
 1231 0b40 4889C7   		movq	%rax, %rdi
 1232 0b43 E8000000 		call	_ZN8UnitTest10CheckEqualIihEEvRNS_11TestResultsERKT_RKT0_RKNS_11TestDetailsE
 1232      00
 1233              	.LEHE63:
 1234              	.L130:
  83:testConv.cpp  **** 	status = getHexNibble('e', &nibble);
 1235              		.loc 3 83 0 is_stmt 1
 1236 0b48 488D45BA 		leaq	-70(%rbp), %rax
 1237 0b4c 4889C6   		movq	%rax, %rsi
 1238 0b4f BF650000 		movl	$101, %edi
 1238      00
 1239              	.LEHB64:
 1240 0b54 E8000000 		call	getHexNibble
 1240      00
 1241              	.LEHE64:
 1242 0b59 8845BB   		movb	%al, -69(%rbp)
 1243              	.LEHB65:
  84:testConv.cpp  **** 	CHECK_EQUAL(false, status);
 1244              		.loc 3 84 0
 1245 0b5c E8000000 		call	_ZN8UnitTest11CurrentTest7DetailsEv
 1245      00
 1246 0b61 488B08   		movq	(%rax), %rcx
 1247 0b64 488D45C0 		leaq	-64(%rbp), %rax
 1248 0b68 BA540000 		movl	$84, %edx
 1248      00
 1249 0b6d 4889CE   		movq	%rcx, %rsi
 1250 0b70 4889C7   		movq	%rax, %rdi
 1251 0b73 E8000000 		call	_ZN8UnitTest11TestDetailsC1ERKS0_i
 1251      00
 1252              		.loc 3 84 0 is_stmt 0 discriminator 2
 1253 0b78 C645BC00 		movb	$0, -68(%rbp)
 1254 0b7c E8000000 		call	_ZN8UnitTest11CurrentTest7ResultsEv
 1254      00
 1255 0b81 488B00   		movq	(%rax), %rax
 1256 0b84 488D4DC0 		leaq	-64(%rbp), %rcx
 1257 0b88 488D55BB 		leaq	-69(%rbp), %rdx
 1258 0b8c 488D75BC 		leaq	-68(%rbp), %rsi
 1259 0b90 4889C7   		movq	%rax, %rdi
 1260 0b93 E8000000 		call	_ZN8UnitTest10CheckEqualIbbEEvRNS_11TestResultsERKT_RKT0_RKNS_11TestDetailsE
 1260      00
 1261              	.LEHE65:
 1262              	.L133:
 1263              	.LEHB66:
  85:testConv.cpp  **** 	CHECK_EQUAL(14, nibble);
 1264              		.loc 3 85 0 is_stmt 1
 1265 0b98 E8000000 		call	_ZN8UnitTest11CurrentTest7DetailsEv
 1265      00
 1266 0b9d 488B08   		movq	(%rax), %rcx
 1267 0ba0 488D45C0 		leaq	-64(%rbp), %rax
 1268 0ba4 BA550000 		movl	$85, %edx
 1268      00
 1269 0ba9 4889CE   		movq	%rcx, %rsi
 1270 0bac 4889C7   		movq	%rax, %rdi
 1271 0baf E8000000 		call	_ZN8UnitTest11TestDetailsC1ERKS0_i
 1271      00
 1272              		.loc 3 85 0 is_stmt 0 discriminator 2
 1273 0bb4 C745BC0E 		movl	$14, -68(%rbp)
 1273      000000
 1274 0bbb E8000000 		call	_ZN8UnitTest11CurrentTest7ResultsEv
 1274      00
 1275 0bc0 488B00   		movq	(%rax), %rax
 1276 0bc3 488D4DC0 		leaq	-64(%rbp), %rcx
 1277 0bc7 488D55BA 		leaq	-70(%rbp), %rdx
 1278 0bcb 488D75BC 		leaq	-68(%rbp), %rsi
 1279 0bcf 4889C7   		movq	%rax, %rdi
 1280 0bd2 E8000000 		call	_ZN8UnitTest10CheckEqualIihEEvRNS_11TestResultsERKT_RKT0_RKNS_11TestDetailsE
 1280      00
 1281              	.LEHE66:
 1282              	.L136:
  86:testConv.cpp  **** 	status = getHexNibble('f', &nibble);
 1283              		.loc 3 86 0 is_stmt 1
 1284 0bd7 488D45BA 		leaq	-70(%rbp), %rax
 1285 0bdb 4889C6   		movq	%rax, %rsi
 1286 0bde BF660000 		movl	$102, %edi
 1286      00
 1287              	.LEHB67:
 1288 0be3 E8000000 		call	getHexNibble
 1288      00
 1289              	.LEHE67:
 1290 0be8 8845BB   		movb	%al, -69(%rbp)
 1291              	.LEHB68:
  87:testConv.cpp  **** 	CHECK_EQUAL(false, status);
 1292              		.loc 3 87 0
 1293 0beb E8000000 		call	_ZN8UnitTest11CurrentTest7DetailsEv
 1293      00
 1294 0bf0 488B08   		movq	(%rax), %rcx
 1295 0bf3 488D45C0 		leaq	-64(%rbp), %rax
 1296 0bf7 BA570000 		movl	$87, %edx
 1296      00
 1297 0bfc 4889CE   		movq	%rcx, %rsi
 1298 0bff 4889C7   		movq	%rax, %rdi
 1299 0c02 E8000000 		call	_ZN8UnitTest11TestDetailsC1ERKS0_i
 1299      00
 1300              		.loc 3 87 0 is_stmt 0 discriminator 2
 1301 0c07 C645BC00 		movb	$0, -68(%rbp)
 1302 0c0b E8000000 		call	_ZN8UnitTest11CurrentTest7ResultsEv
 1302      00
 1303 0c10 488B00   		movq	(%rax), %rax
 1304 0c13 488D4DC0 		leaq	-64(%rbp), %rcx
 1305 0c17 488D55BB 		leaq	-69(%rbp), %rdx
 1306 0c1b 488D75BC 		leaq	-68(%rbp), %rsi
 1307 0c1f 4889C7   		movq	%rax, %rdi
 1308 0c22 E8000000 		call	_ZN8UnitTest10CheckEqualIbbEEvRNS_11TestResultsERKT_RKT0_RKNS_11TestDetailsE
 1308      00
 1309              	.LEHE68:
 1310              	.L139:
 1311              	.LEHB69:
  88:testConv.cpp  **** 	CHECK_EQUAL(15, nibble);
 1312              		.loc 3 88 0 is_stmt 1
 1313 0c27 E8000000 		call	_ZN8UnitTest11CurrentTest7DetailsEv
 1313      00
 1314 0c2c 488B08   		movq	(%rax), %rcx
 1315 0c2f 488D45C0 		leaq	-64(%rbp), %rax
 1316 0c33 BA580000 		movl	$88, %edx
 1316      00
 1317 0c38 4889CE   		movq	%rcx, %rsi
 1318 0c3b 4889C7   		movq	%rax, %rdi
 1319 0c3e E8000000 		call	_ZN8UnitTest11TestDetailsC1ERKS0_i
 1319      00
 1320              		.loc 3 88 0 is_stmt 0 discriminator 2
 1321 0c43 C745BC0F 		movl	$15, -68(%rbp)
 1321      000000
 1322 0c4a E8000000 		call	_ZN8UnitTest11CurrentTest7ResultsEv
 1322      00
 1323 0c4f 488B00   		movq	(%rax), %rax
 1324 0c52 488D4DC0 		leaq	-64(%rbp), %rcx
 1325 0c56 488D55BA 		leaq	-70(%rbp), %rdx
 1326 0c5a 488D75BC 		leaq	-68(%rbp), %rsi
 1327 0c5e 4889C7   		movq	%rax, %rdi
 1328 0c61 E8000000 		call	_ZN8UnitTest10CheckEqualIihEEvRNS_11TestResultsERKT_RKT0_RKNS_11TestDetailsE
 1328      00
 1329              	.LEHE69:
 1330              	.L142:
  89:testConv.cpp  **** 	status = getHexNibble('.', &nibble);
 1331              		.loc 3 89 0 is_stmt 1
 1332 0c66 488D45BA 		leaq	-70(%rbp), %rax
 1333 0c6a 4889C6   		movq	%rax, %rsi
 1334 0c6d BF2E0000 		movl	$46, %edi
 1334      00
 1335              	.LEHB70:
 1336 0c72 E8000000 		call	getHexNibble
 1336      00
 1337              	.LEHE70:
 1338 0c77 8845BB   		movb	%al, -69(%rbp)
 1339              	.LEHB71:
  90:testConv.cpp  **** 	CHECK_EQUAL(true, status);
 1340              		.loc 3 90 0
 1341 0c7a E8000000 		call	_ZN8UnitTest11CurrentTest7DetailsEv
 1341      00
 1342 0c7f 488B08   		movq	(%rax), %rcx
 1343 0c82 488D45C0 		leaq	-64(%rbp), %rax
 1344 0c86 BA5A0000 		movl	$90, %edx
 1344      00
 1345 0c8b 4889CE   		movq	%rcx, %rsi
 1346 0c8e 4889C7   		movq	%rax, %rdi
 1347 0c91 E8000000 		call	_ZN8UnitTest11TestDetailsC1ERKS0_i
 1347      00
 1348              		.loc 3 90 0 is_stmt 0 discriminator 2
 1349 0c96 C645BC01 		movb	$1, -68(%rbp)
 1350 0c9a E8000000 		call	_ZN8UnitTest11CurrentTest7ResultsEv
 1350      00
 1351 0c9f 488B00   		movq	(%rax), %rax
 1352 0ca2 488D4DC0 		leaq	-64(%rbp), %rcx
 1353 0ca6 488D55BB 		leaq	-69(%rbp), %rdx
 1354 0caa 488D75BC 		leaq	-68(%rbp), %rsi
 1355 0cae 4889C7   		movq	%rax, %rdi
 1356 0cb1 E8000000 		call	_ZN8UnitTest10CheckEqualIbbEEvRNS_11TestResultsERKT_RKT0_RKNS_11TestDetailsE
 1356      00
 1357              	.LEHE71:
 1358              	.LBE5:
  91:testConv.cpp  **** }
 1359              		.loc 3 91 0 is_stmt 1
 1360 0cb6 E9541000 		jmp	.L237
 1360      00
 1361              	.L148:
 1362 0cbb 4889C3   		movq	%rax, %rbx
 1363              	.LBB6:
  24:testConv.cpp  **** 	CHECK_EQUAL(0, nibble);
 1364              		.loc 3 24 0
 1365 0cbe E8000000 		call	__cxa_end_catch
 1365      00
 1366 0cc3 4889D8   		movq	%rbx, %rax
 1367 0cc6 4889C7   		movq	%rax, %rdi
 1368              	.LEHB72:
 1369 0cc9 E8000000 		call	_Unwind_Resume
 1369      00
 1370              	.LEHE72:
 1371              	.L147:
 1372 0cce 4889C7   		movq	%rax, %rdi
 1373 0cd1 E8000000 		call	__cxa_begin_catch
 1373      00
 1374              	.LEHB73:
 1375 0cd6 E8000000 		call	_ZN8UnitTest11CurrentTest7DetailsEv
 1375      00
 1376 0cdb 488B08   		movq	(%rax), %rcx
 1377 0cde 488D45C0 		leaq	-64(%rbp), %rax
 1378 0ce2 BA180000 		movl	$24, %edx
 1378      00
 1379 0ce7 4889CE   		movq	%rcx, %rsi
 1380 0cea 4889C7   		movq	%rax, %rdi
 1381 0ced E8000000 		call	_ZN8UnitTest11TestDetailsC1ERKS0_i
 1381      00
  24:testConv.cpp  **** 	CHECK_EQUAL(0, nibble);
 1382              		.loc 3 24 0 is_stmt 0 discriminator 10
 1383 0cf2 E8000000 		call	_ZN8UnitTest11CurrentTest7ResultsEv
 1383      00
 1384 0cf7 488B00   		movq	(%rax), %rax
 1385 0cfa 488D4DC0 		leaq	-64(%rbp), %rcx
 1386 0cfe BA000000 		movl	$.LC3, %edx
 1386      00
 1387 0d03 4889CE   		movq	%rcx, %rsi
 1388 0d06 4889C7   		movq	%rax, %rdi
 1389 0d09 E8000000 		call	_ZN8UnitTest11TestResults13OnTestFailureERKNS_11TestDetailsEPKc
 1389      00
 1390              	.LEHE73:
 1391              	.LEHB74:
  24:testConv.cpp  **** 	CHECK_EQUAL(0, nibble);
 1392              		.loc 3 24 0 discriminator 14
 1393 0d0e E8000000 		call	__cxa_end_catch
 1393      00
 1394              	.LEHE74:
 1395 0d13 E954F3FF 		jmp	.L13
 1395      FF
 1396              	.L150:
 1397 0d18 4889C3   		movq	%rax, %rbx
  25:testConv.cpp  **** 	status = getHexNibble('1', &nibble);
 1398              		.loc 3 25 0 is_stmt 1
 1399 0d1b E8000000 		call	__cxa_end_catch
 1399      00
 1400 0d20 4889D8   		movq	%rbx, %rax
 1401 0d23 4889C7   		movq	%rax, %rdi
 1402              	.LEHB75:
 1403 0d26 E8000000 		call	_Unwind_Resume
 1403      00
 1404              	.LEHE75:
 1405              	.L149:
 1406 0d2b 4889C7   		movq	%rax, %rdi
 1407 0d2e E8000000 		call	__cxa_begin_catch
 1407      00
 1408              	.LEHB76:
 1409 0d33 E8000000 		call	_ZN8UnitTest11CurrentTest7DetailsEv
 1409      00
 1410 0d38 488B08   		movq	(%rax), %rcx
 1411 0d3b 488D45C0 		leaq	-64(%rbp), %rax
 1412 0d3f BA190000 		movl	$25, %edx
 1412      00
 1413 0d44 4889CE   		movq	%rcx, %rsi
 1414 0d47 4889C7   		movq	%rax, %rdi
 1415 0d4a E8000000 		call	_ZN8UnitTest11TestDetailsC1ERKS0_i
 1415      00
  25:testConv.cpp  **** 	status = getHexNibble('1', &nibble);
 1416              		.loc 3 25 0 is_stmt 0 discriminator 10
 1417 0d4f E8000000 		call	_ZN8UnitTest11CurrentTest7ResultsEv
 1417      00
 1418 0d54 488B00   		movq	(%rax), %rax
 1419 0d57 488D4DC0 		leaq	-64(%rbp), %rcx
 1420 0d5b BA000000 		movl	$.LC4, %edx
 1420      00
 1421 0d60 4889CE   		movq	%rcx, %rsi
 1422 0d63 4889C7   		movq	%rax, %rdi
 1423 0d66 E8000000 		call	_ZN8UnitTest11TestResults13OnTestFailureERKNS_11TestDetailsEPKc
 1423      00
 1424              	.LEHE76:
 1425              	.LEHB77:
  25:testConv.cpp  **** 	status = getHexNibble('1', &nibble);
 1426              		.loc 3 25 0 discriminator 14
 1427 0d6b E8000000 		call	__cxa_end_catch
 1427      00
 1428              	.LEHE77:
 1429 0d70 E936F3FF 		jmp	.L16
 1429      FF
 1430              	.L152:
 1431 0d75 4889C3   		movq	%rax, %rbx
  27:testConv.cpp  **** 	CHECK_EQUAL(1, nibble);
 1432              		.loc 3 27 0 is_stmt 1
 1433 0d78 E8000000 		call	__cxa_end_catch
 1433      00
 1434 0d7d 4889D8   		movq	%rbx, %rax
 1435 0d80 4889C7   		movq	%rax, %rdi
 1436              	.LEHB78:
 1437 0d83 E8000000 		call	_Unwind_Resume
 1437      00
 1438              	.LEHE78:
 1439              	.L151:
 1440 0d88 4889C7   		movq	%rax, %rdi
 1441 0d8b E8000000 		call	__cxa_begin_catch
 1441      00
 1442              	.LEHB79:
 1443 0d90 E8000000 		call	_ZN8UnitTest11CurrentTest7DetailsEv
 1443      00
 1444 0d95 488B08   		movq	(%rax), %rcx
 1445 0d98 488D45C0 		leaq	-64(%rbp), %rax
 1446 0d9c BA1B0000 		movl	$27, %edx
 1446      00
 1447 0da1 4889CE   		movq	%rcx, %rsi
 1448 0da4 4889C7   		movq	%rax, %rdi
 1449 0da7 E8000000 		call	_ZN8UnitTest11TestDetailsC1ERKS0_i
 1449      00
  27:testConv.cpp  **** 	CHECK_EQUAL(1, nibble);
 1450              		.loc 3 27 0 is_stmt 0 discriminator 10
 1451 0dac E8000000 		call	_ZN8UnitTest11CurrentTest7ResultsEv
 1451      00
 1452 0db1 488B00   		movq	(%rax), %rax
 1453 0db4 488D4DC0 		leaq	-64(%rbp), %rcx
 1454 0db8 BA000000 		movl	$.LC3, %edx
 1454      00
 1455 0dbd 4889CE   		movq	%rcx, %rsi
 1456 0dc0 4889C7   		movq	%rax, %rdi
 1457 0dc3 E8000000 		call	_ZN8UnitTest11TestResults13OnTestFailureERKNS_11TestDetailsEPKc
 1457      00
 1458              	.LEHE79:
 1459              	.LEHB80:
  27:testConv.cpp  **** 	CHECK_EQUAL(1, nibble);
 1460              		.loc 3 27 0 discriminator 14
 1461 0dc8 E8000000 		call	__cxa_end_catch
 1461      00
 1462              	.LEHE80:
 1463 0dcd E929F3FF 		jmp	.L19
 1463      FF
 1464              	.L154:
 1465 0dd2 4889C3   		movq	%rax, %rbx
  28:testConv.cpp  **** 	status = getHexNibble('2', &nibble);
 1466              		.loc 3 28 0 is_stmt 1
 1467 0dd5 E8000000 		call	__cxa_end_catch
 1467      00
 1468 0dda 4889D8   		movq	%rbx, %rax
 1469 0ddd 4889C7   		movq	%rax, %rdi
 1470              	.LEHB81:
 1471 0de0 E8000000 		call	_Unwind_Resume
 1471      00
 1472              	.LEHE81:
 1473              	.L153:
 1474 0de5 4889C7   		movq	%rax, %rdi
 1475 0de8 E8000000 		call	__cxa_begin_catch
 1475      00
 1476              	.LEHB82:
 1477 0ded E8000000 		call	_ZN8UnitTest11CurrentTest7DetailsEv
 1477      00
 1478 0df2 488B08   		movq	(%rax), %rcx
 1479 0df5 488D45C0 		leaq	-64(%rbp), %rax
 1480 0df9 BA1C0000 		movl	$28, %edx
 1480      00
 1481 0dfe 4889CE   		movq	%rcx, %rsi
 1482 0e01 4889C7   		movq	%rax, %rdi
 1483 0e04 E8000000 		call	_ZN8UnitTest11TestDetailsC1ERKS0_i
 1483      00
  28:testConv.cpp  **** 	status = getHexNibble('2', &nibble);
 1484              		.loc 3 28 0 is_stmt 0 discriminator 10
 1485 0e09 E8000000 		call	_ZN8UnitTest11CurrentTest7ResultsEv
 1485      00
 1486 0e0e 488B00   		movq	(%rax), %rax
 1487 0e11 488D4DC0 		leaq	-64(%rbp), %rcx
 1488 0e15 BA000000 		movl	$.LC5, %edx
 1488      00
 1489 0e1a 4889CE   		movq	%rcx, %rsi
 1490 0e1d 4889C7   		movq	%rax, %rdi
 1491 0e20 E8000000 		call	_ZN8UnitTest11TestResults13OnTestFailureERKNS_11TestDetailsEPKc
 1491      00
 1492              	.LEHE82:
 1493              	.LEHB83:
  28:testConv.cpp  **** 	status = getHexNibble('2', &nibble);
 1494              		.loc 3 28 0 discriminator 14
 1495 0e25 E8000000 		call	__cxa_end_catch
 1495      00
 1496              	.LEHE83:
 1497 0e2a E90BF3FF 		jmp	.L22
 1497      FF
 1498              	.L156:
 1499 0e2f 4889C3   		movq	%rax, %rbx
  30:testConv.cpp  **** 	CHECK_EQUAL(2, nibble);
 1500              		.loc 3 30 0 is_stmt 1
 1501 0e32 E8000000 		call	__cxa_end_catch
 1501      00
 1502 0e37 4889D8   		movq	%rbx, %rax
 1503 0e3a 4889C7   		movq	%rax, %rdi
 1504              	.LEHB84:
 1505 0e3d E8000000 		call	_Unwind_Resume
 1505      00
 1506              	.LEHE84:
 1507              	.L155:
 1508 0e42 4889C7   		movq	%rax, %rdi
 1509 0e45 E8000000 		call	__cxa_begin_catch
 1509      00
 1510              	.LEHB85:
 1511 0e4a E8000000 		call	_ZN8UnitTest11CurrentTest7DetailsEv
 1511      00
 1512 0e4f 488B08   		movq	(%rax), %rcx
 1513 0e52 488D45C0 		leaq	-64(%rbp), %rax
 1514 0e56 BA1E0000 		movl	$30, %edx
 1514      00
 1515 0e5b 4889CE   		movq	%rcx, %rsi
 1516 0e5e 4889C7   		movq	%rax, %rdi
 1517 0e61 E8000000 		call	_ZN8UnitTest11TestDetailsC1ERKS0_i
 1517      00
  30:testConv.cpp  **** 	CHECK_EQUAL(2, nibble);
 1518              		.loc 3 30 0 is_stmt 0 discriminator 10
 1519 0e66 E8000000 		call	_ZN8UnitTest11CurrentTest7ResultsEv
 1519      00
 1520 0e6b 488B00   		movq	(%rax), %rax
 1521 0e6e 488D4DC0 		leaq	-64(%rbp), %rcx
 1522 0e72 BA000000 		movl	$.LC3, %edx
 1522      00
 1523 0e77 4889CE   		movq	%rcx, %rsi
 1524 0e7a 4889C7   		movq	%rax, %rdi
 1525 0e7d E8000000 		call	_ZN8UnitTest11TestResults13OnTestFailureERKNS_11TestDetailsEPKc
 1525      00
 1526              	.LEHE85:
 1527              	.LEHB86:
  30:testConv.cpp  **** 	CHECK_EQUAL(2, nibble);
 1528              		.loc 3 30 0 discriminator 14
 1529 0e82 E8000000 		call	__cxa_end_catch
 1529      00
 1530              	.LEHE86:
 1531 0e87 E9FEF2FF 		jmp	.L25
 1531      FF
 1532              	.L158:
 1533 0e8c 4889C3   		movq	%rax, %rbx
  31:testConv.cpp  **** 	status = getHexNibble('3', &nibble);
 1534              		.loc 3 31 0 is_stmt 1
 1535 0e8f E8000000 		call	__cxa_end_catch
 1535      00
 1536 0e94 4889D8   		movq	%rbx, %rax
 1537 0e97 4889C7   		movq	%rax, %rdi
 1538              	.LEHB87:
 1539 0e9a E8000000 		call	_Unwind_Resume
 1539      00
 1540              	.LEHE87:
 1541              	.L157:
 1542 0e9f 4889C7   		movq	%rax, %rdi
 1543 0ea2 E8000000 		call	__cxa_begin_catch
 1543      00
 1544              	.LEHB88:
 1545 0ea7 E8000000 		call	_ZN8UnitTest11CurrentTest7DetailsEv
 1545      00
 1546 0eac 488B08   		movq	(%rax), %rcx
 1547 0eaf 488D45C0 		leaq	-64(%rbp), %rax
 1548 0eb3 BA1F0000 		movl	$31, %edx
 1548      00
 1549 0eb8 4889CE   		movq	%rcx, %rsi
 1550 0ebb 4889C7   		movq	%rax, %rdi
 1551 0ebe E8000000 		call	_ZN8UnitTest11TestDetailsC1ERKS0_i
 1551      00
  31:testConv.cpp  **** 	status = getHexNibble('3', &nibble);
 1552              		.loc 3 31 0 is_stmt 0 discriminator 10
 1553 0ec3 E8000000 		call	_ZN8UnitTest11CurrentTest7ResultsEv
 1553      00
 1554 0ec8 488B00   		movq	(%rax), %rax
 1555 0ecb 488D4DC0 		leaq	-64(%rbp), %rcx
 1556 0ecf BA000000 		movl	$.LC6, %edx
 1556      00
 1557 0ed4 4889CE   		movq	%rcx, %rsi
 1558 0ed7 4889C7   		movq	%rax, %rdi
 1559 0eda E8000000 		call	_ZN8UnitTest11TestResults13OnTestFailureERKNS_11TestDetailsEPKc
 1559      00
 1560              	.LEHE88:
 1561              	.LEHB89:
  31:testConv.cpp  **** 	status = getHexNibble('3', &nibble);
 1562              		.loc 3 31 0 discriminator 14
 1563 0edf E8000000 		call	__cxa_end_catch
 1563      00
 1564              	.LEHE89:
 1565 0ee4 E9E0F2FF 		jmp	.L28
 1565      FF
 1566              	.L160:
 1567 0ee9 4889C3   		movq	%rax, %rbx
  33:testConv.cpp  **** 	CHECK_EQUAL(3, nibble);
 1568              		.loc 3 33 0 is_stmt 1
 1569 0eec E8000000 		call	__cxa_end_catch
 1569      00
 1570 0ef1 4889D8   		movq	%rbx, %rax
 1571 0ef4 4889C7   		movq	%rax, %rdi
 1572              	.LEHB90:
 1573 0ef7 E8000000 		call	_Unwind_Resume
 1573      00
 1574              	.LEHE90:
 1575              	.L159:
 1576 0efc 4889C7   		movq	%rax, %rdi
 1577 0eff E8000000 		call	__cxa_begin_catch
 1577      00
 1578              	.LEHB91:
 1579 0f04 E8000000 		call	_ZN8UnitTest11CurrentTest7DetailsEv
 1579      00
 1580 0f09 488B08   		movq	(%rax), %rcx
 1581 0f0c 488D45C0 		leaq	-64(%rbp), %rax
 1582 0f10 BA210000 		movl	$33, %edx
 1582      00
 1583 0f15 4889CE   		movq	%rcx, %rsi
 1584 0f18 4889C7   		movq	%rax, %rdi
 1585 0f1b E8000000 		call	_ZN8UnitTest11TestDetailsC1ERKS0_i
 1585      00
  33:testConv.cpp  **** 	CHECK_EQUAL(3, nibble);
 1586              		.loc 3 33 0 is_stmt 0 discriminator 10
 1587 0f20 E8000000 		call	_ZN8UnitTest11CurrentTest7ResultsEv
 1587      00
 1588 0f25 488B00   		movq	(%rax), %rax
 1589 0f28 488D4DC0 		leaq	-64(%rbp), %rcx
 1590 0f2c BA000000 		movl	$.LC3, %edx
 1590      00
 1591 0f31 4889CE   		movq	%rcx, %rsi
 1592 0f34 4889C7   		movq	%rax, %rdi
 1593 0f37 E8000000 		call	_ZN8UnitTest11TestResults13OnTestFailureERKNS_11TestDetailsEPKc
 1593      00
 1594              	.LEHE91:
 1595              	.LEHB92:
  33:testConv.cpp  **** 	CHECK_EQUAL(3, nibble);
 1596              		.loc 3 33 0 discriminator 14
 1597 0f3c E8000000 		call	__cxa_end_catch
 1597      00
 1598              	.LEHE92:
 1599 0f41 E9D3F2FF 		jmp	.L31
 1599      FF
 1600              	.L162:
 1601 0f46 4889C3   		movq	%rax, %rbx
  34:testConv.cpp  **** 	status = getHexNibble('4', &nibble);
 1602              		.loc 3 34 0 is_stmt 1
 1603 0f49 E8000000 		call	__cxa_end_catch
 1603      00
 1604 0f4e 4889D8   		movq	%rbx, %rax
 1605 0f51 4889C7   		movq	%rax, %rdi
 1606              	.LEHB93:
 1607 0f54 E8000000 		call	_Unwind_Resume
 1607      00
 1608              	.LEHE93:
 1609              	.L161:
 1610 0f59 4889C7   		movq	%rax, %rdi
 1611 0f5c E8000000 		call	__cxa_begin_catch
 1611      00
 1612              	.LEHB94:
 1613 0f61 E8000000 		call	_ZN8UnitTest11CurrentTest7DetailsEv
 1613      00
 1614 0f66 488B08   		movq	(%rax), %rcx
 1615 0f69 488D45C0 		leaq	-64(%rbp), %rax
 1616 0f6d BA220000 		movl	$34, %edx
 1616      00
 1617 0f72 4889CE   		movq	%rcx, %rsi
 1618 0f75 4889C7   		movq	%rax, %rdi
 1619 0f78 E8000000 		call	_ZN8UnitTest11TestDetailsC1ERKS0_i
 1619      00
  34:testConv.cpp  **** 	status = getHexNibble('4', &nibble);
 1620              		.loc 3 34 0 is_stmt 0 discriminator 10
 1621 0f7d E8000000 		call	_ZN8UnitTest11CurrentTest7ResultsEv
 1621      00
 1622 0f82 488B00   		movq	(%rax), %rax
 1623 0f85 488D4DC0 		leaq	-64(%rbp), %rcx
 1624 0f89 BA000000 		movl	$.LC7, %edx
 1624      00
 1625 0f8e 4889CE   		movq	%rcx, %rsi
 1626 0f91 4889C7   		movq	%rax, %rdi
 1627 0f94 E8000000 		call	_ZN8UnitTest11TestResults13OnTestFailureERKNS_11TestDetailsEPKc
 1627      00
 1628              	.LEHE94:
 1629              	.LEHB95:
  34:testConv.cpp  **** 	status = getHexNibble('4', &nibble);
 1630              		.loc 3 34 0 discriminator 14
 1631 0f99 E8000000 		call	__cxa_end_catch
 1631      00
 1632              	.LEHE95:
 1633 0f9e E9B5F2FF 		jmp	.L34
 1633      FF
 1634              	.L164:
 1635 0fa3 4889C3   		movq	%rax, %rbx
  36:testConv.cpp  **** 	CHECK_EQUAL(4, nibble);
 1636              		.loc 3 36 0 is_stmt 1
 1637 0fa6 E8000000 		call	__cxa_end_catch
 1637      00
 1638 0fab 4889D8   		movq	%rbx, %rax
 1639 0fae 4889C7   		movq	%rax, %rdi
 1640              	.LEHB96:
 1641 0fb1 E8000000 		call	_Unwind_Resume
 1641      00
 1642              	.LEHE96:
 1643              	.L163:
 1644 0fb6 4889C7   		movq	%rax, %rdi
 1645 0fb9 E8000000 		call	__cxa_begin_catch
 1645      00
 1646              	.LEHB97:
 1647 0fbe E8000000 		call	_ZN8UnitTest11CurrentTest7DetailsEv
 1647      00
 1648 0fc3 488B08   		movq	(%rax), %rcx
 1649 0fc6 488D45C0 		leaq	-64(%rbp), %rax
 1650 0fca BA240000 		movl	$36, %edx
 1650      00
 1651 0fcf 4889CE   		movq	%rcx, %rsi
 1652 0fd2 4889C7   		movq	%rax, %rdi
 1653 0fd5 E8000000 		call	_ZN8UnitTest11TestDetailsC1ERKS0_i
 1653      00
  36:testConv.cpp  **** 	CHECK_EQUAL(4, nibble);
 1654              		.loc 3 36 0 is_stmt 0 discriminator 10
 1655 0fda E8000000 		call	_ZN8UnitTest11CurrentTest7ResultsEv
 1655      00
 1656 0fdf 488B00   		movq	(%rax), %rax
 1657 0fe2 488D4DC0 		leaq	-64(%rbp), %rcx
 1658 0fe6 BA000000 		movl	$.LC3, %edx
 1658      00
 1659 0feb 4889CE   		movq	%rcx, %rsi
 1660 0fee 4889C7   		movq	%rax, %rdi
 1661 0ff1 E8000000 		call	_ZN8UnitTest11TestResults13OnTestFailureERKNS_11TestDetailsEPKc
 1661      00
 1662              	.LEHE97:
 1663              	.LEHB98:
  36:testConv.cpp  **** 	CHECK_EQUAL(4, nibble);
 1664              		.loc 3 36 0 discriminator 14
 1665 0ff6 E8000000 		call	__cxa_end_catch
 1665      00
 1666              	.LEHE98:
 1667 0ffb E9A8F2FF 		jmp	.L37
 1667      FF
 1668              	.L166:
 1669 1000 4889C3   		movq	%rax, %rbx
  37:testConv.cpp  **** 	status = getHexNibble('5', &nibble);
 1670              		.loc 3 37 0 is_stmt 1
 1671 1003 E8000000 		call	__cxa_end_catch
 1671      00
 1672 1008 4889D8   		movq	%rbx, %rax
 1673 100b 4889C7   		movq	%rax, %rdi
 1674              	.LEHB99:
 1675 100e E8000000 		call	_Unwind_Resume
 1675      00
 1676              	.LEHE99:
 1677              	.L165:
 1678 1013 4889C7   		movq	%rax, %rdi
 1679 1016 E8000000 		call	__cxa_begin_catch
 1679      00
 1680              	.LEHB100:
 1681 101b E8000000 		call	_ZN8UnitTest11CurrentTest7DetailsEv
 1681      00
 1682 1020 488B08   		movq	(%rax), %rcx
 1683 1023 488D45C0 		leaq	-64(%rbp), %rax
 1684 1027 BA250000 		movl	$37, %edx
 1684      00
 1685 102c 4889CE   		movq	%rcx, %rsi
 1686 102f 4889C7   		movq	%rax, %rdi
 1687 1032 E8000000 		call	_ZN8UnitTest11TestDetailsC1ERKS0_i
 1687      00
  37:testConv.cpp  **** 	status = getHexNibble('5', &nibble);
 1688              		.loc 3 37 0 is_stmt 0 discriminator 10
 1689 1037 E8000000 		call	_ZN8UnitTest11CurrentTest7ResultsEv
 1689      00
 1690 103c 488B00   		movq	(%rax), %rax
 1691 103f 488D4DC0 		leaq	-64(%rbp), %rcx
 1692 1043 BA000000 		movl	$.LC8, %edx
 1692      00
 1693 1048 4889CE   		movq	%rcx, %rsi
 1694 104b 4889C7   		movq	%rax, %rdi
 1695 104e E8000000 		call	_ZN8UnitTest11TestResults13OnTestFailureERKNS_11TestDetailsEPKc
 1695      00
 1696              	.LEHE100:
 1697              	.LEHB101:
  37:testConv.cpp  **** 	status = getHexNibble('5', &nibble);
 1698              		.loc 3 37 0 discriminator 14
 1699 1053 E8000000 		call	__cxa_end_catch
 1699      00
 1700              	.LEHE101:
 1701 1058 E98AF2FF 		jmp	.L40
 1701      FF
 1702              	.L168:
 1703 105d 4889C3   		movq	%rax, %rbx
  39:testConv.cpp  **** 	CHECK_EQUAL(5, nibble);
 1704              		.loc 3 39 0 is_stmt 1
 1705 1060 E8000000 		call	__cxa_end_catch
 1705      00
 1706 1065 4889D8   		movq	%rbx, %rax
 1707 1068 4889C7   		movq	%rax, %rdi
 1708              	.LEHB102:
 1709 106b E8000000 		call	_Unwind_Resume
 1709      00
 1710              	.LEHE102:
 1711              	.L167:
 1712 1070 4889C7   		movq	%rax, %rdi
 1713 1073 E8000000 		call	__cxa_begin_catch
 1713      00
 1714              	.LEHB103:
 1715 1078 E8000000 		call	_ZN8UnitTest11CurrentTest7DetailsEv
 1715      00
 1716 107d 488B08   		movq	(%rax), %rcx
 1717 1080 488D45C0 		leaq	-64(%rbp), %rax
 1718 1084 BA270000 		movl	$39, %edx
 1718      00
 1719 1089 4889CE   		movq	%rcx, %rsi
 1720 108c 4889C7   		movq	%rax, %rdi
 1721 108f E8000000 		call	_ZN8UnitTest11TestDetailsC1ERKS0_i
 1721      00
  39:testConv.cpp  **** 	CHECK_EQUAL(5, nibble);
 1722              		.loc 3 39 0 is_stmt 0 discriminator 10
 1723 1094 E8000000 		call	_ZN8UnitTest11CurrentTest7ResultsEv
 1723      00
 1724 1099 488B00   		movq	(%rax), %rax
 1725 109c 488D4DC0 		leaq	-64(%rbp), %rcx
 1726 10a0 BA000000 		movl	$.LC3, %edx
 1726      00
 1727 10a5 4889CE   		movq	%rcx, %rsi
 1728 10a8 4889C7   		movq	%rax, %rdi
 1729 10ab E8000000 		call	_ZN8UnitTest11TestResults13OnTestFailureERKNS_11TestDetailsEPKc
 1729      00
 1730              	.LEHE103:
 1731              	.LEHB104:
  39:testConv.cpp  **** 	CHECK_EQUAL(5, nibble);
 1732              		.loc 3 39 0 discriminator 14
 1733 10b0 E8000000 		call	__cxa_end_catch
 1733      00
 1734              	.LEHE104:
 1735 10b5 E97DF2FF 		jmp	.L43
 1735      FF
 1736              	.L170:
 1737 10ba 4889C3   		movq	%rax, %rbx
  40:testConv.cpp  **** 	status = getHexNibble('6', &nibble);
 1738              		.loc 3 40 0 is_stmt 1
 1739 10bd E8000000 		call	__cxa_end_catch
 1739      00
 1740 10c2 4889D8   		movq	%rbx, %rax
 1741 10c5 4889C7   		movq	%rax, %rdi
 1742              	.LEHB105:
 1743 10c8 E8000000 		call	_Unwind_Resume
 1743      00
 1744              	.LEHE105:
 1745              	.L169:
 1746 10cd 4889C7   		movq	%rax, %rdi
 1747 10d0 E8000000 		call	__cxa_begin_catch
 1747      00
 1748              	.LEHB106:
 1749 10d5 E8000000 		call	_ZN8UnitTest11CurrentTest7DetailsEv
 1749      00
 1750 10da 488B08   		movq	(%rax), %rcx
 1751 10dd 488D45C0 		leaq	-64(%rbp), %rax
 1752 10e1 BA280000 		movl	$40, %edx
 1752      00
 1753 10e6 4889CE   		movq	%rcx, %rsi
 1754 10e9 4889C7   		movq	%rax, %rdi
 1755 10ec E8000000 		call	_ZN8UnitTest11TestDetailsC1ERKS0_i
 1755      00
  40:testConv.cpp  **** 	status = getHexNibble('6', &nibble);
 1756              		.loc 3 40 0 is_stmt 0 discriminator 10
 1757 10f1 E8000000 		call	_ZN8UnitTest11CurrentTest7ResultsEv
 1757      00
 1758 10f6 488B00   		movq	(%rax), %rax
 1759 10f9 488D4DC0 		leaq	-64(%rbp), %rcx
 1760 10fd BA000000 		movl	$.LC9, %edx
 1760      00
 1761 1102 4889CE   		movq	%rcx, %rsi
 1762 1105 4889C7   		movq	%rax, %rdi
 1763 1108 E8000000 		call	_ZN8UnitTest11TestResults13OnTestFailureERKNS_11TestDetailsEPKc
 1763      00
 1764              	.LEHE106:
 1765              	.LEHB107:
  40:testConv.cpp  **** 	status = getHexNibble('6', &nibble);
 1766              		.loc 3 40 0 discriminator 14
 1767 110d E8000000 		call	__cxa_end_catch
 1767      00
 1768              	.LEHE107:
 1769 1112 E95FF2FF 		jmp	.L46
 1769      FF
 1770              	.L172:
 1771 1117 4889C3   		movq	%rax, %rbx
  42:testConv.cpp  **** 	CHECK_EQUAL(6, nibble);
 1772              		.loc 3 42 0 is_stmt 1
 1773 111a E8000000 		call	__cxa_end_catch
 1773      00
 1774 111f 4889D8   		movq	%rbx, %rax
 1775 1122 4889C7   		movq	%rax, %rdi
 1776              	.LEHB108:
 1777 1125 E8000000 		call	_Unwind_Resume
 1777      00
 1778              	.LEHE108:
 1779              	.L171:
 1780 112a 4889C7   		movq	%rax, %rdi
 1781 112d E8000000 		call	__cxa_begin_catch
 1781      00
 1782              	.LEHB109:
 1783 1132 E8000000 		call	_ZN8UnitTest11CurrentTest7DetailsEv
 1783      00
 1784 1137 488B08   		movq	(%rax), %rcx
 1785 113a 488D45C0 		leaq	-64(%rbp), %rax
 1786 113e BA2A0000 		movl	$42, %edx
 1786      00
 1787 1143 4889CE   		movq	%rcx, %rsi
 1788 1146 4889C7   		movq	%rax, %rdi
 1789 1149 E8000000 		call	_ZN8UnitTest11TestDetailsC1ERKS0_i
 1789      00
  42:testConv.cpp  **** 	CHECK_EQUAL(6, nibble);
 1790              		.loc 3 42 0 is_stmt 0 discriminator 10
 1791 114e E8000000 		call	_ZN8UnitTest11CurrentTest7ResultsEv
 1791      00
 1792 1153 488B00   		movq	(%rax), %rax
 1793 1156 488D4DC0 		leaq	-64(%rbp), %rcx
 1794 115a BA000000 		movl	$.LC3, %edx
 1794      00
 1795 115f 4889CE   		movq	%rcx, %rsi
 1796 1162 4889C7   		movq	%rax, %rdi
 1797 1165 E8000000 		call	_ZN8UnitTest11TestResults13OnTestFailureERKNS_11TestDetailsEPKc
 1797      00
 1798              	.LEHE109:
 1799              	.LEHB110:
  42:testConv.cpp  **** 	CHECK_EQUAL(6, nibble);
 1800              		.loc 3 42 0 discriminator 14
 1801 116a E8000000 		call	__cxa_end_catch
 1801      00
 1802              	.LEHE110:
 1803 116f E952F2FF 		jmp	.L49
 1803      FF
 1804              	.L174:
 1805 1174 4889C3   		movq	%rax, %rbx
  43:testConv.cpp  **** 	status = getHexNibble('7', &nibble);
 1806              		.loc 3 43 0 is_stmt 1
 1807 1177 E8000000 		call	__cxa_end_catch
 1807      00
 1808 117c 4889D8   		movq	%rbx, %rax
 1809 117f 4889C7   		movq	%rax, %rdi
 1810              	.LEHB111:
 1811 1182 E8000000 		call	_Unwind_Resume
 1811      00
 1812              	.LEHE111:
 1813              	.L173:
 1814 1187 4889C7   		movq	%rax, %rdi
 1815 118a E8000000 		call	__cxa_begin_catch
 1815      00
 1816              	.LEHB112:
 1817 118f E8000000 		call	_ZN8UnitTest11CurrentTest7DetailsEv
 1817      00
 1818 1194 488B08   		movq	(%rax), %rcx
 1819 1197 488D45C0 		leaq	-64(%rbp), %rax
 1820 119b BA2B0000 		movl	$43, %edx
 1820      00
 1821 11a0 4889CE   		movq	%rcx, %rsi
 1822 11a3 4889C7   		movq	%rax, %rdi
 1823 11a6 E8000000 		call	_ZN8UnitTest11TestDetailsC1ERKS0_i
 1823      00
  43:testConv.cpp  **** 	status = getHexNibble('7', &nibble);
 1824              		.loc 3 43 0 is_stmt 0 discriminator 10
 1825 11ab E8000000 		call	_ZN8UnitTest11CurrentTest7ResultsEv
 1825      00
 1826 11b0 488B00   		movq	(%rax), %rax
 1827 11b3 488D4DC0 		leaq	-64(%rbp), %rcx
 1828 11b7 BA000000 		movl	$.LC10, %edx
 1828      00
 1829 11bc 4889CE   		movq	%rcx, %rsi
 1830 11bf 4889C7   		movq	%rax, %rdi
 1831 11c2 E8000000 		call	_ZN8UnitTest11TestResults13OnTestFailureERKNS_11TestDetailsEPKc
 1831      00
 1832              	.LEHE112:
 1833              	.LEHB113:
  43:testConv.cpp  **** 	status = getHexNibble('7', &nibble);
 1834              		.loc 3 43 0 discriminator 14
 1835 11c7 E8000000 		call	__cxa_end_catch
 1835      00
 1836              	.LEHE113:
 1837 11cc E934F2FF 		jmp	.L52
 1837      FF
 1838              	.L176:
 1839 11d1 4889C3   		movq	%rax, %rbx
  45:testConv.cpp  **** 	CHECK_EQUAL(7, nibble);
 1840              		.loc 3 45 0 is_stmt 1
 1841 11d4 E8000000 		call	__cxa_end_catch
 1841      00
 1842 11d9 4889D8   		movq	%rbx, %rax
 1843 11dc 4889C7   		movq	%rax, %rdi
 1844              	.LEHB114:
 1845 11df E8000000 		call	_Unwind_Resume
 1845      00
 1846              	.LEHE114:
 1847              	.L175:
 1848 11e4 4889C7   		movq	%rax, %rdi
 1849 11e7 E8000000 		call	__cxa_begin_catch
 1849      00
 1850              	.LEHB115:
 1851 11ec E8000000 		call	_ZN8UnitTest11CurrentTest7DetailsEv
 1851      00
 1852 11f1 488B08   		movq	(%rax), %rcx
 1853 11f4 488D45C0 		leaq	-64(%rbp), %rax
 1854 11f8 BA2D0000 		movl	$45, %edx
 1854      00
 1855 11fd 4889CE   		movq	%rcx, %rsi
 1856 1200 4889C7   		movq	%rax, %rdi
 1857 1203 E8000000 		call	_ZN8UnitTest11TestDetailsC1ERKS0_i
 1857      00
  45:testConv.cpp  **** 	CHECK_EQUAL(7, nibble);
 1858              		.loc 3 45 0 is_stmt 0 discriminator 10
 1859 1208 E8000000 		call	_ZN8UnitTest11CurrentTest7ResultsEv
 1859      00
 1860 120d 488B00   		movq	(%rax), %rax
 1861 1210 488D4DC0 		leaq	-64(%rbp), %rcx
 1862 1214 BA000000 		movl	$.LC3, %edx
 1862      00
 1863 1219 4889CE   		movq	%rcx, %rsi
 1864 121c 4889C7   		movq	%rax, %rdi
 1865 121f E8000000 		call	_ZN8UnitTest11TestResults13OnTestFailureERKNS_11TestDetailsEPKc
 1865      00
 1866              	.LEHE115:
 1867              	.LEHB116:
  45:testConv.cpp  **** 	CHECK_EQUAL(7, nibble);
 1868              		.loc 3 45 0 discriminator 14
 1869 1224 E8000000 		call	__cxa_end_catch
 1869      00
 1870              	.LEHE116:
 1871 1229 E927F2FF 		jmp	.L55
 1871      FF
 1872              	.L178:
 1873 122e 4889C3   		movq	%rax, %rbx
  46:testConv.cpp  **** 	status = getHexNibble('8', &nibble);
 1874              		.loc 3 46 0 is_stmt 1
 1875 1231 E8000000 		call	__cxa_end_catch
 1875      00
 1876 1236 4889D8   		movq	%rbx, %rax
 1877 1239 4889C7   		movq	%rax, %rdi
 1878              	.LEHB117:
 1879 123c E8000000 		call	_Unwind_Resume
 1879      00
 1880              	.LEHE117:
 1881              	.L177:
 1882 1241 4889C7   		movq	%rax, %rdi
 1883 1244 E8000000 		call	__cxa_begin_catch
 1883      00
 1884              	.LEHB118:
 1885 1249 E8000000 		call	_ZN8UnitTest11CurrentTest7DetailsEv
 1885      00
 1886 124e 488B08   		movq	(%rax), %rcx
 1887 1251 488D45C0 		leaq	-64(%rbp), %rax
 1888 1255 BA2E0000 		movl	$46, %edx
 1888      00
 1889 125a 4889CE   		movq	%rcx, %rsi
 1890 125d 4889C7   		movq	%rax, %rdi
 1891 1260 E8000000 		call	_ZN8UnitTest11TestDetailsC1ERKS0_i
 1891      00
  46:testConv.cpp  **** 	status = getHexNibble('8', &nibble);
 1892              		.loc 3 46 0 is_stmt 0 discriminator 10
 1893 1265 E8000000 		call	_ZN8UnitTest11CurrentTest7ResultsEv
 1893      00
 1894 126a 488B00   		movq	(%rax), %rax
 1895 126d 488D4DC0 		leaq	-64(%rbp), %rcx
 1896 1271 BA000000 		movl	$.LC11, %edx
 1896      00
 1897 1276 4889CE   		movq	%rcx, %rsi
 1898 1279 4889C7   		movq	%rax, %rdi
 1899 127c E8000000 		call	_ZN8UnitTest11TestResults13OnTestFailureERKNS_11TestDetailsEPKc
 1899      00
 1900              	.LEHE118:
 1901              	.LEHB119:
  46:testConv.cpp  **** 	status = getHexNibble('8', &nibble);
 1902              		.loc 3 46 0 discriminator 14
 1903 1281 E8000000 		call	__cxa_end_catch
 1903      00
 1904              	.LEHE119:
 1905 1286 E909F2FF 		jmp	.L58
 1905      FF
 1906              	.L180:
 1907 128b 4889C3   		movq	%rax, %rbx
  48:testConv.cpp  **** 	CHECK_EQUAL(8, nibble);
 1908              		.loc 3 48 0 is_stmt 1
 1909 128e E8000000 		call	__cxa_end_catch
 1909      00
 1910 1293 4889D8   		movq	%rbx, %rax
 1911 1296 4889C7   		movq	%rax, %rdi
 1912              	.LEHB120:
 1913 1299 E8000000 		call	_Unwind_Resume
 1913      00
 1914              	.LEHE120:
 1915              	.L179:
 1916 129e 4889C7   		movq	%rax, %rdi
 1917 12a1 E8000000 		call	__cxa_begin_catch
 1917      00
 1918              	.LEHB121:
 1919 12a6 E8000000 		call	_ZN8UnitTest11CurrentTest7DetailsEv
 1919      00
 1920 12ab 488B08   		movq	(%rax), %rcx
 1921 12ae 488D45C0 		leaq	-64(%rbp), %rax
 1922 12b2 BA300000 		movl	$48, %edx
 1922      00
 1923 12b7 4889CE   		movq	%rcx, %rsi
 1924 12ba 4889C7   		movq	%rax, %rdi
 1925 12bd E8000000 		call	_ZN8UnitTest11TestDetailsC1ERKS0_i
 1925      00
  48:testConv.cpp  **** 	CHECK_EQUAL(8, nibble);
 1926              		.loc 3 48 0 is_stmt 0 discriminator 10
 1927 12c2 E8000000 		call	_ZN8UnitTest11CurrentTest7ResultsEv
 1927      00
 1928 12c7 488B00   		movq	(%rax), %rax
 1929 12ca 488D4DC0 		leaq	-64(%rbp), %rcx
 1930 12ce BA000000 		movl	$.LC3, %edx
 1930      00
 1931 12d3 4889CE   		movq	%rcx, %rsi
 1932 12d6 4889C7   		movq	%rax, %rdi
 1933 12d9 E8000000 		call	_ZN8UnitTest11TestResults13OnTestFailureERKNS_11TestDetailsEPKc
 1933      00
 1934              	.LEHE121:
 1935              	.LEHB122:
  48:testConv.cpp  **** 	CHECK_EQUAL(8, nibble);
 1936              		.loc 3 48 0 discriminator 14
 1937 12de E8000000 		call	__cxa_end_catch
 1937      00
 1938              	.LEHE122:
 1939 12e3 E9FCF1FF 		jmp	.L61
 1939      FF
 1940              	.L182:
 1941 12e8 4889C3   		movq	%rax, %rbx
  49:testConv.cpp  **** 	status = getHexNibble('9', &nibble);
 1942              		.loc 3 49 0 is_stmt 1
 1943 12eb E8000000 		call	__cxa_end_catch
 1943      00
 1944 12f0 4889D8   		movq	%rbx, %rax
 1945 12f3 4889C7   		movq	%rax, %rdi
 1946              	.LEHB123:
 1947 12f6 E8000000 		call	_Unwind_Resume
 1947      00
 1948              	.LEHE123:
 1949              	.L181:
 1950 12fb 4889C7   		movq	%rax, %rdi
 1951 12fe E8000000 		call	__cxa_begin_catch
 1951      00
 1952              	.LEHB124:
 1953 1303 E8000000 		call	_ZN8UnitTest11CurrentTest7DetailsEv
 1953      00
 1954 1308 488B08   		movq	(%rax), %rcx
 1955 130b 488D45C0 		leaq	-64(%rbp), %rax
 1956 130f BA310000 		movl	$49, %edx
 1956      00
 1957 1314 4889CE   		movq	%rcx, %rsi
 1958 1317 4889C7   		movq	%rax, %rdi
 1959 131a E8000000 		call	_ZN8UnitTest11TestDetailsC1ERKS0_i
 1959      00
  49:testConv.cpp  **** 	status = getHexNibble('9', &nibble);
 1960              		.loc 3 49 0 is_stmt 0 discriminator 10
 1961 131f E8000000 		call	_ZN8UnitTest11CurrentTest7ResultsEv
 1961      00
 1962 1324 488B00   		movq	(%rax), %rax
 1963 1327 488D4DC0 		leaq	-64(%rbp), %rcx
 1964 132b BA000000 		movl	$.LC12, %edx
 1964      00
 1965 1330 4889CE   		movq	%rcx, %rsi
 1966 1333 4889C7   		movq	%rax, %rdi
 1967 1336 E8000000 		call	_ZN8UnitTest11TestResults13OnTestFailureERKNS_11TestDetailsEPKc
 1967      00
 1968              	.LEHE124:
 1969              	.LEHB125:
  49:testConv.cpp  **** 	status = getHexNibble('9', &nibble);
 1970              		.loc 3 49 0 discriminator 14
 1971 133b E8000000 		call	__cxa_end_catch
 1971      00
 1972              	.LEHE125:
 1973 1340 E9DEF1FF 		jmp	.L64
 1973      FF
 1974              	.L184:
 1975 1345 4889C3   		movq	%rax, %rbx
  51:testConv.cpp  **** 	CHECK_EQUAL(9, nibble);
 1976              		.loc 3 51 0 is_stmt 1
 1977 1348 E8000000 		call	__cxa_end_catch
 1977      00
 1978 134d 4889D8   		movq	%rbx, %rax
 1979 1350 4889C7   		movq	%rax, %rdi
 1980              	.LEHB126:
 1981 1353 E8000000 		call	_Unwind_Resume
 1981      00
 1982              	.LEHE126:
 1983              	.L183:
 1984 1358 4889C7   		movq	%rax, %rdi
 1985 135b E8000000 		call	__cxa_begin_catch
 1985      00
 1986              	.LEHB127:
 1987 1360 E8000000 		call	_ZN8UnitTest11CurrentTest7DetailsEv
 1987      00
 1988 1365 488B08   		movq	(%rax), %rcx
 1989 1368 488D45C0 		leaq	-64(%rbp), %rax
 1990 136c BA330000 		movl	$51, %edx
 1990      00
 1991 1371 4889CE   		movq	%rcx, %rsi
 1992 1374 4889C7   		movq	%rax, %rdi
 1993 1377 E8000000 		call	_ZN8UnitTest11TestDetailsC1ERKS0_i
 1993      00
  51:testConv.cpp  **** 	CHECK_EQUAL(9, nibble);
 1994              		.loc 3 51 0 is_stmt 0 discriminator 10
 1995 137c E8000000 		call	_ZN8UnitTest11CurrentTest7ResultsEv
 1995      00
 1996 1381 488B00   		movq	(%rax), %rax
 1997 1384 488D4DC0 		leaq	-64(%rbp), %rcx
 1998 1388 BA000000 		movl	$.LC3, %edx
 1998      00
 1999 138d 4889CE   		movq	%rcx, %rsi
 2000 1390 4889C7   		movq	%rax, %rdi
 2001 1393 E8000000 		call	_ZN8UnitTest11TestResults13OnTestFailureERKNS_11TestDetailsEPKc
 2001      00
 2002              	.LEHE127:
 2003              	.LEHB128:
  51:testConv.cpp  **** 	CHECK_EQUAL(9, nibble);
 2004              		.loc 3 51 0 discriminator 14
 2005 1398 E8000000 		call	__cxa_end_catch
 2005      00
 2006              	.LEHE128:
 2007 139d E9D1F1FF 		jmp	.L67
 2007      FF
 2008              	.L186:
 2009 13a2 4889C3   		movq	%rax, %rbx
  52:testConv.cpp  **** 	status = getHexNibble('A', &nibble);
 2010              		.loc 3 52 0 is_stmt 1
 2011 13a5 E8000000 		call	__cxa_end_catch
 2011      00
 2012 13aa 4889D8   		movq	%rbx, %rax
 2013 13ad 4889C7   		movq	%rax, %rdi
 2014              	.LEHB129:
 2015 13b0 E8000000 		call	_Unwind_Resume
 2015      00
 2016              	.LEHE129:
 2017              	.L185:
 2018 13b5 4889C7   		movq	%rax, %rdi
 2019 13b8 E8000000 		call	__cxa_begin_catch
 2019      00
 2020              	.LEHB130:
 2021 13bd E8000000 		call	_ZN8UnitTest11CurrentTest7DetailsEv
 2021      00
 2022 13c2 488B08   		movq	(%rax), %rcx
 2023 13c5 488D45C0 		leaq	-64(%rbp), %rax
 2024 13c9 BA340000 		movl	$52, %edx
 2024      00
 2025 13ce 4889CE   		movq	%rcx, %rsi
 2026 13d1 4889C7   		movq	%rax, %rdi
 2027 13d4 E8000000 		call	_ZN8UnitTest11TestDetailsC1ERKS0_i
 2027      00
  52:testConv.cpp  **** 	status = getHexNibble('A', &nibble);
 2028              		.loc 3 52 0 is_stmt 0 discriminator 10
 2029 13d9 E8000000 		call	_ZN8UnitTest11CurrentTest7ResultsEv
 2029      00
 2030 13de 488B00   		movq	(%rax), %rax
 2031 13e1 488D4DC0 		leaq	-64(%rbp), %rcx
 2032 13e5 BA000000 		movl	$.LC13, %edx
 2032      00
 2033 13ea 4889CE   		movq	%rcx, %rsi
 2034 13ed 4889C7   		movq	%rax, %rdi
 2035 13f0 E8000000 		call	_ZN8UnitTest11TestResults13OnTestFailureERKNS_11TestDetailsEPKc
 2035      00
 2036              	.LEHE130:
 2037              	.LEHB131:
  52:testConv.cpp  **** 	status = getHexNibble('A', &nibble);
 2038              		.loc 3 52 0 discriminator 14
 2039 13f5 E8000000 		call	__cxa_end_catch
 2039      00
 2040              	.LEHE131:
 2041 13fa E9B3F1FF 		jmp	.L70
 2041      FF
 2042              	.L188:
 2043 13ff 4889C3   		movq	%rax, %rbx
  54:testConv.cpp  **** 	CHECK_EQUAL(10, nibble);
 2044              		.loc 3 54 0 is_stmt 1
 2045 1402 E8000000 		call	__cxa_end_catch
 2045      00
 2046 1407 4889D8   		movq	%rbx, %rax
 2047 140a 4889C7   		movq	%rax, %rdi
 2048              	.LEHB132:
 2049 140d E8000000 		call	_Unwind_Resume
 2049      00
 2050              	.LEHE132:
 2051              	.L187:
 2052 1412 4889C7   		movq	%rax, %rdi
 2053 1415 E8000000 		call	__cxa_begin_catch
 2053      00
 2054              	.LEHB133:
 2055 141a E8000000 		call	_ZN8UnitTest11CurrentTest7DetailsEv
 2055      00
 2056 141f 488B08   		movq	(%rax), %rcx
 2057 1422 488D45C0 		leaq	-64(%rbp), %rax
 2058 1426 BA360000 		movl	$54, %edx
 2058      00
 2059 142b 4889CE   		movq	%rcx, %rsi
 2060 142e 4889C7   		movq	%rax, %rdi
 2061 1431 E8000000 		call	_ZN8UnitTest11TestDetailsC1ERKS0_i
 2061      00
  54:testConv.cpp  **** 	CHECK_EQUAL(10, nibble);
 2062              		.loc 3 54 0 is_stmt 0 discriminator 10
 2063 1436 E8000000 		call	_ZN8UnitTest11CurrentTest7ResultsEv
 2063      00
 2064 143b 488B00   		movq	(%rax), %rax
 2065 143e 488D4DC0 		leaq	-64(%rbp), %rcx
 2066 1442 BA000000 		movl	$.LC3, %edx
 2066      00
 2067 1447 4889CE   		movq	%rcx, %rsi
 2068 144a 4889C7   		movq	%rax, %rdi
 2069 144d E8000000 		call	_ZN8UnitTest11TestResults13OnTestFailureERKNS_11TestDetailsEPKc
 2069      00
 2070              	.LEHE133:
 2071              	.LEHB134:
  54:testConv.cpp  **** 	CHECK_EQUAL(10, nibble);
 2072              		.loc 3 54 0 discriminator 14
 2073 1452 E8000000 		call	__cxa_end_catch
 2073      00
 2074              	.LEHE134:
 2075 1457 E9A6F1FF 		jmp	.L73
 2075      FF
 2076              	.L190:
 2077 145c 4889C3   		movq	%rax, %rbx
  55:testConv.cpp  **** 	status = getHexNibble('B', &nibble);
 2078              		.loc 3 55 0 is_stmt 1
 2079 145f E8000000 		call	__cxa_end_catch
 2079      00
 2080 1464 4889D8   		movq	%rbx, %rax
 2081 1467 4889C7   		movq	%rax, %rdi
 2082              	.LEHB135:
 2083 146a E8000000 		call	_Unwind_Resume
 2083      00
 2084              	.LEHE135:
 2085              	.L189:
 2086 146f 4889C7   		movq	%rax, %rdi
 2087 1472 E8000000 		call	__cxa_begin_catch
 2087      00
 2088              	.LEHB136:
 2089 1477 E8000000 		call	_ZN8UnitTest11CurrentTest7DetailsEv
 2089      00
 2090 147c 488B08   		movq	(%rax), %rcx
 2091 147f 488D45C0 		leaq	-64(%rbp), %rax
 2092 1483 BA370000 		movl	$55, %edx
 2092      00
 2093 1488 4889CE   		movq	%rcx, %rsi
 2094 148b 4889C7   		movq	%rax, %rdi
 2095 148e E8000000 		call	_ZN8UnitTest11TestDetailsC1ERKS0_i
 2095      00
  55:testConv.cpp  **** 	status = getHexNibble('B', &nibble);
 2096              		.loc 3 55 0 is_stmt 0 discriminator 10
 2097 1493 E8000000 		call	_ZN8UnitTest11CurrentTest7ResultsEv
 2097      00
 2098 1498 488B00   		movq	(%rax), %rax
 2099 149b 488D4DC0 		leaq	-64(%rbp), %rcx
 2100 149f BA000000 		movl	$.LC14, %edx
 2100      00
 2101 14a4 4889CE   		movq	%rcx, %rsi
 2102 14a7 4889C7   		movq	%rax, %rdi
 2103 14aa E8000000 		call	_ZN8UnitTest11TestResults13OnTestFailureERKNS_11TestDetailsEPKc
 2103      00
 2104              	.LEHE136:
 2105              	.LEHB137:
  55:testConv.cpp  **** 	status = getHexNibble('B', &nibble);
 2106              		.loc 3 55 0 discriminator 14
 2107 14af E8000000 		call	__cxa_end_catch
 2107      00
 2108              	.LEHE137:
 2109 14b4 E988F1FF 		jmp	.L76
 2109      FF
 2110              	.L192:
 2111 14b9 4889C3   		movq	%rax, %rbx
  57:testConv.cpp  **** 	CHECK_EQUAL(11, nibble);
 2112              		.loc 3 57 0 is_stmt 1
 2113 14bc E8000000 		call	__cxa_end_catch
 2113      00
 2114 14c1 4889D8   		movq	%rbx, %rax
 2115 14c4 4889C7   		movq	%rax, %rdi
 2116              	.LEHB138:
 2117 14c7 E8000000 		call	_Unwind_Resume
 2117      00
 2118              	.LEHE138:
 2119              	.L191:
 2120 14cc 4889C7   		movq	%rax, %rdi
 2121 14cf E8000000 		call	__cxa_begin_catch
 2121      00
 2122              	.LEHB139:
 2123 14d4 E8000000 		call	_ZN8UnitTest11CurrentTest7DetailsEv
 2123      00
 2124 14d9 488B08   		movq	(%rax), %rcx
 2125 14dc 488D45C0 		leaq	-64(%rbp), %rax
 2126 14e0 BA390000 		movl	$57, %edx
 2126      00
 2127 14e5 4889CE   		movq	%rcx, %rsi
 2128 14e8 4889C7   		movq	%rax, %rdi
 2129 14eb E8000000 		call	_ZN8UnitTest11TestDetailsC1ERKS0_i
 2129      00
  57:testConv.cpp  **** 	CHECK_EQUAL(11, nibble);
 2130              		.loc 3 57 0 is_stmt 0 discriminator 10
 2131 14f0 E8000000 		call	_ZN8UnitTest11CurrentTest7ResultsEv
 2131      00
 2132 14f5 488B00   		movq	(%rax), %rax
 2133 14f8 488D4DC0 		leaq	-64(%rbp), %rcx
 2134 14fc BA000000 		movl	$.LC3, %edx
 2134      00
 2135 1501 4889CE   		movq	%rcx, %rsi
 2136 1504 4889C7   		movq	%rax, %rdi
 2137 1507 E8000000 		call	_ZN8UnitTest11TestResults13OnTestFailureERKNS_11TestDetailsEPKc
 2137      00
 2138              	.LEHE139:
 2139              	.LEHB140:
  57:testConv.cpp  **** 	CHECK_EQUAL(11, nibble);
 2140              		.loc 3 57 0 discriminator 14
 2141 150c E8000000 		call	__cxa_end_catch
 2141      00
 2142              	.LEHE140:
 2143 1511 E97BF1FF 		jmp	.L79
 2143      FF
 2144              	.L194:
 2145 1516 4889C3   		movq	%rax, %rbx
  58:testConv.cpp  **** 	status = getHexNibble('C', &nibble);
 2146              		.loc 3 58 0 is_stmt 1
 2147 1519 E8000000 		call	__cxa_end_catch
 2147      00
 2148 151e 4889D8   		movq	%rbx, %rax
 2149 1521 4889C7   		movq	%rax, %rdi
 2150              	.LEHB141:
 2151 1524 E8000000 		call	_Unwind_Resume
 2151      00
 2152              	.LEHE141:
 2153              	.L193:
 2154 1529 4889C7   		movq	%rax, %rdi
 2155 152c E8000000 		call	__cxa_begin_catch
 2155      00
 2156              	.LEHB142:
 2157 1531 E8000000 		call	_ZN8UnitTest11CurrentTest7DetailsEv
 2157      00
 2158 1536 488B08   		movq	(%rax), %rcx
 2159 1539 488D45C0 		leaq	-64(%rbp), %rax
 2160 153d BA3A0000 		movl	$58, %edx
 2160      00
 2161 1542 4889CE   		movq	%rcx, %rsi
 2162 1545 4889C7   		movq	%rax, %rdi
 2163 1548 E8000000 		call	_ZN8UnitTest11TestDetailsC1ERKS0_i
 2163      00
  58:testConv.cpp  **** 	status = getHexNibble('C', &nibble);
 2164              		.loc 3 58 0 is_stmt 0 discriminator 10
 2165 154d E8000000 		call	_ZN8UnitTest11CurrentTest7ResultsEv
 2165      00
 2166 1552 488B00   		movq	(%rax), %rax
 2167 1555 488D4DC0 		leaq	-64(%rbp), %rcx
 2168 1559 BA000000 		movl	$.LC15, %edx
 2168      00
 2169 155e 4889CE   		movq	%rcx, %rsi
 2170 1561 4889C7   		movq	%rax, %rdi
 2171 1564 E8000000 		call	_ZN8UnitTest11TestResults13OnTestFailureERKNS_11TestDetailsEPKc
 2171      00
 2172              	.LEHE142:
 2173              	.LEHB143:
  58:testConv.cpp  **** 	status = getHexNibble('C', &nibble);
 2174              		.loc 3 58 0 discriminator 14
 2175 1569 E8000000 		call	__cxa_end_catch
 2175      00
 2176              	.LEHE143:
 2177 156e E95DF1FF 		jmp	.L82
 2177      FF
 2178              	.L196:
 2179 1573 4889C3   		movq	%rax, %rbx
  60:testConv.cpp  **** 	CHECK_EQUAL(12, nibble);
 2180              		.loc 3 60 0 is_stmt 1
 2181 1576 E8000000 		call	__cxa_end_catch
 2181      00
 2182 157b 4889D8   		movq	%rbx, %rax
 2183 157e 4889C7   		movq	%rax, %rdi
 2184              	.LEHB144:
 2185 1581 E8000000 		call	_Unwind_Resume
 2185      00
 2186              	.LEHE144:
 2187              	.L195:
 2188 1586 4889C7   		movq	%rax, %rdi
 2189 1589 E8000000 		call	__cxa_begin_catch
 2189      00
 2190              	.LEHB145:
 2191 158e E8000000 		call	_ZN8UnitTest11CurrentTest7DetailsEv
 2191      00
 2192 1593 488B08   		movq	(%rax), %rcx
 2193 1596 488D45C0 		leaq	-64(%rbp), %rax
 2194 159a BA3C0000 		movl	$60, %edx
 2194      00
 2195 159f 4889CE   		movq	%rcx, %rsi
 2196 15a2 4889C7   		movq	%rax, %rdi
 2197 15a5 E8000000 		call	_ZN8UnitTest11TestDetailsC1ERKS0_i
 2197      00
  60:testConv.cpp  **** 	CHECK_EQUAL(12, nibble);
 2198              		.loc 3 60 0 is_stmt 0 discriminator 10
 2199 15aa E8000000 		call	_ZN8UnitTest11CurrentTest7ResultsEv
 2199      00
 2200 15af 488B00   		movq	(%rax), %rax
 2201 15b2 488D4DC0 		leaq	-64(%rbp), %rcx
 2202 15b6 BA000000 		movl	$.LC3, %edx
 2202      00
 2203 15bb 4889CE   		movq	%rcx, %rsi
 2204 15be 4889C7   		movq	%rax, %rdi
 2205 15c1 E8000000 		call	_ZN8UnitTest11TestResults13OnTestFailureERKNS_11TestDetailsEPKc
 2205      00
 2206              	.LEHE145:
 2207              	.LEHB146:
  60:testConv.cpp  **** 	CHECK_EQUAL(12, nibble);
 2208              		.loc 3 60 0 discriminator 14
 2209 15c6 E8000000 		call	__cxa_end_catch
 2209      00
 2210              	.LEHE146:
 2211 15cb E950F1FF 		jmp	.L85
 2211      FF
 2212              	.L198:
 2213 15d0 4889C3   		movq	%rax, %rbx
  61:testConv.cpp  **** 	status = getHexNibble('D', &nibble);
 2214              		.loc 3 61 0 is_stmt 1
 2215 15d3 E8000000 		call	__cxa_end_catch
 2215      00
 2216 15d8 4889D8   		movq	%rbx, %rax
 2217 15db 4889C7   		movq	%rax, %rdi
 2218              	.LEHB147:
 2219 15de E8000000 		call	_Unwind_Resume
 2219      00
 2220              	.LEHE147:
 2221              	.L197:
 2222 15e3 4889C7   		movq	%rax, %rdi
 2223 15e6 E8000000 		call	__cxa_begin_catch
 2223      00
 2224              	.LEHB148:
 2225 15eb E8000000 		call	_ZN8UnitTest11CurrentTest7DetailsEv
 2225      00
 2226 15f0 488B08   		movq	(%rax), %rcx
 2227 15f3 488D45C0 		leaq	-64(%rbp), %rax
 2228 15f7 BA3D0000 		movl	$61, %edx
 2228      00
 2229 15fc 4889CE   		movq	%rcx, %rsi
 2230 15ff 4889C7   		movq	%rax, %rdi
 2231 1602 E8000000 		call	_ZN8UnitTest11TestDetailsC1ERKS0_i
 2231      00
  61:testConv.cpp  **** 	status = getHexNibble('D', &nibble);
 2232              		.loc 3 61 0 is_stmt 0 discriminator 10
 2233 1607 E8000000 		call	_ZN8UnitTest11CurrentTest7ResultsEv
 2233      00
 2234 160c 488B00   		movq	(%rax), %rax
 2235 160f 488D4DC0 		leaq	-64(%rbp), %rcx
 2236 1613 BA000000 		movl	$.LC16, %edx
 2236      00
 2237 1618 4889CE   		movq	%rcx, %rsi
 2238 161b 4889C7   		movq	%rax, %rdi
 2239 161e E8000000 		call	_ZN8UnitTest11TestResults13OnTestFailureERKNS_11TestDetailsEPKc
 2239      00
 2240              	.LEHE148:
 2241              	.LEHB149:
  61:testConv.cpp  **** 	status = getHexNibble('D', &nibble);
 2242              		.loc 3 61 0 discriminator 14
 2243 1623 E8000000 		call	__cxa_end_catch
 2243      00
 2244              	.LEHE149:
 2245 1628 E932F1FF 		jmp	.L88
 2245      FF
 2246              	.L200:
 2247 162d 4889C3   		movq	%rax, %rbx
  63:testConv.cpp  **** 	CHECK_EQUAL(13, nibble);
 2248              		.loc 3 63 0 is_stmt 1
 2249 1630 E8000000 		call	__cxa_end_catch
 2249      00
 2250 1635 4889D8   		movq	%rbx, %rax
 2251 1638 4889C7   		movq	%rax, %rdi
 2252              	.LEHB150:
 2253 163b E8000000 		call	_Unwind_Resume
 2253      00
 2254              	.LEHE150:
 2255              	.L199:
 2256 1640 4889C7   		movq	%rax, %rdi
 2257 1643 E8000000 		call	__cxa_begin_catch
 2257      00
 2258              	.LEHB151:
 2259 1648 E8000000 		call	_ZN8UnitTest11CurrentTest7DetailsEv
 2259      00
 2260 164d 488B08   		movq	(%rax), %rcx
 2261 1650 488D45C0 		leaq	-64(%rbp), %rax
 2262 1654 BA3F0000 		movl	$63, %edx
 2262      00
 2263 1659 4889CE   		movq	%rcx, %rsi
 2264 165c 4889C7   		movq	%rax, %rdi
 2265 165f E8000000 		call	_ZN8UnitTest11TestDetailsC1ERKS0_i
 2265      00
  63:testConv.cpp  **** 	CHECK_EQUAL(13, nibble);
 2266              		.loc 3 63 0 is_stmt 0 discriminator 10
 2267 1664 E8000000 		call	_ZN8UnitTest11CurrentTest7ResultsEv
 2267      00
 2268 1669 488B00   		movq	(%rax), %rax
 2269 166c 488D4DC0 		leaq	-64(%rbp), %rcx
 2270 1670 BA000000 		movl	$.LC3, %edx
 2270      00
 2271 1675 4889CE   		movq	%rcx, %rsi
 2272 1678 4889C7   		movq	%rax, %rdi
 2273 167b E8000000 		call	_ZN8UnitTest11TestResults13OnTestFailureERKNS_11TestDetailsEPKc
 2273      00
 2274              	.LEHE151:
 2275              	.LEHB152:
  63:testConv.cpp  **** 	CHECK_EQUAL(13, nibble);
 2276              		.loc 3 63 0 discriminator 14
 2277 1680 E8000000 		call	__cxa_end_catch
 2277      00
 2278              	.LEHE152:
 2279 1685 E925F1FF 		jmp	.L91
 2279      FF
 2280              	.L202:
 2281 168a 4889C3   		movq	%rax, %rbx
  64:testConv.cpp  **** 	status = getHexNibble('E', &nibble);
 2282              		.loc 3 64 0 is_stmt 1
 2283 168d E8000000 		call	__cxa_end_catch
 2283      00
 2284 1692 4889D8   		movq	%rbx, %rax
 2285 1695 4889C7   		movq	%rax, %rdi
 2286              	.LEHB153:
 2287 1698 E8000000 		call	_Unwind_Resume
 2287      00
 2288              	.LEHE153:
 2289              	.L201:
 2290 169d 4889C7   		movq	%rax, %rdi
 2291 16a0 E8000000 		call	__cxa_begin_catch
 2291      00
 2292              	.LEHB154:
 2293 16a5 E8000000 		call	_ZN8UnitTest11CurrentTest7DetailsEv
 2293      00
 2294 16aa 488B08   		movq	(%rax), %rcx
 2295 16ad 488D45C0 		leaq	-64(%rbp), %rax
 2296 16b1 BA400000 		movl	$64, %edx
 2296      00
 2297 16b6 4889CE   		movq	%rcx, %rsi
 2298 16b9 4889C7   		movq	%rax, %rdi
 2299 16bc E8000000 		call	_ZN8UnitTest11TestDetailsC1ERKS0_i
 2299      00
  64:testConv.cpp  **** 	status = getHexNibble('E', &nibble);
 2300              		.loc 3 64 0 is_stmt 0 discriminator 10
 2301 16c1 E8000000 		call	_ZN8UnitTest11CurrentTest7ResultsEv
 2301      00
 2302 16c6 488B00   		movq	(%rax), %rax
 2303 16c9 488D4DC0 		leaq	-64(%rbp), %rcx
 2304 16cd BA000000 		movl	$.LC17, %edx
 2304      00
 2305 16d2 4889CE   		movq	%rcx, %rsi
 2306 16d5 4889C7   		movq	%rax, %rdi
 2307 16d8 E8000000 		call	_ZN8UnitTest11TestResults13OnTestFailureERKNS_11TestDetailsEPKc
 2307      00
 2308              	.LEHE154:
 2309              	.LEHB155:
  64:testConv.cpp  **** 	status = getHexNibble('E', &nibble);
 2310              		.loc 3 64 0 discriminator 14
 2311 16dd E8000000 		call	__cxa_end_catch
 2311      00
 2312              	.LEHE155:
 2313 16e2 E907F1FF 		jmp	.L94
 2313      FF
 2314              	.L204:
 2315 16e7 4889C3   		movq	%rax, %rbx
  66:testConv.cpp  **** 	CHECK_EQUAL(14, nibble);
 2316              		.loc 3 66 0 is_stmt 1
 2317 16ea E8000000 		call	__cxa_end_catch
 2317      00
 2318 16ef 4889D8   		movq	%rbx, %rax
 2319 16f2 4889C7   		movq	%rax, %rdi
 2320              	.LEHB156:
 2321 16f5 E8000000 		call	_Unwind_Resume
 2321      00
 2322              	.LEHE156:
 2323              	.L203:
 2324 16fa 4889C7   		movq	%rax, %rdi
 2325 16fd E8000000 		call	__cxa_begin_catch
 2325      00
 2326              	.LEHB157:
 2327 1702 E8000000 		call	_ZN8UnitTest11CurrentTest7DetailsEv
 2327      00
 2328 1707 488B08   		movq	(%rax), %rcx
 2329 170a 488D45C0 		leaq	-64(%rbp), %rax
 2330 170e BA420000 		movl	$66, %edx
 2330      00
 2331 1713 4889CE   		movq	%rcx, %rsi
 2332 1716 4889C7   		movq	%rax, %rdi
 2333 1719 E8000000 		call	_ZN8UnitTest11TestDetailsC1ERKS0_i
 2333      00
  66:testConv.cpp  **** 	CHECK_EQUAL(14, nibble);
 2334              		.loc 3 66 0 is_stmt 0 discriminator 10
 2335 171e E8000000 		call	_ZN8UnitTest11CurrentTest7ResultsEv
 2335      00
 2336 1723 488B00   		movq	(%rax), %rax
 2337 1726 488D4DC0 		leaq	-64(%rbp), %rcx
 2338 172a BA000000 		movl	$.LC3, %edx
 2338      00
 2339 172f 4889CE   		movq	%rcx, %rsi
 2340 1732 4889C7   		movq	%rax, %rdi
 2341 1735 E8000000 		call	_ZN8UnitTest11TestResults13OnTestFailureERKNS_11TestDetailsEPKc
 2341      00
 2342              	.LEHE157:
 2343              	.LEHB158:
  66:testConv.cpp  **** 	CHECK_EQUAL(14, nibble);
 2344              		.loc 3 66 0 discriminator 14
 2345 173a E8000000 		call	__cxa_end_catch
 2345      00
 2346              	.LEHE158:
 2347 173f E9FAF0FF 		jmp	.L97
 2347      FF
 2348              	.L206:
 2349 1744 4889C3   		movq	%rax, %rbx
  67:testConv.cpp  **** 	status = getHexNibble('F', &nibble);
 2350              		.loc 3 67 0 is_stmt 1
 2351 1747 E8000000 		call	__cxa_end_catch
 2351      00
 2352 174c 4889D8   		movq	%rbx, %rax
 2353 174f 4889C7   		movq	%rax, %rdi
 2354              	.LEHB159:
 2355 1752 E8000000 		call	_Unwind_Resume
 2355      00
 2356              	.LEHE159:
 2357              	.L205:
 2358 1757 4889C7   		movq	%rax, %rdi
 2359 175a E8000000 		call	__cxa_begin_catch
 2359      00
 2360              	.LEHB160:
 2361 175f E8000000 		call	_ZN8UnitTest11CurrentTest7DetailsEv
 2361      00
 2362 1764 488B08   		movq	(%rax), %rcx
 2363 1767 488D45C0 		leaq	-64(%rbp), %rax
 2364 176b BA430000 		movl	$67, %edx
 2364      00
 2365 1770 4889CE   		movq	%rcx, %rsi
 2366 1773 4889C7   		movq	%rax, %rdi
 2367 1776 E8000000 		call	_ZN8UnitTest11TestDetailsC1ERKS0_i
 2367      00
  67:testConv.cpp  **** 	status = getHexNibble('F', &nibble);
 2368              		.loc 3 67 0 is_stmt 0 discriminator 10
 2369 177b E8000000 		call	_ZN8UnitTest11CurrentTest7ResultsEv
 2369      00
 2370 1780 488B00   		movq	(%rax), %rax
 2371 1783 488D4DC0 		leaq	-64(%rbp), %rcx
 2372 1787 BA000000 		movl	$.LC18, %edx
 2372      00
 2373 178c 4889CE   		movq	%rcx, %rsi
 2374 178f 4889C7   		movq	%rax, %rdi
 2375 1792 E8000000 		call	_ZN8UnitTest11TestResults13OnTestFailureERKNS_11TestDetailsEPKc
 2375      00
 2376              	.LEHE160:
 2377              	.LEHB161:
  67:testConv.cpp  **** 	status = getHexNibble('F', &nibble);
 2378              		.loc 3 67 0 discriminator 14
 2379 1797 E8000000 		call	__cxa_end_catch
 2379      00
 2380              	.LEHE161:
 2381 179c E9DCF0FF 		jmp	.L100
 2381      FF
 2382              	.L208:
 2383 17a1 4889C3   		movq	%rax, %rbx
  69:testConv.cpp  **** 	CHECK_EQUAL(15, nibble);
 2384              		.loc 3 69 0 is_stmt 1
 2385 17a4 E8000000 		call	__cxa_end_catch
 2385      00
 2386 17a9 4889D8   		movq	%rbx, %rax
 2387 17ac 4889C7   		movq	%rax, %rdi
 2388              	.LEHB162:
 2389 17af E8000000 		call	_Unwind_Resume
 2389      00
 2390              	.LEHE162:
 2391              	.L207:
 2392 17b4 4889C7   		movq	%rax, %rdi
 2393 17b7 E8000000 		call	__cxa_begin_catch
 2393      00
 2394              	.LEHB163:
 2395 17bc E8000000 		call	_ZN8UnitTest11CurrentTest7DetailsEv
 2395      00
 2396 17c1 488B08   		movq	(%rax), %rcx
 2397 17c4 488D45C0 		leaq	-64(%rbp), %rax
 2398 17c8 BA450000 		movl	$69, %edx
 2398      00
 2399 17cd 4889CE   		movq	%rcx, %rsi
 2400 17d0 4889C7   		movq	%rax, %rdi
 2401 17d3 E8000000 		call	_ZN8UnitTest11TestDetailsC1ERKS0_i
 2401      00
  69:testConv.cpp  **** 	CHECK_EQUAL(15, nibble);
 2402              		.loc 3 69 0 is_stmt 0 discriminator 10
 2403 17d8 E8000000 		call	_ZN8UnitTest11CurrentTest7ResultsEv
 2403      00
 2404 17dd 488B00   		movq	(%rax), %rax
 2405 17e0 488D4DC0 		leaq	-64(%rbp), %rcx
 2406 17e4 BA000000 		movl	$.LC3, %edx
 2406      00
 2407 17e9 4889CE   		movq	%rcx, %rsi
 2408 17ec 4889C7   		movq	%rax, %rdi
 2409 17ef E8000000 		call	_ZN8UnitTest11TestResults13OnTestFailureERKNS_11TestDetailsEPKc
 2409      00
 2410              	.LEHE163:
 2411              	.LEHB164:
  69:testConv.cpp  **** 	CHECK_EQUAL(15, nibble);
 2412              		.loc 3 69 0 discriminator 14
 2413 17f4 E8000000 		call	__cxa_end_catch
 2413      00
 2414              	.LEHE164:
 2415 17f9 E9CFF0FF 		jmp	.L103
 2415      FF
 2416              	.L210:
 2417 17fe 4889C3   		movq	%rax, %rbx
  70:testConv.cpp  **** 	status = getHexNibble('a', &nibble);
 2418              		.loc 3 70 0 is_stmt 1
 2419 1801 E8000000 		call	__cxa_end_catch
 2419      00
 2420 1806 4889D8   		movq	%rbx, %rax
 2421 1809 4889C7   		movq	%rax, %rdi
 2422              	.LEHB165:
 2423 180c E8000000 		call	_Unwind_Resume
 2423      00
 2424              	.LEHE165:
 2425              	.L209:
 2426 1811 4889C7   		movq	%rax, %rdi
 2427 1814 E8000000 		call	__cxa_begin_catch
 2427      00
 2428              	.LEHB166:
 2429 1819 E8000000 		call	_ZN8UnitTest11CurrentTest7DetailsEv
 2429      00
 2430 181e 488B08   		movq	(%rax), %rcx
 2431 1821 488D45C0 		leaq	-64(%rbp), %rax
 2432 1825 BA460000 		movl	$70, %edx
 2432      00
 2433 182a 4889CE   		movq	%rcx, %rsi
 2434 182d 4889C7   		movq	%rax, %rdi
 2435 1830 E8000000 		call	_ZN8UnitTest11TestDetailsC1ERKS0_i
 2435      00
  70:testConv.cpp  **** 	status = getHexNibble('a', &nibble);
 2436              		.loc 3 70 0 is_stmt 0 discriminator 10
 2437 1835 E8000000 		call	_ZN8UnitTest11CurrentTest7ResultsEv
 2437      00
 2438 183a 488B00   		movq	(%rax), %rax
 2439 183d 488D4DC0 		leaq	-64(%rbp), %rcx
 2440 1841 BA000000 		movl	$.LC19, %edx
 2440      00
 2441 1846 4889CE   		movq	%rcx, %rsi
 2442 1849 4889C7   		movq	%rax, %rdi
 2443 184c E8000000 		call	_ZN8UnitTest11TestResults13OnTestFailureERKNS_11TestDetailsEPKc
 2443      00
 2444              	.LEHE166:
 2445              	.LEHB167:
  70:testConv.cpp  **** 	status = getHexNibble('a', &nibble);
 2446              		.loc 3 70 0 discriminator 14
 2447 1851 E8000000 		call	__cxa_end_catch
 2447      00
 2448              	.LEHE167:
 2449 1856 E9B1F0FF 		jmp	.L106
 2449      FF
 2450              	.L212:
 2451 185b 4889C3   		movq	%rax, %rbx
  72:testConv.cpp  **** 	CHECK_EQUAL(10, nibble);
 2452              		.loc 3 72 0 is_stmt 1
 2453 185e E8000000 		call	__cxa_end_catch
 2453      00
 2454 1863 4889D8   		movq	%rbx, %rax
 2455 1866 4889C7   		movq	%rax, %rdi
 2456              	.LEHB168:
 2457 1869 E8000000 		call	_Unwind_Resume
 2457      00
 2458              	.LEHE168:
 2459              	.L211:
 2460 186e 4889C7   		movq	%rax, %rdi
 2461 1871 E8000000 		call	__cxa_begin_catch
 2461      00
 2462              	.LEHB169:
 2463 1876 E8000000 		call	_ZN8UnitTest11CurrentTest7DetailsEv
 2463      00
 2464 187b 488B08   		movq	(%rax), %rcx
 2465 187e 488D45C0 		leaq	-64(%rbp), %rax
 2466 1882 BA480000 		movl	$72, %edx
 2466      00
 2467 1887 4889CE   		movq	%rcx, %rsi
 2468 188a 4889C7   		movq	%rax, %rdi
 2469 188d E8000000 		call	_ZN8UnitTest11TestDetailsC1ERKS0_i
 2469      00
  72:testConv.cpp  **** 	CHECK_EQUAL(10, nibble);
 2470              		.loc 3 72 0 is_stmt 0 discriminator 10
 2471 1892 E8000000 		call	_ZN8UnitTest11CurrentTest7ResultsEv
 2471      00
 2472 1897 488B00   		movq	(%rax), %rax
 2473 189a 488D4DC0 		leaq	-64(%rbp), %rcx
 2474 189e BA000000 		movl	$.LC3, %edx
 2474      00
 2475 18a3 4889CE   		movq	%rcx, %rsi
 2476 18a6 4889C7   		movq	%rax, %rdi
 2477 18a9 E8000000 		call	_ZN8UnitTest11TestResults13OnTestFailureERKNS_11TestDetailsEPKc
 2477      00
 2478              	.LEHE169:
 2479              	.LEHB170:
  72:testConv.cpp  **** 	CHECK_EQUAL(10, nibble);
 2480              		.loc 3 72 0 discriminator 14
 2481 18ae E8000000 		call	__cxa_end_catch
 2481      00
 2482              	.LEHE170:
 2483 18b3 E9A4F0FF 		jmp	.L109
 2483      FF
 2484              	.L214:
 2485 18b8 4889C3   		movq	%rax, %rbx
  73:testConv.cpp  **** 	status = getHexNibble('b', &nibble);
 2486              		.loc 3 73 0 is_stmt 1
 2487 18bb E8000000 		call	__cxa_end_catch
 2487      00
 2488 18c0 4889D8   		movq	%rbx, %rax
 2489 18c3 4889C7   		movq	%rax, %rdi
 2490              	.LEHB171:
 2491 18c6 E8000000 		call	_Unwind_Resume
 2491      00
 2492              	.LEHE171:
 2493              	.L213:
 2494 18cb 4889C7   		movq	%rax, %rdi
 2495 18ce E8000000 		call	__cxa_begin_catch
 2495      00
 2496              	.LEHB172:
 2497 18d3 E8000000 		call	_ZN8UnitTest11CurrentTest7DetailsEv
 2497      00
 2498 18d8 488B08   		movq	(%rax), %rcx
 2499 18db 488D45C0 		leaq	-64(%rbp), %rax
 2500 18df BA490000 		movl	$73, %edx
 2500      00
 2501 18e4 4889CE   		movq	%rcx, %rsi
 2502 18e7 4889C7   		movq	%rax, %rdi
 2503 18ea E8000000 		call	_ZN8UnitTest11TestDetailsC1ERKS0_i
 2503      00
  73:testConv.cpp  **** 	status = getHexNibble('b', &nibble);
 2504              		.loc 3 73 0 is_stmt 0 discriminator 10
 2505 18ef E8000000 		call	_ZN8UnitTest11CurrentTest7ResultsEv
 2505      00
 2506 18f4 488B00   		movq	(%rax), %rax
 2507 18f7 488D4DC0 		leaq	-64(%rbp), %rcx
 2508 18fb BA000000 		movl	$.LC14, %edx
 2508      00
 2509 1900 4889CE   		movq	%rcx, %rsi
 2510 1903 4889C7   		movq	%rax, %rdi
 2511 1906 E8000000 		call	_ZN8UnitTest11TestResults13OnTestFailureERKNS_11TestDetailsEPKc
 2511      00
 2512              	.LEHE172:
 2513              	.LEHB173:
  73:testConv.cpp  **** 	status = getHexNibble('b', &nibble);
 2514              		.loc 3 73 0 discriminator 14
 2515 190b E8000000 		call	__cxa_end_catch
 2515      00
 2516              	.LEHE173:
 2517 1910 E986F0FF 		jmp	.L112
 2517      FF
 2518              	.L216:
 2519 1915 4889C3   		movq	%rax, %rbx
  75:testConv.cpp  **** 	CHECK_EQUAL(11, nibble);
 2520              		.loc 3 75 0 is_stmt 1
 2521 1918 E8000000 		call	__cxa_end_catch
 2521      00
 2522 191d 4889D8   		movq	%rbx, %rax
 2523 1920 4889C7   		movq	%rax, %rdi
 2524              	.LEHB174:
 2525 1923 E8000000 		call	_Unwind_Resume
 2525      00
 2526              	.LEHE174:
 2527              	.L215:
 2528 1928 4889C7   		movq	%rax, %rdi
 2529 192b E8000000 		call	__cxa_begin_catch
 2529      00
 2530              	.LEHB175:
 2531 1930 E8000000 		call	_ZN8UnitTest11CurrentTest7DetailsEv
 2531      00
 2532 1935 488B08   		movq	(%rax), %rcx
 2533 1938 488D45C0 		leaq	-64(%rbp), %rax
 2534 193c BA4B0000 		movl	$75, %edx
 2534      00
 2535 1941 4889CE   		movq	%rcx, %rsi
 2536 1944 4889C7   		movq	%rax, %rdi
 2537 1947 E8000000 		call	_ZN8UnitTest11TestDetailsC1ERKS0_i
 2537      00
  75:testConv.cpp  **** 	CHECK_EQUAL(11, nibble);
 2538              		.loc 3 75 0 is_stmt 0 discriminator 10
 2539 194c E8000000 		call	_ZN8UnitTest11CurrentTest7ResultsEv
 2539      00
 2540 1951 488B00   		movq	(%rax), %rax
 2541 1954 488D4DC0 		leaq	-64(%rbp), %rcx
 2542 1958 BA000000 		movl	$.LC3, %edx
 2542      00
 2543 195d 4889CE   		movq	%rcx, %rsi
 2544 1960 4889C7   		movq	%rax, %rdi
 2545 1963 E8000000 		call	_ZN8UnitTest11TestResults13OnTestFailureERKNS_11TestDetailsEPKc
 2545      00
 2546              	.LEHE175:
 2547              	.LEHB176:
  75:testConv.cpp  **** 	CHECK_EQUAL(11, nibble);
 2548              		.loc 3 75 0 discriminator 14
 2549 1968 E8000000 		call	__cxa_end_catch
 2549      00
 2550              	.LEHE176:
 2551 196d E979F0FF 		jmp	.L115
 2551      FF
 2552              	.L218:
 2553 1972 4889C3   		movq	%rax, %rbx
  76:testConv.cpp  **** 	status = getHexNibble('c', &nibble);
 2554              		.loc 3 76 0 is_stmt 1
 2555 1975 E8000000 		call	__cxa_end_catch
 2555      00
 2556 197a 4889D8   		movq	%rbx, %rax
 2557 197d 4889C7   		movq	%rax, %rdi
 2558              	.LEHB177:
 2559 1980 E8000000 		call	_Unwind_Resume
 2559      00
 2560              	.LEHE177:
 2561              	.L217:
 2562 1985 4889C7   		movq	%rax, %rdi
 2563 1988 E8000000 		call	__cxa_begin_catch
 2563      00
 2564              	.LEHB178:
 2565 198d E8000000 		call	_ZN8UnitTest11CurrentTest7DetailsEv
 2565      00
 2566 1992 488B08   		movq	(%rax), %rcx
 2567 1995 488D45C0 		leaq	-64(%rbp), %rax
 2568 1999 BA4C0000 		movl	$76, %edx
 2568      00
 2569 199e 4889CE   		movq	%rcx, %rsi
 2570 19a1 4889C7   		movq	%rax, %rdi
 2571 19a4 E8000000 		call	_ZN8UnitTest11TestDetailsC1ERKS0_i
 2571      00
  76:testConv.cpp  **** 	status = getHexNibble('c', &nibble);
 2572              		.loc 3 76 0 is_stmt 0 discriminator 10
 2573 19a9 E8000000 		call	_ZN8UnitTest11CurrentTest7ResultsEv
 2573      00
 2574 19ae 488B00   		movq	(%rax), %rax
 2575 19b1 488D4DC0 		leaq	-64(%rbp), %rcx
 2576 19b5 BA000000 		movl	$.LC15, %edx
 2576      00
 2577 19ba 4889CE   		movq	%rcx, %rsi
 2578 19bd 4889C7   		movq	%rax, %rdi
 2579 19c0 E8000000 		call	_ZN8UnitTest11TestResults13OnTestFailureERKNS_11TestDetailsEPKc
 2579      00
 2580              	.LEHE178:
 2581              	.LEHB179:
  76:testConv.cpp  **** 	status = getHexNibble('c', &nibble);
 2582              		.loc 3 76 0 discriminator 14
 2583 19c5 E8000000 		call	__cxa_end_catch
 2583      00
 2584              	.LEHE179:
 2585 19ca E95BF0FF 		jmp	.L118
 2585      FF
 2586              	.L220:
 2587 19cf 4889C3   		movq	%rax, %rbx
  78:testConv.cpp  **** 	CHECK_EQUAL(12, nibble);
 2588              		.loc 3 78 0 is_stmt 1
 2589 19d2 E8000000 		call	__cxa_end_catch
 2589      00
 2590 19d7 4889D8   		movq	%rbx, %rax
 2591 19da 4889C7   		movq	%rax, %rdi
 2592              	.LEHB180:
 2593 19dd E8000000 		call	_Unwind_Resume
 2593      00
 2594              	.LEHE180:
 2595              	.L219:
 2596 19e2 4889C7   		movq	%rax, %rdi
 2597 19e5 E8000000 		call	__cxa_begin_catch
 2597      00
 2598              	.LEHB181:
 2599 19ea E8000000 		call	_ZN8UnitTest11CurrentTest7DetailsEv
 2599      00
 2600 19ef 488B08   		movq	(%rax), %rcx
 2601 19f2 488D45C0 		leaq	-64(%rbp), %rax
 2602 19f6 BA4E0000 		movl	$78, %edx
 2602      00
 2603 19fb 4889CE   		movq	%rcx, %rsi
 2604 19fe 4889C7   		movq	%rax, %rdi
 2605 1a01 E8000000 		call	_ZN8UnitTest11TestDetailsC1ERKS0_i
 2605      00
  78:testConv.cpp  **** 	CHECK_EQUAL(12, nibble);
 2606              		.loc 3 78 0 is_stmt 0 discriminator 10
 2607 1a06 E8000000 		call	_ZN8UnitTest11CurrentTest7ResultsEv
 2607      00
 2608 1a0b 488B00   		movq	(%rax), %rax
 2609 1a0e 488D4DC0 		leaq	-64(%rbp), %rcx
 2610 1a12 BA000000 		movl	$.LC3, %edx
 2610      00
 2611 1a17 4889CE   		movq	%rcx, %rsi
 2612 1a1a 4889C7   		movq	%rax, %rdi
 2613 1a1d E8000000 		call	_ZN8UnitTest11TestResults13OnTestFailureERKNS_11TestDetailsEPKc
 2613      00
 2614              	.LEHE181:
 2615              	.LEHB182:
  78:testConv.cpp  **** 	CHECK_EQUAL(12, nibble);
 2616              		.loc 3 78 0 discriminator 14
 2617 1a22 E8000000 		call	__cxa_end_catch
 2617      00
 2618              	.LEHE182:
 2619 1a27 E94EF0FF 		jmp	.L121
 2619      FF
 2620              	.L222:
 2621 1a2c 4889C3   		movq	%rax, %rbx
  79:testConv.cpp  **** 	status = getHexNibble('d', &nibble);
 2622              		.loc 3 79 0 is_stmt 1
 2623 1a2f E8000000 		call	__cxa_end_catch
 2623      00
 2624 1a34 4889D8   		movq	%rbx, %rax
 2625 1a37 4889C7   		movq	%rax, %rdi
 2626              	.LEHB183:
 2627 1a3a E8000000 		call	_Unwind_Resume
 2627      00
 2628              	.LEHE183:
 2629              	.L221:
 2630 1a3f 4889C7   		movq	%rax, %rdi
 2631 1a42 E8000000 		call	__cxa_begin_catch
 2631      00
 2632              	.LEHB184:
 2633 1a47 E8000000 		call	_ZN8UnitTest11CurrentTest7DetailsEv
 2633      00
 2634 1a4c 488B08   		movq	(%rax), %rcx
 2635 1a4f 488D45C0 		leaq	-64(%rbp), %rax
 2636 1a53 BA4F0000 		movl	$79, %edx
 2636      00
 2637 1a58 4889CE   		movq	%rcx, %rsi
 2638 1a5b 4889C7   		movq	%rax, %rdi
 2639 1a5e E8000000 		call	_ZN8UnitTest11TestDetailsC1ERKS0_i
 2639      00
  79:testConv.cpp  **** 	status = getHexNibble('d', &nibble);
 2640              		.loc 3 79 0 is_stmt 0 discriminator 10
 2641 1a63 E8000000 		call	_ZN8UnitTest11CurrentTest7ResultsEv
 2641      00
 2642 1a68 488B00   		movq	(%rax), %rax
 2643 1a6b 488D4DC0 		leaq	-64(%rbp), %rcx
 2644 1a6f BA000000 		movl	$.LC16, %edx
 2644      00
 2645 1a74 4889CE   		movq	%rcx, %rsi
 2646 1a77 4889C7   		movq	%rax, %rdi
 2647 1a7a E8000000 		call	_ZN8UnitTest11TestResults13OnTestFailureERKNS_11TestDetailsEPKc
 2647      00
 2648              	.LEHE184:
 2649              	.LEHB185:
  79:testConv.cpp  **** 	status = getHexNibble('d', &nibble);
 2650              		.loc 3 79 0 discriminator 14
 2651 1a7f E8000000 		call	__cxa_end_catch
 2651      00
 2652              	.LEHE185:
 2653 1a84 E930F0FF 		jmp	.L124
 2653      FF
 2654              	.L224:
 2655 1a89 4889C3   		movq	%rax, %rbx
  81:testConv.cpp  **** 	CHECK_EQUAL(13, nibble);
 2656              		.loc 3 81 0 is_stmt 1
 2657 1a8c E8000000 		call	__cxa_end_catch
 2657      00
 2658 1a91 4889D8   		movq	%rbx, %rax
 2659 1a94 4889C7   		movq	%rax, %rdi
 2660              	.LEHB186:
 2661 1a97 E8000000 		call	_Unwind_Resume
 2661      00
 2662              	.LEHE186:
 2663              	.L223:
 2664 1a9c 4889C7   		movq	%rax, %rdi
 2665 1a9f E8000000 		call	__cxa_begin_catch
 2665      00
 2666              	.LEHB187:
 2667 1aa4 E8000000 		call	_ZN8UnitTest11CurrentTest7DetailsEv
 2667      00
 2668 1aa9 488B08   		movq	(%rax), %rcx
 2669 1aac 488D45C0 		leaq	-64(%rbp), %rax
 2670 1ab0 BA510000 		movl	$81, %edx
 2670      00
 2671 1ab5 4889CE   		movq	%rcx, %rsi
 2672 1ab8 4889C7   		movq	%rax, %rdi
 2673 1abb E8000000 		call	_ZN8UnitTest11TestDetailsC1ERKS0_i
 2673      00
  81:testConv.cpp  **** 	CHECK_EQUAL(13, nibble);
 2674              		.loc 3 81 0 is_stmt 0 discriminator 10
 2675 1ac0 E8000000 		call	_ZN8UnitTest11CurrentTest7ResultsEv
 2675      00
 2676 1ac5 488B00   		movq	(%rax), %rax
 2677 1ac8 488D4DC0 		leaq	-64(%rbp), %rcx
 2678 1acc BA000000 		movl	$.LC3, %edx
 2678      00
 2679 1ad1 4889CE   		movq	%rcx, %rsi
 2680 1ad4 4889C7   		movq	%rax, %rdi
 2681 1ad7 E8000000 		call	_ZN8UnitTest11TestResults13OnTestFailureERKNS_11TestDetailsEPKc
 2681      00
 2682              	.LEHE187:
 2683              	.LEHB188:
  81:testConv.cpp  **** 	CHECK_EQUAL(13, nibble);
 2684              		.loc 3 81 0 discriminator 14
 2685 1adc E8000000 		call	__cxa_end_catch
 2685      00
 2686              	.LEHE188:
 2687 1ae1 E923F0FF 		jmp	.L127
 2687      FF
 2688              	.L226:
 2689 1ae6 4889C3   		movq	%rax, %rbx
  82:testConv.cpp  **** 	status = getHexNibble('e', &nibble);
 2690              		.loc 3 82 0 is_stmt 1
 2691 1ae9 E8000000 		call	__cxa_end_catch
 2691      00
 2692 1aee 4889D8   		movq	%rbx, %rax
 2693 1af1 4889C7   		movq	%rax, %rdi
 2694              	.LEHB189:
 2695 1af4 E8000000 		call	_Unwind_Resume
 2695      00
 2696              	.LEHE189:
 2697              	.L225:
 2698 1af9 4889C7   		movq	%rax, %rdi
 2699 1afc E8000000 		call	__cxa_begin_catch
 2699      00
 2700              	.LEHB190:
 2701 1b01 E8000000 		call	_ZN8UnitTest11CurrentTest7DetailsEv
 2701      00
 2702 1b06 488B08   		movq	(%rax), %rcx
 2703 1b09 488D45C0 		leaq	-64(%rbp), %rax
 2704 1b0d BA520000 		movl	$82, %edx
 2704      00
 2705 1b12 4889CE   		movq	%rcx, %rsi
 2706 1b15 4889C7   		movq	%rax, %rdi
 2707 1b18 E8000000 		call	_ZN8UnitTest11TestDetailsC1ERKS0_i
 2707      00
  82:testConv.cpp  **** 	status = getHexNibble('e', &nibble);
 2708              		.loc 3 82 0 is_stmt 0 discriminator 10
 2709 1b1d E8000000 		call	_ZN8UnitTest11CurrentTest7ResultsEv
 2709      00
 2710 1b22 488B00   		movq	(%rax), %rax
 2711 1b25 488D4DC0 		leaq	-64(%rbp), %rcx
 2712 1b29 BA000000 		movl	$.LC17, %edx
 2712      00
 2713 1b2e 4889CE   		movq	%rcx, %rsi
 2714 1b31 4889C7   		movq	%rax, %rdi
 2715 1b34 E8000000 		call	_ZN8UnitTest11TestResults13OnTestFailureERKNS_11TestDetailsEPKc
 2715      00
 2716              	.LEHE190:
 2717              	.LEHB191:
  82:testConv.cpp  **** 	status = getHexNibble('e', &nibble);
 2718              		.loc 3 82 0 discriminator 14
 2719 1b39 E8000000 		call	__cxa_end_catch
 2719      00
 2720              	.LEHE191:
 2721 1b3e E905F0FF 		jmp	.L130
 2721      FF
 2722              	.L228:
 2723 1b43 4889C3   		movq	%rax, %rbx
  84:testConv.cpp  **** 	CHECK_EQUAL(14, nibble);
 2724              		.loc 3 84 0 is_stmt 1
 2725 1b46 E8000000 		call	__cxa_end_catch
 2725      00
 2726 1b4b 4889D8   		movq	%rbx, %rax
 2727 1b4e 4889C7   		movq	%rax, %rdi
 2728              	.LEHB192:
 2729 1b51 E8000000 		call	_Unwind_Resume
 2729      00
 2730              	.LEHE192:
 2731              	.L227:
 2732 1b56 4889C7   		movq	%rax, %rdi
 2733 1b59 E8000000 		call	__cxa_begin_catch
 2733      00
 2734              	.LEHB193:
 2735 1b5e E8000000 		call	_ZN8UnitTest11CurrentTest7DetailsEv
 2735      00
 2736 1b63 488B08   		movq	(%rax), %rcx
 2737 1b66 488D45C0 		leaq	-64(%rbp), %rax
 2738 1b6a BA540000 		movl	$84, %edx
 2738      00
 2739 1b6f 4889CE   		movq	%rcx, %rsi
 2740 1b72 4889C7   		movq	%rax, %rdi
 2741 1b75 E8000000 		call	_ZN8UnitTest11TestDetailsC1ERKS0_i
 2741      00
  84:testConv.cpp  **** 	CHECK_EQUAL(14, nibble);
 2742              		.loc 3 84 0 is_stmt 0 discriminator 10
 2743 1b7a E8000000 		call	_ZN8UnitTest11CurrentTest7ResultsEv
 2743      00
 2744 1b7f 488B00   		movq	(%rax), %rax
 2745 1b82 488D4DC0 		leaq	-64(%rbp), %rcx
 2746 1b86 BA000000 		movl	$.LC3, %edx
 2746      00
 2747 1b8b 4889CE   		movq	%rcx, %rsi
 2748 1b8e 4889C7   		movq	%rax, %rdi
 2749 1b91 E8000000 		call	_ZN8UnitTest11TestResults13OnTestFailureERKNS_11TestDetailsEPKc
 2749      00
 2750              	.LEHE193:
 2751              	.LEHB194:
  84:testConv.cpp  **** 	CHECK_EQUAL(14, nibble);
 2752              		.loc 3 84 0 discriminator 14
 2753 1b96 E8000000 		call	__cxa_end_catch
 2753      00
 2754              	.LEHE194:
 2755 1b9b E9F8EFFF 		jmp	.L133
 2755      FF
 2756              	.L230:
 2757 1ba0 4889C3   		movq	%rax, %rbx
  85:testConv.cpp  **** 	status = getHexNibble('f', &nibble);
 2758              		.loc 3 85 0 is_stmt 1
 2759 1ba3 E8000000 		call	__cxa_end_catch
 2759      00
 2760 1ba8 4889D8   		movq	%rbx, %rax
 2761 1bab 4889C7   		movq	%rax, %rdi
 2762              	.LEHB195:
 2763 1bae E8000000 		call	_Unwind_Resume
 2763      00
 2764              	.LEHE195:
 2765              	.L229:
 2766 1bb3 4889C7   		movq	%rax, %rdi
 2767 1bb6 E8000000 		call	__cxa_begin_catch
 2767      00
 2768              	.LEHB196:
 2769 1bbb E8000000 		call	_ZN8UnitTest11CurrentTest7DetailsEv
 2769      00
 2770 1bc0 488B08   		movq	(%rax), %rcx
 2771 1bc3 488D45C0 		leaq	-64(%rbp), %rax
 2772 1bc7 BA550000 		movl	$85, %edx
 2772      00
 2773 1bcc 4889CE   		movq	%rcx, %rsi
 2774 1bcf 4889C7   		movq	%rax, %rdi
 2775 1bd2 E8000000 		call	_ZN8UnitTest11TestDetailsC1ERKS0_i
 2775      00
  85:testConv.cpp  **** 	status = getHexNibble('f', &nibble);
 2776              		.loc 3 85 0 is_stmt 0 discriminator 10
 2777 1bd7 E8000000 		call	_ZN8UnitTest11CurrentTest7ResultsEv
 2777      00
 2778 1bdc 488B00   		movq	(%rax), %rax
 2779 1bdf 488D4DC0 		leaq	-64(%rbp), %rcx
 2780 1be3 BA000000 		movl	$.LC18, %edx
 2780      00
 2781 1be8 4889CE   		movq	%rcx, %rsi
 2782 1beb 4889C7   		movq	%rax, %rdi
 2783 1bee E8000000 		call	_ZN8UnitTest11TestResults13OnTestFailureERKNS_11TestDetailsEPKc
 2783      00
 2784              	.LEHE196:
 2785              	.LEHB197:
  85:testConv.cpp  **** 	status = getHexNibble('f', &nibble);
 2786              		.loc 3 85 0 discriminator 14
 2787 1bf3 E8000000 		call	__cxa_end_catch
 2787      00
 2788              	.LEHE197:
 2789 1bf8 E9DAEFFF 		jmp	.L136
 2789      FF
 2790              	.L232:
 2791 1bfd 4889C3   		movq	%rax, %rbx
  87:testConv.cpp  **** 	CHECK_EQUAL(15, nibble);
 2792              		.loc 3 87 0 is_stmt 1
 2793 1c00 E8000000 		call	__cxa_end_catch
 2793      00
 2794 1c05 4889D8   		movq	%rbx, %rax
 2795 1c08 4889C7   		movq	%rax, %rdi
 2796              	.LEHB198:
 2797 1c0b E8000000 		call	_Unwind_Resume
 2797      00
 2798              	.LEHE198:
 2799              	.L231:
 2800 1c10 4889C7   		movq	%rax, %rdi
 2801 1c13 E8000000 		call	__cxa_begin_catch
 2801      00
 2802              	.LEHB199:
 2803 1c18 E8000000 		call	_ZN8UnitTest11CurrentTest7DetailsEv
 2803      00
 2804 1c1d 488B08   		movq	(%rax), %rcx
 2805 1c20 488D45C0 		leaq	-64(%rbp), %rax
 2806 1c24 BA570000 		movl	$87, %edx
 2806      00
 2807 1c29 4889CE   		movq	%rcx, %rsi
 2808 1c2c 4889C7   		movq	%rax, %rdi
 2809 1c2f E8000000 		call	_ZN8UnitTest11TestDetailsC1ERKS0_i
 2809      00
  87:testConv.cpp  **** 	CHECK_EQUAL(15, nibble);
 2810              		.loc 3 87 0 is_stmt 0 discriminator 10
 2811 1c34 E8000000 		call	_ZN8UnitTest11CurrentTest7ResultsEv
 2811      00
 2812 1c39 488B00   		movq	(%rax), %rax
 2813 1c3c 488D4DC0 		leaq	-64(%rbp), %rcx
 2814 1c40 BA000000 		movl	$.LC3, %edx
 2814      00
 2815 1c45 4889CE   		movq	%rcx, %rsi
 2816 1c48 4889C7   		movq	%rax, %rdi
 2817 1c4b E8000000 		call	_ZN8UnitTest11TestResults13OnTestFailureERKNS_11TestDetailsEPKc
 2817      00
 2818              	.LEHE199:
 2819              	.LEHB200:
  87:testConv.cpp  **** 	CHECK_EQUAL(15, nibble);
 2820              		.loc 3 87 0 discriminator 14
 2821 1c50 E8000000 		call	__cxa_end_catch
 2821      00
 2822              	.LEHE200:
 2823 1c55 E9CDEFFF 		jmp	.L139
 2823      FF
 2824              	.L234:
 2825 1c5a 4889C3   		movq	%rax, %rbx
  88:testConv.cpp  **** 	status = getHexNibble('.', &nibble);
 2826              		.loc 3 88 0 is_stmt 1
 2827 1c5d E8000000 		call	__cxa_end_catch
 2827      00
 2828 1c62 4889D8   		movq	%rbx, %rax
 2829 1c65 4889C7   		movq	%rax, %rdi
 2830              	.LEHB201:
 2831 1c68 E8000000 		call	_Unwind_Resume
 2831      00
 2832              	.LEHE201:
 2833              	.L233:
 2834 1c6d 4889C7   		movq	%rax, %rdi
 2835 1c70 E8000000 		call	__cxa_begin_catch
 2835      00
 2836              	.LEHB202:
 2837 1c75 E8000000 		call	_ZN8UnitTest11CurrentTest7DetailsEv
 2837      00
 2838 1c7a 488B08   		movq	(%rax), %rcx
 2839 1c7d 488D45C0 		leaq	-64(%rbp), %rax
 2840 1c81 BA580000 		movl	$88, %edx
 2840      00
 2841 1c86 4889CE   		movq	%rcx, %rsi
 2842 1c89 4889C7   		movq	%rax, %rdi
 2843 1c8c E8000000 		call	_ZN8UnitTest11TestDetailsC1ERKS0_i
 2843      00
  88:testConv.cpp  **** 	status = getHexNibble('.', &nibble);
 2844              		.loc 3 88 0 is_stmt 0 discriminator 10
 2845 1c91 E8000000 		call	_ZN8UnitTest11CurrentTest7ResultsEv
 2845      00
 2846 1c96 488B00   		movq	(%rax), %rax
 2847 1c99 488D4DC0 		leaq	-64(%rbp), %rcx
 2848 1c9d BA000000 		movl	$.LC19, %edx
 2848      00
 2849 1ca2 4889CE   		movq	%rcx, %rsi
 2850 1ca5 4889C7   		movq	%rax, %rdi
 2851 1ca8 E8000000 		call	_ZN8UnitTest11TestResults13OnTestFailureERKNS_11TestDetailsEPKc
 2851      00
 2852              	.LEHE202:
 2853              	.LEHB203:
  88:testConv.cpp  **** 	status = getHexNibble('.', &nibble);
 2854              		.loc 3 88 0 discriminator 14
 2855 1cad E8000000 		call	__cxa_end_catch
 2855      00
 2856              	.LEHE203:
 2857 1cb2 E9AFEFFF 		jmp	.L142
 2857      FF
 2858              	.L236:
 2859 1cb7 4889C3   		movq	%rax, %rbx
  90:testConv.cpp  **** }
 2860              		.loc 3 90 0 is_stmt 1
 2861 1cba E8000000 		call	__cxa_end_catch
 2861      00
 2862 1cbf 4889D8   		movq	%rbx, %rax
 2863 1cc2 4889C7   		movq	%rax, %rdi
 2864              	.LEHB204:
 2865 1cc5 E8000000 		call	_Unwind_Resume
 2865      00
 2866              	.LEHE204:
 2867              	.L235:
 2868 1cca 4889C7   		movq	%rax, %rdi
 2869 1ccd E8000000 		call	__cxa_begin_catch
 2869      00
 2870              	.LEHB205:
 2871 1cd2 E8000000 		call	_ZN8UnitTest11CurrentTest7DetailsEv
 2871      00
 2872 1cd7 488B08   		movq	(%rax), %rcx
 2873 1cda 488D45C0 		leaq	-64(%rbp), %rax
 2874 1cde BA5A0000 		movl	$90, %edx
 2874      00
 2875 1ce3 4889CE   		movq	%rcx, %rsi
 2876 1ce6 4889C7   		movq	%rax, %rdi
 2877 1ce9 E8000000 		call	_ZN8UnitTest11TestDetailsC1ERKS0_i
 2877      00
  90:testConv.cpp  **** }
 2878              		.loc 3 90 0 is_stmt 0 discriminator 10
 2879 1cee E8000000 		call	_ZN8UnitTest11CurrentTest7ResultsEv
 2879      00
 2880 1cf3 488B00   		movq	(%rax), %rax
 2881 1cf6 488D4DC0 		leaq	-64(%rbp), %rcx
 2882 1cfa BA000000 		movl	$.LC20, %edx
 2882      00
 2883 1cff 4889CE   		movq	%rcx, %rsi
 2884 1d02 4889C7   		movq	%rax, %rdi
 2885 1d05 E8000000 		call	_ZN8UnitTest11TestResults13OnTestFailureERKNS_11TestDetailsEPKc
 2885      00
 2886              	.LEHE205:
 2887              	.LEHB206:
  90:testConv.cpp  **** }
 2888              		.loc 3 90 0 discriminator 14
 2889 1d0a E8000000 		call	__cxa_end_catch
 2889      00
 2890              	.LEHE206:
 2891              	.L237:
 2892              	.LBE6:
 2893              		.loc 3 91 0 is_stmt 1
 2894 1d0f 90       		nop
 2895 1d10 488B45E8 		movq	-24(%rbp), %rax
 2896 1d14 64483304 		xorq	%fs:40, %rax
 2896      25280000 
 2896      00
 2897 1d1d 7405     		je	.L146
 2898 1d1f E8000000 		call	__stack_chk_fail
 2898      00
 2899              	.L146:
 2900 1d24 4883C458 		addq	$88, %rsp
 2901 1d28 5B       		popq	%rbx
 2902 1d29 5D       		popq	%rbp
 2903              		.cfi_def_cfa 7, 8
 2904 1d2a C3       		ret
 2905              		.cfi_endproc
 2906              	.LFE1072:
 2907              		.section	.gcc_except_table,"a",@progbits
 2908              		.align 4
 2909              	.LLSDA1072:
 2910 0000 FF       		.byte	0xff
 2911 0001 03       		.byte	0x3
 2912 0002 D808     		.uleb128 .LLSDATT1072-.LLSDATTD1072
 2913              	.LLSDATTD1072:
 2914 0004 01       		.byte	0x1
 2915 0005 CE08     		.uleb128 .LLSDACSE1072-.LLSDACSB1072
 2916              	.LLSDACSB1072:
 2917 0007 28       		.uleb128 .LEHB4-.LFB1072
 2918 0008 05       		.uleb128 .LEHE4-.LEHB4
 2919 0009 00       		.uleb128 0
 2920 000a 00       		.uleb128 0
 2921 000b 30       		.uleb128 .LEHB5-.LFB1072
 2922 000c 3C       		.uleb128 .LEHE5-.LEHB5
 2923 000d CE19     		.uleb128 .L147-.LFB1072
 2924 000f 01       		.uleb128 0x1
 2925 0010 6C       		.uleb128 .LEHB6-.LFB1072
 2926 0011 3F       		.uleb128 .LEHE6-.LEHB6
 2927 0012 AB1A     		.uleb128 .L149-.LFB1072
 2928 0014 01       		.uleb128 0x1
 2929 0015 B701     		.uleb128 .LEHB7-.LFB1072
 2930 0017 05       		.uleb128 .LEHE7-.LEHB7
 2931 0018 00       		.uleb128 0
 2932 0019 00       		.uleb128 0
 2933 001a BF01     		.uleb128 .LEHB8-.LFB1072
 2934 001c 3C       		.uleb128 .LEHE8-.LEHB8
 2935 001d 881B     		.uleb128 .L151-.LFB1072
 2936 001f 01       		.uleb128 0x1
 2937 0020 FB01     		.uleb128 .LEHB9-.LFB1072
 2938 0022 3F       		.uleb128 .LEHE9-.LEHB9
 2939 0023 E51B     		.uleb128 .L153-.LFB1072
 2940 0025 01       		.uleb128 0x1
 2941 0026 C602     		.uleb128 .LEHB10-.LFB1072
 2942 0028 05       		.uleb128 .LEHE10-.LEHB10
 2943 0029 00       		.uleb128 0
 2944 002a 00       		.uleb128 0
 2945 002b CE02     		.uleb128 .LEHB11-.LFB1072
 2946 002d 3C       		.uleb128 .LEHE11-.LEHB11
 2947 002e C21C     		.uleb128 .L155-.LFB1072
 2948 0030 01       		.uleb128 0x1
 2949 0031 8A03     		.uleb128 .LEHB12-.LFB1072
 2950 0033 3F       		.uleb128 .LEHE12-.LEHB12
 2951 0034 9F1D     		.uleb128 .L157-.LFB1072
 2952 0036 01       		.uleb128 0x1
 2953 0037 D503     		.uleb128 .LEHB13-.LFB1072
 2954 0039 05       		.uleb128 .LEHE13-.LEHB13
 2955 003a 00       		.uleb128 0
 2956 003b 00       		.uleb128 0
 2957 003c DD03     		.uleb128 .LEHB14-.LFB1072
 2958 003e 3C       		.uleb128 .LEHE14-.LEHB14
 2959 003f FC1D     		.uleb128 .L159-.LFB1072
 2960 0041 01       		.uleb128 0x1
 2961 0042 9904     		.uleb128 .LEHB15-.LFB1072
 2962 0044 3F       		.uleb128 .LEHE15-.LEHB15
 2963 0045 D91E     		.uleb128 .L161-.LFB1072
 2964 0047 01       		.uleb128 0x1
 2965 0048 E404     		.uleb128 .LEHB16-.LFB1072
 2966 004a 05       		.uleb128 .LEHE16-.LEHB16
 2967 004b 00       		.uleb128 0
 2968 004c 00       		.uleb128 0
 2969 004d EC04     		.uleb128 .LEHB17-.LFB1072
 2970 004f 3C       		.uleb128 .LEHE17-.LEHB17
 2971 0050 B61F     		.uleb128 .L163-.LFB1072
 2972 0052 01       		.uleb128 0x1
 2973 0053 A805     		.uleb128 .LEHB18-.LFB1072
 2974 0055 3F       		.uleb128 .LEHE18-.LEHB18
 2975 0056 9320     		.uleb128 .L165-.LFB1072
 2976 0058 01       		.uleb128 0x1
 2977 0059 F305     		.uleb128 .LEHB19-.LFB1072
 2978 005b 05       		.uleb128 .LEHE19-.LEHB19
 2979 005c 00       		.uleb128 0
 2980 005d 00       		.uleb128 0
 2981 005e FB05     		.uleb128 .LEHB20-.LFB1072
 2982 0060 3C       		.uleb128 .LEHE20-.LEHB20
 2983 0061 F020     		.uleb128 .L167-.LFB1072
 2984 0063 01       		.uleb128 0x1
 2985 0064 B706     		.uleb128 .LEHB21-.LFB1072
 2986 0066 3F       		.uleb128 .LEHE21-.LEHB21
 2987 0067 CD21     		.uleb128 .L169-.LFB1072
 2988 0069 01       		.uleb128 0x1
 2989 006a 8207     		.uleb128 .LEHB22-.LFB1072
 2990 006c 05       		.uleb128 .LEHE22-.LEHB22
 2991 006d 00       		.uleb128 0
 2992 006e 00       		.uleb128 0
 2993 006f 8A07     		.uleb128 .LEHB23-.LFB1072
 2994 0071 3C       		.uleb128 .LEHE23-.LEHB23
 2995 0072 AA22     		.uleb128 .L171-.LFB1072
 2996 0074 01       		.uleb128 0x1
 2997 0075 C607     		.uleb128 .LEHB24-.LFB1072
 2998 0077 3F       		.uleb128 .LEHE24-.LEHB24
 2999 0078 8723     		.uleb128 .L173-.LFB1072
 3000 007a 01       		.uleb128 0x1
 3001 007b 9108     		.uleb128 .LEHB25-.LFB1072
 3002 007d 05       		.uleb128 .LEHE25-.LEHB25
 3003 007e 00       		.uleb128 0
 3004 007f 00       		.uleb128 0
 3005 0080 9908     		.uleb128 .LEHB26-.LFB1072
 3006 0082 3C       		.uleb128 .LEHE26-.LEHB26
 3007 0083 E423     		.uleb128 .L175-.LFB1072
 3008 0085 01       		.uleb128 0x1
 3009 0086 D508     		.uleb128 .LEHB27-.LFB1072
 3010 0088 3F       		.uleb128 .LEHE27-.LEHB27
 3011 0089 C124     		.uleb128 .L177-.LFB1072
 3012 008b 01       		.uleb128 0x1
 3013 008c A009     		.uleb128 .LEHB28-.LFB1072
 3014 008e 05       		.uleb128 .LEHE28-.LEHB28
 3015 008f 00       		.uleb128 0
 3016 0090 00       		.uleb128 0
 3017 0091 A809     		.uleb128 .LEHB29-.LFB1072
 3018 0093 3C       		.uleb128 .LEHE29-.LEHB29
 3019 0094 9E25     		.uleb128 .L179-.LFB1072
 3020 0096 01       		.uleb128 0x1
 3021 0097 E409     		.uleb128 .LEHB30-.LFB1072
 3022 0099 3F       		.uleb128 .LEHE30-.LEHB30
 3023 009a FB25     		.uleb128 .L181-.LFB1072
 3024 009c 01       		.uleb128 0x1
 3025 009d AF0A     		.uleb128 .LEHB31-.LFB1072
 3026 009f 05       		.uleb128 .LEHE31-.LEHB31
 3027 00a0 00       		.uleb128 0
 3028 00a1 00       		.uleb128 0
 3029 00a2 B70A     		.uleb128 .LEHB32-.LFB1072
 3030 00a4 3C       		.uleb128 .LEHE32-.LEHB32
 3031 00a5 D826     		.uleb128 .L183-.LFB1072
 3032 00a7 01       		.uleb128 0x1
 3033 00a8 F30A     		.uleb128 .LEHB33-.LFB1072
 3034 00aa 3F       		.uleb128 .LEHE33-.LEHB33
 3035 00ab B527     		.uleb128 .L185-.LFB1072
 3036 00ad 01       		.uleb128 0x1
 3037 00ae BE0B     		.uleb128 .LEHB34-.LFB1072
 3038 00b0 05       		.uleb128 .LEHE34-.LEHB34
 3039 00b1 00       		.uleb128 0
 3040 00b2 00       		.uleb128 0
 3041 00b3 C60B     		.uleb128 .LEHB35-.LFB1072
 3042 00b5 3C       		.uleb128 .LEHE35-.LEHB35
 3043 00b6 9228     		.uleb128 .L187-.LFB1072
 3044 00b8 01       		.uleb128 0x1
 3045 00b9 820C     		.uleb128 .LEHB36-.LFB1072
 3046 00bb 3F       		.uleb128 .LEHE36-.LEHB36
 3047 00bc EF28     		.uleb128 .L189-.LFB1072
 3048 00be 01       		.uleb128 0x1
 3049 00bf CD0C     		.uleb128 .LEHB37-.LFB1072
 3050 00c1 05       		.uleb128 .LEHE37-.LEHB37
 3051 00c2 00       		.uleb128 0
 3052 00c3 00       		.uleb128 0
 3053 00c4 D50C     		.uleb128 .LEHB38-.LFB1072
 3054 00c6 3C       		.uleb128 .LEHE38-.LEHB38
 3055 00c7 CC29     		.uleb128 .L191-.LFB1072
 3056 00c9 01       		.uleb128 0x1
 3057 00ca 910D     		.uleb128 .LEHB39-.LFB1072
 3058 00cc 3F       		.uleb128 .LEHE39-.LEHB39
 3059 00cd A92A     		.uleb128 .L193-.LFB1072
 3060 00cf 01       		.uleb128 0x1
 3061 00d0 DC0D     		.uleb128 .LEHB40-.LFB1072
 3062 00d2 05       		.uleb128 .LEHE40-.LEHB40
 3063 00d3 00       		.uleb128 0
 3064 00d4 00       		.uleb128 0
 3065 00d5 E40D     		.uleb128 .LEHB41-.LFB1072
 3066 00d7 3C       		.uleb128 .LEHE41-.LEHB41
 3067 00d8 862B     		.uleb128 .L195-.LFB1072
 3068 00da 01       		.uleb128 0x1
 3069 00db A00E     		.uleb128 .LEHB42-.LFB1072
 3070 00dd 3F       		.uleb128 .LEHE42-.LEHB42
 3071 00de E32B     		.uleb128 .L197-.LFB1072
 3072 00e0 01       		.uleb128 0x1
 3073 00e1 EB0E     		.uleb128 .LEHB43-.LFB1072
 3074 00e3 05       		.uleb128 .LEHE43-.LEHB43
 3075 00e4 00       		.uleb128 0
 3076 00e5 00       		.uleb128 0
 3077 00e6 F30E     		.uleb128 .LEHB44-.LFB1072
 3078 00e8 3C       		.uleb128 .LEHE44-.LEHB44
 3079 00e9 C02C     		.uleb128 .L199-.LFB1072
 3080 00eb 01       		.uleb128 0x1
 3081 00ec AF0F     		.uleb128 .LEHB45-.LFB1072
 3082 00ee 3F       		.uleb128 .LEHE45-.LEHB45
 3083 00ef 9D2D     		.uleb128 .L201-.LFB1072
 3084 00f1 01       		.uleb128 0x1
 3085 00f2 FA0F     		.uleb128 .LEHB46-.LFB1072
 3086 00f4 05       		.uleb128 .LEHE46-.LEHB46
 3087 00f5 00       		.uleb128 0
 3088 00f6 00       		.uleb128 0
 3089 00f7 8210     		.uleb128 .LEHB47-.LFB1072
 3090 00f9 3C       		.uleb128 .LEHE47-.LEHB47
 3091 00fa FA2D     		.uleb128 .L203-.LFB1072
 3092 00fc 01       		.uleb128 0x1
 3093 00fd BE10     		.uleb128 .LEHB48-.LFB1072
 3094 00ff 3F       		.uleb128 .LEHE48-.LEHB48
 3095 0100 D72E     		.uleb128 .L205-.LFB1072
 3096 0102 01       		.uleb128 0x1
 3097 0103 8911     		.uleb128 .LEHB49-.LFB1072
 3098 0105 05       		.uleb128 .LEHE49-.LEHB49
 3099 0106 00       		.uleb128 0
 3100 0107 00       		.uleb128 0
 3101 0108 9111     		.uleb128 .LEHB50-.LFB1072
 3102 010a 3C       		.uleb128 .LEHE50-.LEHB50
 3103 010b B42F     		.uleb128 .L207-.LFB1072
 3104 010d 01       		.uleb128 0x1
 3105 010e CD11     		.uleb128 .LEHB51-.LFB1072
 3106 0110 3F       		.uleb128 .LEHE51-.LEHB51
 3107 0111 9130     		.uleb128 .L209-.LFB1072
 3108 0113 01       		.uleb128 0x1
 3109 0114 9812     		.uleb128 .LEHB52-.LFB1072
 3110 0116 05       		.uleb128 .LEHE52-.LEHB52
 3111 0117 00       		.uleb128 0
 3112 0118 00       		.uleb128 0
 3113 0119 A012     		.uleb128 .LEHB53-.LFB1072
 3114 011b 3C       		.uleb128 .LEHE53-.LEHB53
 3115 011c EE30     		.uleb128 .L211-.LFB1072
 3116 011e 01       		.uleb128 0x1
 3117 011f DC12     		.uleb128 .LEHB54-.LFB1072
 3118 0121 3F       		.uleb128 .LEHE54-.LEHB54
 3119 0122 CB31     		.uleb128 .L213-.LFB1072
 3120 0124 01       		.uleb128 0x1
 3121 0125 A713     		.uleb128 .LEHB55-.LFB1072
 3122 0127 05       		.uleb128 .LEHE55-.LEHB55
 3123 0128 00       		.uleb128 0
 3124 0129 00       		.uleb128 0
 3125 012a AF13     		.uleb128 .LEHB56-.LFB1072
 3126 012c 3C       		.uleb128 .LEHE56-.LEHB56
 3127 012d A832     		.uleb128 .L215-.LFB1072
 3128 012f 01       		.uleb128 0x1
 3129 0130 EB13     		.uleb128 .LEHB57-.LFB1072
 3130 0132 3F       		.uleb128 .LEHE57-.LEHB57
 3131 0133 8533     		.uleb128 .L217-.LFB1072
 3132 0135 01       		.uleb128 0x1
 3133 0136 B614     		.uleb128 .LEHB58-.LFB1072
 3134 0138 05       		.uleb128 .LEHE58-.LEHB58
 3135 0139 00       		.uleb128 0
 3136 013a 00       		.uleb128 0
 3137 013b BE14     		.uleb128 .LEHB59-.LFB1072
 3138 013d 3C       		.uleb128 .LEHE59-.LEHB59
 3139 013e E233     		.uleb128 .L219-.LFB1072
 3140 0140 01       		.uleb128 0x1
 3141 0141 FA14     		.uleb128 .LEHB60-.LFB1072
 3142 0143 3F       		.uleb128 .LEHE60-.LEHB60
 3143 0144 BF34     		.uleb128 .L221-.LFB1072
 3144 0146 01       		.uleb128 0x1
 3145 0147 C515     		.uleb128 .LEHB61-.LFB1072
 3146 0149 05       		.uleb128 .LEHE61-.LEHB61
 3147 014a 00       		.uleb128 0
 3148 014b 00       		.uleb128 0
 3149 014c CD15     		.uleb128 .LEHB62-.LFB1072
 3150 014e 3C       		.uleb128 .LEHE62-.LEHB62
 3151 014f 9C35     		.uleb128 .L223-.LFB1072
 3152 0151 01       		.uleb128 0x1
 3153 0152 8916     		.uleb128 .LEHB63-.LFB1072
 3154 0154 3F       		.uleb128 .LEHE63-.LEHB63
 3155 0155 F935     		.uleb128 .L225-.LFB1072
 3156 0157 01       		.uleb128 0x1
 3157 0158 D416     		.uleb128 .LEHB64-.LFB1072
 3158 015a 05       		.uleb128 .LEHE64-.LEHB64
 3159 015b 00       		.uleb128 0
 3160 015c 00       		.uleb128 0
 3161 015d DC16     		.uleb128 .LEHB65-.LFB1072
 3162 015f 3C       		.uleb128 .LEHE65-.LEHB65
 3163 0160 D636     		.uleb128 .L227-.LFB1072
 3164 0162 01       		.uleb128 0x1
 3165 0163 9817     		.uleb128 .LEHB66-.LFB1072
 3166 0165 3F       		.uleb128 .LEHE66-.LEHB66
 3167 0166 B337     		.uleb128 .L229-.LFB1072
 3168 0168 01       		.uleb128 0x1
 3169 0169 E317     		.uleb128 .LEHB67-.LFB1072
 3170 016b 05       		.uleb128 .LEHE67-.LEHB67
 3171 016c 00       		.uleb128 0
 3172 016d 00       		.uleb128 0
 3173 016e EB17     		.uleb128 .LEHB68-.LFB1072
 3174 0170 3C       		.uleb128 .LEHE68-.LEHB68
 3175 0171 9038     		.uleb128 .L231-.LFB1072
 3176 0173 01       		.uleb128 0x1
 3177 0174 A718     		.uleb128 .LEHB69-.LFB1072
 3178 0176 3F       		.uleb128 .LEHE69-.LEHB69
 3179 0177 ED38     		.uleb128 .L233-.LFB1072
 3180 0179 01       		.uleb128 0x1
 3181 017a F218     		.uleb128 .LEHB70-.LFB1072
 3182 017c 05       		.uleb128 .LEHE70-.LEHB70
 3183 017d 00       		.uleb128 0
 3184 017e 00       		.uleb128 0
 3185 017f FA18     		.uleb128 .LEHB71-.LFB1072
 3186 0181 3C       		.uleb128 .LEHE71-.LEHB71
 3187 0182 CA39     		.uleb128 .L235-.LFB1072
 3188 0184 01       		.uleb128 0x1
 3189 0185 C919     		.uleb128 .LEHB72-.LFB1072
 3190 0187 05       		.uleb128 .LEHE72-.LEHB72
 3191 0188 00       		.uleb128 0
 3192 0189 00       		.uleb128 0
 3193 018a D619     		.uleb128 .LEHB73-.LFB1072
 3194 018c 38       		.uleb128 .LEHE73-.LEHB73
 3195 018d BB19     		.uleb128 .L148-.LFB1072
 3196 018f 00       		.uleb128 0
 3197 0190 8E1A     		.uleb128 .LEHB74-.LFB1072
 3198 0192 05       		.uleb128 .LEHE74-.LEHB74
 3199 0193 00       		.uleb128 0
 3200 0194 00       		.uleb128 0
 3201 0195 A61A     		.uleb128 .LEHB75-.LFB1072
 3202 0197 05       		.uleb128 .LEHE75-.LEHB75
 3203 0198 00       		.uleb128 0
 3204 0199 00       		.uleb128 0
 3205 019a B31A     		.uleb128 .LEHB76-.LFB1072
 3206 019c 38       		.uleb128 .LEHE76-.LEHB76
 3207 019d 981A     		.uleb128 .L150-.LFB1072
 3208 019f 00       		.uleb128 0
 3209 01a0 EB1A     		.uleb128 .LEHB77-.LFB1072
 3210 01a2 05       		.uleb128 .LEHE77-.LEHB77
 3211 01a3 00       		.uleb128 0
 3212 01a4 00       		.uleb128 0
 3213 01a5 831B     		.uleb128 .LEHB78-.LFB1072
 3214 01a7 05       		.uleb128 .LEHE78-.LEHB78
 3215 01a8 00       		.uleb128 0
 3216 01a9 00       		.uleb128 0
 3217 01aa 901B     		.uleb128 .LEHB79-.LFB1072
 3218 01ac 38       		.uleb128 .LEHE79-.LEHB79
 3219 01ad F51A     		.uleb128 .L152-.LFB1072
 3220 01af 00       		.uleb128 0
 3221 01b0 C81B     		.uleb128 .LEHB80-.LFB1072
 3222 01b2 05       		.uleb128 .LEHE80-.LEHB80
 3223 01b3 00       		.uleb128 0
 3224 01b4 00       		.uleb128 0
 3225 01b5 E01B     		.uleb128 .LEHB81-.LFB1072
 3226 01b7 05       		.uleb128 .LEHE81-.LEHB81
 3227 01b8 00       		.uleb128 0
 3228 01b9 00       		.uleb128 0
 3229 01ba ED1B     		.uleb128 .LEHB82-.LFB1072
 3230 01bc 38       		.uleb128 .LEHE82-.LEHB82
 3231 01bd D21B     		.uleb128 .L154-.LFB1072
 3232 01bf 00       		.uleb128 0
 3233 01c0 A51C     		.uleb128 .LEHB83-.LFB1072
 3234 01c2 05       		.uleb128 .LEHE83-.LEHB83
 3235 01c3 00       		.uleb128 0
 3236 01c4 00       		.uleb128 0
 3237 01c5 BD1C     		.uleb128 .LEHB84-.LFB1072
 3238 01c7 05       		.uleb128 .LEHE84-.LEHB84
 3239 01c8 00       		.uleb128 0
 3240 01c9 00       		.uleb128 0
 3241 01ca CA1C     		.uleb128 .LEHB85-.LFB1072
 3242 01cc 38       		.uleb128 .LEHE85-.LEHB85
 3243 01cd AF1C     		.uleb128 .L156-.LFB1072
 3244 01cf 00       		.uleb128 0
 3245 01d0 821D     		.uleb128 .LEHB86-.LFB1072
 3246 01d2 05       		.uleb128 .LEHE86-.LEHB86
 3247 01d3 00       		.uleb128 0
 3248 01d4 00       		.uleb128 0
 3249 01d5 9A1D     		.uleb128 .LEHB87-.LFB1072
 3250 01d7 05       		.uleb128 .LEHE87-.LEHB87
 3251 01d8 00       		.uleb128 0
 3252 01d9 00       		.uleb128 0
 3253 01da A71D     		.uleb128 .LEHB88-.LFB1072
 3254 01dc 38       		.uleb128 .LEHE88-.LEHB88
 3255 01dd 8C1D     		.uleb128 .L158-.LFB1072
 3256 01df 00       		.uleb128 0
 3257 01e0 DF1D     		.uleb128 .LEHB89-.LFB1072
 3258 01e2 05       		.uleb128 .LEHE89-.LEHB89
 3259 01e3 00       		.uleb128 0
 3260 01e4 00       		.uleb128 0
 3261 01e5 F71D     		.uleb128 .LEHB90-.LFB1072
 3262 01e7 05       		.uleb128 .LEHE90-.LEHB90
 3263 01e8 00       		.uleb128 0
 3264 01e9 00       		.uleb128 0
 3265 01ea 841E     		.uleb128 .LEHB91-.LFB1072
 3266 01ec 38       		.uleb128 .LEHE91-.LEHB91
 3267 01ed E91D     		.uleb128 .L160-.LFB1072
 3268 01ef 00       		.uleb128 0
 3269 01f0 BC1E     		.uleb128 .LEHB92-.LFB1072
 3270 01f2 05       		.uleb128 .LEHE92-.LEHB92
 3271 01f3 00       		.uleb128 0
 3272 01f4 00       		.uleb128 0
 3273 01f5 D41E     		.uleb128 .LEHB93-.LFB1072
 3274 01f7 05       		.uleb128 .LEHE93-.LEHB93
 3275 01f8 00       		.uleb128 0
 3276 01f9 00       		.uleb128 0
 3277 01fa E11E     		.uleb128 .LEHB94-.LFB1072
 3278 01fc 38       		.uleb128 .LEHE94-.LEHB94
 3279 01fd C61E     		.uleb128 .L162-.LFB1072
 3280 01ff 00       		.uleb128 0
 3281 0200 991F     		.uleb128 .LEHB95-.LFB1072
 3282 0202 05       		.uleb128 .LEHE95-.LEHB95
 3283 0203 00       		.uleb128 0
 3284 0204 00       		.uleb128 0
 3285 0205 B11F     		.uleb128 .LEHB96-.LFB1072
 3286 0207 05       		.uleb128 .LEHE96-.LEHB96
 3287 0208 00       		.uleb128 0
 3288 0209 00       		.uleb128 0
 3289 020a BE1F     		.uleb128 .LEHB97-.LFB1072
 3290 020c 38       		.uleb128 .LEHE97-.LEHB97
 3291 020d A31F     		.uleb128 .L164-.LFB1072
 3292 020f 00       		.uleb128 0
 3293 0210 F61F     		.uleb128 .LEHB98-.LFB1072
 3294 0212 05       		.uleb128 .LEHE98-.LEHB98
 3295 0213 00       		.uleb128 0
 3296 0214 00       		.uleb128 0
 3297 0215 8E20     		.uleb128 .LEHB99-.LFB1072
 3298 0217 05       		.uleb128 .LEHE99-.LEHB99
 3299 0218 00       		.uleb128 0
 3300 0219 00       		.uleb128 0
 3301 021a 9B20     		.uleb128 .LEHB100-.LFB1072
 3302 021c 38       		.uleb128 .LEHE100-.LEHB100
 3303 021d 8020     		.uleb128 .L166-.LFB1072
 3304 021f 00       		.uleb128 0
 3305 0220 D320     		.uleb128 .LEHB101-.LFB1072
 3306 0222 05       		.uleb128 .LEHE101-.LEHB101
 3307 0223 00       		.uleb128 0
 3308 0224 00       		.uleb128 0
 3309 0225 EB20     		.uleb128 .LEHB102-.LFB1072
 3310 0227 05       		.uleb128 .LEHE102-.LEHB102
 3311 0228 00       		.uleb128 0
 3312 0229 00       		.uleb128 0
 3313 022a F820     		.uleb128 .LEHB103-.LFB1072
 3314 022c 38       		.uleb128 .LEHE103-.LEHB103
 3315 022d DD20     		.uleb128 .L168-.LFB1072
 3316 022f 00       		.uleb128 0
 3317 0230 B021     		.uleb128 .LEHB104-.LFB1072
 3318 0232 05       		.uleb128 .LEHE104-.LEHB104
 3319 0233 00       		.uleb128 0
 3320 0234 00       		.uleb128 0
 3321 0235 C821     		.uleb128 .LEHB105-.LFB1072
 3322 0237 05       		.uleb128 .LEHE105-.LEHB105
 3323 0238 00       		.uleb128 0
 3324 0239 00       		.uleb128 0
 3325 023a D521     		.uleb128 .LEHB106-.LFB1072
 3326 023c 38       		.uleb128 .LEHE106-.LEHB106
 3327 023d BA21     		.uleb128 .L170-.LFB1072
 3328 023f 00       		.uleb128 0
 3329 0240 8D22     		.uleb128 .LEHB107-.LFB1072
 3330 0242 05       		.uleb128 .LEHE107-.LEHB107
 3331 0243 00       		.uleb128 0
 3332 0244 00       		.uleb128 0
 3333 0245 A522     		.uleb128 .LEHB108-.LFB1072
 3334 0247 05       		.uleb128 .LEHE108-.LEHB108
 3335 0248 00       		.uleb128 0
 3336 0249 00       		.uleb128 0
 3337 024a B222     		.uleb128 .LEHB109-.LFB1072
 3338 024c 38       		.uleb128 .LEHE109-.LEHB109
 3339 024d 9722     		.uleb128 .L172-.LFB1072
 3340 024f 00       		.uleb128 0
 3341 0250 EA22     		.uleb128 .LEHB110-.LFB1072
 3342 0252 05       		.uleb128 .LEHE110-.LEHB110
 3343 0253 00       		.uleb128 0
 3344 0254 00       		.uleb128 0
 3345 0255 8223     		.uleb128 .LEHB111-.LFB1072
 3346 0257 05       		.uleb128 .LEHE111-.LEHB111
 3347 0258 00       		.uleb128 0
 3348 0259 00       		.uleb128 0
 3349 025a 8F23     		.uleb128 .LEHB112-.LFB1072
 3350 025c 38       		.uleb128 .LEHE112-.LEHB112
 3351 025d F422     		.uleb128 .L174-.LFB1072
 3352 025f 00       		.uleb128 0
 3353 0260 C723     		.uleb128 .LEHB113-.LFB1072
 3354 0262 05       		.uleb128 .LEHE113-.LEHB113
 3355 0263 00       		.uleb128 0
 3356 0264 00       		.uleb128 0
 3357 0265 DF23     		.uleb128 .LEHB114-.LFB1072
 3358 0267 05       		.uleb128 .LEHE114-.LEHB114
 3359 0268 00       		.uleb128 0
 3360 0269 00       		.uleb128 0
 3361 026a EC23     		.uleb128 .LEHB115-.LFB1072
 3362 026c 38       		.uleb128 .LEHE115-.LEHB115
 3363 026d D123     		.uleb128 .L176-.LFB1072
 3364 026f 00       		.uleb128 0
 3365 0270 A424     		.uleb128 .LEHB116-.LFB1072
 3366 0272 05       		.uleb128 .LEHE116-.LEHB116
 3367 0273 00       		.uleb128 0
 3368 0274 00       		.uleb128 0
 3369 0275 BC24     		.uleb128 .LEHB117-.LFB1072
 3370 0277 05       		.uleb128 .LEHE117-.LEHB117
 3371 0278 00       		.uleb128 0
 3372 0279 00       		.uleb128 0
 3373 027a C924     		.uleb128 .LEHB118-.LFB1072
 3374 027c 38       		.uleb128 .LEHE118-.LEHB118
 3375 027d AE24     		.uleb128 .L178-.LFB1072
 3376 027f 00       		.uleb128 0
 3377 0280 8125     		.uleb128 .LEHB119-.LFB1072
 3378 0282 05       		.uleb128 .LEHE119-.LEHB119
 3379 0283 00       		.uleb128 0
 3380 0284 00       		.uleb128 0
 3381 0285 9925     		.uleb128 .LEHB120-.LFB1072
 3382 0287 05       		.uleb128 .LEHE120-.LEHB120
 3383 0288 00       		.uleb128 0
 3384 0289 00       		.uleb128 0
 3385 028a A625     		.uleb128 .LEHB121-.LFB1072
 3386 028c 38       		.uleb128 .LEHE121-.LEHB121
 3387 028d 8B25     		.uleb128 .L180-.LFB1072
 3388 028f 00       		.uleb128 0
 3389 0290 DE25     		.uleb128 .LEHB122-.LFB1072
 3390 0292 05       		.uleb128 .LEHE122-.LEHB122
 3391 0293 00       		.uleb128 0
 3392 0294 00       		.uleb128 0
 3393 0295 F625     		.uleb128 .LEHB123-.LFB1072
 3394 0297 05       		.uleb128 .LEHE123-.LEHB123
 3395 0298 00       		.uleb128 0
 3396 0299 00       		.uleb128 0
 3397 029a 8326     		.uleb128 .LEHB124-.LFB1072
 3398 029c 38       		.uleb128 .LEHE124-.LEHB124
 3399 029d E825     		.uleb128 .L182-.LFB1072
 3400 029f 00       		.uleb128 0
 3401 02a0 BB26     		.uleb128 .LEHB125-.LFB1072
 3402 02a2 05       		.uleb128 .LEHE125-.LEHB125
 3403 02a3 00       		.uleb128 0
 3404 02a4 00       		.uleb128 0
 3405 02a5 D326     		.uleb128 .LEHB126-.LFB1072
 3406 02a7 05       		.uleb128 .LEHE126-.LEHB126
 3407 02a8 00       		.uleb128 0
 3408 02a9 00       		.uleb128 0
 3409 02aa E026     		.uleb128 .LEHB127-.LFB1072
 3410 02ac 38       		.uleb128 .LEHE127-.LEHB127
 3411 02ad C526     		.uleb128 .L184-.LFB1072
 3412 02af 00       		.uleb128 0
 3413 02b0 9827     		.uleb128 .LEHB128-.LFB1072
 3414 02b2 05       		.uleb128 .LEHE128-.LEHB128
 3415 02b3 00       		.uleb128 0
 3416 02b4 00       		.uleb128 0
 3417 02b5 B027     		.uleb128 .LEHB129-.LFB1072
 3418 02b7 05       		.uleb128 .LEHE129-.LEHB129
 3419 02b8 00       		.uleb128 0
 3420 02b9 00       		.uleb128 0
 3421 02ba BD27     		.uleb128 .LEHB130-.LFB1072
 3422 02bc 38       		.uleb128 .LEHE130-.LEHB130
 3423 02bd A227     		.uleb128 .L186-.LFB1072
 3424 02bf 00       		.uleb128 0
 3425 02c0 F527     		.uleb128 .LEHB131-.LFB1072
 3426 02c2 05       		.uleb128 .LEHE131-.LEHB131
 3427 02c3 00       		.uleb128 0
 3428 02c4 00       		.uleb128 0
 3429 02c5 8D28     		.uleb128 .LEHB132-.LFB1072
 3430 02c7 05       		.uleb128 .LEHE132-.LEHB132
 3431 02c8 00       		.uleb128 0
 3432 02c9 00       		.uleb128 0
 3433 02ca 9A28     		.uleb128 .LEHB133-.LFB1072
 3434 02cc 38       		.uleb128 .LEHE133-.LEHB133
 3435 02cd FF27     		.uleb128 .L188-.LFB1072
 3436 02cf 00       		.uleb128 0
 3437 02d0 D228     		.uleb128 .LEHB134-.LFB1072
 3438 02d2 05       		.uleb128 .LEHE134-.LEHB134
 3439 02d3 00       		.uleb128 0
 3440 02d4 00       		.uleb128 0
 3441 02d5 EA28     		.uleb128 .LEHB135-.LFB1072
 3442 02d7 05       		.uleb128 .LEHE135-.LEHB135
 3443 02d8 00       		.uleb128 0
 3444 02d9 00       		.uleb128 0
 3445 02da F728     		.uleb128 .LEHB136-.LFB1072
 3446 02dc 38       		.uleb128 .LEHE136-.LEHB136
 3447 02dd DC28     		.uleb128 .L190-.LFB1072
 3448 02df 00       		.uleb128 0
 3449 02e0 AF29     		.uleb128 .LEHB137-.LFB1072
 3450 02e2 05       		.uleb128 .LEHE137-.LEHB137
 3451 02e3 00       		.uleb128 0
 3452 02e4 00       		.uleb128 0
 3453 02e5 C729     		.uleb128 .LEHB138-.LFB1072
 3454 02e7 05       		.uleb128 .LEHE138-.LEHB138
 3455 02e8 00       		.uleb128 0
 3456 02e9 00       		.uleb128 0
 3457 02ea D429     		.uleb128 .LEHB139-.LFB1072
 3458 02ec 38       		.uleb128 .LEHE139-.LEHB139
 3459 02ed B929     		.uleb128 .L192-.LFB1072
 3460 02ef 00       		.uleb128 0
 3461 02f0 8C2A     		.uleb128 .LEHB140-.LFB1072
 3462 02f2 05       		.uleb128 .LEHE140-.LEHB140
 3463 02f3 00       		.uleb128 0
 3464 02f4 00       		.uleb128 0
 3465 02f5 A42A     		.uleb128 .LEHB141-.LFB1072
 3466 02f7 05       		.uleb128 .LEHE141-.LEHB141
 3467 02f8 00       		.uleb128 0
 3468 02f9 00       		.uleb128 0
 3469 02fa B12A     		.uleb128 .LEHB142-.LFB1072
 3470 02fc 38       		.uleb128 .LEHE142-.LEHB142
 3471 02fd 962A     		.uleb128 .L194-.LFB1072
 3472 02ff 00       		.uleb128 0
 3473 0300 E92A     		.uleb128 .LEHB143-.LFB1072
 3474 0302 05       		.uleb128 .LEHE143-.LEHB143
 3475 0303 00       		.uleb128 0
 3476 0304 00       		.uleb128 0
 3477 0305 812B     		.uleb128 .LEHB144-.LFB1072
 3478 0307 05       		.uleb128 .LEHE144-.LEHB144
 3479 0308 00       		.uleb128 0
 3480 0309 00       		.uleb128 0
 3481 030a 8E2B     		.uleb128 .LEHB145-.LFB1072
 3482 030c 38       		.uleb128 .LEHE145-.LEHB145
 3483 030d F32A     		.uleb128 .L196-.LFB1072
 3484 030f 00       		.uleb128 0
 3485 0310 C62B     		.uleb128 .LEHB146-.LFB1072
 3486 0312 05       		.uleb128 .LEHE146-.LEHB146
 3487 0313 00       		.uleb128 0
 3488 0314 00       		.uleb128 0
 3489 0315 DE2B     		.uleb128 .LEHB147-.LFB1072
 3490 0317 05       		.uleb128 .LEHE147-.LEHB147
 3491 0318 00       		.uleb128 0
 3492 0319 00       		.uleb128 0
 3493 031a EB2B     		.uleb128 .LEHB148-.LFB1072
 3494 031c 38       		.uleb128 .LEHE148-.LEHB148
 3495 031d D02B     		.uleb128 .L198-.LFB1072
 3496 031f 00       		.uleb128 0
 3497 0320 A32C     		.uleb128 .LEHB149-.LFB1072
 3498 0322 05       		.uleb128 .LEHE149-.LEHB149
 3499 0323 00       		.uleb128 0
 3500 0324 00       		.uleb128 0
 3501 0325 BB2C     		.uleb128 .LEHB150-.LFB1072
 3502 0327 05       		.uleb128 .LEHE150-.LEHB150
 3503 0328 00       		.uleb128 0
 3504 0329 00       		.uleb128 0
 3505 032a C82C     		.uleb128 .LEHB151-.LFB1072
 3506 032c 38       		.uleb128 .LEHE151-.LEHB151
 3507 032d AD2C     		.uleb128 .L200-.LFB1072
 3508 032f 00       		.uleb128 0
 3509 0330 802D     		.uleb128 .LEHB152-.LFB1072
 3510 0332 05       		.uleb128 .LEHE152-.LEHB152
 3511 0333 00       		.uleb128 0
 3512 0334 00       		.uleb128 0
 3513 0335 982D     		.uleb128 .LEHB153-.LFB1072
 3514 0337 05       		.uleb128 .LEHE153-.LEHB153
 3515 0338 00       		.uleb128 0
 3516 0339 00       		.uleb128 0
 3517 033a A52D     		.uleb128 .LEHB154-.LFB1072
 3518 033c 38       		.uleb128 .LEHE154-.LEHB154
 3519 033d 8A2D     		.uleb128 .L202-.LFB1072
 3520 033f 00       		.uleb128 0
 3521 0340 DD2D     		.uleb128 .LEHB155-.LFB1072
 3522 0342 05       		.uleb128 .LEHE155-.LEHB155
 3523 0343 00       		.uleb128 0
 3524 0344 00       		.uleb128 0
 3525 0345 F52D     		.uleb128 .LEHB156-.LFB1072
 3526 0347 05       		.uleb128 .LEHE156-.LEHB156
 3527 0348 00       		.uleb128 0
 3528 0349 00       		.uleb128 0
 3529 034a 822E     		.uleb128 .LEHB157-.LFB1072
 3530 034c 38       		.uleb128 .LEHE157-.LEHB157
 3531 034d E72D     		.uleb128 .L204-.LFB1072
 3532 034f 00       		.uleb128 0
 3533 0350 BA2E     		.uleb128 .LEHB158-.LFB1072
 3534 0352 05       		.uleb128 .LEHE158-.LEHB158
 3535 0353 00       		.uleb128 0
 3536 0354 00       		.uleb128 0
 3537 0355 D22E     		.uleb128 .LEHB159-.LFB1072
 3538 0357 05       		.uleb128 .LEHE159-.LEHB159
 3539 0358 00       		.uleb128 0
 3540 0359 00       		.uleb128 0
 3541 035a DF2E     		.uleb128 .LEHB160-.LFB1072
 3542 035c 38       		.uleb128 .LEHE160-.LEHB160
 3543 035d C42E     		.uleb128 .L206-.LFB1072
 3544 035f 00       		.uleb128 0
 3545 0360 972F     		.uleb128 .LEHB161-.LFB1072
 3546 0362 05       		.uleb128 .LEHE161-.LEHB161
 3547 0363 00       		.uleb128 0
 3548 0364 00       		.uleb128 0
 3549 0365 AF2F     		.uleb128 .LEHB162-.LFB1072
 3550 0367 05       		.uleb128 .LEHE162-.LEHB162
 3551 0368 00       		.uleb128 0
 3552 0369 00       		.uleb128 0
 3553 036a BC2F     		.uleb128 .LEHB163-.LFB1072
 3554 036c 38       		.uleb128 .LEHE163-.LEHB163
 3555 036d A12F     		.uleb128 .L208-.LFB1072
 3556 036f 00       		.uleb128 0
 3557 0370 F42F     		.uleb128 .LEHB164-.LFB1072
 3558 0372 05       		.uleb128 .LEHE164-.LEHB164
 3559 0373 00       		.uleb128 0
 3560 0374 00       		.uleb128 0
 3561 0375 8C30     		.uleb128 .LEHB165-.LFB1072
 3562 0377 05       		.uleb128 .LEHE165-.LEHB165
 3563 0378 00       		.uleb128 0
 3564 0379 00       		.uleb128 0
 3565 037a 9930     		.uleb128 .LEHB166-.LFB1072
 3566 037c 38       		.uleb128 .LEHE166-.LEHB166
 3567 037d FE2F     		.uleb128 .L210-.LFB1072
 3568 037f 00       		.uleb128 0
 3569 0380 D130     		.uleb128 .LEHB167-.LFB1072
 3570 0382 05       		.uleb128 .LEHE167-.LEHB167
 3571 0383 00       		.uleb128 0
 3572 0384 00       		.uleb128 0
 3573 0385 E930     		.uleb128 .LEHB168-.LFB1072
 3574 0387 05       		.uleb128 .LEHE168-.LEHB168
 3575 0388 00       		.uleb128 0
 3576 0389 00       		.uleb128 0
 3577 038a F630     		.uleb128 .LEHB169-.LFB1072
 3578 038c 38       		.uleb128 .LEHE169-.LEHB169
 3579 038d DB30     		.uleb128 .L212-.LFB1072
 3580 038f 00       		.uleb128 0
 3581 0390 AE31     		.uleb128 .LEHB170-.LFB1072
 3582 0392 05       		.uleb128 .LEHE170-.LEHB170
 3583 0393 00       		.uleb128 0
 3584 0394 00       		.uleb128 0
 3585 0395 C631     		.uleb128 .LEHB171-.LFB1072
 3586 0397 05       		.uleb128 .LEHE171-.LEHB171
 3587 0398 00       		.uleb128 0
 3588 0399 00       		.uleb128 0
 3589 039a D331     		.uleb128 .LEHB172-.LFB1072
 3590 039c 38       		.uleb128 .LEHE172-.LEHB172
 3591 039d B831     		.uleb128 .L214-.LFB1072
 3592 039f 00       		.uleb128 0
 3593 03a0 8B32     		.uleb128 .LEHB173-.LFB1072
 3594 03a2 05       		.uleb128 .LEHE173-.LEHB173
 3595 03a3 00       		.uleb128 0
 3596 03a4 00       		.uleb128 0
 3597 03a5 A332     		.uleb128 .LEHB174-.LFB1072
 3598 03a7 05       		.uleb128 .LEHE174-.LEHB174
 3599 03a8 00       		.uleb128 0
 3600 03a9 00       		.uleb128 0
 3601 03aa B032     		.uleb128 .LEHB175-.LFB1072
 3602 03ac 38       		.uleb128 .LEHE175-.LEHB175
 3603 03ad 9532     		.uleb128 .L216-.LFB1072
 3604 03af 00       		.uleb128 0
 3605 03b0 E832     		.uleb128 .LEHB176-.LFB1072
 3606 03b2 05       		.uleb128 .LEHE176-.LEHB176
 3607 03b3 00       		.uleb128 0
 3608 03b4 00       		.uleb128 0
 3609 03b5 8033     		.uleb128 .LEHB177-.LFB1072
 3610 03b7 05       		.uleb128 .LEHE177-.LEHB177
 3611 03b8 00       		.uleb128 0
 3612 03b9 00       		.uleb128 0
 3613 03ba 8D33     		.uleb128 .LEHB178-.LFB1072
 3614 03bc 38       		.uleb128 .LEHE178-.LEHB178
 3615 03bd F232     		.uleb128 .L218-.LFB1072
 3616 03bf 00       		.uleb128 0
 3617 03c0 C533     		.uleb128 .LEHB179-.LFB1072
 3618 03c2 05       		.uleb128 .LEHE179-.LEHB179
 3619 03c3 00       		.uleb128 0
 3620 03c4 00       		.uleb128 0
 3621 03c5 DD33     		.uleb128 .LEHB180-.LFB1072
 3622 03c7 05       		.uleb128 .LEHE180-.LEHB180
 3623 03c8 00       		.uleb128 0
 3624 03c9 00       		.uleb128 0
 3625 03ca EA33     		.uleb128 .LEHB181-.LFB1072
 3626 03cc 38       		.uleb128 .LEHE181-.LEHB181
 3627 03cd CF33     		.uleb128 .L220-.LFB1072
 3628 03cf 00       		.uleb128 0
 3629 03d0 A234     		.uleb128 .LEHB182-.LFB1072
 3630 03d2 05       		.uleb128 .LEHE182-.LEHB182
 3631 03d3 00       		.uleb128 0
 3632 03d4 00       		.uleb128 0
 3633 03d5 BA34     		.uleb128 .LEHB183-.LFB1072
 3634 03d7 05       		.uleb128 .LEHE183-.LEHB183
 3635 03d8 00       		.uleb128 0
 3636 03d9 00       		.uleb128 0
 3637 03da C734     		.uleb128 .LEHB184-.LFB1072
 3638 03dc 38       		.uleb128 .LEHE184-.LEHB184
 3639 03dd AC34     		.uleb128 .L222-.LFB1072
 3640 03df 00       		.uleb128 0
 3641 03e0 FF34     		.uleb128 .LEHB185-.LFB1072
 3642 03e2 05       		.uleb128 .LEHE185-.LEHB185
 3643 03e3 00       		.uleb128 0
 3644 03e4 00       		.uleb128 0
 3645 03e5 9735     		.uleb128 .LEHB186-.LFB1072
 3646 03e7 05       		.uleb128 .LEHE186-.LEHB186
 3647 03e8 00       		.uleb128 0
 3648 03e9 00       		.uleb128 0
 3649 03ea A435     		.uleb128 .LEHB187-.LFB1072
 3650 03ec 38       		.uleb128 .LEHE187-.LEHB187
 3651 03ed 8935     		.uleb128 .L224-.LFB1072
 3652 03ef 00       		.uleb128 0
 3653 03f0 DC35     		.uleb128 .LEHB188-.LFB1072
 3654 03f2 05       		.uleb128 .LEHE188-.LEHB188
 3655 03f3 00       		.uleb128 0
 3656 03f4 00       		.uleb128 0
 3657 03f5 F435     		.uleb128 .LEHB189-.LFB1072
 3658 03f7 05       		.uleb128 .LEHE189-.LEHB189
 3659 03f8 00       		.uleb128 0
 3660 03f9 00       		.uleb128 0
 3661 03fa 8136     		.uleb128 .LEHB190-.LFB1072
 3662 03fc 38       		.uleb128 .LEHE190-.LEHB190
 3663 03fd E635     		.uleb128 .L226-.LFB1072
 3664 03ff 00       		.uleb128 0
 3665 0400 B936     		.uleb128 .LEHB191-.LFB1072
 3666 0402 05       		.uleb128 .LEHE191-.LEHB191
 3667 0403 00       		.uleb128 0
 3668 0404 00       		.uleb128 0
 3669 0405 D136     		.uleb128 .LEHB192-.LFB1072
 3670 0407 05       		.uleb128 .LEHE192-.LEHB192
 3671 0408 00       		.uleb128 0
 3672 0409 00       		.uleb128 0
 3673 040a DE36     		.uleb128 .LEHB193-.LFB1072
 3674 040c 38       		.uleb128 .LEHE193-.LEHB193
 3675 040d C336     		.uleb128 .L228-.LFB1072
 3676 040f 00       		.uleb128 0
 3677 0410 9637     		.uleb128 .LEHB194-.LFB1072
 3678 0412 05       		.uleb128 .LEHE194-.LEHB194
 3679 0413 00       		.uleb128 0
 3680 0414 00       		.uleb128 0
 3681 0415 AE37     		.uleb128 .LEHB195-.LFB1072
 3682 0417 05       		.uleb128 .LEHE195-.LEHB195
 3683 0418 00       		.uleb128 0
 3684 0419 00       		.uleb128 0
 3685 041a BB37     		.uleb128 .LEHB196-.LFB1072
 3686 041c 38       		.uleb128 .LEHE196-.LEHB196
 3687 041d A037     		.uleb128 .L230-.LFB1072
 3688 041f 00       		.uleb128 0
 3689 0420 F337     		.uleb128 .LEHB197-.LFB1072
 3690 0422 05       		.uleb128 .LEHE197-.LEHB197
 3691 0423 00       		.uleb128 0
 3692 0424 00       		.uleb128 0
 3693 0425 8B38     		.uleb128 .LEHB198-.LFB1072
 3694 0427 05       		.uleb128 .LEHE198-.LEHB198
 3695 0428 00       		.uleb128 0
 3696 0429 00       		.uleb128 0
 3697 042a 9838     		.uleb128 .LEHB199-.LFB1072
 3698 042c 38       		.uleb128 .LEHE199-.LEHB199
 3699 042d FD37     		.uleb128 .L232-.LFB1072
 3700 042f 00       		.uleb128 0
 3701 0430 D038     		.uleb128 .LEHB200-.LFB1072
 3702 0432 05       		.uleb128 .LEHE200-.LEHB200
 3703 0433 00       		.uleb128 0
 3704 0434 00       		.uleb128 0
 3705 0435 E838     		.uleb128 .LEHB201-.LFB1072
 3706 0437 05       		.uleb128 .LEHE201-.LEHB201
 3707 0438 00       		.uleb128 0
 3708 0439 00       		.uleb128 0
 3709 043a F538     		.uleb128 .LEHB202-.LFB1072
 3710 043c 38       		.uleb128 .LEHE202-.LEHB202
 3711 043d DA38     		.uleb128 .L234-.LFB1072
 3712 043f 00       		.uleb128 0
 3713 0440 AD39     		.uleb128 .LEHB203-.LFB1072
 3714 0442 05       		.uleb128 .LEHE203-.LEHB203
 3715 0443 00       		.uleb128 0
 3716 0444 00       		.uleb128 0
 3717 0445 C539     		.uleb128 .LEHB204-.LFB1072
 3718 0447 05       		.uleb128 .LEHE204-.LEHB204
 3719 0448 00       		.uleb128 0
 3720 0449 00       		.uleb128 0
 3721 044a D239     		.uleb128 .LEHB205-.LFB1072
 3722 044c 38       		.uleb128 .LEHE205-.LEHB205
 3723 044d B739     		.uleb128 .L236-.LFB1072
 3724 044f 00       		.uleb128 0
 3725 0450 8A3A     		.uleb128 .LEHB206-.LFB1072
 3726 0452 05       		.uleb128 .LEHE206-.LEHB206
 3727 0453 00       		.uleb128 0
 3728 0454 00       		.uleb128 0
 3729              	.LLSDACSE1072:
 3730 0455 01       		.byte	0x1
 3731 0456 00       		.byte	0
 3732 0457 00       		.align 4
 3733 0458 00000000 		.long	0
 3734              	
 3735              	.LLSDATT1072:
 3736              		.text
 3738              		.section	.rodata
 3739              	.LC21:
 3740 0399 436F6E76 		.string	"Conv_testGetHexByte"
 3740      5F746573 
 3740      74476574 
 3740      48657842 
 3740      79746500 
 3741              		.section	.text._ZN23TestConv_testGetHexByteC2Ev,"axG",@progbits,_ZN23TestConv_testGetHexByteC5Ev,c
 3742              		.align 2
 3743              		.weak	_ZN23TestConv_testGetHexByteC2Ev
 3745              	_ZN23TestConv_testGetHexByteC2Ev:
 3746              	.LFB1074:
  92:testConv.cpp  **** 
  93:testConv.cpp  **** TEST(Conv_testGetHexByte) {
 3747              		.loc 3 93 0
 3748              		.cfi_startproc
 3749 0000 55       		pushq	%rbp
 3750              		.cfi_def_cfa_offset 16
 3751              		.cfi_offset 6, -16
 3752 0001 4889E5   		movq	%rsp, %rbp
 3753              		.cfi_def_cfa_register 6
 3754 0004 4883EC10 		subq	$16, %rsp
 3755 0008 48897DF8 		movq	%rdi, -8(%rbp)
 3756              	.LBB7:
 3757              		.loc 3 93 0
 3758 000c E8000000 		call	_ZN13UnitTestSuite12GetSuiteNameEv
 3758      00
 3759 0011 4889C2   		movq	%rax, %rdx
 3760 0014 488B45F8 		movq	-8(%rbp), %rax
 3761 0018 41B85D00 		movl	$93, %r8d
 3761      0000
 3762 001e B9000000 		movl	$.LC1, %ecx
 3762      00
 3763 0023 BE000000 		movl	$.LC21, %esi
 3763      00
 3764 0028 4889C7   		movq	%rax, %rdi
 3765 002b E8000000 		call	_ZN8UnitTest4TestC2EPKcS2_S2_i
 3765      00
 3766 0030 488B45F8 		movq	-8(%rbp), %rax
 3767 0034 48C70000 		movq	$_ZTV23TestConv_testGetHexByte+16, (%rax)
 3767      000000
 3768              	.LBE7:
 3769 003b C9       		leave
 3770              		.cfi_def_cfa 7, 8
 3771 003c C3       		ret
 3772              		.cfi_endproc
 3773              	.LFE1074:
 3775              		.weak	_ZN23TestConv_testGetHexByteC1Ev
 3776              		.set	_ZN23TestConv_testGetHexByteC1Ev,_ZN23TestConv_testGetHexByteC2Ev
 3777              		.globl	testConv_testGetHexByteInstance
 3778              		.bss
 3779 0039 00000000 		.align 32
 3779      000000
 3782              	testConv_testGetHexByteInstance:
 3783 0040 00000000 		.zero	56
 3783      00000000 
 3783      00000000 
 3783      00000000 
 3783      00000000 
 3784              		.globl	adderConv_testGetHexByte
 3787              	adderConv_testGetHexByte:
 3788 0078 00       		.zero	1
 3789              		.section	.rodata
 3790              	.LC22:
 3791 03ad 303000   		.string	"00"
 3792              	.LC23:
 3793 03b0 413500   		.string	"A5"
 3794              	.LC24:
 3795 03b3 464600   		.string	"FF"
 3796              	.LC25:
 3797 03b6 474600   		.string	"GF"
 3798              	.LC26:
 3799 03b9 464700   		.string	"FG"
 3800 03bc 00000000 		.align 8
 3801              	.LC27:
 3802 03c0 556E6861 		.string	"Unhandled exception in CHECK_EQUAL(0x00, byte)"
 3802      6E646C65 
 3802      64206578 
 3802      63657074 
 3802      696F6E20 
 3803 03ef 00       		.align 8
 3804              	.LC28:
 3805 03f0 556E6861 		.string	"Unhandled exception in CHECK_EQUAL(0xA5, byte)"
 3805      6E646C65 
 3805      64206578 
 3805      63657074 
 3805      696F6E20 
 3806 041f 00       		.align 8
 3807              	.LC29:
 3808 0420 556E6861 		.string	"Unhandled exception in CHECK_EQUAL(0xFF, byte)"
 3808      6E646C65 
 3808      64206578 
 3808      63657074 
 3808      696F6E20 
 3809              		.text
 3810 1d2b 90       		.align 2
 3811              		.globl	_ZNK23TestConv_testGetHexByte7RunImplEv
 3813              	_ZNK23TestConv_testGetHexByte7RunImplEv:
 3814              	.LFB1076:
 3815              		.loc 3 93 0
 3816              		.cfi_startproc
 3817              		.cfi_personality 0x3,__gxx_personality_v0
 3818              		.cfi_lsda 0x3,.LLSDA1076
 3819 1d2c 55       		pushq	%rbp
 3820              		.cfi_def_cfa_offset 16
 3821              		.cfi_offset 6, -16
 3822 1d2d 4889E5   		movq	%rsp, %rbp
 3823              		.cfi_def_cfa_register 6
 3824 1d30 53       		pushq	%rbx
 3825 1d31 4883EC58 		subq	$88, %rsp
 3826              		.cfi_offset 3, -24
 3827 1d35 48897DA8 		movq	%rdi, -88(%rbp)
 3828              		.loc 3 93 0
 3829 1d39 64488B04 		movq	%fs:40, %rax
 3829      25280000 
 3829      00
 3830 1d42 488945E8 		movq	%rax, -24(%rbp)
 3831 1d46 31C0     		xorl	%eax, %eax
 3832              	.LBB8:
  94:testConv.cpp  **** 	uint8 byte;
  95:testConv.cpp  **** 	bool status;
  96:testConv.cpp  **** 	status = getHexByte("00", &byte);
 3833              		.loc 3 96 0
 3834 1d48 488D45BA 		leaq	-70(%rbp), %rax
 3835 1d4c 4889C6   		movq	%rax, %rsi
 3836 1d4f BF000000 		movl	$.LC22, %edi
 3836      00
 3837              	.LEHB207:
 3838 1d54 E8000000 		call	getHexByte
 3838      00
 3839              	.LEHE207:
 3840 1d59 8845BB   		movb	%al, -69(%rbp)
 3841              	.LEHB208:
  97:testConv.cpp  **** 	CHECK_EQUAL(false, status);
 3842              		.loc 3 97 0
 3843 1d5c E8000000 		call	_ZN8UnitTest11CurrentTest7DetailsEv
 3843      00
 3844 1d61 488B08   		movq	(%rax), %rcx
 3845 1d64 488D45C0 		leaq	-64(%rbp), %rax
 3846 1d68 BA610000 		movl	$97, %edx
 3846      00
 3847 1d6d 4889CE   		movq	%rcx, %rsi
 3848 1d70 4889C7   		movq	%rax, %rdi
 3849 1d73 E8000000 		call	_ZN8UnitTest11TestDetailsC1ERKS0_i
 3849      00
 3850              		.loc 3 97 0 is_stmt 0 discriminator 2
 3851 1d78 C645BC00 		movb	$0, -68(%rbp)
 3852 1d7c E8000000 		call	_ZN8UnitTest11CurrentTest7ResultsEv
 3852      00
 3853 1d81 488B00   		movq	(%rax), %rax
 3854 1d84 488D4DC0 		leaq	-64(%rbp), %rcx
 3855 1d88 488D55BB 		leaq	-69(%rbp), %rdx
 3856 1d8c 488D75BC 		leaq	-68(%rbp), %rsi
 3857 1d90 4889C7   		movq	%rax, %rdi
 3858 1d93 E8000000 		call	_ZN8UnitTest10CheckEqualIbbEEvRNS_11TestResultsERKT_RKT0_RKNS_11TestDetailsE
 3858      00
 3859              	.LEHE208:
 3860              	.L242:
 3861              	.LEHB209:
  98:testConv.cpp  **** 	CHECK_EQUAL(0x00, byte);
 3862              		.loc 3 98 0 is_stmt 1
 3863 1d98 E8000000 		call	_ZN8UnitTest11CurrentTest7DetailsEv
 3863      00
 3864 1d9d 488B08   		movq	(%rax), %rcx
 3865 1da0 488D45C0 		leaq	-64(%rbp), %rax
 3866 1da4 BA620000 		movl	$98, %edx
 3866      00
 3867 1da9 4889CE   		movq	%rcx, %rsi
 3868 1dac 4889C7   		movq	%rax, %rdi
 3869 1daf E8000000 		call	_ZN8UnitTest11TestDetailsC1ERKS0_i
 3869      00
 3870              		.loc 3 98 0 is_stmt 0 discriminator 2
 3871 1db4 C745BC00 		movl	$0, -68(%rbp)
 3871      000000
 3872 1dbb E8000000 		call	_ZN8UnitTest11CurrentTest7ResultsEv
 3872      00
 3873 1dc0 488B00   		movq	(%rax), %rax
 3874 1dc3 488D4DC0 		leaq	-64(%rbp), %rcx
 3875 1dc7 488D55BA 		leaq	-70(%rbp), %rdx
 3876 1dcb 488D75BC 		leaq	-68(%rbp), %rsi
 3877 1dcf 4889C7   		movq	%rax, %rdi
 3878 1dd2 E8000000 		call	_ZN8UnitTest10CheckEqualIihEEvRNS_11TestResultsERKT_RKT0_RKNS_11TestDetailsE
 3878      00
 3879              	.LEHE209:
 3880              	.L245:
  99:testConv.cpp  **** 	status = getHexByte("A5", &byte);
 3881              		.loc 3 99 0 is_stmt 1
 3882 1dd7 488D45BA 		leaq	-70(%rbp), %rax
 3883 1ddb 4889C6   		movq	%rax, %rsi
 3884 1dde BF000000 		movl	$.LC23, %edi
 3884      00
 3885              	.LEHB210:
 3886 1de3 E8000000 		call	getHexByte
 3886      00
 3887              	.LEHE210:
 3888 1de8 8845BB   		movb	%al, -69(%rbp)
 3889              	.LEHB211:
 100:testConv.cpp  **** 	CHECK_EQUAL(false, status);
 3890              		.loc 3 100 0
 3891 1deb E8000000 		call	_ZN8UnitTest11CurrentTest7DetailsEv
 3891      00
 3892 1df0 488B08   		movq	(%rax), %rcx
 3893 1df3 488D45C0 		leaq	-64(%rbp), %rax
 3894 1df7 BA640000 		movl	$100, %edx
 3894      00
 3895 1dfc 4889CE   		movq	%rcx, %rsi
 3896 1dff 4889C7   		movq	%rax, %rdi
 3897 1e02 E8000000 		call	_ZN8UnitTest11TestDetailsC1ERKS0_i
 3897      00
 3898              		.loc 3 100 0 is_stmt 0 discriminator 2
 3899 1e07 C645BC00 		movb	$0, -68(%rbp)
 3900 1e0b E8000000 		call	_ZN8UnitTest11CurrentTest7ResultsEv
 3900      00
 3901 1e10 488B00   		movq	(%rax), %rax
 3902 1e13 488D4DC0 		leaq	-64(%rbp), %rcx
 3903 1e17 488D55BB 		leaq	-69(%rbp), %rdx
 3904 1e1b 488D75BC 		leaq	-68(%rbp), %rsi
 3905 1e1f 4889C7   		movq	%rax, %rdi
 3906 1e22 E8000000 		call	_ZN8UnitTest10CheckEqualIbbEEvRNS_11TestResultsERKT_RKT0_RKNS_11TestDetailsE
 3906      00
 3907              	.LEHE211:
 3908              	.L248:
 3909              	.LEHB212:
 101:testConv.cpp  **** 	CHECK_EQUAL(0xA5, byte);
 3910              		.loc 3 101 0 is_stmt 1
 3911 1e27 E8000000 		call	_ZN8UnitTest11CurrentTest7DetailsEv
 3911      00
 3912 1e2c 488B08   		movq	(%rax), %rcx
 3913 1e2f 488D45C0 		leaq	-64(%rbp), %rax
 3914 1e33 BA650000 		movl	$101, %edx
 3914      00
 3915 1e38 4889CE   		movq	%rcx, %rsi
 3916 1e3b 4889C7   		movq	%rax, %rdi
 3917 1e3e E8000000 		call	_ZN8UnitTest11TestDetailsC1ERKS0_i
 3917      00
 3918              		.loc 3 101 0 is_stmt 0 discriminator 2
 3919 1e43 C745BCA5 		movl	$165, -68(%rbp)
 3919      000000
 3920 1e4a E8000000 		call	_ZN8UnitTest11CurrentTest7ResultsEv
 3920      00
 3921 1e4f 488B00   		movq	(%rax), %rax
 3922 1e52 488D4DC0 		leaq	-64(%rbp), %rcx
 3923 1e56 488D55BA 		leaq	-70(%rbp), %rdx
 3924 1e5a 488D75BC 		leaq	-68(%rbp), %rsi
 3925 1e5e 4889C7   		movq	%rax, %rdi
 3926 1e61 E8000000 		call	_ZN8UnitTest10CheckEqualIihEEvRNS_11TestResultsERKT_RKT0_RKNS_11TestDetailsE
 3926      00
 3927              	.LEHE212:
 3928              	.L251:
 102:testConv.cpp  **** 	status = getHexByte("FF", &byte);
 3929              		.loc 3 102 0 is_stmt 1
 3930 1e66 488D45BA 		leaq	-70(%rbp), %rax
 3931 1e6a 4889C6   		movq	%rax, %rsi
 3932 1e6d BF000000 		movl	$.LC24, %edi
 3932      00
 3933              	.LEHB213:
 3934 1e72 E8000000 		call	getHexByte
 3934      00
 3935              	.LEHE213:
 3936 1e77 8845BB   		movb	%al, -69(%rbp)
 3937              	.LEHB214:
 103:testConv.cpp  **** 	CHECK_EQUAL(false, status);
 3938              		.loc 3 103 0
 3939 1e7a E8000000 		call	_ZN8UnitTest11CurrentTest7DetailsEv
 3939      00
 3940 1e7f 488B08   		movq	(%rax), %rcx
 3941 1e82 488D45C0 		leaq	-64(%rbp), %rax
 3942 1e86 BA670000 		movl	$103, %edx
 3942      00
 3943 1e8b 4889CE   		movq	%rcx, %rsi
 3944 1e8e 4889C7   		movq	%rax, %rdi
 3945 1e91 E8000000 		call	_ZN8UnitTest11TestDetailsC1ERKS0_i
 3945      00
 3946              		.loc 3 103 0 is_stmt 0 discriminator 2
 3947 1e96 C645BC00 		movb	$0, -68(%rbp)
 3948 1e9a E8000000 		call	_ZN8UnitTest11CurrentTest7ResultsEv
 3948      00
 3949 1e9f 488B00   		movq	(%rax), %rax
 3950 1ea2 488D4DC0 		leaq	-64(%rbp), %rcx
 3951 1ea6 488D55BB 		leaq	-69(%rbp), %rdx
 3952 1eaa 488D75BC 		leaq	-68(%rbp), %rsi
 3953 1eae 4889C7   		movq	%rax, %rdi
 3954 1eb1 E8000000 		call	_ZN8UnitTest10CheckEqualIbbEEvRNS_11TestResultsERKT_RKT0_RKNS_11TestDetailsE
 3954      00
 3955              	.LEHE214:
 3956              	.L254:
 3957              	.LEHB215:
 104:testConv.cpp  **** 	CHECK_EQUAL(0xFF, byte);
 3958              		.loc 3 104 0 is_stmt 1
 3959 1eb6 E8000000 		call	_ZN8UnitTest11CurrentTest7DetailsEv
 3959      00
 3960 1ebb 488B08   		movq	(%rax), %rcx
 3961 1ebe 488D45C0 		leaq	-64(%rbp), %rax
 3962 1ec2 BA680000 		movl	$104, %edx
 3962      00
 3963 1ec7 4889CE   		movq	%rcx, %rsi
 3964 1eca 4889C7   		movq	%rax, %rdi
 3965 1ecd E8000000 		call	_ZN8UnitTest11TestDetailsC1ERKS0_i
 3965      00
 3966              		.loc 3 104 0 is_stmt 0 discriminator 2
 3967 1ed2 C745BCFF 		movl	$255, -68(%rbp)
 3967      000000
 3968 1ed9 E8000000 		call	_ZN8UnitTest11CurrentTest7ResultsEv
 3968      00
 3969 1ede 488B00   		movq	(%rax), %rax
 3970 1ee1 488D4DC0 		leaq	-64(%rbp), %rcx
 3971 1ee5 488D55BA 		leaq	-70(%rbp), %rdx
 3972 1ee9 488D75BC 		leaq	-68(%rbp), %rsi
 3973 1eed 4889C7   		movq	%rax, %rdi
 3974 1ef0 E8000000 		call	_ZN8UnitTest10CheckEqualIihEEvRNS_11TestResultsERKT_RKT0_RKNS_11TestDetailsE
 3974      00
 3975              	.LEHE215:
 3976              	.L257:
 105:testConv.cpp  **** 	status = getHexByte("GF", &byte);
 3977              		.loc 3 105 0 is_stmt 1
 3978 1ef5 488D45BA 		leaq	-70(%rbp), %rax
 3979 1ef9 4889C6   		movq	%rax, %rsi
 3980 1efc BF000000 		movl	$.LC25, %edi
 3980      00
 3981              	.LEHB216:
 3982 1f01 E8000000 		call	getHexByte
 3982      00
 3983              	.LEHE216:
 3984 1f06 8845BB   		movb	%al, -69(%rbp)
 3985              	.LEHB217:
 106:testConv.cpp  **** 	CHECK_EQUAL(true, status);
 3986              		.loc 3 106 0
 3987 1f09 E8000000 		call	_ZN8UnitTest11CurrentTest7DetailsEv
 3987      00
 3988 1f0e 488B08   		movq	(%rax), %rcx
 3989 1f11 488D45C0 		leaq	-64(%rbp), %rax
 3990 1f15 BA6A0000 		movl	$106, %edx
 3990      00
 3991 1f1a 4889CE   		movq	%rcx, %rsi
 3992 1f1d 4889C7   		movq	%rax, %rdi
 3993 1f20 E8000000 		call	_ZN8UnitTest11TestDetailsC1ERKS0_i
 3993      00
 3994              		.loc 3 106 0 is_stmt 0 discriminator 2
 3995 1f25 C645BC01 		movb	$1, -68(%rbp)
 3996 1f29 E8000000 		call	_ZN8UnitTest11CurrentTest7ResultsEv
 3996      00
 3997 1f2e 488B00   		movq	(%rax), %rax
 3998 1f31 488D4DC0 		leaq	-64(%rbp), %rcx
 3999 1f35 488D55BB 		leaq	-69(%rbp), %rdx
 4000 1f39 488D75BC 		leaq	-68(%rbp), %rsi
 4001 1f3d 4889C7   		movq	%rax, %rdi
 4002 1f40 E8000000 		call	_ZN8UnitTest10CheckEqualIbbEEvRNS_11TestResultsERKT_RKT0_RKNS_11TestDetailsE
 4002      00
 4003              	.LEHE217:
 4004              	.L260:
 107:testConv.cpp  **** 	status = getHexByte("FG", &byte);
 4005              		.loc 3 107 0 is_stmt 1
 4006 1f45 488D45BA 		leaq	-70(%rbp), %rax
 4007 1f49 4889C6   		movq	%rax, %rsi
 4008 1f4c BF000000 		movl	$.LC26, %edi
 4008      00
 4009              	.LEHB218:
 4010 1f51 E8000000 		call	getHexByte
 4010      00
 4011              	.LEHE218:
 4012 1f56 8845BB   		movb	%al, -69(%rbp)
 4013              	.LEHB219:
 108:testConv.cpp  **** 	CHECK_EQUAL(true, status);
 4014              		.loc 3 108 0
 4015 1f59 E8000000 		call	_ZN8UnitTest11CurrentTest7DetailsEv
 4015      00
 4016 1f5e 488B08   		movq	(%rax), %rcx
 4017 1f61 488D45C0 		leaq	-64(%rbp), %rax
 4018 1f65 BA6C0000 		movl	$108, %edx
 4018      00
 4019 1f6a 4889CE   		movq	%rcx, %rsi
 4020 1f6d 4889C7   		movq	%rax, %rdi
 4021 1f70 E8000000 		call	_ZN8UnitTest11TestDetailsC1ERKS0_i
 4021      00
 4022              		.loc 3 108 0 is_stmt 0 discriminator 2
 4023 1f75 C645BC01 		movb	$1, -68(%rbp)
 4024 1f79 E8000000 		call	_ZN8UnitTest11CurrentTest7ResultsEv
 4024      00
 4025 1f7e 488B00   		movq	(%rax), %rax
 4026 1f81 488D4DC0 		leaq	-64(%rbp), %rcx
 4027 1f85 488D55BB 		leaq	-69(%rbp), %rdx
 4028 1f89 488D75BC 		leaq	-68(%rbp), %rsi
 4029 1f8d 4889C7   		movq	%rax, %rdi
 4030 1f90 E8000000 		call	_ZN8UnitTest10CheckEqualIbbEEvRNS_11TestResultsERKT_RKT0_RKNS_11TestDetailsE
 4030      00
 4031              	.LEHE219:
 4032              	.LBE8:
 109:testConv.cpp  **** }
 4033              		.loc 3 109 0 is_stmt 1
 4034 1f95 E9E30200 		jmp	.L281
 4034      00
 4035              	.L266:
 4036 1f9a 4889C3   		movq	%rax, %rbx
 4037              	.LBB9:
  97:testConv.cpp  **** 	CHECK_EQUAL(0x00, byte);
 4038              		.loc 3 97 0
 4039 1f9d E8000000 		call	__cxa_end_catch
 4039      00
 4040 1fa2 4889D8   		movq	%rbx, %rax
 4041 1fa5 4889C7   		movq	%rax, %rdi
 4042              	.LEHB220:
 4043 1fa8 E8000000 		call	_Unwind_Resume
 4043      00
 4044              	.LEHE220:
 4045              	.L265:
 4046 1fad 4889C7   		movq	%rax, %rdi
 4047 1fb0 E8000000 		call	__cxa_begin_catch
 4047      00
 4048              	.LEHB221:
 4049 1fb5 E8000000 		call	_ZN8UnitTest11CurrentTest7DetailsEv
 4049      00
 4050 1fba 488B08   		movq	(%rax), %rcx
 4051 1fbd 488D45C0 		leaq	-64(%rbp), %rax
 4052 1fc1 BA610000 		movl	$97, %edx
 4052      00
 4053 1fc6 4889CE   		movq	%rcx, %rsi
 4054 1fc9 4889C7   		movq	%rax, %rdi
 4055 1fcc E8000000 		call	_ZN8UnitTest11TestDetailsC1ERKS0_i
 4055      00
  97:testConv.cpp  **** 	CHECK_EQUAL(0x00, byte);
 4056              		.loc 3 97 0 is_stmt 0 discriminator 10
 4057 1fd1 E8000000 		call	_ZN8UnitTest11CurrentTest7ResultsEv
 4057      00
 4058 1fd6 488B00   		movq	(%rax), %rax
 4059 1fd9 488D4DC0 		leaq	-64(%rbp), %rcx
 4060 1fdd BA000000 		movl	$.LC3, %edx
 4060      00
 4061 1fe2 4889CE   		movq	%rcx, %rsi
 4062 1fe5 4889C7   		movq	%rax, %rdi
 4063 1fe8 E8000000 		call	_ZN8UnitTest11TestResults13OnTestFailureERKNS_11TestDetailsEPKc
 4063      00
 4064              	.LEHE221:
 4065              	.LEHB222:
  97:testConv.cpp  **** 	CHECK_EQUAL(0x00, byte);
 4066              		.loc 3 97 0 discriminator 14
 4067 1fed E8000000 		call	__cxa_end_catch
 4067      00
 4068              	.LEHE222:
 4069 1ff2 E9A1FDFF 		jmp	.L242
 4069      FF
 4070              	.L268:
 4071 1ff7 4889C3   		movq	%rax, %rbx
  98:testConv.cpp  **** 	status = getHexByte("A5", &byte);
 4072              		.loc 3 98 0 is_stmt 1
 4073 1ffa E8000000 		call	__cxa_end_catch
 4073      00
 4074 1fff 4889D8   		movq	%rbx, %rax
 4075 2002 4889C7   		movq	%rax, %rdi
 4076              	.LEHB223:
 4077 2005 E8000000 		call	_Unwind_Resume
 4077      00
 4078              	.LEHE223:
 4079              	.L267:
 4080 200a 4889C7   		movq	%rax, %rdi
 4081 200d E8000000 		call	__cxa_begin_catch
 4081      00
 4082              	.LEHB224:
 4083 2012 E8000000 		call	_ZN8UnitTest11CurrentTest7DetailsEv
 4083      00
 4084 2017 488B08   		movq	(%rax), %rcx
 4085 201a 488D45C0 		leaq	-64(%rbp), %rax
 4086 201e BA620000 		movl	$98, %edx
 4086      00
 4087 2023 4889CE   		movq	%rcx, %rsi
 4088 2026 4889C7   		movq	%rax, %rdi
 4089 2029 E8000000 		call	_ZN8UnitTest11TestDetailsC1ERKS0_i
 4089      00
  98:testConv.cpp  **** 	status = getHexByte("A5", &byte);
 4090              		.loc 3 98 0 is_stmt 0 discriminator 10
 4091 202e E8000000 		call	_ZN8UnitTest11CurrentTest7ResultsEv
 4091      00
 4092 2033 488B00   		movq	(%rax), %rax
 4093 2036 488D4DC0 		leaq	-64(%rbp), %rcx
 4094 203a BA000000 		movl	$.LC27, %edx
 4094      00
 4095 203f 4889CE   		movq	%rcx, %rsi
 4096 2042 4889C7   		movq	%rax, %rdi
 4097 2045 E8000000 		call	_ZN8UnitTest11TestResults13OnTestFailureERKNS_11TestDetailsEPKc
 4097      00
 4098              	.LEHE224:
 4099              	.LEHB225:
  98:testConv.cpp  **** 	status = getHexByte("A5", &byte);
 4100              		.loc 3 98 0 discriminator 14
 4101 204a E8000000 		call	__cxa_end_catch
 4101      00
 4102              	.LEHE225:
 4103 204f E983FDFF 		jmp	.L245
 4103      FF
 4104              	.L270:
 4105 2054 4889C3   		movq	%rax, %rbx
 100:testConv.cpp  **** 	CHECK_EQUAL(0xA5, byte);
 4106              		.loc 3 100 0 is_stmt 1
 4107 2057 E8000000 		call	__cxa_end_catch
 4107      00
 4108 205c 4889D8   		movq	%rbx, %rax
 4109 205f 4889C7   		movq	%rax, %rdi
 4110              	.LEHB226:
 4111 2062 E8000000 		call	_Unwind_Resume
 4111      00
 4112              	.LEHE226:
 4113              	.L269:
 4114 2067 4889C7   		movq	%rax, %rdi
 4115 206a E8000000 		call	__cxa_begin_catch
 4115      00
 4116              	.LEHB227:
 4117 206f E8000000 		call	_ZN8UnitTest11CurrentTest7DetailsEv
 4117      00
 4118 2074 488B08   		movq	(%rax), %rcx
 4119 2077 488D45C0 		leaq	-64(%rbp), %rax
 4120 207b BA640000 		movl	$100, %edx
 4120      00
 4121 2080 4889CE   		movq	%rcx, %rsi
 4122 2083 4889C7   		movq	%rax, %rdi
 4123 2086 E8000000 		call	_ZN8UnitTest11TestDetailsC1ERKS0_i
 4123      00
 100:testConv.cpp  **** 	CHECK_EQUAL(0xA5, byte);
 4124              		.loc 3 100 0 is_stmt 0 discriminator 10
 4125 208b E8000000 		call	_ZN8UnitTest11CurrentTest7ResultsEv
 4125      00
 4126 2090 488B00   		movq	(%rax), %rax
 4127 2093 488D4DC0 		leaq	-64(%rbp), %rcx
 4128 2097 BA000000 		movl	$.LC3, %edx
 4128      00
 4129 209c 4889CE   		movq	%rcx, %rsi
 4130 209f 4889C7   		movq	%rax, %rdi
 4131 20a2 E8000000 		call	_ZN8UnitTest11TestResults13OnTestFailureERKNS_11TestDetailsEPKc
 4131      00
 4132              	.LEHE227:
 4133              	.LEHB228:
 100:testConv.cpp  **** 	CHECK_EQUAL(0xA5, byte);
 4134              		.loc 3 100 0 discriminator 14
 4135 20a7 E8000000 		call	__cxa_end_catch
 4135      00
 4136              	.LEHE228:
 4137 20ac E976FDFF 		jmp	.L248
 4137      FF
 4138              	.L272:
 4139 20b1 4889C3   		movq	%rax, %rbx
 101:testConv.cpp  **** 	status = getHexByte("FF", &byte);
 4140              		.loc 3 101 0 is_stmt 1
 4141 20b4 E8000000 		call	__cxa_end_catch
 4141      00
 4142 20b9 4889D8   		movq	%rbx, %rax
 4143 20bc 4889C7   		movq	%rax, %rdi
 4144              	.LEHB229:
 4145 20bf E8000000 		call	_Unwind_Resume
 4145      00
 4146              	.LEHE229:
 4147              	.L271:
 4148 20c4 4889C7   		movq	%rax, %rdi
 4149 20c7 E8000000 		call	__cxa_begin_catch
 4149      00
 4150              	.LEHB230:
 4151 20cc E8000000 		call	_ZN8UnitTest11CurrentTest7DetailsEv
 4151      00
 4152 20d1 488B08   		movq	(%rax), %rcx
 4153 20d4 488D45C0 		leaq	-64(%rbp), %rax
 4154 20d8 BA650000 		movl	$101, %edx
 4154      00
 4155 20dd 4889CE   		movq	%rcx, %rsi
 4156 20e0 4889C7   		movq	%rax, %rdi
 4157 20e3 E8000000 		call	_ZN8UnitTest11TestDetailsC1ERKS0_i
 4157      00
 101:testConv.cpp  **** 	status = getHexByte("FF", &byte);
 4158              		.loc 3 101 0 is_stmt 0 discriminator 10
 4159 20e8 E8000000 		call	_ZN8UnitTest11CurrentTest7ResultsEv
 4159      00
 4160 20ed 488B00   		movq	(%rax), %rax
 4161 20f0 488D4DC0 		leaq	-64(%rbp), %rcx
 4162 20f4 BA000000 		movl	$.LC28, %edx
 4162      00
 4163 20f9 4889CE   		movq	%rcx, %rsi
 4164 20fc 4889C7   		movq	%rax, %rdi
 4165 20ff E8000000 		call	_ZN8UnitTest11TestResults13OnTestFailureERKNS_11TestDetailsEPKc
 4165      00
 4166              	.LEHE230:
 4167              	.LEHB231:
 101:testConv.cpp  **** 	status = getHexByte("FF", &byte);
 4168              		.loc 3 101 0 discriminator 14
 4169 2104 E8000000 		call	__cxa_end_catch
 4169      00
 4170              	.LEHE231:
 4171 2109 E958FDFF 		jmp	.L251
 4171      FF
 4172              	.L274:
 4173 210e 4889C3   		movq	%rax, %rbx
 103:testConv.cpp  **** 	CHECK_EQUAL(0xFF, byte);
 4174              		.loc 3 103 0 is_stmt 1
 4175 2111 E8000000 		call	__cxa_end_catch
 4175      00
 4176 2116 4889D8   		movq	%rbx, %rax
 4177 2119 4889C7   		movq	%rax, %rdi
 4178              	.LEHB232:
 4179 211c E8000000 		call	_Unwind_Resume
 4179      00
 4180              	.LEHE232:
 4181              	.L273:
 4182 2121 4889C7   		movq	%rax, %rdi
 4183 2124 E8000000 		call	__cxa_begin_catch
 4183      00
 4184              	.LEHB233:
 4185 2129 E8000000 		call	_ZN8UnitTest11CurrentTest7DetailsEv
 4185      00
 4186 212e 488B08   		movq	(%rax), %rcx
 4187 2131 488D45C0 		leaq	-64(%rbp), %rax
 4188 2135 BA670000 		movl	$103, %edx
 4188      00
 4189 213a 4889CE   		movq	%rcx, %rsi
 4190 213d 4889C7   		movq	%rax, %rdi
 4191 2140 E8000000 		call	_ZN8UnitTest11TestDetailsC1ERKS0_i
 4191      00
 103:testConv.cpp  **** 	CHECK_EQUAL(0xFF, byte);
 4192              		.loc 3 103 0 is_stmt 0 discriminator 10
 4193 2145 E8000000 		call	_ZN8UnitTest11CurrentTest7ResultsEv
 4193      00
 4194 214a 488B00   		movq	(%rax), %rax
 4195 214d 488D4DC0 		leaq	-64(%rbp), %rcx
 4196 2151 BA000000 		movl	$.LC3, %edx
 4196      00
 4197 2156 4889CE   		movq	%rcx, %rsi
 4198 2159 4889C7   		movq	%rax, %rdi
 4199 215c E8000000 		call	_ZN8UnitTest11TestResults13OnTestFailureERKNS_11TestDetailsEPKc
 4199      00
 4200              	.LEHE233:
 4201              	.LEHB234:
 103:testConv.cpp  **** 	CHECK_EQUAL(0xFF, byte);
 4202              		.loc 3 103 0 discriminator 14
 4203 2161 E8000000 		call	__cxa_end_catch
 4203      00
 4204              	.LEHE234:
 4205 2166 E94BFDFF 		jmp	.L254
 4205      FF
 4206              	.L276:
 4207 216b 4889C3   		movq	%rax, %rbx
 104:testConv.cpp  **** 	status = getHexByte("GF", &byte);
 4208              		.loc 3 104 0 is_stmt 1
 4209 216e E8000000 		call	__cxa_end_catch
 4209      00
 4210 2173 4889D8   		movq	%rbx, %rax
 4211 2176 4889C7   		movq	%rax, %rdi
 4212              	.LEHB235:
 4213 2179 E8000000 		call	_Unwind_Resume
 4213      00
 4214              	.LEHE235:
 4215              	.L275:
 4216 217e 4889C7   		movq	%rax, %rdi
 4217 2181 E8000000 		call	__cxa_begin_catch
 4217      00
 4218              	.LEHB236:
 4219 2186 E8000000 		call	_ZN8UnitTest11CurrentTest7DetailsEv
 4219      00
 4220 218b 488B08   		movq	(%rax), %rcx
 4221 218e 488D45C0 		leaq	-64(%rbp), %rax
 4222 2192 BA680000 		movl	$104, %edx
 4222      00
 4223 2197 4889CE   		movq	%rcx, %rsi
 4224 219a 4889C7   		movq	%rax, %rdi
 4225 219d E8000000 		call	_ZN8UnitTest11TestDetailsC1ERKS0_i
 4225      00
 104:testConv.cpp  **** 	status = getHexByte("GF", &byte);
 4226              		.loc 3 104 0 is_stmt 0 discriminator 10
 4227 21a2 E8000000 		call	_ZN8UnitTest11CurrentTest7ResultsEv
 4227      00
 4228 21a7 488B00   		movq	(%rax), %rax
 4229 21aa 488D4DC0 		leaq	-64(%rbp), %rcx
 4230 21ae BA000000 		movl	$.LC29, %edx
 4230      00
 4231 21b3 4889CE   		movq	%rcx, %rsi
 4232 21b6 4889C7   		movq	%rax, %rdi
 4233 21b9 E8000000 		call	_ZN8UnitTest11TestResults13OnTestFailureERKNS_11TestDetailsEPKc
 4233      00
 4234              	.LEHE236:
 4235              	.LEHB237:
 104:testConv.cpp  **** 	status = getHexByte("GF", &byte);
 4236              		.loc 3 104 0 discriminator 14
 4237 21be E8000000 		call	__cxa_end_catch
 4237      00
 4238              	.LEHE237:
 4239 21c3 E92DFDFF 		jmp	.L257
 4239      FF
 4240              	.L278:
 4241 21c8 4889C3   		movq	%rax, %rbx
 106:testConv.cpp  **** 	status = getHexByte("FG", &byte);
 4242              		.loc 3 106 0 is_stmt 1
 4243 21cb E8000000 		call	__cxa_end_catch
 4243      00
 4244 21d0 4889D8   		movq	%rbx, %rax
 4245 21d3 4889C7   		movq	%rax, %rdi
 4246              	.LEHB238:
 4247 21d6 E8000000 		call	_Unwind_Resume
 4247      00
 4248              	.LEHE238:
 4249              	.L277:
 4250 21db 4889C7   		movq	%rax, %rdi
 4251 21de E8000000 		call	__cxa_begin_catch
 4251      00
 4252              	.LEHB239:
 4253 21e3 E8000000 		call	_ZN8UnitTest11CurrentTest7DetailsEv
 4253      00
 4254 21e8 488B08   		movq	(%rax), %rcx
 4255 21eb 488D45C0 		leaq	-64(%rbp), %rax
 4256 21ef BA6A0000 		movl	$106, %edx
 4256      00
 4257 21f4 4889CE   		movq	%rcx, %rsi
 4258 21f7 4889C7   		movq	%rax, %rdi
 4259 21fa E8000000 		call	_ZN8UnitTest11TestDetailsC1ERKS0_i
 4259      00
 106:testConv.cpp  **** 	status = getHexByte("FG", &byte);
 4260              		.loc 3 106 0 is_stmt 0 discriminator 10
 4261 21ff E8000000 		call	_ZN8UnitTest11CurrentTest7ResultsEv
 4261      00
 4262 2204 488B00   		movq	(%rax), %rax
 4263 2207 488D4DC0 		leaq	-64(%rbp), %rcx
 4264 220b BA000000 		movl	$.LC20, %edx
 4264      00
 4265 2210 4889CE   		movq	%rcx, %rsi
 4266 2213 4889C7   		movq	%rax, %rdi
 4267 2216 E8000000 		call	_ZN8UnitTest11TestResults13OnTestFailureERKNS_11TestDetailsEPKc
 4267      00
 4268              	.LEHE239:
 4269              	.LEHB240:
 106:testConv.cpp  **** 	status = getHexByte("FG", &byte);
 4270              		.loc 3 106 0 discriminator 14
 4271 221b E8000000 		call	__cxa_end_catch
 4271      00
 4272              	.LEHE240:
 4273 2220 E920FDFF 		jmp	.L260
 4273      FF
 4274              	.L280:
 4275 2225 4889C3   		movq	%rax, %rbx
 108:testConv.cpp  **** }
 4276              		.loc 3 108 0 is_stmt 1
 4277 2228 E8000000 		call	__cxa_end_catch
 4277      00
 4278 222d 4889D8   		movq	%rbx, %rax
 4279 2230 4889C7   		movq	%rax, %rdi
 4280              	.LEHB241:
 4281 2233 E8000000 		call	_Unwind_Resume
 4281      00
 4282              	.LEHE241:
 4283              	.L279:
 4284 2238 4889C7   		movq	%rax, %rdi
 4285 223b E8000000 		call	__cxa_begin_catch
 4285      00
 4286              	.LEHB242:
 4287 2240 E8000000 		call	_ZN8UnitTest11CurrentTest7DetailsEv
 4287      00
 4288 2245 488B08   		movq	(%rax), %rcx
 4289 2248 488D45C0 		leaq	-64(%rbp), %rax
 4290 224c BA6C0000 		movl	$108, %edx
 4290      00
 4291 2251 4889CE   		movq	%rcx, %rsi
 4292 2254 4889C7   		movq	%rax, %rdi
 4293 2257 E8000000 		call	_ZN8UnitTest11TestDetailsC1ERKS0_i
 4293      00
 108:testConv.cpp  **** }
 4294              		.loc 3 108 0 is_stmt 0 discriminator 10
 4295 225c E8000000 		call	_ZN8UnitTest11CurrentTest7ResultsEv
 4295      00
 4296 2261 488B00   		movq	(%rax), %rax
 4297 2264 488D4DC0 		leaq	-64(%rbp), %rcx
 4298 2268 BA000000 		movl	$.LC20, %edx
 4298      00
 4299 226d 4889CE   		movq	%rcx, %rsi
 4300 2270 4889C7   		movq	%rax, %rdi
 4301 2273 E8000000 		call	_ZN8UnitTest11TestResults13OnTestFailureERKNS_11TestDetailsEPKc
 4301      00
 4302              	.LEHE242:
 4303              	.LEHB243:
 108:testConv.cpp  **** }
 4304              		.loc 3 108 0 discriminator 14
 4305 2278 E8000000 		call	__cxa_end_catch
 4305      00
 4306              	.LEHE243:
 4307              	.L281:
 4308              	.LBE9:
 4309              		.loc 3 109 0 is_stmt 1
 4310 227d 90       		nop
 4311 227e 488B45E8 		movq	-24(%rbp), %rax
 4312 2282 64483304 		xorq	%fs:40, %rax
 4312      25280000 
 4312      00
 4313 228b 7405     		je	.L264
 4314 228d E8000000 		call	__stack_chk_fail
 4314      00
 4315              	.L264:
 4316 2292 4883C458 		addq	$88, %rsp
 4317 2296 5B       		popq	%rbx
 4318 2297 5D       		popq	%rbp
 4319              		.cfi_def_cfa 7, 8
 4320 2298 C3       		ret
 4321              		.cfi_endproc
 4322              	.LFE1076:
 4323              		.section	.gcc_except_table
 4324              		.align 4
 4325              	.LLSDA1076:
 4326 045c FF       		.byte	0xff
 4327 045d 03       		.byte	0x3
 4328 045e D001     		.uleb128 .LLSDATT1076-.LLSDATTD1076
 4329              	.LLSDATTD1076:
 4330 0460 01       		.byte	0x1
 4331 0461 C601     		.uleb128 .LLSDACSE1076-.LLSDACSB1076
 4332              	.LLSDACSB1076:
 4333 0463 28       		.uleb128 .LEHB207-.LFB1076
 4334 0464 05       		.uleb128 .LEHE207-.LEHB207
 4335 0465 00       		.uleb128 0
 4336 0466 00       		.uleb128 0
 4337 0467 30       		.uleb128 .LEHB208-.LFB1076
 4338 0468 3C       		.uleb128 .LEHE208-.LEHB208
 4339 0469 8105     		.uleb128 .L265-.LFB1076
 4340 046b 01       		.uleb128 0x1
 4341 046c 6C       		.uleb128 .LEHB209-.LFB1076
 4342 046d 3F       		.uleb128 .LEHE209-.LEHB209
 4343 046e DE05     		.uleb128 .L267-.LFB1076
 4344 0470 01       		.uleb128 0x1
 4345 0471 B701     		.uleb128 .LEHB210-.LFB1076
 4346 0473 05       		.uleb128 .LEHE210-.LEHB210
 4347 0474 00       		.uleb128 0
 4348 0475 00       		.uleb128 0
 4349 0476 BF01     		.uleb128 .LEHB211-.LFB1076
 4350 0478 3C       		.uleb128 .LEHE211-.LEHB211
 4351 0479 BB06     		.uleb128 .L269-.LFB1076
 4352 047b 01       		.uleb128 0x1
 4353 047c FB01     		.uleb128 .LEHB212-.LFB1076
 4354 047e 3F       		.uleb128 .LEHE212-.LEHB212
 4355 047f 9807     		.uleb128 .L271-.LFB1076
 4356 0481 01       		.uleb128 0x1
 4357 0482 C602     		.uleb128 .LEHB213-.LFB1076
 4358 0484 05       		.uleb128 .LEHE213-.LEHB213
 4359 0485 00       		.uleb128 0
 4360 0486 00       		.uleb128 0
 4361 0487 CE02     		.uleb128 .LEHB214-.LFB1076
 4362 0489 3C       		.uleb128 .LEHE214-.LEHB214
 4363 048a F507     		.uleb128 .L273-.LFB1076
 4364 048c 01       		.uleb128 0x1
 4365 048d 8A03     		.uleb128 .LEHB215-.LFB1076
 4366 048f 3F       		.uleb128 .LEHE215-.LEHB215
 4367 0490 D208     		.uleb128 .L275-.LFB1076
 4368 0492 01       		.uleb128 0x1
 4369 0493 D503     		.uleb128 .LEHB216-.LFB1076
 4370 0495 05       		.uleb128 .LEHE216-.LEHB216
 4371 0496 00       		.uleb128 0
 4372 0497 00       		.uleb128 0
 4373 0498 DD03     		.uleb128 .LEHB217-.LFB1076
 4374 049a 3C       		.uleb128 .LEHE217-.LEHB217
 4375 049b AF09     		.uleb128 .L277-.LFB1076
 4376 049d 01       		.uleb128 0x1
 4377 049e A504     		.uleb128 .LEHB218-.LFB1076
 4378 04a0 05       		.uleb128 .LEHE218-.LEHB218
 4379 04a1 00       		.uleb128 0
 4380 04a2 00       		.uleb128 0
 4381 04a3 AD04     		.uleb128 .LEHB219-.LFB1076
 4382 04a5 3C       		.uleb128 .LEHE219-.LEHB219
 4383 04a6 8C0A     		.uleb128 .L279-.LFB1076
 4384 04a8 01       		.uleb128 0x1
 4385 04a9 FC04     		.uleb128 .LEHB220-.LFB1076
 4386 04ab 05       		.uleb128 .LEHE220-.LEHB220
 4387 04ac 00       		.uleb128 0
 4388 04ad 00       		.uleb128 0
 4389 04ae 8905     		.uleb128 .LEHB221-.LFB1076
 4390 04b0 38       		.uleb128 .LEHE221-.LEHB221
 4391 04b1 EE04     		.uleb128 .L266-.LFB1076
 4392 04b3 00       		.uleb128 0
 4393 04b4 C105     		.uleb128 .LEHB222-.LFB1076
 4394 04b6 05       		.uleb128 .LEHE222-.LEHB222
 4395 04b7 00       		.uleb128 0
 4396 04b8 00       		.uleb128 0
 4397 04b9 D905     		.uleb128 .LEHB223-.LFB1076
 4398 04bb 05       		.uleb128 .LEHE223-.LEHB223
 4399 04bc 00       		.uleb128 0
 4400 04bd 00       		.uleb128 0
 4401 04be E605     		.uleb128 .LEHB224-.LFB1076
 4402 04c0 38       		.uleb128 .LEHE224-.LEHB224
 4403 04c1 CB05     		.uleb128 .L268-.LFB1076
 4404 04c3 00       		.uleb128 0
 4405 04c4 9E06     		.uleb128 .LEHB225-.LFB1076
 4406 04c6 05       		.uleb128 .LEHE225-.LEHB225
 4407 04c7 00       		.uleb128 0
 4408 04c8 00       		.uleb128 0
 4409 04c9 B606     		.uleb128 .LEHB226-.LFB1076
 4410 04cb 05       		.uleb128 .LEHE226-.LEHB226
 4411 04cc 00       		.uleb128 0
 4412 04cd 00       		.uleb128 0
 4413 04ce C306     		.uleb128 .LEHB227-.LFB1076
 4414 04d0 38       		.uleb128 .LEHE227-.LEHB227
 4415 04d1 A806     		.uleb128 .L270-.LFB1076
 4416 04d3 00       		.uleb128 0
 4417 04d4 FB06     		.uleb128 .LEHB228-.LFB1076
 4418 04d6 05       		.uleb128 .LEHE228-.LEHB228
 4419 04d7 00       		.uleb128 0
 4420 04d8 00       		.uleb128 0
 4421 04d9 9307     		.uleb128 .LEHB229-.LFB1076
 4422 04db 05       		.uleb128 .LEHE229-.LEHB229
 4423 04dc 00       		.uleb128 0
 4424 04dd 00       		.uleb128 0
 4425 04de A007     		.uleb128 .LEHB230-.LFB1076
 4426 04e0 38       		.uleb128 .LEHE230-.LEHB230
 4427 04e1 8507     		.uleb128 .L272-.LFB1076
 4428 04e3 00       		.uleb128 0
 4429 04e4 D807     		.uleb128 .LEHB231-.LFB1076
 4430 04e6 05       		.uleb128 .LEHE231-.LEHB231
 4431 04e7 00       		.uleb128 0
 4432 04e8 00       		.uleb128 0
 4433 04e9 F007     		.uleb128 .LEHB232-.LFB1076
 4434 04eb 05       		.uleb128 .LEHE232-.LEHB232
 4435 04ec 00       		.uleb128 0
 4436 04ed 00       		.uleb128 0
 4437 04ee FD07     		.uleb128 .LEHB233-.LFB1076
 4438 04f0 38       		.uleb128 .LEHE233-.LEHB233
 4439 04f1 E207     		.uleb128 .L274-.LFB1076
 4440 04f3 00       		.uleb128 0
 4441 04f4 B508     		.uleb128 .LEHB234-.LFB1076
 4442 04f6 05       		.uleb128 .LEHE234-.LEHB234
 4443 04f7 00       		.uleb128 0
 4444 04f8 00       		.uleb128 0
 4445 04f9 CD08     		.uleb128 .LEHB235-.LFB1076
 4446 04fb 05       		.uleb128 .LEHE235-.LEHB235
 4447 04fc 00       		.uleb128 0
 4448 04fd 00       		.uleb128 0
 4449 04fe DA08     		.uleb128 .LEHB236-.LFB1076
 4450 0500 38       		.uleb128 .LEHE236-.LEHB236
 4451 0501 BF08     		.uleb128 .L276-.LFB1076
 4452 0503 00       		.uleb128 0
 4453 0504 9209     		.uleb128 .LEHB237-.LFB1076
 4454 0506 05       		.uleb128 .LEHE237-.LEHB237
 4455 0507 00       		.uleb128 0
 4456 0508 00       		.uleb128 0
 4457 0509 AA09     		.uleb128 .LEHB238-.LFB1076
 4458 050b 05       		.uleb128 .LEHE238-.LEHB238
 4459 050c 00       		.uleb128 0
 4460 050d 00       		.uleb128 0
 4461 050e B709     		.uleb128 .LEHB239-.LFB1076
 4462 0510 38       		.uleb128 .LEHE239-.LEHB239
 4463 0511 9C09     		.uleb128 .L278-.LFB1076
 4464 0513 00       		.uleb128 0
 4465 0514 EF09     		.uleb128 .LEHB240-.LFB1076
 4466 0516 05       		.uleb128 .LEHE240-.LEHB240
 4467 0517 00       		.uleb128 0
 4468 0518 00       		.uleb128 0
 4469 0519 870A     		.uleb128 .LEHB241-.LFB1076
 4470 051b 05       		.uleb128 .LEHE241-.LEHB241
 4471 051c 00       		.uleb128 0
 4472 051d 00       		.uleb128 0
 4473 051e 940A     		.uleb128 .LEHB242-.LFB1076
 4474 0520 38       		.uleb128 .LEHE242-.LEHB242
 4475 0521 F909     		.uleb128 .L280-.LFB1076
 4476 0523 00       		.uleb128 0
 4477 0524 CC0A     		.uleb128 .LEHB243-.LFB1076
 4478 0526 05       		.uleb128 .LEHE243-.LEHB243
 4479 0527 00       		.uleb128 0
 4480 0528 00       		.uleb128 0
 4481              	.LLSDACSE1076:
 4482 0529 01       		.byte	0x1
 4483 052a 00       		.byte	0
 4484 052b 00       		.align 4
 4485 052c 00000000 		.long	0
 4486              	
 4487              	.LLSDATT1076:
 4488              		.text
 4490              		.section	.rodata
 4491              	.LC30:
 4492 044f 436F6E76 		.string	"Conv_testGetHexUpperNibble"
 4492      5F746573 
 4492      74476574 
 4492      48657855 
 4492      70706572 
 4493              		.section	.text._ZN30TestConv_testGetHexUpperNibbleC2Ev,"axG",@progbits,_ZN30TestConv_testGetHexUpp
 4494              		.align 2
 4495              		.weak	_ZN30TestConv_testGetHexUpperNibbleC2Ev
 4497              	_ZN30TestConv_testGetHexUpperNibbleC2Ev:
 4498              	.LFB1078:
 110:testConv.cpp  **** 
 111:testConv.cpp  **** TEST(Conv_testGetHexUpperNibble) {
 4499              		.loc 3 111 0
 4500              		.cfi_startproc
 4501 0000 55       		pushq	%rbp
 4502              		.cfi_def_cfa_offset 16
 4503              		.cfi_offset 6, -16
 4504 0001 4889E5   		movq	%rsp, %rbp
 4505              		.cfi_def_cfa_register 6
 4506 0004 4883EC10 		subq	$16, %rsp
 4507 0008 48897DF8 		movq	%rdi, -8(%rbp)
 4508              	.LBB10:
 4509              		.loc 3 111 0
 4510 000c E8000000 		call	_ZN13UnitTestSuite12GetSuiteNameEv
 4510      00
 4511 0011 4889C2   		movq	%rax, %rdx
 4512 0014 488B45F8 		movq	-8(%rbp), %rax
 4513 0018 41B86F00 		movl	$111, %r8d
 4513      0000
 4514 001e B9000000 		movl	$.LC1, %ecx
 4514      00
 4515 0023 BE000000 		movl	$.LC30, %esi
 4515      00
 4516 0028 4889C7   		movq	%rax, %rdi
 4517 002b E8000000 		call	_ZN8UnitTest4TestC2EPKcS2_S2_i
 4517      00
 4518 0030 488B45F8 		movq	-8(%rbp), %rax
 4519 0034 48C70000 		movq	$_ZTV30TestConv_testGetHexUpperNibble+16, (%rax)
 4519      000000
 4520              	.LBE10:
 4521 003b C9       		leave
 4522              		.cfi_def_cfa 7, 8
 4523 003c C3       		ret
 4524              		.cfi_endproc
 4525              	.LFE1078:
 4527              		.weak	_ZN30TestConv_testGetHexUpperNibbleC1Ev
 4528              		.set	_ZN30TestConv_testGetHexUpperNibbleC1Ev,_ZN30TestConv_testGetHexUpperNibbleC2Ev
 4529              		.globl	testConv_testGetHexUpperNibbleInstance
 4530              		.bss
 4531 0079 00000000 		.align 32
 4531      000000
 4534              	testConv_testGetHexUpperNibbleInstance:
 4535 0080 00000000 		.zero	56
 4535      00000000 
 4535      00000000 
 4535      00000000 
 4535      00000000 
 4536              		.globl	adderConv_testGetHexUpperNibble
 4539              	adderConv_testGetHexUpperNibble:
 4540 00b8 00       		.zero	1
 4541              		.section	.rodata
 4542 046a 00000000 		.align 8
 4542      0000
 4543              	.LC31:
 4544 0470 556E6861 		.string	"Unhandled exception in CHECK_EQUAL('0', getHexUpperNibble(0x0F))"
 4544      6E646C65 
 4544      64206578 
 4544      63657074 
 4544      696F6E20 
 4545 04b1 00000000 		.align 8
 4545      000000
 4546              	.LC32:
 4547 04b8 556E6861 		.string	"Unhandled exception in CHECK_EQUAL('1', getHexUpperNibble(0x1F))"
 4547      6E646C65 
 4547      64206578 
 4547      63657074 
 4547      696F6E20 
 4548 04f9 00000000 		.align 8
 4548      000000
 4549              	.LC33:
 4550 0500 556E6861 		.string	"Unhandled exception in CHECK_EQUAL('2', getHexUpperNibble(0x2F))"
 4550      6E646C65 
 4550      64206578 
 4550      63657074 
 4550      696F6E20 
 4551 0541 00000000 		.align 8
 4551      000000
 4552              	.LC34:
 4553 0548 556E6861 		.string	"Unhandled exception in CHECK_EQUAL('3', getHexUpperNibble(0x3F))"
 4553      6E646C65 
 4553      64206578 
 4553      63657074 
 4553      696F6E20 
 4554 0589 00000000 		.align 8
 4554      000000
 4555              	.LC35:
 4556 0590 556E6861 		.string	"Unhandled exception in CHECK_EQUAL('4', getHexUpperNibble(0x4F))"
 4556      6E646C65 
 4556      64206578 
 4556      63657074 
 4556      696F6E20 
 4557 05d1 00000000 		.align 8
 4557      000000
 4558              	.LC36:
 4559 05d8 556E6861 		.string	"Unhandled exception in CHECK_EQUAL('5', getHexUpperNibble(0x5F))"
 4559      6E646C65 
 4559      64206578 
 4559      63657074 
 4559      696F6E20 
 4560 0619 00000000 		.align 8
 4560      000000
 4561              	.LC37:
 4562 0620 556E6861 		.string	"Unhandled exception in CHECK_EQUAL('6', getHexUpperNibble(0x6F))"
 4562      6E646C65 
 4562      64206578 
 4562      63657074 
 4562      696F6E20 
 4563 0661 00000000 		.align 8
 4563      000000
 4564              	.LC38:
 4565 0668 556E6861 		.string	"Unhandled exception in CHECK_EQUAL('7', getHexUpperNibble(0x7F))"
 4565      6E646C65 
 4565      64206578 
 4565      63657074 
 4565      696F6E20 
 4566 06a9 00000000 		.align 8
 4566      000000
 4567              	.LC39:
 4568 06b0 556E6861 		.string	"Unhandled exception in CHECK_EQUAL('8', getHexUpperNibble(0x8F))"
 4568      6E646C65 
 4568      64206578 
 4568      63657074 
 4568      696F6E20 
 4569 06f1 00000000 		.align 8
 4569      000000
 4570              	.LC40:
 4571 06f8 556E6861 		.string	"Unhandled exception in CHECK_EQUAL('9', getHexUpperNibble(0x9F))"
 4571      6E646C65 
 4571      64206578 
 4571      63657074 
 4571      696F6E20 
 4572 0739 00000000 		.align 8
 4572      000000
 4573              	.LC41:
 4574 0740 556E6861 		.string	"Unhandled exception in CHECK_EQUAL('A', getHexUpperNibble(0xAF))"
 4574      6E646C65 
 4574      64206578 
 4574      63657074 
 4574      696F6E20 
 4575 0781 00000000 		.align 8
 4575      000000
 4576              	.LC42:
 4577 0788 556E6861 		.string	"Unhandled exception in CHECK_EQUAL('B', getHexUpperNibble(0xBF))"
 4577      6E646C65 
 4577      64206578 
 4577      63657074 
 4577      696F6E20 
 4578 07c9 00000000 		.align 8
 4578      000000
 4579              	.LC43:
 4580 07d0 556E6861 		.string	"Unhandled exception in CHECK_EQUAL('C', getHexUpperNibble(0xCF))"
 4580      6E646C65 
 4580      64206578 
 4580      63657074 
 4580      696F6E20 
 4581 0811 00000000 		.align 8
 4581      000000
 4582              	.LC44:
 4583 0818 556E6861 		.string	"Unhandled exception in CHECK_EQUAL('D', getHexUpperNibble(0xDF))"
 4583      6E646C65 
 4583      64206578 
 4583      63657074 
 4583      696F6E20 
 4584 0859 00000000 		.align 8
 4584      000000
 4585              	.LC45:
 4586 0860 556E6861 		.string	"Unhandled exception in CHECK_EQUAL('E', getHexUpperNibble(0xEF))"
 4586      6E646C65 
 4586      64206578 
 4586      63657074 
 4586      696F6E20 
 4587 08a1 00000000 		.align 8
 4587      000000
 4588              	.LC46:
 4589 08a8 556E6861 		.string	"Unhandled exception in CHECK_EQUAL('F', getHexUpperNibble(0xFF))"
 4589      6E646C65 
 4589      64206578 
 4589      63657074 
 4589      696F6E20 
 4590              		.text
 4591 2299 90       		.align 2
 4592              		.globl	_ZNK30TestConv_testGetHexUpperNibble7RunImplEv
 4594              	_ZNK30TestConv_testGetHexUpperNibble7RunImplEv:
 4595              	.LFB1080:
 4596              		.loc 3 111 0
 4597              		.cfi_startproc
 4598              		.cfi_personality 0x3,__gxx_personality_v0
 4599              		.cfi_lsda 0x3,.LLSDA1080
 4600 229a 55       		pushq	%rbp
 4601              		.cfi_def_cfa_offset 16
 4602              		.cfi_offset 6, -16
 4603 229b 4889E5   		movq	%rsp, %rbp
 4604              		.cfi_def_cfa_register 6
 4605 229e 53       		pushq	%rbx
 4606 229f 4883EC58 		subq	$88, %rsp
 4607              		.cfi_offset 3, -24
 4608 22a3 48897DA8 		movq	%rdi, -88(%rbp)
 4609              		.loc 3 111 0
 4610 22a7 64488B04 		movq	%fs:40, %rax
 4610      25280000 
 4610      00
 4611 22b0 488945E8 		movq	%rax, -24(%rbp)
 4612 22b4 31C0     		xorl	%eax, %eax
 4613              	.LEHB244:
 112:testConv.cpp  **** 	CHECK_EQUAL('0', getHexUpperNibble(0x0F));
 4614              		.loc 3 112 0
 4615 22b6 E8000000 		call	_ZN8UnitTest11CurrentTest7DetailsEv
 4615      00
 4616 22bb 488B08   		movq	(%rax), %rcx
 4617 22be 488D45C0 		leaq	-64(%rbp), %rax
 4618 22c2 BA700000 		movl	$112, %edx
 4618      00
 4619 22c7 4889CE   		movq	%rcx, %rsi
 4620 22ca 4889C7   		movq	%rax, %rdi
 4621 22cd E8000000 		call	_ZN8UnitTest11TestDetailsC1ERKS0_i
 4621      00
 4622              		.loc 3 112 0 is_stmt 0 discriminator 2
 4623 22d2 BF0F0000 		movl	$15, %edi
 4623      00
 4624 22d7 E8000000 		call	getHexUpperNibble
 4624      00
 4625 22dc 8845BF   		movb	%al, -65(%rbp)
 4626 22df C645BE30 		movb	$48, -66(%rbp)
 4627 22e3 E8000000 		call	_ZN8UnitTest11CurrentTest7ResultsEv
 4627      00
 4628              		.loc 3 112 0 discriminator 4
 4629 22e8 488B00   		movq	(%rax), %rax
 4630 22eb 488D4DC0 		leaq	-64(%rbp), %rcx
 4631 22ef 488D55BF 		leaq	-65(%rbp), %rdx
 4632 22f3 488D75BE 		leaq	-66(%rbp), %rsi
 4633 22f7 4889C7   		movq	%rax, %rdi
 4634 22fa E8000000 		call	_ZN8UnitTest10CheckEqualIccEEvRNS_11TestResultsERKT_RKT0_RKNS_11TestDetailsE
 4634      00
 4635              	.LEHE244:
 4636              	.L286:
 4637              	.LEHB245:
 113:testConv.cpp  **** 	CHECK_EQUAL('1', getHexUpperNibble(0x1F));
 4638              		.loc 3 113 0 is_stmt 1
 4639 22ff E8000000 		call	_ZN8UnitTest11CurrentTest7DetailsEv
 4639      00
 4640 2304 488B08   		movq	(%rax), %rcx
 4641 2307 488D45C0 		leaq	-64(%rbp), %rax
 4642 230b BA710000 		movl	$113, %edx
 4642      00
 4643 2310 4889CE   		movq	%rcx, %rsi
 4644 2313 4889C7   		movq	%rax, %rdi
 4645 2316 E8000000 		call	_ZN8UnitTest11TestDetailsC1ERKS0_i
 4645      00
 4646              		.loc 3 113 0 is_stmt 0 discriminator 2
 4647 231b BF1F0000 		movl	$31, %edi
 4647      00
 4648 2320 E8000000 		call	getHexUpperNibble
 4648      00
 4649 2325 8845BF   		movb	%al, -65(%rbp)
 4650 2328 C645BE31 		movb	$49, -66(%rbp)
 4651 232c E8000000 		call	_ZN8UnitTest11CurrentTest7ResultsEv
 4651      00
 4652              		.loc 3 113 0 discriminator 4
 4653 2331 488B00   		movq	(%rax), %rax
 4654 2334 488D4DC0 		leaq	-64(%rbp), %rcx
 4655 2338 488D55BF 		leaq	-65(%rbp), %rdx
 4656 233c 488D75BE 		leaq	-66(%rbp), %rsi
 4657 2340 4889C7   		movq	%rax, %rdi
 4658 2343 E8000000 		call	_ZN8UnitTest10CheckEqualIccEEvRNS_11TestResultsERKT_RKT0_RKNS_11TestDetailsE
 4658      00
 4659              	.LEHE245:
 4660              	.L289:
 4661              	.LEHB246:
 114:testConv.cpp  **** 	CHECK_EQUAL('2', getHexUpperNibble(0x2F));
 4662              		.loc 3 114 0 is_stmt 1
 4663 2348 E8000000 		call	_ZN8UnitTest11CurrentTest7DetailsEv
 4663      00
 4664 234d 488B08   		movq	(%rax), %rcx
 4665 2350 488D45C0 		leaq	-64(%rbp), %rax
 4666 2354 BA720000 		movl	$114, %edx
 4666      00
 4667 2359 4889CE   		movq	%rcx, %rsi
 4668 235c 4889C7   		movq	%rax, %rdi
 4669 235f E8000000 		call	_ZN8UnitTest11TestDetailsC1ERKS0_i
 4669      00
 4670              		.loc 3 114 0 is_stmt 0 discriminator 2
 4671 2364 BF2F0000 		movl	$47, %edi
 4671      00
 4672 2369 E8000000 		call	getHexUpperNibble
 4672      00
 4673 236e 8845BF   		movb	%al, -65(%rbp)
 4674 2371 C645BE32 		movb	$50, -66(%rbp)
 4675 2375 E8000000 		call	_ZN8UnitTest11CurrentTest7ResultsEv
 4675      00
 4676              		.loc 3 114 0 discriminator 4
 4677 237a 488B00   		movq	(%rax), %rax
 4678 237d 488D4DC0 		leaq	-64(%rbp), %rcx
 4679 2381 488D55BF 		leaq	-65(%rbp), %rdx
 4680 2385 488D75BE 		leaq	-66(%rbp), %rsi
 4681 2389 4889C7   		movq	%rax, %rdi
 4682 238c E8000000 		call	_ZN8UnitTest10CheckEqualIccEEvRNS_11TestResultsERKT_RKT0_RKNS_11TestDetailsE
 4682      00
 4683              	.LEHE246:
 4684              	.L292:
 4685              	.LEHB247:
 115:testConv.cpp  **** 	CHECK_EQUAL('3', getHexUpperNibble(0x3F));
 4686              		.loc 3 115 0 is_stmt 1
 4687 2391 E8000000 		call	_ZN8UnitTest11CurrentTest7DetailsEv
 4687      00
 4688 2396 488B08   		movq	(%rax), %rcx
 4689 2399 488D45C0 		leaq	-64(%rbp), %rax
 4690 239d BA730000 		movl	$115, %edx
 4690      00
 4691 23a2 4889CE   		movq	%rcx, %rsi
 4692 23a5 4889C7   		movq	%rax, %rdi
 4693 23a8 E8000000 		call	_ZN8UnitTest11TestDetailsC1ERKS0_i
 4693      00
 4694              		.loc 3 115 0 is_stmt 0 discriminator 2
 4695 23ad BF3F0000 		movl	$63, %edi
 4695      00
 4696 23b2 E8000000 		call	getHexUpperNibble
 4696      00
 4697 23b7 8845BF   		movb	%al, -65(%rbp)
 4698 23ba C645BE33 		movb	$51, -66(%rbp)
 4699 23be E8000000 		call	_ZN8UnitTest11CurrentTest7ResultsEv
 4699      00
 4700              		.loc 3 115 0 discriminator 4
 4701 23c3 488B00   		movq	(%rax), %rax
 4702 23c6 488D4DC0 		leaq	-64(%rbp), %rcx
 4703 23ca 488D55BF 		leaq	-65(%rbp), %rdx
 4704 23ce 488D75BE 		leaq	-66(%rbp), %rsi
 4705 23d2 4889C7   		movq	%rax, %rdi
 4706 23d5 E8000000 		call	_ZN8UnitTest10CheckEqualIccEEvRNS_11TestResultsERKT_RKT0_RKNS_11TestDetailsE
 4706      00
 4707              	.LEHE247:
 4708              	.L295:
 4709              	.LEHB248:
 116:testConv.cpp  **** 	CHECK_EQUAL('4', getHexUpperNibble(0x4F));
 4710              		.loc 3 116 0 is_stmt 1
 4711 23da E8000000 		call	_ZN8UnitTest11CurrentTest7DetailsEv
 4711      00
 4712 23df 488B08   		movq	(%rax), %rcx
 4713 23e2 488D45C0 		leaq	-64(%rbp), %rax
 4714 23e6 BA740000 		movl	$116, %edx
 4714      00
 4715 23eb 4889CE   		movq	%rcx, %rsi
 4716 23ee 4889C7   		movq	%rax, %rdi
 4717 23f1 E8000000 		call	_ZN8UnitTest11TestDetailsC1ERKS0_i
 4717      00
 4718              		.loc 3 116 0 is_stmt 0 discriminator 2
 4719 23f6 BF4F0000 		movl	$79, %edi
 4719      00
 4720 23fb E8000000 		call	getHexUpperNibble
 4720      00
 4721 2400 8845BF   		movb	%al, -65(%rbp)
 4722 2403 C645BE34 		movb	$52, -66(%rbp)
 4723 2407 E8000000 		call	_ZN8UnitTest11CurrentTest7ResultsEv
 4723      00
 4724              		.loc 3 116 0 discriminator 4
 4725 240c 488B00   		movq	(%rax), %rax
 4726 240f 488D4DC0 		leaq	-64(%rbp), %rcx
 4727 2413 488D55BF 		leaq	-65(%rbp), %rdx
 4728 2417 488D75BE 		leaq	-66(%rbp), %rsi
 4729 241b 4889C7   		movq	%rax, %rdi
 4730 241e E8000000 		call	_ZN8UnitTest10CheckEqualIccEEvRNS_11TestResultsERKT_RKT0_RKNS_11TestDetailsE
 4730      00
 4731              	.LEHE248:
 4732              	.L298:
 4733              	.LEHB249:
 117:testConv.cpp  **** 	CHECK_EQUAL('5', getHexUpperNibble(0x5F));
 4734              		.loc 3 117 0 is_stmt 1
 4735 2423 E8000000 		call	_ZN8UnitTest11CurrentTest7DetailsEv
 4735      00
 4736 2428 488B08   		movq	(%rax), %rcx
 4737 242b 488D45C0 		leaq	-64(%rbp), %rax
 4738 242f BA750000 		movl	$117, %edx
 4738      00
 4739 2434 4889CE   		movq	%rcx, %rsi
 4740 2437 4889C7   		movq	%rax, %rdi
 4741 243a E8000000 		call	_ZN8UnitTest11TestDetailsC1ERKS0_i
 4741      00
 4742              		.loc 3 117 0 is_stmt 0 discriminator 2
 4743 243f BF5F0000 		movl	$95, %edi
 4743      00
 4744 2444 E8000000 		call	getHexUpperNibble
 4744      00
 4745 2449 8845BF   		movb	%al, -65(%rbp)
 4746 244c C645BE35 		movb	$53, -66(%rbp)
 4747 2450 E8000000 		call	_ZN8UnitTest11CurrentTest7ResultsEv
 4747      00
 4748              		.loc 3 117 0 discriminator 4
 4749 2455 488B00   		movq	(%rax), %rax
 4750 2458 488D4DC0 		leaq	-64(%rbp), %rcx
 4751 245c 488D55BF 		leaq	-65(%rbp), %rdx
 4752 2460 488D75BE 		leaq	-66(%rbp), %rsi
 4753 2464 4889C7   		movq	%rax, %rdi
 4754 2467 E8000000 		call	_ZN8UnitTest10CheckEqualIccEEvRNS_11TestResultsERKT_RKT0_RKNS_11TestDetailsE
 4754      00
 4755              	.LEHE249:
 4756              	.L301:
 4757              	.LEHB250:
 118:testConv.cpp  **** 	CHECK_EQUAL('6', getHexUpperNibble(0x6F));
 4758              		.loc 3 118 0 is_stmt 1
 4759 246c E8000000 		call	_ZN8UnitTest11CurrentTest7DetailsEv
 4759      00
 4760 2471 488B08   		movq	(%rax), %rcx
 4761 2474 488D45C0 		leaq	-64(%rbp), %rax
 4762 2478 BA760000 		movl	$118, %edx
 4762      00
 4763 247d 4889CE   		movq	%rcx, %rsi
 4764 2480 4889C7   		movq	%rax, %rdi
 4765 2483 E8000000 		call	_ZN8UnitTest11TestDetailsC1ERKS0_i
 4765      00
 4766              		.loc 3 118 0 is_stmt 0 discriminator 2
 4767 2488 BF6F0000 		movl	$111, %edi
 4767      00
 4768 248d E8000000 		call	getHexUpperNibble
 4768      00
 4769 2492 8845BF   		movb	%al, -65(%rbp)
 4770 2495 C645BE36 		movb	$54, -66(%rbp)
 4771 2499 E8000000 		call	_ZN8UnitTest11CurrentTest7ResultsEv
 4771      00
 4772              		.loc 3 118 0 discriminator 4
 4773 249e 488B00   		movq	(%rax), %rax
 4774 24a1 488D4DC0 		leaq	-64(%rbp), %rcx
 4775 24a5 488D55BF 		leaq	-65(%rbp), %rdx
 4776 24a9 488D75BE 		leaq	-66(%rbp), %rsi
 4777 24ad 4889C7   		movq	%rax, %rdi
 4778 24b0 E8000000 		call	_ZN8UnitTest10CheckEqualIccEEvRNS_11TestResultsERKT_RKT0_RKNS_11TestDetailsE
 4778      00
 4779              	.LEHE250:
 4780              	.L304:
 4781              	.LEHB251:
 119:testConv.cpp  **** 	CHECK_EQUAL('7', getHexUpperNibble(0x7F));
 4782              		.loc 3 119 0 is_stmt 1
 4783 24b5 E8000000 		call	_ZN8UnitTest11CurrentTest7DetailsEv
 4783      00
 4784 24ba 488B08   		movq	(%rax), %rcx
 4785 24bd 488D45C0 		leaq	-64(%rbp), %rax
 4786 24c1 BA770000 		movl	$119, %edx
 4786      00
 4787 24c6 4889CE   		movq	%rcx, %rsi
 4788 24c9 4889C7   		movq	%rax, %rdi
 4789 24cc E8000000 		call	_ZN8UnitTest11TestDetailsC1ERKS0_i
 4789      00
 4790              		.loc 3 119 0 is_stmt 0 discriminator 2
 4791 24d1 BF7F0000 		movl	$127, %edi
 4791      00
 4792 24d6 E8000000 		call	getHexUpperNibble
 4792      00
 4793 24db 8845BF   		movb	%al, -65(%rbp)
 4794 24de C645BE37 		movb	$55, -66(%rbp)
 4795 24e2 E8000000 		call	_ZN8UnitTest11CurrentTest7ResultsEv
 4795      00
 4796              		.loc 3 119 0 discriminator 4
 4797 24e7 488B00   		movq	(%rax), %rax
 4798 24ea 488D4DC0 		leaq	-64(%rbp), %rcx
 4799 24ee 488D55BF 		leaq	-65(%rbp), %rdx
 4800 24f2 488D75BE 		leaq	-66(%rbp), %rsi
 4801 24f6 4889C7   		movq	%rax, %rdi
 4802 24f9 E8000000 		call	_ZN8UnitTest10CheckEqualIccEEvRNS_11TestResultsERKT_RKT0_RKNS_11TestDetailsE
 4802      00
 4803              	.LEHE251:
 4804              	.L307:
 4805              	.LEHB252:
 120:testConv.cpp  **** 	CHECK_EQUAL('8', getHexUpperNibble(0x8F));
 4806              		.loc 3 120 0 is_stmt 1
 4807 24fe E8000000 		call	_ZN8UnitTest11CurrentTest7DetailsEv
 4807      00
 4808 2503 488B08   		movq	(%rax), %rcx
 4809 2506 488D45C0 		leaq	-64(%rbp), %rax
 4810 250a BA780000 		movl	$120, %edx
 4810      00
 4811 250f 4889CE   		movq	%rcx, %rsi
 4812 2512 4889C7   		movq	%rax, %rdi
 4813 2515 E8000000 		call	_ZN8UnitTest11TestDetailsC1ERKS0_i
 4813      00
 4814              		.loc 3 120 0 is_stmt 0 discriminator 2
 4815 251a BF8F0000 		movl	$143, %edi
 4815      00
 4816 251f E8000000 		call	getHexUpperNibble
 4816      00
 4817 2524 8845BF   		movb	%al, -65(%rbp)
 4818 2527 C645BE38 		movb	$56, -66(%rbp)
 4819 252b E8000000 		call	_ZN8UnitTest11CurrentTest7ResultsEv
 4819      00
 4820              		.loc 3 120 0 discriminator 4
 4821 2530 488B00   		movq	(%rax), %rax
 4822 2533 488D4DC0 		leaq	-64(%rbp), %rcx
 4823 2537 488D55BF 		leaq	-65(%rbp), %rdx
 4824 253b 488D75BE 		leaq	-66(%rbp), %rsi
 4825 253f 4889C7   		movq	%rax, %rdi
 4826 2542 E8000000 		call	_ZN8UnitTest10CheckEqualIccEEvRNS_11TestResultsERKT_RKT0_RKNS_11TestDetailsE
 4826      00
 4827              	.LEHE252:
 4828              	.L310:
 4829              	.LEHB253:
 121:testConv.cpp  **** 	CHECK_EQUAL('9', getHexUpperNibble(0x9F));
 4830              		.loc 3 121 0 is_stmt 1
 4831 2547 E8000000 		call	_ZN8UnitTest11CurrentTest7DetailsEv
 4831      00
 4832 254c 488B08   		movq	(%rax), %rcx
 4833 254f 488D45C0 		leaq	-64(%rbp), %rax
 4834 2553 BA790000 		movl	$121, %edx
 4834      00
 4835 2558 4889CE   		movq	%rcx, %rsi
 4836 255b 4889C7   		movq	%rax, %rdi
 4837 255e E8000000 		call	_ZN8UnitTest11TestDetailsC1ERKS0_i
 4837      00
 4838              		.loc 3 121 0 is_stmt 0 discriminator 2
 4839 2563 BF9F0000 		movl	$159, %edi
 4839      00
 4840 2568 E8000000 		call	getHexUpperNibble
 4840      00
 4841 256d 8845BF   		movb	%al, -65(%rbp)
 4842 2570 C645BE39 		movb	$57, -66(%rbp)
 4843 2574 E8000000 		call	_ZN8UnitTest11CurrentTest7ResultsEv
 4843      00
 4844              		.loc 3 121 0 discriminator 4
 4845 2579 488B00   		movq	(%rax), %rax
 4846 257c 488D4DC0 		leaq	-64(%rbp), %rcx
 4847 2580 488D55BF 		leaq	-65(%rbp), %rdx
 4848 2584 488D75BE 		leaq	-66(%rbp), %rsi
 4849 2588 4889C7   		movq	%rax, %rdi
 4850 258b E8000000 		call	_ZN8UnitTest10CheckEqualIccEEvRNS_11TestResultsERKT_RKT0_RKNS_11TestDetailsE
 4850      00
 4851              	.LEHE253:
 4852              	.L313:
 4853              	.LEHB254:
 122:testConv.cpp  **** 	CHECK_EQUAL('A', getHexUpperNibble(0xAF));
 4854              		.loc 3 122 0 is_stmt 1
 4855 2590 E8000000 		call	_ZN8UnitTest11CurrentTest7DetailsEv
 4855      00
 4856 2595 488B08   		movq	(%rax), %rcx
 4857 2598 488D45C0 		leaq	-64(%rbp), %rax
 4858 259c BA7A0000 		movl	$122, %edx
 4858      00
 4859 25a1 4889CE   		movq	%rcx, %rsi
 4860 25a4 4889C7   		movq	%rax, %rdi
 4861 25a7 E8000000 		call	_ZN8UnitTest11TestDetailsC1ERKS0_i
 4861      00
 4862              		.loc 3 122 0 is_stmt 0 discriminator 2
 4863 25ac BFAF0000 		movl	$175, %edi
 4863      00
 4864 25b1 E8000000 		call	getHexUpperNibble
 4864      00
 4865 25b6 8845BF   		movb	%al, -65(%rbp)
 4866 25b9 C645BE41 		movb	$65, -66(%rbp)
 4867 25bd E8000000 		call	_ZN8UnitTest11CurrentTest7ResultsEv
 4867      00
 4868              		.loc 3 122 0 discriminator 4
 4869 25c2 488B00   		movq	(%rax), %rax
 4870 25c5 488D4DC0 		leaq	-64(%rbp), %rcx
 4871 25c9 488D55BF 		leaq	-65(%rbp), %rdx
 4872 25cd 488D75BE 		leaq	-66(%rbp), %rsi
 4873 25d1 4889C7   		movq	%rax, %rdi
 4874 25d4 E8000000 		call	_ZN8UnitTest10CheckEqualIccEEvRNS_11TestResultsERKT_RKT0_RKNS_11TestDetailsE
 4874      00
 4875              	.LEHE254:
 4876              	.L316:
 4877              	.LEHB255:
 123:testConv.cpp  **** 	CHECK_EQUAL('B', getHexUpperNibble(0xBF));
 4878              		.loc 3 123 0 is_stmt 1
 4879 25d9 E8000000 		call	_ZN8UnitTest11CurrentTest7DetailsEv
 4879      00
 4880 25de 488B08   		movq	(%rax), %rcx
 4881 25e1 488D45C0 		leaq	-64(%rbp), %rax
 4882 25e5 BA7B0000 		movl	$123, %edx
 4882      00
 4883 25ea 4889CE   		movq	%rcx, %rsi
 4884 25ed 4889C7   		movq	%rax, %rdi
 4885 25f0 E8000000 		call	_ZN8UnitTest11TestDetailsC1ERKS0_i
 4885      00
 4886              		.loc 3 123 0 is_stmt 0 discriminator 2
 4887 25f5 BFBF0000 		movl	$191, %edi
 4887      00
 4888 25fa E8000000 		call	getHexUpperNibble
 4888      00
 4889 25ff 8845BF   		movb	%al, -65(%rbp)
 4890 2602 C645BE42 		movb	$66, -66(%rbp)
 4891 2606 E8000000 		call	_ZN8UnitTest11CurrentTest7ResultsEv
 4891      00
 4892              		.loc 3 123 0 discriminator 4
 4893 260b 488B00   		movq	(%rax), %rax
 4894 260e 488D4DC0 		leaq	-64(%rbp), %rcx
 4895 2612 488D55BF 		leaq	-65(%rbp), %rdx
 4896 2616 488D75BE 		leaq	-66(%rbp), %rsi
 4897 261a 4889C7   		movq	%rax, %rdi
 4898 261d E8000000 		call	_ZN8UnitTest10CheckEqualIccEEvRNS_11TestResultsERKT_RKT0_RKNS_11TestDetailsE
 4898      00
 4899              	.LEHE255:
 4900              	.L319:
 4901              	.LEHB256:
 124:testConv.cpp  **** 	CHECK_EQUAL('C', getHexUpperNibble(0xCF));
 4902              		.loc 3 124 0 is_stmt 1
 4903 2622 E8000000 		call	_ZN8UnitTest11CurrentTest7DetailsEv
 4903      00
 4904 2627 488B08   		movq	(%rax), %rcx
 4905 262a 488D45C0 		leaq	-64(%rbp), %rax
 4906 262e BA7C0000 		movl	$124, %edx
 4906      00
 4907 2633 4889CE   		movq	%rcx, %rsi
 4908 2636 4889C7   		movq	%rax, %rdi
 4909 2639 E8000000 		call	_ZN8UnitTest11TestDetailsC1ERKS0_i
 4909      00
 4910              		.loc 3 124 0 is_stmt 0 discriminator 2
 4911 263e BFCF0000 		movl	$207, %edi
 4911      00
 4912 2643 E8000000 		call	getHexUpperNibble
 4912      00
 4913 2648 8845BF   		movb	%al, -65(%rbp)
 4914 264b C645BE43 		movb	$67, -66(%rbp)
 4915 264f E8000000 		call	_ZN8UnitTest11CurrentTest7ResultsEv
 4915      00
 4916              		.loc 3 124 0 discriminator 4
 4917 2654 488B00   		movq	(%rax), %rax
 4918 2657 488D4DC0 		leaq	-64(%rbp), %rcx
 4919 265b 488D55BF 		leaq	-65(%rbp), %rdx
 4920 265f 488D75BE 		leaq	-66(%rbp), %rsi
 4921 2663 4889C7   		movq	%rax, %rdi
 4922 2666 E8000000 		call	_ZN8UnitTest10CheckEqualIccEEvRNS_11TestResultsERKT_RKT0_RKNS_11TestDetailsE
 4922      00
 4923              	.LEHE256:
 4924              	.L322:
 4925              	.LEHB257:
 125:testConv.cpp  **** 	CHECK_EQUAL('D', getHexUpperNibble(0xDF));
 4926              		.loc 3 125 0 is_stmt 1
 4927 266b E8000000 		call	_ZN8UnitTest11CurrentTest7DetailsEv
 4927      00
 4928 2670 488B08   		movq	(%rax), %rcx
 4929 2673 488D45C0 		leaq	-64(%rbp), %rax
 4930 2677 BA7D0000 		movl	$125, %edx
 4930      00
 4931 267c 4889CE   		movq	%rcx, %rsi
 4932 267f 4889C7   		movq	%rax, %rdi
 4933 2682 E8000000 		call	_ZN8UnitTest11TestDetailsC1ERKS0_i
 4933      00
 4934              		.loc 3 125 0 is_stmt 0 discriminator 2
 4935 2687 BFDF0000 		movl	$223, %edi
 4935      00
 4936 268c E8000000 		call	getHexUpperNibble
 4936      00
 4937 2691 8845BF   		movb	%al, -65(%rbp)
 4938 2694 C645BE44 		movb	$68, -66(%rbp)
 4939 2698 E8000000 		call	_ZN8UnitTest11CurrentTest7ResultsEv
 4939      00
 4940              		.loc 3 125 0 discriminator 4
 4941 269d 488B00   		movq	(%rax), %rax
 4942 26a0 488D4DC0 		leaq	-64(%rbp), %rcx
 4943 26a4 488D55BF 		leaq	-65(%rbp), %rdx
 4944 26a8 488D75BE 		leaq	-66(%rbp), %rsi
 4945 26ac 4889C7   		movq	%rax, %rdi
 4946 26af E8000000 		call	_ZN8UnitTest10CheckEqualIccEEvRNS_11TestResultsERKT_RKT0_RKNS_11TestDetailsE
 4946      00
 4947              	.LEHE257:
 4948              	.L325:
 4949              	.LEHB258:
 126:testConv.cpp  **** 	CHECK_EQUAL('E', getHexUpperNibble(0xEF));
 4950              		.loc 3 126 0 is_stmt 1
 4951 26b4 E8000000 		call	_ZN8UnitTest11CurrentTest7DetailsEv
 4951      00
 4952 26b9 488B08   		movq	(%rax), %rcx
 4953 26bc 488D45C0 		leaq	-64(%rbp), %rax
 4954 26c0 BA7E0000 		movl	$126, %edx
 4954      00
 4955 26c5 4889CE   		movq	%rcx, %rsi
 4956 26c8 4889C7   		movq	%rax, %rdi
 4957 26cb E8000000 		call	_ZN8UnitTest11TestDetailsC1ERKS0_i
 4957      00
 4958              		.loc 3 126 0 is_stmt 0 discriminator 2
 4959 26d0 BFEF0000 		movl	$239, %edi
 4959      00
 4960 26d5 E8000000 		call	getHexUpperNibble
 4960      00
 4961 26da 8845BF   		movb	%al, -65(%rbp)
 4962 26dd C645BE45 		movb	$69, -66(%rbp)
 4963 26e1 E8000000 		call	_ZN8UnitTest11CurrentTest7ResultsEv
 4963      00
 4964              		.loc 3 126 0 discriminator 4
 4965 26e6 488B00   		movq	(%rax), %rax
 4966 26e9 488D4DC0 		leaq	-64(%rbp), %rcx
 4967 26ed 488D55BF 		leaq	-65(%rbp), %rdx
 4968 26f1 488D75BE 		leaq	-66(%rbp), %rsi
 4969 26f5 4889C7   		movq	%rax, %rdi
 4970 26f8 E8000000 		call	_ZN8UnitTest10CheckEqualIccEEvRNS_11TestResultsERKT_RKT0_RKNS_11TestDetailsE
 4970      00
 4971              	.LEHE258:
 4972              	.L328:
 4973              	.LEHB259:
 127:testConv.cpp  **** 	CHECK_EQUAL('F', getHexUpperNibble(0xFF));
 4974              		.loc 3 127 0 is_stmt 1
 4975 26fd E8000000 		call	_ZN8UnitTest11CurrentTest7DetailsEv
 4975      00
 4976 2702 488B08   		movq	(%rax), %rcx
 4977 2705 488D45C0 		leaq	-64(%rbp), %rax
 4978 2709 BA7F0000 		movl	$127, %edx
 4978      00
 4979 270e 4889CE   		movq	%rcx, %rsi
 4980 2711 4889C7   		movq	%rax, %rdi
 4981 2714 E8000000 		call	_ZN8UnitTest11TestDetailsC1ERKS0_i
 4981      00
 4982              		.loc 3 127 0 is_stmt 0 discriminator 2
 4983 2719 BFFF0000 		movl	$255, %edi
 4983      00
 4984 271e E8000000 		call	getHexUpperNibble
 4984      00
 4985 2723 8845BF   		movb	%al, -65(%rbp)
 4986 2726 C645BE46 		movb	$70, -66(%rbp)
 4987 272a E8000000 		call	_ZN8UnitTest11CurrentTest7ResultsEv
 4987      00
 4988              		.loc 3 127 0 discriminator 4
 4989 272f 488B00   		movq	(%rax), %rax
 4990 2732 488D4DC0 		leaq	-64(%rbp), %rcx
 4991 2736 488D55BF 		leaq	-65(%rbp), %rdx
 4992 273a 488D75BE 		leaq	-66(%rbp), %rsi
 4993 273e 4889C7   		movq	%rax, %rdi
 4994 2741 E8000000 		call	_ZN8UnitTest10CheckEqualIccEEvRNS_11TestResultsERKT_RKT0_RKNS_11TestDetailsE
 4994      00
 4995              	.LEHE259:
 128:testConv.cpp  **** }
 4996              		.loc 3 128 0 is_stmt 1
 4997 2746 E9CB0500 		jmp	.L365
 4997      00
 4998              	.L334:
 4999 274b 4889C3   		movq	%rax, %rbx
 112:testConv.cpp  **** 	CHECK_EQUAL('1', getHexUpperNibble(0x1F));
 5000              		.loc 3 112 0
 5001 274e E8000000 		call	__cxa_end_catch
 5001      00
 5002 2753 4889D8   		movq	%rbx, %rax
 5003 2756 4889C7   		movq	%rax, %rdi
 5004              	.LEHB260:
 5005 2759 E8000000 		call	_Unwind_Resume
 5005      00
 5006              	.LEHE260:
 5007              	.L333:
 5008 275e 4889C7   		movq	%rax, %rdi
 5009 2761 E8000000 		call	__cxa_begin_catch
 5009      00
 5010              	.LEHB261:
 5011 2766 E8000000 		call	_ZN8UnitTest11CurrentTest7DetailsEv
 5011      00
 5012 276b 488B08   		movq	(%rax), %rcx
 5013 276e 488D45C0 		leaq	-64(%rbp), %rax
 5014 2772 BA700000 		movl	$112, %edx
 5014      00
 5015 2777 4889CE   		movq	%rcx, %rsi
 5016 277a 4889C7   		movq	%rax, %rdi
 5017 277d E8000000 		call	_ZN8UnitTest11TestDetailsC1ERKS0_i
 5017      00
 112:testConv.cpp  **** 	CHECK_EQUAL('1', getHexUpperNibble(0x1F));
 5018              		.loc 3 112 0 is_stmt 0 discriminator 12
 5019 2782 E8000000 		call	_ZN8UnitTest11CurrentTest7ResultsEv
 5019      00
 5020 2787 488B00   		movq	(%rax), %rax
 5021 278a 488D4DC0 		leaq	-64(%rbp), %rcx
 5022 278e BA000000 		movl	$.LC31, %edx
 5022      00
 5023 2793 4889CE   		movq	%rcx, %rsi
 5024 2796 4889C7   		movq	%rax, %rdi
 5025 2799 E8000000 		call	_ZN8UnitTest11TestResults13OnTestFailureERKNS_11TestDetailsEPKc
 5025      00
 5026              	.LEHE261:
 5027              	.LEHB262:
 112:testConv.cpp  **** 	CHECK_EQUAL('1', getHexUpperNibble(0x1F));
 5028              		.loc 3 112 0 discriminator 16
 5029 279e E8000000 		call	__cxa_end_catch
 5029      00
 5030              	.LEHE262:
 5031 27a3 E957FBFF 		jmp	.L286
 5031      FF
 5032              	.L336:
 5033 27a8 4889C3   		movq	%rax, %rbx
 113:testConv.cpp  **** 	CHECK_EQUAL('2', getHexUpperNibble(0x2F));
 5034              		.loc 3 113 0 is_stmt 1
 5035 27ab E8000000 		call	__cxa_end_catch
 5035      00
 5036 27b0 4889D8   		movq	%rbx, %rax
 5037 27b3 4889C7   		movq	%rax, %rdi
 5038              	.LEHB263:
 5039 27b6 E8000000 		call	_Unwind_Resume
 5039      00
 5040              	.LEHE263:
 5041              	.L335:
 5042 27bb 4889C7   		movq	%rax, %rdi
 5043 27be E8000000 		call	__cxa_begin_catch
 5043      00
 5044              	.LEHB264:
 5045 27c3 E8000000 		call	_ZN8UnitTest11CurrentTest7DetailsEv
 5045      00
 5046 27c8 488B08   		movq	(%rax), %rcx
 5047 27cb 488D45C0 		leaq	-64(%rbp), %rax
 5048 27cf BA710000 		movl	$113, %edx
 5048      00
 5049 27d4 4889CE   		movq	%rcx, %rsi
 5050 27d7 4889C7   		movq	%rax, %rdi
 5051 27da E8000000 		call	_ZN8UnitTest11TestDetailsC1ERKS0_i
 5051      00
 113:testConv.cpp  **** 	CHECK_EQUAL('2', getHexUpperNibble(0x2F));
 5052              		.loc 3 113 0 is_stmt 0 discriminator 12
 5053 27df E8000000 		call	_ZN8UnitTest11CurrentTest7ResultsEv
 5053      00
 5054 27e4 488B00   		movq	(%rax), %rax
 5055 27e7 488D4DC0 		leaq	-64(%rbp), %rcx
 5056 27eb BA000000 		movl	$.LC32, %edx
 5056      00
 5057 27f0 4889CE   		movq	%rcx, %rsi
 5058 27f3 4889C7   		movq	%rax, %rdi
 5059 27f6 E8000000 		call	_ZN8UnitTest11TestResults13OnTestFailureERKNS_11TestDetailsEPKc
 5059      00
 5060              	.LEHE264:
 5061              	.LEHB265:
 113:testConv.cpp  **** 	CHECK_EQUAL('2', getHexUpperNibble(0x2F));
 5062              		.loc 3 113 0 discriminator 16
 5063 27fb E8000000 		call	__cxa_end_catch
 5063      00
 5064              	.LEHE265:
 5065 2800 E943FBFF 		jmp	.L289
 5065      FF
 5066              	.L338:
 5067 2805 4889C3   		movq	%rax, %rbx
 114:testConv.cpp  **** 	CHECK_EQUAL('3', getHexUpperNibble(0x3F));
 5068              		.loc 3 114 0 is_stmt 1
 5069 2808 E8000000 		call	__cxa_end_catch
 5069      00
 5070 280d 4889D8   		movq	%rbx, %rax
 5071 2810 4889C7   		movq	%rax, %rdi
 5072              	.LEHB266:
 5073 2813 E8000000 		call	_Unwind_Resume
 5073      00
 5074              	.LEHE266:
 5075              	.L337:
 5076 2818 4889C7   		movq	%rax, %rdi
 5077 281b E8000000 		call	__cxa_begin_catch
 5077      00
 5078              	.LEHB267:
 5079 2820 E8000000 		call	_ZN8UnitTest11CurrentTest7DetailsEv
 5079      00
 5080 2825 488B08   		movq	(%rax), %rcx
 5081 2828 488D45C0 		leaq	-64(%rbp), %rax
 5082 282c BA720000 		movl	$114, %edx
 5082      00
 5083 2831 4889CE   		movq	%rcx, %rsi
 5084 2834 4889C7   		movq	%rax, %rdi
 5085 2837 E8000000 		call	_ZN8UnitTest11TestDetailsC1ERKS0_i
 5085      00
 114:testConv.cpp  **** 	CHECK_EQUAL('3', getHexUpperNibble(0x3F));
 5086              		.loc 3 114 0 is_stmt 0 discriminator 12
 5087 283c E8000000 		call	_ZN8UnitTest11CurrentTest7ResultsEv
 5087      00
 5088 2841 488B00   		movq	(%rax), %rax
 5089 2844 488D4DC0 		leaq	-64(%rbp), %rcx
 5090 2848 BA000000 		movl	$.LC33, %edx
 5090      00
 5091 284d 4889CE   		movq	%rcx, %rsi
 5092 2850 4889C7   		movq	%rax, %rdi
 5093 2853 E8000000 		call	_ZN8UnitTest11TestResults13OnTestFailureERKNS_11TestDetailsEPKc
 5093      00
 5094              	.LEHE267:
 5095              	.LEHB268:
 114:testConv.cpp  **** 	CHECK_EQUAL('3', getHexUpperNibble(0x3F));
 5096              		.loc 3 114 0 discriminator 16
 5097 2858 E8000000 		call	__cxa_end_catch
 5097      00
 5098              	.LEHE268:
 5099 285d E92FFBFF 		jmp	.L292
 5099      FF
 5100              	.L340:
 5101 2862 4889C3   		movq	%rax, %rbx
 115:testConv.cpp  **** 	CHECK_EQUAL('4', getHexUpperNibble(0x4F));
 5102              		.loc 3 115 0 is_stmt 1
 5103 2865 E8000000 		call	__cxa_end_catch
 5103      00
 5104 286a 4889D8   		movq	%rbx, %rax
 5105 286d 4889C7   		movq	%rax, %rdi
 5106              	.LEHB269:
 5107 2870 E8000000 		call	_Unwind_Resume
 5107      00
 5108              	.LEHE269:
 5109              	.L339:
 5110 2875 4889C7   		movq	%rax, %rdi
 5111 2878 E8000000 		call	__cxa_begin_catch
 5111      00
 5112              	.LEHB270:
 5113 287d E8000000 		call	_ZN8UnitTest11CurrentTest7DetailsEv
 5113      00
 5114 2882 488B08   		movq	(%rax), %rcx
 5115 2885 488D45C0 		leaq	-64(%rbp), %rax
 5116 2889 BA730000 		movl	$115, %edx
 5116      00
 5117 288e 4889CE   		movq	%rcx, %rsi
 5118 2891 4889C7   		movq	%rax, %rdi
 5119 2894 E8000000 		call	_ZN8UnitTest11TestDetailsC1ERKS0_i
 5119      00
 115:testConv.cpp  **** 	CHECK_EQUAL('4', getHexUpperNibble(0x4F));
 5120              		.loc 3 115 0 is_stmt 0 discriminator 12
 5121 2899 E8000000 		call	_ZN8UnitTest11CurrentTest7ResultsEv
 5121      00
 5122 289e 488B00   		movq	(%rax), %rax
 5123 28a1 488D4DC0 		leaq	-64(%rbp), %rcx
 5124 28a5 BA000000 		movl	$.LC34, %edx
 5124      00
 5125 28aa 4889CE   		movq	%rcx, %rsi
 5126 28ad 4889C7   		movq	%rax, %rdi
 5127 28b0 E8000000 		call	_ZN8UnitTest11TestResults13OnTestFailureERKNS_11TestDetailsEPKc
 5127      00
 5128              	.LEHE270:
 5129              	.LEHB271:
 115:testConv.cpp  **** 	CHECK_EQUAL('4', getHexUpperNibble(0x4F));
 5130              		.loc 3 115 0 discriminator 16
 5131 28b5 E8000000 		call	__cxa_end_catch
 5131      00
 5132              	.LEHE271:
 5133 28ba E91BFBFF 		jmp	.L295
 5133      FF
 5134              	.L342:
 5135 28bf 4889C3   		movq	%rax, %rbx
 116:testConv.cpp  **** 	CHECK_EQUAL('5', getHexUpperNibble(0x5F));
 5136              		.loc 3 116 0 is_stmt 1
 5137 28c2 E8000000 		call	__cxa_end_catch
 5137      00
 5138 28c7 4889D8   		movq	%rbx, %rax
 5139 28ca 4889C7   		movq	%rax, %rdi
 5140              	.LEHB272:
 5141 28cd E8000000 		call	_Unwind_Resume
 5141      00
 5142              	.LEHE272:
 5143              	.L341:
 5144 28d2 4889C7   		movq	%rax, %rdi
 5145 28d5 E8000000 		call	__cxa_begin_catch
 5145      00
 5146              	.LEHB273:
 5147 28da E8000000 		call	_ZN8UnitTest11CurrentTest7DetailsEv
 5147      00
 5148 28df 488B08   		movq	(%rax), %rcx
 5149 28e2 488D45C0 		leaq	-64(%rbp), %rax
 5150 28e6 BA740000 		movl	$116, %edx
 5150      00
 5151 28eb 4889CE   		movq	%rcx, %rsi
 5152 28ee 4889C7   		movq	%rax, %rdi
 5153 28f1 E8000000 		call	_ZN8UnitTest11TestDetailsC1ERKS0_i
 5153      00
 116:testConv.cpp  **** 	CHECK_EQUAL('5', getHexUpperNibble(0x5F));
 5154              		.loc 3 116 0 is_stmt 0 discriminator 12
 5155 28f6 E8000000 		call	_ZN8UnitTest11CurrentTest7ResultsEv
 5155      00
 5156 28fb 488B00   		movq	(%rax), %rax
 5157 28fe 488D4DC0 		leaq	-64(%rbp), %rcx
 5158 2902 BA000000 		movl	$.LC35, %edx
 5158      00
 5159 2907 4889CE   		movq	%rcx, %rsi
 5160 290a 4889C7   		movq	%rax, %rdi
 5161 290d E8000000 		call	_ZN8UnitTest11TestResults13OnTestFailureERKNS_11TestDetailsEPKc
 5161      00
 5162              	.LEHE273:
 5163              	.LEHB274:
 116:testConv.cpp  **** 	CHECK_EQUAL('5', getHexUpperNibble(0x5F));
 5164              		.loc 3 116 0 discriminator 16
 5165 2912 E8000000 		call	__cxa_end_catch
 5165      00
 5166              	.LEHE274:
 5167 2917 E907FBFF 		jmp	.L298
 5167      FF
 5168              	.L344:
 5169 291c 4889C3   		movq	%rax, %rbx
 117:testConv.cpp  **** 	CHECK_EQUAL('6', getHexUpperNibble(0x6F));
 5170              		.loc 3 117 0 is_stmt 1
 5171 291f E8000000 		call	__cxa_end_catch
 5171      00
 5172 2924 4889D8   		movq	%rbx, %rax
 5173 2927 4889C7   		movq	%rax, %rdi
 5174              	.LEHB275:
 5175 292a E8000000 		call	_Unwind_Resume
 5175      00
 5176              	.LEHE275:
 5177              	.L343:
 5178 292f 4889C7   		movq	%rax, %rdi
 5179 2932 E8000000 		call	__cxa_begin_catch
 5179      00
 5180              	.LEHB276:
 5181 2937 E8000000 		call	_ZN8UnitTest11CurrentTest7DetailsEv
 5181      00
 5182 293c 488B08   		movq	(%rax), %rcx
 5183 293f 488D45C0 		leaq	-64(%rbp), %rax
 5184 2943 BA750000 		movl	$117, %edx
 5184      00
 5185 2948 4889CE   		movq	%rcx, %rsi
 5186 294b 4889C7   		movq	%rax, %rdi
 5187 294e E8000000 		call	_ZN8UnitTest11TestDetailsC1ERKS0_i
 5187      00
 117:testConv.cpp  **** 	CHECK_EQUAL('6', getHexUpperNibble(0x6F));
 5188              		.loc 3 117 0 is_stmt 0 discriminator 12
 5189 2953 E8000000 		call	_ZN8UnitTest11CurrentTest7ResultsEv
 5189      00
 5190 2958 488B00   		movq	(%rax), %rax
 5191 295b 488D4DC0 		leaq	-64(%rbp), %rcx
 5192 295f BA000000 		movl	$.LC36, %edx
 5192      00
 5193 2964 4889CE   		movq	%rcx, %rsi
 5194 2967 4889C7   		movq	%rax, %rdi
 5195 296a E8000000 		call	_ZN8UnitTest11TestResults13OnTestFailureERKNS_11TestDetailsEPKc
 5195      00
 5196              	.LEHE276:
 5197              	.LEHB277:
 117:testConv.cpp  **** 	CHECK_EQUAL('6', getHexUpperNibble(0x6F));
 5198              		.loc 3 117 0 discriminator 16
 5199 296f E8000000 		call	__cxa_end_catch
 5199      00
 5200              	.LEHE277:
 5201 2974 E9F3FAFF 		jmp	.L301
 5201      FF
 5202              	.L346:
 5203 2979 4889C3   		movq	%rax, %rbx
 118:testConv.cpp  **** 	CHECK_EQUAL('7', getHexUpperNibble(0x7F));
 5204              		.loc 3 118 0 is_stmt 1
 5205 297c E8000000 		call	__cxa_end_catch
 5205      00
 5206 2981 4889D8   		movq	%rbx, %rax
 5207 2984 4889C7   		movq	%rax, %rdi
 5208              	.LEHB278:
 5209 2987 E8000000 		call	_Unwind_Resume
 5209      00
 5210              	.LEHE278:
 5211              	.L345:
 5212 298c 4889C7   		movq	%rax, %rdi
 5213 298f E8000000 		call	__cxa_begin_catch
 5213      00
 5214              	.LEHB279:
 5215 2994 E8000000 		call	_ZN8UnitTest11CurrentTest7DetailsEv
 5215      00
 5216 2999 488B08   		movq	(%rax), %rcx
 5217 299c 488D45C0 		leaq	-64(%rbp), %rax
 5218 29a0 BA760000 		movl	$118, %edx
 5218      00
 5219 29a5 4889CE   		movq	%rcx, %rsi
 5220 29a8 4889C7   		movq	%rax, %rdi
 5221 29ab E8000000 		call	_ZN8UnitTest11TestDetailsC1ERKS0_i
 5221      00
 118:testConv.cpp  **** 	CHECK_EQUAL('7', getHexUpperNibble(0x7F));
 5222              		.loc 3 118 0 is_stmt 0 discriminator 12
 5223 29b0 E8000000 		call	_ZN8UnitTest11CurrentTest7ResultsEv
 5223      00
 5224 29b5 488B00   		movq	(%rax), %rax
 5225 29b8 488D4DC0 		leaq	-64(%rbp), %rcx
 5226 29bc BA000000 		movl	$.LC37, %edx
 5226      00
 5227 29c1 4889CE   		movq	%rcx, %rsi
 5228 29c4 4889C7   		movq	%rax, %rdi
 5229 29c7 E8000000 		call	_ZN8UnitTest11TestResults13OnTestFailureERKNS_11TestDetailsEPKc
 5229      00
 5230              	.LEHE279:
 5231              	.LEHB280:
 118:testConv.cpp  **** 	CHECK_EQUAL('7', getHexUpperNibble(0x7F));
 5232              		.loc 3 118 0 discriminator 16
 5233 29cc E8000000 		call	__cxa_end_catch
 5233      00
 5234              	.LEHE280:
 5235 29d1 E9DFFAFF 		jmp	.L304
 5235      FF
 5236              	.L348:
 5237 29d6 4889C3   		movq	%rax, %rbx
 119:testConv.cpp  **** 	CHECK_EQUAL('8', getHexUpperNibble(0x8F));
 5238              		.loc 3 119 0 is_stmt 1
 5239 29d9 E8000000 		call	__cxa_end_catch
 5239      00
 5240 29de 4889D8   		movq	%rbx, %rax
 5241 29e1 4889C7   		movq	%rax, %rdi
 5242              	.LEHB281:
 5243 29e4 E8000000 		call	_Unwind_Resume
 5243      00
 5244              	.LEHE281:
 5245              	.L347:
 5246 29e9 4889C7   		movq	%rax, %rdi
 5247 29ec E8000000 		call	__cxa_begin_catch
 5247      00
 5248              	.LEHB282:
 5249 29f1 E8000000 		call	_ZN8UnitTest11CurrentTest7DetailsEv
 5249      00
 5250 29f6 488B08   		movq	(%rax), %rcx
 5251 29f9 488D45C0 		leaq	-64(%rbp), %rax
 5252 29fd BA770000 		movl	$119, %edx
 5252      00
 5253 2a02 4889CE   		movq	%rcx, %rsi
 5254 2a05 4889C7   		movq	%rax, %rdi
 5255 2a08 E8000000 		call	_ZN8UnitTest11TestDetailsC1ERKS0_i
 5255      00
 119:testConv.cpp  **** 	CHECK_EQUAL('8', getHexUpperNibble(0x8F));
 5256              		.loc 3 119 0 is_stmt 0 discriminator 12
 5257 2a0d E8000000 		call	_ZN8UnitTest11CurrentTest7ResultsEv
 5257      00
 5258 2a12 488B00   		movq	(%rax), %rax
 5259 2a15 488D4DC0 		leaq	-64(%rbp), %rcx
 5260 2a19 BA000000 		movl	$.LC38, %edx
 5260      00
 5261 2a1e 4889CE   		movq	%rcx, %rsi
 5262 2a21 4889C7   		movq	%rax, %rdi
 5263 2a24 E8000000 		call	_ZN8UnitTest11TestResults13OnTestFailureERKNS_11TestDetailsEPKc
 5263      00
 5264              	.LEHE282:
 5265              	.LEHB283:
 119:testConv.cpp  **** 	CHECK_EQUAL('8', getHexUpperNibble(0x8F));
 5266              		.loc 3 119 0 discriminator 16
 5267 2a29 E8000000 		call	__cxa_end_catch
 5267      00
 5268              	.LEHE283:
 5269 2a2e E9CBFAFF 		jmp	.L307
 5269      FF
 5270              	.L350:
 5271 2a33 4889C3   		movq	%rax, %rbx
 120:testConv.cpp  **** 	CHECK_EQUAL('9', getHexUpperNibble(0x9F));
 5272              		.loc 3 120 0 is_stmt 1
 5273 2a36 E8000000 		call	__cxa_end_catch
 5273      00
 5274 2a3b 4889D8   		movq	%rbx, %rax
 5275 2a3e 4889C7   		movq	%rax, %rdi
 5276              	.LEHB284:
 5277 2a41 E8000000 		call	_Unwind_Resume
 5277      00
 5278              	.LEHE284:
 5279              	.L349:
 5280 2a46 4889C7   		movq	%rax, %rdi
 5281 2a49 E8000000 		call	__cxa_begin_catch
 5281      00
 5282              	.LEHB285:
 5283 2a4e E8000000 		call	_ZN8UnitTest11CurrentTest7DetailsEv
 5283      00
 5284 2a53 488B08   		movq	(%rax), %rcx
 5285 2a56 488D45C0 		leaq	-64(%rbp), %rax
 5286 2a5a BA780000 		movl	$120, %edx
 5286      00
 5287 2a5f 4889CE   		movq	%rcx, %rsi
 5288 2a62 4889C7   		movq	%rax, %rdi
 5289 2a65 E8000000 		call	_ZN8UnitTest11TestDetailsC1ERKS0_i
 5289      00
 120:testConv.cpp  **** 	CHECK_EQUAL('9', getHexUpperNibble(0x9F));
 5290              		.loc 3 120 0 is_stmt 0 discriminator 12
 5291 2a6a E8000000 		call	_ZN8UnitTest11CurrentTest7ResultsEv
 5291      00
 5292 2a6f 488B00   		movq	(%rax), %rax
 5293 2a72 488D4DC0 		leaq	-64(%rbp), %rcx
 5294 2a76 BA000000 		movl	$.LC39, %edx
 5294      00
 5295 2a7b 4889CE   		movq	%rcx, %rsi
 5296 2a7e 4889C7   		movq	%rax, %rdi
 5297 2a81 E8000000 		call	_ZN8UnitTest11TestResults13OnTestFailureERKNS_11TestDetailsEPKc
 5297      00
 5298              	.LEHE285:
 5299              	.LEHB286:
 120:testConv.cpp  **** 	CHECK_EQUAL('9', getHexUpperNibble(0x9F));
 5300              		.loc 3 120 0 discriminator 16
 5301 2a86 E8000000 		call	__cxa_end_catch
 5301      00
 5302              	.LEHE286:
 5303 2a8b E9B7FAFF 		jmp	.L310
 5303      FF
 5304              	.L352:
 5305 2a90 4889C3   		movq	%rax, %rbx
 121:testConv.cpp  **** 	CHECK_EQUAL('A', getHexUpperNibble(0xAF));
 5306              		.loc 3 121 0 is_stmt 1
 5307 2a93 E8000000 		call	__cxa_end_catch
 5307      00
 5308 2a98 4889D8   		movq	%rbx, %rax
 5309 2a9b 4889C7   		movq	%rax, %rdi
 5310              	.LEHB287:
 5311 2a9e E8000000 		call	_Unwind_Resume
 5311      00
 5312              	.LEHE287:
 5313              	.L351:
 5314 2aa3 4889C7   		movq	%rax, %rdi
 5315 2aa6 E8000000 		call	__cxa_begin_catch
 5315      00
 5316              	.LEHB288:
 5317 2aab E8000000 		call	_ZN8UnitTest11CurrentTest7DetailsEv
 5317      00
 5318 2ab0 488B08   		movq	(%rax), %rcx
 5319 2ab3 488D45C0 		leaq	-64(%rbp), %rax
 5320 2ab7 BA790000 		movl	$121, %edx
 5320      00
 5321 2abc 4889CE   		movq	%rcx, %rsi
 5322 2abf 4889C7   		movq	%rax, %rdi
 5323 2ac2 E8000000 		call	_ZN8UnitTest11TestDetailsC1ERKS0_i
 5323      00
 121:testConv.cpp  **** 	CHECK_EQUAL('A', getHexUpperNibble(0xAF));
 5324              		.loc 3 121 0 is_stmt 0 discriminator 12
 5325 2ac7 E8000000 		call	_ZN8UnitTest11CurrentTest7ResultsEv
 5325      00
 5326 2acc 488B00   		movq	(%rax), %rax
 5327 2acf 488D4DC0 		leaq	-64(%rbp), %rcx
 5328 2ad3 BA000000 		movl	$.LC40, %edx
 5328      00
 5329 2ad8 4889CE   		movq	%rcx, %rsi
 5330 2adb 4889C7   		movq	%rax, %rdi
 5331 2ade E8000000 		call	_ZN8UnitTest11TestResults13OnTestFailureERKNS_11TestDetailsEPKc
 5331      00
 5332              	.LEHE288:
 5333              	.LEHB289:
 121:testConv.cpp  **** 	CHECK_EQUAL('A', getHexUpperNibble(0xAF));
 5334              		.loc 3 121 0 discriminator 16
 5335 2ae3 E8000000 		call	__cxa_end_catch
 5335      00
 5336              	.LEHE289:
 5337 2ae8 E9A3FAFF 		jmp	.L313
 5337      FF
 5338              	.L354:
 5339 2aed 4889C3   		movq	%rax, %rbx
 122:testConv.cpp  **** 	CHECK_EQUAL('B', getHexUpperNibble(0xBF));
 5340              		.loc 3 122 0 is_stmt 1
 5341 2af0 E8000000 		call	__cxa_end_catch
 5341      00
 5342 2af5 4889D8   		movq	%rbx, %rax
 5343 2af8 4889C7   		movq	%rax, %rdi
 5344              	.LEHB290:
 5345 2afb E8000000 		call	_Unwind_Resume
 5345      00
 5346              	.LEHE290:
 5347              	.L353:
 5348 2b00 4889C7   		movq	%rax, %rdi
 5349 2b03 E8000000 		call	__cxa_begin_catch
 5349      00
 5350              	.LEHB291:
 5351 2b08 E8000000 		call	_ZN8UnitTest11CurrentTest7DetailsEv
 5351      00
 5352 2b0d 488B08   		movq	(%rax), %rcx
 5353 2b10 488D45C0 		leaq	-64(%rbp), %rax
 5354 2b14 BA7A0000 		movl	$122, %edx
 5354      00
 5355 2b19 4889CE   		movq	%rcx, %rsi
 5356 2b1c 4889C7   		movq	%rax, %rdi
 5357 2b1f E8000000 		call	_ZN8UnitTest11TestDetailsC1ERKS0_i
 5357      00
 122:testConv.cpp  **** 	CHECK_EQUAL('B', getHexUpperNibble(0xBF));
 5358              		.loc 3 122 0 is_stmt 0 discriminator 12
 5359 2b24 E8000000 		call	_ZN8UnitTest11CurrentTest7ResultsEv
 5359      00
 5360 2b29 488B00   		movq	(%rax), %rax
 5361 2b2c 488D4DC0 		leaq	-64(%rbp), %rcx
 5362 2b30 BA000000 		movl	$.LC41, %edx
 5362      00
 5363 2b35 4889CE   		movq	%rcx, %rsi
 5364 2b38 4889C7   		movq	%rax, %rdi
 5365 2b3b E8000000 		call	_ZN8UnitTest11TestResults13OnTestFailureERKNS_11TestDetailsEPKc
 5365      00
 5366              	.LEHE291:
 5367              	.LEHB292:
 122:testConv.cpp  **** 	CHECK_EQUAL('B', getHexUpperNibble(0xBF));
 5368              		.loc 3 122 0 discriminator 16
 5369 2b40 E8000000 		call	__cxa_end_catch
 5369      00
 5370              	.LEHE292:
 5371 2b45 E98FFAFF 		jmp	.L316
 5371      FF
 5372              	.L356:
 5373 2b4a 4889C3   		movq	%rax, %rbx
 123:testConv.cpp  **** 	CHECK_EQUAL('C', getHexUpperNibble(0xCF));
 5374              		.loc 3 123 0 is_stmt 1
 5375 2b4d E8000000 		call	__cxa_end_catch
 5375      00
 5376 2b52 4889D8   		movq	%rbx, %rax
 5377 2b55 4889C7   		movq	%rax, %rdi
 5378              	.LEHB293:
 5379 2b58 E8000000 		call	_Unwind_Resume
 5379      00
 5380              	.LEHE293:
 5381              	.L355:
 5382 2b5d 4889C7   		movq	%rax, %rdi
 5383 2b60 E8000000 		call	__cxa_begin_catch
 5383      00
 5384              	.LEHB294:
 5385 2b65 E8000000 		call	_ZN8UnitTest11CurrentTest7DetailsEv
 5385      00
 5386 2b6a 488B08   		movq	(%rax), %rcx
 5387 2b6d 488D45C0 		leaq	-64(%rbp), %rax
 5388 2b71 BA7B0000 		movl	$123, %edx
 5388      00
 5389 2b76 4889CE   		movq	%rcx, %rsi
 5390 2b79 4889C7   		movq	%rax, %rdi
 5391 2b7c E8000000 		call	_ZN8UnitTest11TestDetailsC1ERKS0_i
 5391      00
 123:testConv.cpp  **** 	CHECK_EQUAL('C', getHexUpperNibble(0xCF));
 5392              		.loc 3 123 0 is_stmt 0 discriminator 12
 5393 2b81 E8000000 		call	_ZN8UnitTest11CurrentTest7ResultsEv
 5393      00
 5394 2b86 488B00   		movq	(%rax), %rax
 5395 2b89 488D4DC0 		leaq	-64(%rbp), %rcx
 5396 2b8d BA000000 		movl	$.LC42, %edx
 5396      00
 5397 2b92 4889CE   		movq	%rcx, %rsi
 5398 2b95 4889C7   		movq	%rax, %rdi
 5399 2b98 E8000000 		call	_ZN8UnitTest11TestResults13OnTestFailureERKNS_11TestDetailsEPKc
 5399      00
 5400              	.LEHE294:
 5401              	.LEHB295:
 123:testConv.cpp  **** 	CHECK_EQUAL('C', getHexUpperNibble(0xCF));
 5402              		.loc 3 123 0 discriminator 16
 5403 2b9d E8000000 		call	__cxa_end_catch
 5403      00
 5404              	.LEHE295:
 5405 2ba2 E97BFAFF 		jmp	.L319
 5405      FF
 5406              	.L358:
 5407 2ba7 4889C3   		movq	%rax, %rbx
 124:testConv.cpp  **** 	CHECK_EQUAL('D', getHexUpperNibble(0xDF));
 5408              		.loc 3 124 0 is_stmt 1
 5409 2baa E8000000 		call	__cxa_end_catch
 5409      00
 5410 2baf 4889D8   		movq	%rbx, %rax
 5411 2bb2 4889C7   		movq	%rax, %rdi
 5412              	.LEHB296:
 5413 2bb5 E8000000 		call	_Unwind_Resume
 5413      00
 5414              	.LEHE296:
 5415              	.L357:
 5416 2bba 4889C7   		movq	%rax, %rdi
 5417 2bbd E8000000 		call	__cxa_begin_catch
 5417      00
 5418              	.LEHB297:
 5419 2bc2 E8000000 		call	_ZN8UnitTest11CurrentTest7DetailsEv
 5419      00
 5420 2bc7 488B08   		movq	(%rax), %rcx
 5421 2bca 488D45C0 		leaq	-64(%rbp), %rax
 5422 2bce BA7C0000 		movl	$124, %edx
 5422      00
 5423 2bd3 4889CE   		movq	%rcx, %rsi
 5424 2bd6 4889C7   		movq	%rax, %rdi
 5425 2bd9 E8000000 		call	_ZN8UnitTest11TestDetailsC1ERKS0_i
 5425      00
 124:testConv.cpp  **** 	CHECK_EQUAL('D', getHexUpperNibble(0xDF));
 5426              		.loc 3 124 0 is_stmt 0 discriminator 12
 5427 2bde E8000000 		call	_ZN8UnitTest11CurrentTest7ResultsEv
 5427      00
 5428 2be3 488B00   		movq	(%rax), %rax
 5429 2be6 488D4DC0 		leaq	-64(%rbp), %rcx
 5430 2bea BA000000 		movl	$.LC43, %edx
 5430      00
 5431 2bef 4889CE   		movq	%rcx, %rsi
 5432 2bf2 4889C7   		movq	%rax, %rdi
 5433 2bf5 E8000000 		call	_ZN8UnitTest11TestResults13OnTestFailureERKNS_11TestDetailsEPKc
 5433      00
 5434              	.LEHE297:
 5435              	.LEHB298:
 124:testConv.cpp  **** 	CHECK_EQUAL('D', getHexUpperNibble(0xDF));
 5436              		.loc 3 124 0 discriminator 16
 5437 2bfa E8000000 		call	__cxa_end_catch
 5437      00
 5438              	.LEHE298:
 5439 2bff E967FAFF 		jmp	.L322
 5439      FF
 5440              	.L360:
 5441 2c04 4889C3   		movq	%rax, %rbx
 125:testConv.cpp  **** 	CHECK_EQUAL('E', getHexUpperNibble(0xEF));
 5442              		.loc 3 125 0 is_stmt 1
 5443 2c07 E8000000 		call	__cxa_end_catch
 5443      00
 5444 2c0c 4889D8   		movq	%rbx, %rax
 5445 2c0f 4889C7   		movq	%rax, %rdi
 5446              	.LEHB299:
 5447 2c12 E8000000 		call	_Unwind_Resume
 5447      00
 5448              	.LEHE299:
 5449              	.L359:
 5450 2c17 4889C7   		movq	%rax, %rdi
 5451 2c1a E8000000 		call	__cxa_begin_catch
 5451      00
 5452              	.LEHB300:
 5453 2c1f E8000000 		call	_ZN8UnitTest11CurrentTest7DetailsEv
 5453      00
 5454 2c24 488B08   		movq	(%rax), %rcx
 5455 2c27 488D45C0 		leaq	-64(%rbp), %rax
 5456 2c2b BA7D0000 		movl	$125, %edx
 5456      00
 5457 2c30 4889CE   		movq	%rcx, %rsi
 5458 2c33 4889C7   		movq	%rax, %rdi
 5459 2c36 E8000000 		call	_ZN8UnitTest11TestDetailsC1ERKS0_i
 5459      00
 125:testConv.cpp  **** 	CHECK_EQUAL('E', getHexUpperNibble(0xEF));
 5460              		.loc 3 125 0 is_stmt 0 discriminator 12
 5461 2c3b E8000000 		call	_ZN8UnitTest11CurrentTest7ResultsEv
 5461      00
 5462 2c40 488B00   		movq	(%rax), %rax
 5463 2c43 488D4DC0 		leaq	-64(%rbp), %rcx
 5464 2c47 BA000000 		movl	$.LC44, %edx
 5464      00
 5465 2c4c 4889CE   		movq	%rcx, %rsi
 5466 2c4f 4889C7   		movq	%rax, %rdi
 5467 2c52 E8000000 		call	_ZN8UnitTest11TestResults13OnTestFailureERKNS_11TestDetailsEPKc
 5467      00
 5468              	.LEHE300:
 5469              	.LEHB301:
 125:testConv.cpp  **** 	CHECK_EQUAL('E', getHexUpperNibble(0xEF));
 5470              		.loc 3 125 0 discriminator 16
 5471 2c57 E8000000 		call	__cxa_end_catch
 5471      00
 5472              	.LEHE301:
 5473 2c5c E953FAFF 		jmp	.L325
 5473      FF
 5474              	.L362:
 5475 2c61 4889C3   		movq	%rax, %rbx
 126:testConv.cpp  **** 	CHECK_EQUAL('F', getHexUpperNibble(0xFF));
 5476              		.loc 3 126 0 is_stmt 1
 5477 2c64 E8000000 		call	__cxa_end_catch
 5477      00
 5478 2c69 4889D8   		movq	%rbx, %rax
 5479 2c6c 4889C7   		movq	%rax, %rdi
 5480              	.LEHB302:
 5481 2c6f E8000000 		call	_Unwind_Resume
 5481      00
 5482              	.LEHE302:
 5483              	.L361:
 5484 2c74 4889C7   		movq	%rax, %rdi
 5485 2c77 E8000000 		call	__cxa_begin_catch
 5485      00
 5486              	.LEHB303:
 5487 2c7c E8000000 		call	_ZN8UnitTest11CurrentTest7DetailsEv
 5487      00
 5488 2c81 488B08   		movq	(%rax), %rcx
 5489 2c84 488D45C0 		leaq	-64(%rbp), %rax
 5490 2c88 BA7E0000 		movl	$126, %edx
 5490      00
 5491 2c8d 4889CE   		movq	%rcx, %rsi
 5492 2c90 4889C7   		movq	%rax, %rdi
 5493 2c93 E8000000 		call	_ZN8UnitTest11TestDetailsC1ERKS0_i
 5493      00
 126:testConv.cpp  **** 	CHECK_EQUAL('F', getHexUpperNibble(0xFF));
 5494              		.loc 3 126 0 is_stmt 0 discriminator 12
 5495 2c98 E8000000 		call	_ZN8UnitTest11CurrentTest7ResultsEv
 5495      00
 5496 2c9d 488B00   		movq	(%rax), %rax
 5497 2ca0 488D4DC0 		leaq	-64(%rbp), %rcx
 5498 2ca4 BA000000 		movl	$.LC45, %edx
 5498      00
 5499 2ca9 4889CE   		movq	%rcx, %rsi
 5500 2cac 4889C7   		movq	%rax, %rdi
 5501 2caf E8000000 		call	_ZN8UnitTest11TestResults13OnTestFailureERKNS_11TestDetailsEPKc
 5501      00
 5502              	.LEHE303:
 5503              	.LEHB304:
 126:testConv.cpp  **** 	CHECK_EQUAL('F', getHexUpperNibble(0xFF));
 5504              		.loc 3 126 0 discriminator 16
 5505 2cb4 E8000000 		call	__cxa_end_catch
 5505      00
 5506              	.LEHE304:
 5507 2cb9 E93FFAFF 		jmp	.L328
 5507      FF
 5508              	.L364:
 5509 2cbe 4889C3   		movq	%rax, %rbx
 127:testConv.cpp  **** }
 5510              		.loc 3 127 0 is_stmt 1
 5511 2cc1 E8000000 		call	__cxa_end_catch
 5511      00
 5512 2cc6 4889D8   		movq	%rbx, %rax
 5513 2cc9 4889C7   		movq	%rax, %rdi
 5514              	.LEHB305:
 5515 2ccc E8000000 		call	_Unwind_Resume
 5515      00
 5516              	.LEHE305:
 5517              	.L363:
 5518 2cd1 4889C7   		movq	%rax, %rdi
 5519 2cd4 E8000000 		call	__cxa_begin_catch
 5519      00
 5520              	.LEHB306:
 5521 2cd9 E8000000 		call	_ZN8UnitTest11CurrentTest7DetailsEv
 5521      00
 5522 2cde 488B08   		movq	(%rax), %rcx
 5523 2ce1 488D45C0 		leaq	-64(%rbp), %rax
 5524 2ce5 BA7F0000 		movl	$127, %edx
 5524      00
 5525 2cea 4889CE   		movq	%rcx, %rsi
 5526 2ced 4889C7   		movq	%rax, %rdi
 5527 2cf0 E8000000 		call	_ZN8UnitTest11TestDetailsC1ERKS0_i
 5527      00
 127:testConv.cpp  **** }
 5528              		.loc 3 127 0 is_stmt 0 discriminator 12
 5529 2cf5 E8000000 		call	_ZN8UnitTest11CurrentTest7ResultsEv
 5529      00
 5530 2cfa 488B00   		movq	(%rax), %rax
 5531 2cfd 488D4DC0 		leaq	-64(%rbp), %rcx
 5532 2d01 BA000000 		movl	$.LC46, %edx
 5532      00
 5533 2d06 4889CE   		movq	%rcx, %rsi
 5534 2d09 4889C7   		movq	%rax, %rdi
 5535 2d0c E8000000 		call	_ZN8UnitTest11TestResults13OnTestFailureERKNS_11TestDetailsEPKc
 5535      00
 5536              	.LEHE306:
 5537              	.LEHB307:
 127:testConv.cpp  **** }
 5538              		.loc 3 127 0 discriminator 16
 5539 2d11 E8000000 		call	__cxa_end_catch
 5539      00
 5540              	.LEHE307:
 5541              	.L365:
 5542              		.loc 3 128 0 is_stmt 1
 5543 2d16 90       		nop
 5544 2d17 488B45E8 		movq	-24(%rbp), %rax
 5545 2d1b 64483304 		xorq	%fs:40, %rax
 5545      25280000 
 5545      00
 5546 2d24 7405     		je	.L332
 5547 2d26 E8000000 		call	__stack_chk_fail
 5547      00
 5548              	.L332:
 5549 2d2b 4883C458 		addq	$88, %rsp
 5550 2d2f 5B       		popq	%rbx
 5551 2d30 5D       		popq	%rbp
 5552              		.cfi_def_cfa 7, 8
 5553 2d31 C3       		ret
 5554              		.cfi_endproc
 5555              	.LFE1080:
 5556              		.section	.gcc_except_table
 5557              		.align 4
 5558              	.LLSDA1080:
 5559 0530 FF       		.byte	0xff
 5560 0531 03       		.byte	0x3
 5561 0532 E802     		.uleb128 .LLSDATT1080-.LLSDATTD1080
 5562              	.LLSDATTD1080:
 5563 0534 01       		.byte	0x1
 5564 0535 DE02     		.uleb128 .LLSDACSE1080-.LLSDACSB1080
 5565              	.LLSDACSB1080:
 5566 0537 1C       		.uleb128 .LEHB244-.LFB1080
 5567 0538 49       		.uleb128 .LEHE244-.LEHB244
 5568 0539 C409     		.uleb128 .L333-.LFB1080
 5569 053b 01       		.uleb128 0x1
 5570 053c 65       		.uleb128 .LEHB245-.LFB1080
 5571 053d 49       		.uleb128 .LEHE245-.LEHB245
 5572 053e A10A     		.uleb128 .L335-.LFB1080
 5573 0540 01       		.uleb128 0x1
 5574 0541 AE01     		.uleb128 .LEHB246-.LFB1080
 5575 0543 49       		.uleb128 .LEHE246-.LEHB246
 5576 0544 FE0A     		.uleb128 .L337-.LFB1080
 5577 0546 01       		.uleb128 0x1
 5578 0547 F701     		.uleb128 .LEHB247-.LFB1080
 5579 0549 49       		.uleb128 .LEHE247-.LEHB247
 5580 054a DB0B     		.uleb128 .L339-.LFB1080
 5581 054c 01       		.uleb128 0x1
 5582 054d C002     		.uleb128 .LEHB248-.LFB1080
 5583 054f 49       		.uleb128 .LEHE248-.LEHB248
 5584 0550 B80C     		.uleb128 .L341-.LFB1080
 5585 0552 01       		.uleb128 0x1
 5586 0553 8903     		.uleb128 .LEHB249-.LFB1080
 5587 0555 49       		.uleb128 .LEHE249-.LEHB249
 5588 0556 950D     		.uleb128 .L343-.LFB1080
 5589 0558 01       		.uleb128 0x1
 5590 0559 D203     		.uleb128 .LEHB250-.LFB1080
 5591 055b 49       		.uleb128 .LEHE250-.LEHB250
 5592 055c F20D     		.uleb128 .L345-.LFB1080
 5593 055e 01       		.uleb128 0x1
 5594 055f 9B04     		.uleb128 .LEHB251-.LFB1080
 5595 0561 49       		.uleb128 .LEHE251-.LEHB251
 5596 0562 CF0E     		.uleb128 .L347-.LFB1080
 5597 0564 01       		.uleb128 0x1
 5598 0565 E404     		.uleb128 .LEHB252-.LFB1080
 5599 0567 49       		.uleb128 .LEHE252-.LEHB252
 5600 0568 AC0F     		.uleb128 .L349-.LFB1080
 5601 056a 01       		.uleb128 0x1
 5602 056b AD05     		.uleb128 .LEHB253-.LFB1080
 5603 056d 49       		.uleb128 .LEHE253-.LEHB253
 5604 056e 8910     		.uleb128 .L351-.LFB1080
 5605 0570 01       		.uleb128 0x1
 5606 0571 F605     		.uleb128 .LEHB254-.LFB1080
 5607 0573 49       		.uleb128 .LEHE254-.LEHB254
 5608 0574 E610     		.uleb128 .L353-.LFB1080
 5609 0576 01       		.uleb128 0x1
 5610 0577 BF06     		.uleb128 .LEHB255-.LFB1080
 5611 0579 49       		.uleb128 .LEHE255-.LEHB255
 5612 057a C311     		.uleb128 .L355-.LFB1080
 5613 057c 01       		.uleb128 0x1
 5614 057d 8807     		.uleb128 .LEHB256-.LFB1080
 5615 057f 49       		.uleb128 .LEHE256-.LEHB256
 5616 0580 A012     		.uleb128 .L357-.LFB1080
 5617 0582 01       		.uleb128 0x1
 5618 0583 D107     		.uleb128 .LEHB257-.LFB1080
 5619 0585 49       		.uleb128 .LEHE257-.LEHB257
 5620 0586 FD12     		.uleb128 .L359-.LFB1080
 5621 0588 01       		.uleb128 0x1
 5622 0589 9A08     		.uleb128 .LEHB258-.LFB1080
 5623 058b 49       		.uleb128 .LEHE258-.LEHB258
 5624 058c DA13     		.uleb128 .L361-.LFB1080
 5625 058e 01       		.uleb128 0x1
 5626 058f E308     		.uleb128 .LEHB259-.LFB1080
 5627 0591 49       		.uleb128 .LEHE259-.LEHB259
 5628 0592 B714     		.uleb128 .L363-.LFB1080
 5629 0594 01       		.uleb128 0x1
 5630 0595 BF09     		.uleb128 .LEHB260-.LFB1080
 5631 0597 05       		.uleb128 .LEHE260-.LEHB260
 5632 0598 00       		.uleb128 0
 5633 0599 00       		.uleb128 0
 5634 059a CC09     		.uleb128 .LEHB261-.LFB1080
 5635 059c 38       		.uleb128 .LEHE261-.LEHB261
 5636 059d B109     		.uleb128 .L334-.LFB1080
 5637 059f 00       		.uleb128 0
 5638 05a0 840A     		.uleb128 .LEHB262-.LFB1080
 5639 05a2 05       		.uleb128 .LEHE262-.LEHB262
 5640 05a3 00       		.uleb128 0
 5641 05a4 00       		.uleb128 0
 5642 05a5 9C0A     		.uleb128 .LEHB263-.LFB1080
 5643 05a7 05       		.uleb128 .LEHE263-.LEHB263
 5644 05a8 00       		.uleb128 0
 5645 05a9 00       		.uleb128 0
 5646 05aa A90A     		.uleb128 .LEHB264-.LFB1080
 5647 05ac 38       		.uleb128 .LEHE264-.LEHB264
 5648 05ad 8E0A     		.uleb128 .L336-.LFB1080
 5649 05af 00       		.uleb128 0
 5650 05b0 E10A     		.uleb128 .LEHB265-.LFB1080
 5651 05b2 05       		.uleb128 .LEHE265-.LEHB265
 5652 05b3 00       		.uleb128 0
 5653 05b4 00       		.uleb128 0
 5654 05b5 F90A     		.uleb128 .LEHB266-.LFB1080
 5655 05b7 05       		.uleb128 .LEHE266-.LEHB266
 5656 05b8 00       		.uleb128 0
 5657 05b9 00       		.uleb128 0
 5658 05ba 860B     		.uleb128 .LEHB267-.LFB1080
 5659 05bc 38       		.uleb128 .LEHE267-.LEHB267
 5660 05bd EB0A     		.uleb128 .L338-.LFB1080
 5661 05bf 00       		.uleb128 0
 5662 05c0 BE0B     		.uleb128 .LEHB268-.LFB1080
 5663 05c2 05       		.uleb128 .LEHE268-.LEHB268
 5664 05c3 00       		.uleb128 0
 5665 05c4 00       		.uleb128 0
 5666 05c5 D60B     		.uleb128 .LEHB269-.LFB1080
 5667 05c7 05       		.uleb128 .LEHE269-.LEHB269
 5668 05c8 00       		.uleb128 0
 5669 05c9 00       		.uleb128 0
 5670 05ca E30B     		.uleb128 .LEHB270-.LFB1080
 5671 05cc 38       		.uleb128 .LEHE270-.LEHB270
 5672 05cd C80B     		.uleb128 .L340-.LFB1080
 5673 05cf 00       		.uleb128 0
 5674 05d0 9B0C     		.uleb128 .LEHB271-.LFB1080
 5675 05d2 05       		.uleb128 .LEHE271-.LEHB271
 5676 05d3 00       		.uleb128 0
 5677 05d4 00       		.uleb128 0
 5678 05d5 B30C     		.uleb128 .LEHB272-.LFB1080
 5679 05d7 05       		.uleb128 .LEHE272-.LEHB272
 5680 05d8 00       		.uleb128 0
 5681 05d9 00       		.uleb128 0
 5682 05da C00C     		.uleb128 .LEHB273-.LFB1080
 5683 05dc 38       		.uleb128 .LEHE273-.LEHB273
 5684 05dd A50C     		.uleb128 .L342-.LFB1080
 5685 05df 00       		.uleb128 0
 5686 05e0 F80C     		.uleb128 .LEHB274-.LFB1080
 5687 05e2 05       		.uleb128 .LEHE274-.LEHB274
 5688 05e3 00       		.uleb128 0
 5689 05e4 00       		.uleb128 0
 5690 05e5 900D     		.uleb128 .LEHB275-.LFB1080
 5691 05e7 05       		.uleb128 .LEHE275-.LEHB275
 5692 05e8 00       		.uleb128 0
 5693 05e9 00       		.uleb128 0
 5694 05ea 9D0D     		.uleb128 .LEHB276-.LFB1080
 5695 05ec 38       		.uleb128 .LEHE276-.LEHB276
 5696 05ed 820D     		.uleb128 .L344-.LFB1080
 5697 05ef 00       		.uleb128 0
 5698 05f0 D50D     		.uleb128 .LEHB277-.LFB1080
 5699 05f2 05       		.uleb128 .LEHE277-.LEHB277
 5700 05f3 00       		.uleb128 0
 5701 05f4 00       		.uleb128 0
 5702 05f5 ED0D     		.uleb128 .LEHB278-.LFB1080
 5703 05f7 05       		.uleb128 .LEHE278-.LEHB278
 5704 05f8 00       		.uleb128 0
 5705 05f9 00       		.uleb128 0
 5706 05fa FA0D     		.uleb128 .LEHB279-.LFB1080
 5707 05fc 38       		.uleb128 .LEHE279-.LEHB279
 5708 05fd DF0D     		.uleb128 .L346-.LFB1080
 5709 05ff 00       		.uleb128 0
 5710 0600 B20E     		.uleb128 .LEHB280-.LFB1080
 5711 0602 05       		.uleb128 .LEHE280-.LEHB280
 5712 0603 00       		.uleb128 0
 5713 0604 00       		.uleb128 0
 5714 0605 CA0E     		.uleb128 .LEHB281-.LFB1080
 5715 0607 05       		.uleb128 .LEHE281-.LEHB281
 5716 0608 00       		.uleb128 0
 5717 0609 00       		.uleb128 0
 5718 060a D70E     		.uleb128 .LEHB282-.LFB1080
 5719 060c 38       		.uleb128 .LEHE282-.LEHB282
 5720 060d BC0E     		.uleb128 .L348-.LFB1080
 5721 060f 00       		.uleb128 0
 5722 0610 8F0F     		.uleb128 .LEHB283-.LFB1080
 5723 0612 05       		.uleb128 .LEHE283-.LEHB283
 5724 0613 00       		.uleb128 0
 5725 0614 00       		.uleb128 0
 5726 0615 A70F     		.uleb128 .LEHB284-.LFB1080
 5727 0617 05       		.uleb128 .LEHE284-.LEHB284
 5728 0618 00       		.uleb128 0
 5729 0619 00       		.uleb128 0
 5730 061a B40F     		.uleb128 .LEHB285-.LFB1080
 5731 061c 38       		.uleb128 .LEHE285-.LEHB285
 5732 061d 990F     		.uleb128 .L350-.LFB1080
 5733 061f 00       		.uleb128 0
 5734 0620 EC0F     		.uleb128 .LEHB286-.LFB1080
 5735 0622 05       		.uleb128 .LEHE286-.LEHB286
 5736 0623 00       		.uleb128 0
 5737 0624 00       		.uleb128 0
 5738 0625 8410     		.uleb128 .LEHB287-.LFB1080
 5739 0627 05       		.uleb128 .LEHE287-.LEHB287
 5740 0628 00       		.uleb128 0
 5741 0629 00       		.uleb128 0
 5742 062a 9110     		.uleb128 .LEHB288-.LFB1080
 5743 062c 38       		.uleb128 .LEHE288-.LEHB288
 5744 062d F60F     		.uleb128 .L352-.LFB1080
 5745 062f 00       		.uleb128 0
 5746 0630 C910     		.uleb128 .LEHB289-.LFB1080
 5747 0632 05       		.uleb128 .LEHE289-.LEHB289
 5748 0633 00       		.uleb128 0
 5749 0634 00       		.uleb128 0
 5750 0635 E110     		.uleb128 .LEHB290-.LFB1080
 5751 0637 05       		.uleb128 .LEHE290-.LEHB290
 5752 0638 00       		.uleb128 0
 5753 0639 00       		.uleb128 0
 5754 063a EE10     		.uleb128 .LEHB291-.LFB1080
 5755 063c 38       		.uleb128 .LEHE291-.LEHB291
 5756 063d D310     		.uleb128 .L354-.LFB1080
 5757 063f 00       		.uleb128 0
 5758 0640 A611     		.uleb128 .LEHB292-.LFB1080
 5759 0642 05       		.uleb128 .LEHE292-.LEHB292
 5760 0643 00       		.uleb128 0
 5761 0644 00       		.uleb128 0
 5762 0645 BE11     		.uleb128 .LEHB293-.LFB1080
 5763 0647 05       		.uleb128 .LEHE293-.LEHB293
 5764 0648 00       		.uleb128 0
 5765 0649 00       		.uleb128 0
 5766 064a CB11     		.uleb128 .LEHB294-.LFB1080
 5767 064c 38       		.uleb128 .LEHE294-.LEHB294
 5768 064d B011     		.uleb128 .L356-.LFB1080
 5769 064f 00       		.uleb128 0
 5770 0650 8312     		.uleb128 .LEHB295-.LFB1080
 5771 0652 05       		.uleb128 .LEHE295-.LEHB295
 5772 0653 00       		.uleb128 0
 5773 0654 00       		.uleb128 0
 5774 0655 9B12     		.uleb128 .LEHB296-.LFB1080
 5775 0657 05       		.uleb128 .LEHE296-.LEHB296
 5776 0658 00       		.uleb128 0
 5777 0659 00       		.uleb128 0
 5778 065a A812     		.uleb128 .LEHB297-.LFB1080
 5779 065c 38       		.uleb128 .LEHE297-.LEHB297
 5780 065d 8D12     		.uleb128 .L358-.LFB1080
 5781 065f 00       		.uleb128 0
 5782 0660 E012     		.uleb128 .LEHB298-.LFB1080
 5783 0662 05       		.uleb128 .LEHE298-.LEHB298
 5784 0663 00       		.uleb128 0
 5785 0664 00       		.uleb128 0
 5786 0665 F812     		.uleb128 .LEHB299-.LFB1080
 5787 0667 05       		.uleb128 .LEHE299-.LEHB299
 5788 0668 00       		.uleb128 0
 5789 0669 00       		.uleb128 0
 5790 066a 8513     		.uleb128 .LEHB300-.LFB1080
 5791 066c 38       		.uleb128 .LEHE300-.LEHB300
 5792 066d EA12     		.uleb128 .L360-.LFB1080
 5793 066f 00       		.uleb128 0
 5794 0670 BD13     		.uleb128 .LEHB301-.LFB1080
 5795 0672 05       		.uleb128 .LEHE301-.LEHB301
 5796 0673 00       		.uleb128 0
 5797 0674 00       		.uleb128 0
 5798 0675 D513     		.uleb128 .LEHB302-.LFB1080
 5799 0677 05       		.uleb128 .LEHE302-.LEHB302
 5800 0678 00       		.uleb128 0
 5801 0679 00       		.uleb128 0
 5802 067a E213     		.uleb128 .LEHB303-.LFB1080
 5803 067c 38       		.uleb128 .LEHE303-.LEHB303
 5804 067d C713     		.uleb128 .L362-.LFB1080
 5805 067f 00       		.uleb128 0
 5806 0680 9A14     		.uleb128 .LEHB304-.LFB1080
 5807 0682 05       		.uleb128 .LEHE304-.LEHB304
 5808 0683 00       		.uleb128 0
 5809 0684 00       		.uleb128 0
 5810 0685 B214     		.uleb128 .LEHB305-.LFB1080
 5811 0687 05       		.uleb128 .LEHE305-.LEHB305
 5812 0688 00       		.uleb128 0
 5813 0689 00       		.uleb128 0
 5814 068a BF14     		.uleb128 .LEHB306-.LFB1080
 5815 068c 38       		.uleb128 .LEHE306-.LEHB306
 5816 068d A414     		.uleb128 .L364-.LFB1080
 5817 068f 00       		.uleb128 0
 5818 0690 F714     		.uleb128 .LEHB307-.LFB1080
 5819 0692 05       		.uleb128 .LEHE307-.LEHB307
 5820 0693 00       		.uleb128 0
 5821 0694 00       		.uleb128 0
 5822              	.LLSDACSE1080:
 5823 0695 01       		.byte	0x1
 5824 0696 00       		.byte	0
 5825 0697 00       		.align 4
 5826 0698 00000000 		.long	0
 5827              	
 5828              	.LLSDATT1080:
 5829              		.text
 5831              		.section	.rodata
 5832              	.LC47:
 5833 08e9 436F6E76 		.string	"Conv_testGetHexLowerNibble"
 5833      5F746573 
 5833      74476574 
 5833      4865784C 
 5833      6F776572 
 5834              		.section	.text._ZN30TestConv_testGetHexLowerNibbleC2Ev,"axG",@progbits,_ZN30TestConv_testGetHexLow
 5835              		.align 2
 5836              		.weak	_ZN30TestConv_testGetHexLowerNibbleC2Ev
 5838              	_ZN30TestConv_testGetHexLowerNibbleC2Ev:
 5839              	.LFB1082:
 129:testConv.cpp  **** 
 130:testConv.cpp  **** TEST(Conv_testGetHexLowerNibble) {
 5840              		.loc 3 130 0
 5841              		.cfi_startproc
 5842 0000 55       		pushq	%rbp
 5843              		.cfi_def_cfa_offset 16
 5844              		.cfi_offset 6, -16
 5845 0001 4889E5   		movq	%rsp, %rbp
 5846              		.cfi_def_cfa_register 6
 5847 0004 4883EC10 		subq	$16, %rsp
 5848 0008 48897DF8 		movq	%rdi, -8(%rbp)
 5849              	.LBB11:
 5850              		.loc 3 130 0
 5851 000c E8000000 		call	_ZN13UnitTestSuite12GetSuiteNameEv
 5851      00
 5852 0011 4889C2   		movq	%rax, %rdx
 5853 0014 488B45F8 		movq	-8(%rbp), %rax
 5854 0018 41B88200 		movl	$130, %r8d
 5854      0000
 5855 001e B9000000 		movl	$.LC1, %ecx
 5855      00
 5856 0023 BE000000 		movl	$.LC47, %esi
 5856      00
 5857 0028 4889C7   		movq	%rax, %rdi
 5858 002b E8000000 		call	_ZN8UnitTest4TestC2EPKcS2_S2_i
 5858      00
 5859 0030 488B45F8 		movq	-8(%rbp), %rax
 5860 0034 48C70000 		movq	$_ZTV30TestConv_testGetHexLowerNibble+16, (%rax)
 5860      000000
 5861              	.LBE11:
 5862 003b C9       		leave
 5863              		.cfi_def_cfa 7, 8
 5864 003c C3       		ret
 5865              		.cfi_endproc
 5866              	.LFE1082:
 5868              		.weak	_ZN30TestConv_testGetHexLowerNibbleC1Ev
 5869              		.set	_ZN30TestConv_testGetHexLowerNibbleC1Ev,_ZN30TestConv_testGetHexLowerNibbleC2Ev
 5870              		.globl	testConv_testGetHexLowerNibbleInstance
 5871              		.bss
 5872 00b9 00000000 		.align 32
 5872      000000
 5875              	testConv_testGetHexLowerNibbleInstance:
 5876 00c0 00000000 		.zero	56
 5876      00000000 
 5876      00000000 
 5876      00000000 
 5876      00000000 
 5877              		.globl	adderConv_testGetHexLowerNibble
 5880              	adderConv_testGetHexLowerNibble:
 5881 00f8 00       		.zero	1
 5882              		.section	.rodata
 5883 0904 00000000 		.align 8
 5884              	.LC48:
 5885 0908 556E6861 		.string	"Unhandled exception in CHECK_EQUAL('0', getHexLowerNibble(0xF0))"
 5885      6E646C65 
 5885      64206578 
 5885      63657074 
 5885      696F6E20 
 5886 0949 00000000 		.align 8
 5886      000000
 5887              	.LC49:
 5888 0950 556E6861 		.string	"Unhandled exception in CHECK_EQUAL('1', getHexLowerNibble(0xF1))"
 5888      6E646C65 
 5888      64206578 
 5888      63657074 
 5888      696F6E20 
 5889 0991 00000000 		.align 8
 5889      000000
 5890              	.LC50:
 5891 0998 556E6861 		.string	"Unhandled exception in CHECK_EQUAL('2', getHexLowerNibble(0xF2))"
 5891      6E646C65 
 5891      64206578 
 5891      63657074 
 5891      696F6E20 
 5892 09d9 00000000 		.align 8
 5892      000000
 5893              	.LC51:
 5894 09e0 556E6861 		.string	"Unhandled exception in CHECK_EQUAL('3', getHexLowerNibble(0xF3))"
 5894      6E646C65 
 5894      64206578 
 5894      63657074 
 5894      696F6E20 
 5895 0a21 00000000 		.align 8
 5895      000000
 5896              	.LC52:
 5897 0a28 556E6861 		.string	"Unhandled exception in CHECK_EQUAL('4', getHexLowerNibble(0xF4))"
 5897      6E646C65 
 5897      64206578 
 5897      63657074 
 5897      696F6E20 
 5898 0a69 00000000 		.align 8
 5898      000000
 5899              	.LC53:
 5900 0a70 556E6861 		.string	"Unhandled exception in CHECK_EQUAL('5', getHexLowerNibble(0xF5))"
 5900      6E646C65 
 5900      64206578 
 5900      63657074 
 5900      696F6E20 
 5901 0ab1 00000000 		.align 8
 5901      000000
 5902              	.LC54:
 5903 0ab8 556E6861 		.string	"Unhandled exception in CHECK_EQUAL('6', getHexLowerNibble(0xF6))"
 5903      6E646C65 
 5903      64206578 
 5903      63657074 
 5903      696F6E20 
 5904 0af9 00000000 		.align 8
 5904      000000
 5905              	.LC55:
 5906 0b00 556E6861 		.string	"Unhandled exception in CHECK_EQUAL('7', getHexLowerNibble(0xF7))"
 5906      6E646C65 
 5906      64206578 
 5906      63657074 
 5906      696F6E20 
 5907 0b41 00000000 		.align 8
 5907      000000
 5908              	.LC56:
 5909 0b48 556E6861 		.string	"Unhandled exception in CHECK_EQUAL('8', getHexLowerNibble(0xF8))"
 5909      6E646C65 
 5909      64206578 
 5909      63657074 
 5909      696F6E20 
 5910 0b89 00000000 		.align 8
 5910      000000
 5911              	.LC57:
 5912 0b90 556E6861 		.string	"Unhandled exception in CHECK_EQUAL('9', getHexLowerNibble(0xF9))"
 5912      6E646C65 
 5912      64206578 
 5912      63657074 
 5912      696F6E20 
 5913 0bd1 00000000 		.align 8
 5913      000000
 5914              	.LC58:
 5915 0bd8 556E6861 		.string	"Unhandled exception in CHECK_EQUAL('A', getHexLowerNibble(0xFA))"
 5915      6E646C65 
 5915      64206578 
 5915      63657074 
 5915      696F6E20 
 5916 0c19 00000000 		.align 8
 5916      000000
 5917              	.LC59:
 5918 0c20 556E6861 		.string	"Unhandled exception in CHECK_EQUAL('B', getHexLowerNibble(0xFB))"
 5918      6E646C65 
 5918      64206578 
 5918      63657074 
 5918      696F6E20 
 5919 0c61 00000000 		.align 8
 5919      000000
 5920              	.LC60:
 5921 0c68 556E6861 		.string	"Unhandled exception in CHECK_EQUAL('C', getHexLowerNibble(0xFC))"
 5921      6E646C65 
 5921      64206578 
 5921      63657074 
 5921      696F6E20 
 5922 0ca9 00000000 		.align 8
 5922      000000
 5923              	.LC61:
 5924 0cb0 556E6861 		.string	"Unhandled exception in CHECK_EQUAL('D', getHexLowerNibble(0xFD))"
 5924      6E646C65 
 5924      64206578 
 5924      63657074 
 5924      696F6E20 
 5925 0cf1 00000000 		.align 8
 5925      000000
 5926              	.LC62:
 5927 0cf8 556E6861 		.string	"Unhandled exception in CHECK_EQUAL('E', getHexLowerNibble(0xFE))"
 5927      6E646C65 
 5927      64206578 
 5927      63657074 
 5927      696F6E20 
 5928 0d39 00000000 		.align 8
 5928      000000
 5929              	.LC63:
 5930 0d40 556E6861 		.string	"Unhandled exception in CHECK_EQUAL('F', getHexLowerNibble(0xFF))"
 5930      6E646C65 
 5930      64206578 
 5930      63657074 
 5930      696F6E20 
 5931              		.text
 5932              		.align 2
 5933              		.globl	_ZNK30TestConv_testGetHexLowerNibble7RunImplEv
 5935              	_ZNK30TestConv_testGetHexLowerNibble7RunImplEv:
 5936              	.LFB1084:
 5937              		.loc 3 130 0
 5938              		.cfi_startproc
 5939              		.cfi_personality 0x3,__gxx_personality_v0
 5940              		.cfi_lsda 0x3,.LLSDA1084
 5941 2d32 55       		pushq	%rbp
 5942              		.cfi_def_cfa_offset 16
 5943              		.cfi_offset 6, -16
 5944 2d33 4889E5   		movq	%rsp, %rbp
 5945              		.cfi_def_cfa_register 6
 5946 2d36 53       		pushq	%rbx
 5947 2d37 4883EC58 		subq	$88, %rsp
 5948              		.cfi_offset 3, -24
 5949 2d3b 48897DA8 		movq	%rdi, -88(%rbp)
 5950              		.loc 3 130 0
 5951 2d3f 64488B04 		movq	%fs:40, %rax
 5951      25280000 
 5951      00
 5952 2d48 488945E8 		movq	%rax, -24(%rbp)
 5953 2d4c 31C0     		xorl	%eax, %eax
 5954              	.LEHB308:
 131:testConv.cpp  **** 	CHECK_EQUAL('0', getHexLowerNibble(0xF0));
 5955              		.loc 3 131 0
 5956 2d4e E8000000 		call	_ZN8UnitTest11CurrentTest7DetailsEv
 5956      00
 5957 2d53 488B08   		movq	(%rax), %rcx
 5958 2d56 488D45C0 		leaq	-64(%rbp), %rax
 5959 2d5a BA830000 		movl	$131, %edx
 5959      00
 5960 2d5f 4889CE   		movq	%rcx, %rsi
 5961 2d62 4889C7   		movq	%rax, %rdi
 5962 2d65 E8000000 		call	_ZN8UnitTest11TestDetailsC1ERKS0_i
 5962      00
 5963              		.loc 3 131 0 is_stmt 0 discriminator 2
 5964 2d6a BFF00000 		movl	$240, %edi
 5964      00
 5965 2d6f E8000000 		call	getHexLowerNibble
 5965      00
 5966 2d74 8845BF   		movb	%al, -65(%rbp)
 5967 2d77 C645BE30 		movb	$48, -66(%rbp)
 5968 2d7b E8000000 		call	_ZN8UnitTest11CurrentTest7ResultsEv
 5968      00
 5969              		.loc 3 131 0 discriminator 4
 5970 2d80 488B00   		movq	(%rax), %rax
 5971 2d83 488D4DC0 		leaq	-64(%rbp), %rcx
 5972 2d87 488D55BF 		leaq	-65(%rbp), %rdx
 5973 2d8b 488D75BE 		leaq	-66(%rbp), %rsi
 5974 2d8f 4889C7   		movq	%rax, %rdi
 5975 2d92 E8000000 		call	_ZN8UnitTest10CheckEqualIccEEvRNS_11TestResultsERKT_RKT0_RKNS_11TestDetailsE
 5975      00
 5976              	.LEHE308:
 5977              	.L370:
 5978              	.LEHB309:
 132:testConv.cpp  **** 	CHECK_EQUAL('1', getHexLowerNibble(0xF1));
 5979              		.loc 3 132 0 is_stmt 1
 5980 2d97 E8000000 		call	_ZN8UnitTest11CurrentTest7DetailsEv
 5980      00
 5981 2d9c 488B08   		movq	(%rax), %rcx
 5982 2d9f 488D45C0 		leaq	-64(%rbp), %rax
 5983 2da3 BA840000 		movl	$132, %edx
 5983      00
 5984 2da8 4889CE   		movq	%rcx, %rsi
 5985 2dab 4889C7   		movq	%rax, %rdi
 5986 2dae E8000000 		call	_ZN8UnitTest11TestDetailsC1ERKS0_i
 5986      00
 5987              		.loc 3 132 0 is_stmt 0 discriminator 2
 5988 2db3 BFF10000 		movl	$241, %edi
 5988      00
 5989 2db8 E8000000 		call	getHexLowerNibble
 5989      00
 5990 2dbd 8845BF   		movb	%al, -65(%rbp)
 5991 2dc0 C645BE31 		movb	$49, -66(%rbp)
 5992 2dc4 E8000000 		call	_ZN8UnitTest11CurrentTest7ResultsEv
 5992      00
 5993              		.loc 3 132 0 discriminator 4
 5994 2dc9 488B00   		movq	(%rax), %rax
 5995 2dcc 488D4DC0 		leaq	-64(%rbp), %rcx
 5996 2dd0 488D55BF 		leaq	-65(%rbp), %rdx
 5997 2dd4 488D75BE 		leaq	-66(%rbp), %rsi
 5998 2dd8 4889C7   		movq	%rax, %rdi
 5999 2ddb E8000000 		call	_ZN8UnitTest10CheckEqualIccEEvRNS_11TestResultsERKT_RKT0_RKNS_11TestDetailsE
 5999      00
 6000              	.LEHE309:
 6001              	.L373:
 6002              	.LEHB310:
 133:testConv.cpp  **** 	CHECK_EQUAL('2', getHexLowerNibble(0xF2));
 6003              		.loc 3 133 0 is_stmt 1
 6004 2de0 E8000000 		call	_ZN8UnitTest11CurrentTest7DetailsEv
 6004      00
 6005 2de5 488B08   		movq	(%rax), %rcx
 6006 2de8 488D45C0 		leaq	-64(%rbp), %rax
 6007 2dec BA850000 		movl	$133, %edx
 6007      00
 6008 2df1 4889CE   		movq	%rcx, %rsi
 6009 2df4 4889C7   		movq	%rax, %rdi
 6010 2df7 E8000000 		call	_ZN8UnitTest11TestDetailsC1ERKS0_i
 6010      00
 6011              		.loc 3 133 0 is_stmt 0 discriminator 2
 6012 2dfc BFF20000 		movl	$242, %edi
 6012      00
 6013 2e01 E8000000 		call	getHexLowerNibble
 6013      00
 6014 2e06 8845BF   		movb	%al, -65(%rbp)
 6015 2e09 C645BE32 		movb	$50, -66(%rbp)
 6016 2e0d E8000000 		call	_ZN8UnitTest11CurrentTest7ResultsEv
 6016      00
 6017              		.loc 3 133 0 discriminator 4
 6018 2e12 488B00   		movq	(%rax), %rax
 6019 2e15 488D4DC0 		leaq	-64(%rbp), %rcx
 6020 2e19 488D55BF 		leaq	-65(%rbp), %rdx
 6021 2e1d 488D75BE 		leaq	-66(%rbp), %rsi
 6022 2e21 4889C7   		movq	%rax, %rdi
 6023 2e24 E8000000 		call	_ZN8UnitTest10CheckEqualIccEEvRNS_11TestResultsERKT_RKT0_RKNS_11TestDetailsE
 6023      00
 6024              	.LEHE310:
 6025              	.L376:
 6026              	.LEHB311:
 134:testConv.cpp  **** 	CHECK_EQUAL('3', getHexLowerNibble(0xF3));
 6027              		.loc 3 134 0 is_stmt 1
 6028 2e29 E8000000 		call	_ZN8UnitTest11CurrentTest7DetailsEv
 6028      00
 6029 2e2e 488B08   		movq	(%rax), %rcx
 6030 2e31 488D45C0 		leaq	-64(%rbp), %rax
 6031 2e35 BA860000 		movl	$134, %edx
 6031      00
 6032 2e3a 4889CE   		movq	%rcx, %rsi
 6033 2e3d 4889C7   		movq	%rax, %rdi
 6034 2e40 E8000000 		call	_ZN8UnitTest11TestDetailsC1ERKS0_i
 6034      00
 6035              		.loc 3 134 0 is_stmt 0 discriminator 2
 6036 2e45 BFF30000 		movl	$243, %edi
 6036      00
 6037 2e4a E8000000 		call	getHexLowerNibble
 6037      00
 6038 2e4f 8845BF   		movb	%al, -65(%rbp)
 6039 2e52 C645BE33 		movb	$51, -66(%rbp)
 6040 2e56 E8000000 		call	_ZN8UnitTest11CurrentTest7ResultsEv
 6040      00
 6041              		.loc 3 134 0 discriminator 4
 6042 2e5b 488B00   		movq	(%rax), %rax
 6043 2e5e 488D4DC0 		leaq	-64(%rbp), %rcx
 6044 2e62 488D55BF 		leaq	-65(%rbp), %rdx
 6045 2e66 488D75BE 		leaq	-66(%rbp), %rsi
 6046 2e6a 4889C7   		movq	%rax, %rdi
 6047 2e6d E8000000 		call	_ZN8UnitTest10CheckEqualIccEEvRNS_11TestResultsERKT_RKT0_RKNS_11TestDetailsE
 6047      00
 6048              	.LEHE311:
 6049              	.L379:
 6050              	.LEHB312:
 135:testConv.cpp  **** 	CHECK_EQUAL('4', getHexLowerNibble(0xF4));
 6051              		.loc 3 135 0 is_stmt 1
 6052 2e72 E8000000 		call	_ZN8UnitTest11CurrentTest7DetailsEv
 6052      00
 6053 2e77 488B08   		movq	(%rax), %rcx
 6054 2e7a 488D45C0 		leaq	-64(%rbp), %rax
 6055 2e7e BA870000 		movl	$135, %edx
 6055      00
 6056 2e83 4889CE   		movq	%rcx, %rsi
 6057 2e86 4889C7   		movq	%rax, %rdi
 6058 2e89 E8000000 		call	_ZN8UnitTest11TestDetailsC1ERKS0_i
 6058      00
 6059              		.loc 3 135 0 is_stmt 0 discriminator 2
 6060 2e8e BFF40000 		movl	$244, %edi
 6060      00
 6061 2e93 E8000000 		call	getHexLowerNibble
 6061      00
 6062 2e98 8845BF   		movb	%al, -65(%rbp)
 6063 2e9b C645BE34 		movb	$52, -66(%rbp)
 6064 2e9f E8000000 		call	_ZN8UnitTest11CurrentTest7ResultsEv
 6064      00
 6065              		.loc 3 135 0 discriminator 4
 6066 2ea4 488B00   		movq	(%rax), %rax
 6067 2ea7 488D4DC0 		leaq	-64(%rbp), %rcx
 6068 2eab 488D55BF 		leaq	-65(%rbp), %rdx
 6069 2eaf 488D75BE 		leaq	-66(%rbp), %rsi
 6070 2eb3 4889C7   		movq	%rax, %rdi
 6071 2eb6 E8000000 		call	_ZN8UnitTest10CheckEqualIccEEvRNS_11TestResultsERKT_RKT0_RKNS_11TestDetailsE
 6071      00
 6072              	.LEHE312:
 6073              	.L382:
 6074              	.LEHB313:
 136:testConv.cpp  **** 	CHECK_EQUAL('5', getHexLowerNibble(0xF5));
 6075              		.loc 3 136 0 is_stmt 1
 6076 2ebb E8000000 		call	_ZN8UnitTest11CurrentTest7DetailsEv
 6076      00
 6077 2ec0 488B08   		movq	(%rax), %rcx
 6078 2ec3 488D45C0 		leaq	-64(%rbp), %rax
 6079 2ec7 BA880000 		movl	$136, %edx
 6079      00
 6080 2ecc 4889CE   		movq	%rcx, %rsi
 6081 2ecf 4889C7   		movq	%rax, %rdi
 6082 2ed2 E8000000 		call	_ZN8UnitTest11TestDetailsC1ERKS0_i
 6082      00
 6083              		.loc 3 136 0 is_stmt 0 discriminator 2
 6084 2ed7 BFF50000 		movl	$245, %edi
 6084      00
 6085 2edc E8000000 		call	getHexLowerNibble
 6085      00
 6086 2ee1 8845BF   		movb	%al, -65(%rbp)
 6087 2ee4 C645BE35 		movb	$53, -66(%rbp)
 6088 2ee8 E8000000 		call	_ZN8UnitTest11CurrentTest7ResultsEv
 6088      00
 6089              		.loc 3 136 0 discriminator 4
 6090 2eed 488B00   		movq	(%rax), %rax
 6091 2ef0 488D4DC0 		leaq	-64(%rbp), %rcx
 6092 2ef4 488D55BF 		leaq	-65(%rbp), %rdx
 6093 2ef8 488D75BE 		leaq	-66(%rbp), %rsi
 6094 2efc 4889C7   		movq	%rax, %rdi
 6095 2eff E8000000 		call	_ZN8UnitTest10CheckEqualIccEEvRNS_11TestResultsERKT_RKT0_RKNS_11TestDetailsE
 6095      00
 6096              	.LEHE313:
 6097              	.L385:
 6098              	.LEHB314:
 137:testConv.cpp  **** 	CHECK_EQUAL('6', getHexLowerNibble(0xF6));
 6099              		.loc 3 137 0 is_stmt 1
 6100 2f04 E8000000 		call	_ZN8UnitTest11CurrentTest7DetailsEv
 6100      00
 6101 2f09 488B08   		movq	(%rax), %rcx
 6102 2f0c 488D45C0 		leaq	-64(%rbp), %rax
 6103 2f10 BA890000 		movl	$137, %edx
 6103      00
 6104 2f15 4889CE   		movq	%rcx, %rsi
 6105 2f18 4889C7   		movq	%rax, %rdi
 6106 2f1b E8000000 		call	_ZN8UnitTest11TestDetailsC1ERKS0_i
 6106      00
 6107              		.loc 3 137 0 is_stmt 0 discriminator 2
 6108 2f20 BFF60000 		movl	$246, %edi
 6108      00
 6109 2f25 E8000000 		call	getHexLowerNibble
 6109      00
 6110 2f2a 8845BF   		movb	%al, -65(%rbp)
 6111 2f2d C645BE36 		movb	$54, -66(%rbp)
 6112 2f31 E8000000 		call	_ZN8UnitTest11CurrentTest7ResultsEv
 6112      00
 6113              		.loc 3 137 0 discriminator 4
 6114 2f36 488B00   		movq	(%rax), %rax
 6115 2f39 488D4DC0 		leaq	-64(%rbp), %rcx
 6116 2f3d 488D55BF 		leaq	-65(%rbp), %rdx
 6117 2f41 488D75BE 		leaq	-66(%rbp), %rsi
 6118 2f45 4889C7   		movq	%rax, %rdi
 6119 2f48 E8000000 		call	_ZN8UnitTest10CheckEqualIccEEvRNS_11TestResultsERKT_RKT0_RKNS_11TestDetailsE
 6119      00
 6120              	.LEHE314:
 6121              	.L388:
 6122              	.LEHB315:
 138:testConv.cpp  **** 	CHECK_EQUAL('7', getHexLowerNibble(0xF7));
 6123              		.loc 3 138 0 is_stmt 1
 6124 2f4d E8000000 		call	_ZN8UnitTest11CurrentTest7DetailsEv
 6124      00
 6125 2f52 488B08   		movq	(%rax), %rcx
 6126 2f55 488D45C0 		leaq	-64(%rbp), %rax
 6127 2f59 BA8A0000 		movl	$138, %edx
 6127      00
 6128 2f5e 4889CE   		movq	%rcx, %rsi
 6129 2f61 4889C7   		movq	%rax, %rdi
 6130 2f64 E8000000 		call	_ZN8UnitTest11TestDetailsC1ERKS0_i
 6130      00
 6131              		.loc 3 138 0 is_stmt 0 discriminator 2
 6132 2f69 BFF70000 		movl	$247, %edi
 6132      00
 6133 2f6e E8000000 		call	getHexLowerNibble
 6133      00
 6134 2f73 8845BF   		movb	%al, -65(%rbp)
 6135 2f76 C645BE37 		movb	$55, -66(%rbp)
 6136 2f7a E8000000 		call	_ZN8UnitTest11CurrentTest7ResultsEv
 6136      00
 6137              		.loc 3 138 0 discriminator 4
 6138 2f7f 488B00   		movq	(%rax), %rax
 6139 2f82 488D4DC0 		leaq	-64(%rbp), %rcx
 6140 2f86 488D55BF 		leaq	-65(%rbp), %rdx
 6141 2f8a 488D75BE 		leaq	-66(%rbp), %rsi
 6142 2f8e 4889C7   		movq	%rax, %rdi
 6143 2f91 E8000000 		call	_ZN8UnitTest10CheckEqualIccEEvRNS_11TestResultsERKT_RKT0_RKNS_11TestDetailsE
 6143      00
 6144              	.LEHE315:
 6145              	.L391:
 6146              	.LEHB316:
 139:testConv.cpp  **** 	CHECK_EQUAL('8', getHexLowerNibble(0xF8));
 6147              		.loc 3 139 0 is_stmt 1
 6148 2f96 E8000000 		call	_ZN8UnitTest11CurrentTest7DetailsEv
 6148      00
 6149 2f9b 488B08   		movq	(%rax), %rcx
 6150 2f9e 488D45C0 		leaq	-64(%rbp), %rax
 6151 2fa2 BA8B0000 		movl	$139, %edx
 6151      00
 6152 2fa7 4889CE   		movq	%rcx, %rsi
 6153 2faa 4889C7   		movq	%rax, %rdi
 6154 2fad E8000000 		call	_ZN8UnitTest11TestDetailsC1ERKS0_i
 6154      00
 6155              		.loc 3 139 0 is_stmt 0 discriminator 2
 6156 2fb2 BFF80000 		movl	$248, %edi
 6156      00
 6157 2fb7 E8000000 		call	getHexLowerNibble
 6157      00
 6158 2fbc 8845BF   		movb	%al, -65(%rbp)
 6159 2fbf C645BE38 		movb	$56, -66(%rbp)
 6160 2fc3 E8000000 		call	_ZN8UnitTest11CurrentTest7ResultsEv
 6160      00
 6161              		.loc 3 139 0 discriminator 4
 6162 2fc8 488B00   		movq	(%rax), %rax
 6163 2fcb 488D4DC0 		leaq	-64(%rbp), %rcx
 6164 2fcf 488D55BF 		leaq	-65(%rbp), %rdx
 6165 2fd3 488D75BE 		leaq	-66(%rbp), %rsi
 6166 2fd7 4889C7   		movq	%rax, %rdi
 6167 2fda E8000000 		call	_ZN8UnitTest10CheckEqualIccEEvRNS_11TestResultsERKT_RKT0_RKNS_11TestDetailsE
 6167      00
 6168              	.LEHE316:
 6169              	.L394:
 6170              	.LEHB317:
 140:testConv.cpp  **** 	CHECK_EQUAL('9', getHexLowerNibble(0xF9));
 6171              		.loc 3 140 0 is_stmt 1
 6172 2fdf E8000000 		call	_ZN8UnitTest11CurrentTest7DetailsEv
 6172      00
 6173 2fe4 488B08   		movq	(%rax), %rcx
 6174 2fe7 488D45C0 		leaq	-64(%rbp), %rax
 6175 2feb BA8C0000 		movl	$140, %edx
 6175      00
 6176 2ff0 4889CE   		movq	%rcx, %rsi
 6177 2ff3 4889C7   		movq	%rax, %rdi
 6178 2ff6 E8000000 		call	_ZN8UnitTest11TestDetailsC1ERKS0_i
 6178      00
 6179              		.loc 3 140 0 is_stmt 0 discriminator 2
 6180 2ffb BFF90000 		movl	$249, %edi
 6180      00
 6181 3000 E8000000 		call	getHexLowerNibble
 6181      00
 6182 3005 8845BF   		movb	%al, -65(%rbp)
 6183 3008 C645BE39 		movb	$57, -66(%rbp)
 6184 300c E8000000 		call	_ZN8UnitTest11CurrentTest7ResultsEv
 6184      00
 6185              		.loc 3 140 0 discriminator 4
 6186 3011 488B00   		movq	(%rax), %rax
 6187 3014 488D4DC0 		leaq	-64(%rbp), %rcx
 6188 3018 488D55BF 		leaq	-65(%rbp), %rdx
 6189 301c 488D75BE 		leaq	-66(%rbp), %rsi
 6190 3020 4889C7   		movq	%rax, %rdi
 6191 3023 E8000000 		call	_ZN8UnitTest10CheckEqualIccEEvRNS_11TestResultsERKT_RKT0_RKNS_11TestDetailsE
 6191      00
 6192              	.LEHE317:
 6193              	.L397:
 6194              	.LEHB318:
 141:testConv.cpp  **** 	CHECK_EQUAL('A', getHexLowerNibble(0xFA));
 6195              		.loc 3 141 0 is_stmt 1
 6196 3028 E8000000 		call	_ZN8UnitTest11CurrentTest7DetailsEv
 6196      00
 6197 302d 488B08   		movq	(%rax), %rcx
 6198 3030 488D45C0 		leaq	-64(%rbp), %rax
 6199 3034 BA8D0000 		movl	$141, %edx
 6199      00
 6200 3039 4889CE   		movq	%rcx, %rsi
 6201 303c 4889C7   		movq	%rax, %rdi
 6202 303f E8000000 		call	_ZN8UnitTest11TestDetailsC1ERKS0_i
 6202      00
 6203              		.loc 3 141 0 is_stmt 0 discriminator 2
 6204 3044 BFFA0000 		movl	$250, %edi
 6204      00
 6205 3049 E8000000 		call	getHexLowerNibble
 6205      00
 6206 304e 8845BF   		movb	%al, -65(%rbp)
 6207 3051 C645BE41 		movb	$65, -66(%rbp)
 6208 3055 E8000000 		call	_ZN8UnitTest11CurrentTest7ResultsEv
 6208      00
 6209              		.loc 3 141 0 discriminator 4
 6210 305a 488B00   		movq	(%rax), %rax
 6211 305d 488D4DC0 		leaq	-64(%rbp), %rcx
 6212 3061 488D55BF 		leaq	-65(%rbp), %rdx
 6213 3065 488D75BE 		leaq	-66(%rbp), %rsi
 6214 3069 4889C7   		movq	%rax, %rdi
 6215 306c E8000000 		call	_ZN8UnitTest10CheckEqualIccEEvRNS_11TestResultsERKT_RKT0_RKNS_11TestDetailsE
 6215      00
 6216              	.LEHE318:
 6217              	.L400:
 6218              	.LEHB319:
 142:testConv.cpp  **** 	CHECK_EQUAL('B', getHexLowerNibble(0xFB));
 6219              		.loc 3 142 0 is_stmt 1
 6220 3071 E8000000 		call	_ZN8UnitTest11CurrentTest7DetailsEv
 6220      00
 6221 3076 488B08   		movq	(%rax), %rcx
 6222 3079 488D45C0 		leaq	-64(%rbp), %rax
 6223 307d BA8E0000 		movl	$142, %edx
 6223      00
 6224 3082 4889CE   		movq	%rcx, %rsi
 6225 3085 4889C7   		movq	%rax, %rdi
 6226 3088 E8000000 		call	_ZN8UnitTest11TestDetailsC1ERKS0_i
 6226      00
 6227              		.loc 3 142 0 is_stmt 0 discriminator 2
 6228 308d BFFB0000 		movl	$251, %edi
 6228      00
 6229 3092 E8000000 		call	getHexLowerNibble
 6229      00
 6230 3097 8845BF   		movb	%al, -65(%rbp)
 6231 309a C645BE42 		movb	$66, -66(%rbp)
 6232 309e E8000000 		call	_ZN8UnitTest11CurrentTest7ResultsEv
 6232      00
 6233              		.loc 3 142 0 discriminator 4
 6234 30a3 488B00   		movq	(%rax), %rax
 6235 30a6 488D4DC0 		leaq	-64(%rbp), %rcx
 6236 30aa 488D55BF 		leaq	-65(%rbp), %rdx
 6237 30ae 488D75BE 		leaq	-66(%rbp), %rsi
 6238 30b2 4889C7   		movq	%rax, %rdi
 6239 30b5 E8000000 		call	_ZN8UnitTest10CheckEqualIccEEvRNS_11TestResultsERKT_RKT0_RKNS_11TestDetailsE
 6239      00
 6240              	.LEHE319:
 6241              	.L403:
 6242              	.LEHB320:
 143:testConv.cpp  **** 	CHECK_EQUAL('C', getHexLowerNibble(0xFC));
 6243              		.loc 3 143 0 is_stmt 1
 6244 30ba E8000000 		call	_ZN8UnitTest11CurrentTest7DetailsEv
 6244      00
 6245 30bf 488B08   		movq	(%rax), %rcx
 6246 30c2 488D45C0 		leaq	-64(%rbp), %rax
 6247 30c6 BA8F0000 		movl	$143, %edx
 6247      00
 6248 30cb 4889CE   		movq	%rcx, %rsi
 6249 30ce 4889C7   		movq	%rax, %rdi
 6250 30d1 E8000000 		call	_ZN8UnitTest11TestDetailsC1ERKS0_i
 6250      00
 6251              		.loc 3 143 0 is_stmt 0 discriminator 2
 6252 30d6 BFFC0000 		movl	$252, %edi
 6252      00
 6253 30db E8000000 		call	getHexLowerNibble
 6253      00
 6254 30e0 8845BF   		movb	%al, -65(%rbp)
 6255 30e3 C645BE43 		movb	$67, -66(%rbp)
 6256 30e7 E8000000 		call	_ZN8UnitTest11CurrentTest7ResultsEv
 6256      00
 6257              		.loc 3 143 0 discriminator 4
 6258 30ec 488B00   		movq	(%rax), %rax
 6259 30ef 488D4DC0 		leaq	-64(%rbp), %rcx
 6260 30f3 488D55BF 		leaq	-65(%rbp), %rdx
 6261 30f7 488D75BE 		leaq	-66(%rbp), %rsi
 6262 30fb 4889C7   		movq	%rax, %rdi
 6263 30fe E8000000 		call	_ZN8UnitTest10CheckEqualIccEEvRNS_11TestResultsERKT_RKT0_RKNS_11TestDetailsE
 6263      00
 6264              	.LEHE320:
 6265              	.L406:
 6266              	.LEHB321:
 144:testConv.cpp  **** 	CHECK_EQUAL('D', getHexLowerNibble(0xFD));
 6267              		.loc 3 144 0 is_stmt 1
 6268 3103 E8000000 		call	_ZN8UnitTest11CurrentTest7DetailsEv
 6268      00
 6269 3108 488B08   		movq	(%rax), %rcx
 6270 310b 488D45C0 		leaq	-64(%rbp), %rax
 6271 310f BA900000 		movl	$144, %edx
 6271      00
 6272 3114 4889CE   		movq	%rcx, %rsi
 6273 3117 4889C7   		movq	%rax, %rdi
 6274 311a E8000000 		call	_ZN8UnitTest11TestDetailsC1ERKS0_i
 6274      00
 6275              		.loc 3 144 0 is_stmt 0 discriminator 2
 6276 311f BFFD0000 		movl	$253, %edi
 6276      00
 6277 3124 E8000000 		call	getHexLowerNibble
 6277      00
 6278 3129 8845BF   		movb	%al, -65(%rbp)
 6279 312c C645BE44 		movb	$68, -66(%rbp)
 6280 3130 E8000000 		call	_ZN8UnitTest11CurrentTest7ResultsEv
 6280      00
 6281              		.loc 3 144 0 discriminator 4
 6282 3135 488B00   		movq	(%rax), %rax
 6283 3138 488D4DC0 		leaq	-64(%rbp), %rcx
 6284 313c 488D55BF 		leaq	-65(%rbp), %rdx
 6285 3140 488D75BE 		leaq	-66(%rbp), %rsi
 6286 3144 4889C7   		movq	%rax, %rdi
 6287 3147 E8000000 		call	_ZN8UnitTest10CheckEqualIccEEvRNS_11TestResultsERKT_RKT0_RKNS_11TestDetailsE
 6287      00
 6288              	.LEHE321:
 6289              	.L409:
 6290              	.LEHB322:
 145:testConv.cpp  **** 	CHECK_EQUAL('E', getHexLowerNibble(0xFE));
 6291              		.loc 3 145 0 is_stmt 1
 6292 314c E8000000 		call	_ZN8UnitTest11CurrentTest7DetailsEv
 6292      00
 6293 3151 488B08   		movq	(%rax), %rcx
 6294 3154 488D45C0 		leaq	-64(%rbp), %rax
 6295 3158 BA910000 		movl	$145, %edx
 6295      00
 6296 315d 4889CE   		movq	%rcx, %rsi
 6297 3160 4889C7   		movq	%rax, %rdi
 6298 3163 E8000000 		call	_ZN8UnitTest11TestDetailsC1ERKS0_i
 6298      00
 6299              		.loc 3 145 0 is_stmt 0 discriminator 2
 6300 3168 BFFE0000 		movl	$254, %edi
 6300      00
 6301 316d E8000000 		call	getHexLowerNibble
 6301      00
 6302 3172 8845BF   		movb	%al, -65(%rbp)
 6303 3175 C645BE45 		movb	$69, -66(%rbp)
 6304 3179 E8000000 		call	_ZN8UnitTest11CurrentTest7ResultsEv
 6304      00
 6305              		.loc 3 145 0 discriminator 4
 6306 317e 488B00   		movq	(%rax), %rax
 6307 3181 488D4DC0 		leaq	-64(%rbp), %rcx
 6308 3185 488D55BF 		leaq	-65(%rbp), %rdx
 6309 3189 488D75BE 		leaq	-66(%rbp), %rsi
 6310 318d 4889C7   		movq	%rax, %rdi
 6311 3190 E8000000 		call	_ZN8UnitTest10CheckEqualIccEEvRNS_11TestResultsERKT_RKT0_RKNS_11TestDetailsE
 6311      00
 6312              	.LEHE322:
 6313              	.L412:
 6314              	.LEHB323:
 146:testConv.cpp  **** 	CHECK_EQUAL('F', getHexLowerNibble(0xFF));
 6315              		.loc 3 146 0 is_stmt 1
 6316 3195 E8000000 		call	_ZN8UnitTest11CurrentTest7DetailsEv
 6316      00
 6317 319a 488B08   		movq	(%rax), %rcx
 6318 319d 488D45C0 		leaq	-64(%rbp), %rax
 6319 31a1 BA920000 		movl	$146, %edx
 6319      00
 6320 31a6 4889CE   		movq	%rcx, %rsi
 6321 31a9 4889C7   		movq	%rax, %rdi
 6322 31ac E8000000 		call	_ZN8UnitTest11TestDetailsC1ERKS0_i
 6322      00
 6323              		.loc 3 146 0 is_stmt 0 discriminator 2
 6324 31b1 BFFF0000 		movl	$255, %edi
 6324      00
 6325 31b6 E8000000 		call	getHexLowerNibble
 6325      00
 6326 31bb 8845BF   		movb	%al, -65(%rbp)
 6327 31be C645BE46 		movb	$70, -66(%rbp)
 6328 31c2 E8000000 		call	_ZN8UnitTest11CurrentTest7ResultsEv
 6328      00
 6329              		.loc 3 146 0 discriminator 4
 6330 31c7 488B00   		movq	(%rax), %rax
 6331 31ca 488D4DC0 		leaq	-64(%rbp), %rcx
 6332 31ce 488D55BF 		leaq	-65(%rbp), %rdx
 6333 31d2 488D75BE 		leaq	-66(%rbp), %rsi
 6334 31d6 4889C7   		movq	%rax, %rdi
 6335 31d9 E8000000 		call	_ZN8UnitTest10CheckEqualIccEEvRNS_11TestResultsERKT_RKT0_RKNS_11TestDetailsE
 6335      00
 6336              	.LEHE323:
 147:testConv.cpp  **** }
 6337              		.loc 3 147 0 is_stmt 1
 6338 31de E9CB0500 		jmp	.L449
 6338      00
 6339              	.L418:
 6340 31e3 4889C3   		movq	%rax, %rbx
 131:testConv.cpp  **** 	CHECK_EQUAL('1', getHexLowerNibble(0xF1));
 6341              		.loc 3 131 0
 6342 31e6 E8000000 		call	__cxa_end_catch
 6342      00
 6343 31eb 4889D8   		movq	%rbx, %rax
 6344 31ee 4889C7   		movq	%rax, %rdi
 6345              	.LEHB324:
 6346 31f1 E8000000 		call	_Unwind_Resume
 6346      00
 6347              	.LEHE324:
 6348              	.L417:
 6349 31f6 4889C7   		movq	%rax, %rdi
 6350 31f9 E8000000 		call	__cxa_begin_catch
 6350      00
 6351              	.LEHB325:
 6352 31fe E8000000 		call	_ZN8UnitTest11CurrentTest7DetailsEv
 6352      00
 6353 3203 488B08   		movq	(%rax), %rcx
 6354 3206 488D45C0 		leaq	-64(%rbp), %rax
 6355 320a BA830000 		movl	$131, %edx
 6355      00
 6356 320f 4889CE   		movq	%rcx, %rsi
 6357 3212 4889C7   		movq	%rax, %rdi
 6358 3215 E8000000 		call	_ZN8UnitTest11TestDetailsC1ERKS0_i
 6358      00
 131:testConv.cpp  **** 	CHECK_EQUAL('1', getHexLowerNibble(0xF1));
 6359              		.loc 3 131 0 is_stmt 0 discriminator 12
 6360 321a E8000000 		call	_ZN8UnitTest11CurrentTest7ResultsEv
 6360      00
 6361 321f 488B00   		movq	(%rax), %rax
 6362 3222 488D4DC0 		leaq	-64(%rbp), %rcx
 6363 3226 BA000000 		movl	$.LC48, %edx
 6363      00
 6364 322b 4889CE   		movq	%rcx, %rsi
 6365 322e 4889C7   		movq	%rax, %rdi
 6366 3231 E8000000 		call	_ZN8UnitTest11TestResults13OnTestFailureERKNS_11TestDetailsEPKc
 6366      00
 6367              	.LEHE325:
 6368              	.LEHB326:
 131:testConv.cpp  **** 	CHECK_EQUAL('1', getHexLowerNibble(0xF1));
 6369              		.loc 3 131 0 discriminator 16
 6370 3236 E8000000 		call	__cxa_end_catch
 6370      00
 6371              	.LEHE326:
 6372 323b E957FBFF 		jmp	.L370
 6372      FF
 6373              	.L420:
 6374 3240 4889C3   		movq	%rax, %rbx
 132:testConv.cpp  **** 	CHECK_EQUAL('2', getHexLowerNibble(0xF2));
 6375              		.loc 3 132 0 is_stmt 1
 6376 3243 E8000000 		call	__cxa_end_catch
 6376      00
 6377 3248 4889D8   		movq	%rbx, %rax
 6378 324b 4889C7   		movq	%rax, %rdi
 6379              	.LEHB327:
 6380 324e E8000000 		call	_Unwind_Resume
 6380      00
 6381              	.LEHE327:
 6382              	.L419:
 6383 3253 4889C7   		movq	%rax, %rdi
 6384 3256 E8000000 		call	__cxa_begin_catch
 6384      00
 6385              	.LEHB328:
 6386 325b E8000000 		call	_ZN8UnitTest11CurrentTest7DetailsEv
 6386      00
 6387 3260 488B08   		movq	(%rax), %rcx
 6388 3263 488D45C0 		leaq	-64(%rbp), %rax
 6389 3267 BA840000 		movl	$132, %edx
 6389      00
 6390 326c 4889CE   		movq	%rcx, %rsi
 6391 326f 4889C7   		movq	%rax, %rdi
 6392 3272 E8000000 		call	_ZN8UnitTest11TestDetailsC1ERKS0_i
 6392      00
 132:testConv.cpp  **** 	CHECK_EQUAL('2', getHexLowerNibble(0xF2));
 6393              		.loc 3 132 0 is_stmt 0 discriminator 12
 6394 3277 E8000000 		call	_ZN8UnitTest11CurrentTest7ResultsEv
 6394      00
 6395 327c 488B00   		movq	(%rax), %rax
 6396 327f 488D4DC0 		leaq	-64(%rbp), %rcx
 6397 3283 BA000000 		movl	$.LC49, %edx
 6397      00
 6398 3288 4889CE   		movq	%rcx, %rsi
 6399 328b 4889C7   		movq	%rax, %rdi
 6400 328e E8000000 		call	_ZN8UnitTest11TestResults13OnTestFailureERKNS_11TestDetailsEPKc
 6400      00
 6401              	.LEHE328:
 6402              	.LEHB329:
 132:testConv.cpp  **** 	CHECK_EQUAL('2', getHexLowerNibble(0xF2));
 6403              		.loc 3 132 0 discriminator 16
 6404 3293 E8000000 		call	__cxa_end_catch
 6404      00
 6405              	.LEHE329:
 6406 3298 E943FBFF 		jmp	.L373
 6406      FF
 6407              	.L422:
 6408 329d 4889C3   		movq	%rax, %rbx
 133:testConv.cpp  **** 	CHECK_EQUAL('3', getHexLowerNibble(0xF3));
 6409              		.loc 3 133 0 is_stmt 1
 6410 32a0 E8000000 		call	__cxa_end_catch
 6410      00
 6411 32a5 4889D8   		movq	%rbx, %rax
 6412 32a8 4889C7   		movq	%rax, %rdi
 6413              	.LEHB330:
 6414 32ab E8000000 		call	_Unwind_Resume
 6414      00
 6415              	.LEHE330:
 6416              	.L421:
 6417 32b0 4889C7   		movq	%rax, %rdi
 6418 32b3 E8000000 		call	__cxa_begin_catch
 6418      00
 6419              	.LEHB331:
 6420 32b8 E8000000 		call	_ZN8UnitTest11CurrentTest7DetailsEv
 6420      00
 6421 32bd 488B08   		movq	(%rax), %rcx
 6422 32c0 488D45C0 		leaq	-64(%rbp), %rax
 6423 32c4 BA850000 		movl	$133, %edx
 6423      00
 6424 32c9 4889CE   		movq	%rcx, %rsi
 6425 32cc 4889C7   		movq	%rax, %rdi
 6426 32cf E8000000 		call	_ZN8UnitTest11TestDetailsC1ERKS0_i
 6426      00
 133:testConv.cpp  **** 	CHECK_EQUAL('3', getHexLowerNibble(0xF3));
 6427              		.loc 3 133 0 is_stmt 0 discriminator 12
 6428 32d4 E8000000 		call	_ZN8UnitTest11CurrentTest7ResultsEv
 6428      00
 6429 32d9 488B00   		movq	(%rax), %rax
 6430 32dc 488D4DC0 		leaq	-64(%rbp), %rcx
 6431 32e0 BA000000 		movl	$.LC50, %edx
 6431      00
 6432 32e5 4889CE   		movq	%rcx, %rsi
 6433 32e8 4889C7   		movq	%rax, %rdi
 6434 32eb E8000000 		call	_ZN8UnitTest11TestResults13OnTestFailureERKNS_11TestDetailsEPKc
 6434      00
 6435              	.LEHE331:
 6436              	.LEHB332:
 133:testConv.cpp  **** 	CHECK_EQUAL('3', getHexLowerNibble(0xF3));
 6437              		.loc 3 133 0 discriminator 16
 6438 32f0 E8000000 		call	__cxa_end_catch
 6438      00
 6439              	.LEHE332:
 6440 32f5 E92FFBFF 		jmp	.L376
 6440      FF
 6441              	.L424:
 6442 32fa 4889C3   		movq	%rax, %rbx
 134:testConv.cpp  **** 	CHECK_EQUAL('4', getHexLowerNibble(0xF4));
 6443              		.loc 3 134 0 is_stmt 1
 6444 32fd E8000000 		call	__cxa_end_catch
 6444      00
 6445 3302 4889D8   		movq	%rbx, %rax
 6446 3305 4889C7   		movq	%rax, %rdi
 6447              	.LEHB333:
 6448 3308 E8000000 		call	_Unwind_Resume
 6448      00
 6449              	.LEHE333:
 6450              	.L423:
 6451 330d 4889C7   		movq	%rax, %rdi
 6452 3310 E8000000 		call	__cxa_begin_catch
 6452      00
 6453              	.LEHB334:
 6454 3315 E8000000 		call	_ZN8UnitTest11CurrentTest7DetailsEv
 6454      00
 6455 331a 488B08   		movq	(%rax), %rcx
 6456 331d 488D45C0 		leaq	-64(%rbp), %rax
 6457 3321 BA860000 		movl	$134, %edx
 6457      00
 6458 3326 4889CE   		movq	%rcx, %rsi
 6459 3329 4889C7   		movq	%rax, %rdi
 6460 332c E8000000 		call	_ZN8UnitTest11TestDetailsC1ERKS0_i
 6460      00
 134:testConv.cpp  **** 	CHECK_EQUAL('4', getHexLowerNibble(0xF4));
 6461              		.loc 3 134 0 is_stmt 0 discriminator 12
 6462 3331 E8000000 		call	_ZN8UnitTest11CurrentTest7ResultsEv
 6462      00
 6463 3336 488B00   		movq	(%rax), %rax
 6464 3339 488D4DC0 		leaq	-64(%rbp), %rcx
 6465 333d BA000000 		movl	$.LC51, %edx
 6465      00
 6466 3342 4889CE   		movq	%rcx, %rsi
 6467 3345 4889C7   		movq	%rax, %rdi
 6468 3348 E8000000 		call	_ZN8UnitTest11TestResults13OnTestFailureERKNS_11TestDetailsEPKc
 6468      00
 6469              	.LEHE334:
 6470              	.LEHB335:
 134:testConv.cpp  **** 	CHECK_EQUAL('4', getHexLowerNibble(0xF4));
 6471              		.loc 3 134 0 discriminator 16
 6472 334d E8000000 		call	__cxa_end_catch
 6472      00
 6473              	.LEHE335:
 6474 3352 E91BFBFF 		jmp	.L379
 6474      FF
 6475              	.L426:
 6476 3357 4889C3   		movq	%rax, %rbx
 135:testConv.cpp  **** 	CHECK_EQUAL('5', getHexLowerNibble(0xF5));
 6477              		.loc 3 135 0 is_stmt 1
 6478 335a E8000000 		call	__cxa_end_catch
 6478      00
 6479 335f 4889D8   		movq	%rbx, %rax
 6480 3362 4889C7   		movq	%rax, %rdi
 6481              	.LEHB336:
 6482 3365 E8000000 		call	_Unwind_Resume
 6482      00
 6483              	.LEHE336:
 6484              	.L425:
 6485 336a 4889C7   		movq	%rax, %rdi
 6486 336d E8000000 		call	__cxa_begin_catch
 6486      00
 6487              	.LEHB337:
 6488 3372 E8000000 		call	_ZN8UnitTest11CurrentTest7DetailsEv
 6488      00
 6489 3377 488B08   		movq	(%rax), %rcx
 6490 337a 488D45C0 		leaq	-64(%rbp), %rax
 6491 337e BA870000 		movl	$135, %edx
 6491      00
 6492 3383 4889CE   		movq	%rcx, %rsi
 6493 3386 4889C7   		movq	%rax, %rdi
 6494 3389 E8000000 		call	_ZN8UnitTest11TestDetailsC1ERKS0_i
 6494      00
 135:testConv.cpp  **** 	CHECK_EQUAL('5', getHexLowerNibble(0xF5));
 6495              		.loc 3 135 0 is_stmt 0 discriminator 12
 6496 338e E8000000 		call	_ZN8UnitTest11CurrentTest7ResultsEv
 6496      00
 6497 3393 488B00   		movq	(%rax), %rax
 6498 3396 488D4DC0 		leaq	-64(%rbp), %rcx
 6499 339a BA000000 		movl	$.LC52, %edx
 6499      00
 6500 339f 4889CE   		movq	%rcx, %rsi
 6501 33a2 4889C7   		movq	%rax, %rdi
 6502 33a5 E8000000 		call	_ZN8UnitTest11TestResults13OnTestFailureERKNS_11TestDetailsEPKc
 6502      00
 6503              	.LEHE337:
 6504              	.LEHB338:
 135:testConv.cpp  **** 	CHECK_EQUAL('5', getHexLowerNibble(0xF5));
 6505              		.loc 3 135 0 discriminator 16
 6506 33aa E8000000 		call	__cxa_end_catch
 6506      00
 6507              	.LEHE338:
 6508 33af E907FBFF 		jmp	.L382
 6508      FF
 6509              	.L428:
 6510 33b4 4889C3   		movq	%rax, %rbx
 136:testConv.cpp  **** 	CHECK_EQUAL('6', getHexLowerNibble(0xF6));
 6511              		.loc 3 136 0 is_stmt 1
 6512 33b7 E8000000 		call	__cxa_end_catch
 6512      00
 6513 33bc 4889D8   		movq	%rbx, %rax
 6514 33bf 4889C7   		movq	%rax, %rdi
 6515              	.LEHB339:
 6516 33c2 E8000000 		call	_Unwind_Resume
 6516      00
 6517              	.LEHE339:
 6518              	.L427:
 6519 33c7 4889C7   		movq	%rax, %rdi
 6520 33ca E8000000 		call	__cxa_begin_catch
 6520      00
 6521              	.LEHB340:
 6522 33cf E8000000 		call	_ZN8UnitTest11CurrentTest7DetailsEv
 6522      00
 6523 33d4 488B08   		movq	(%rax), %rcx
 6524 33d7 488D45C0 		leaq	-64(%rbp), %rax
 6525 33db BA880000 		movl	$136, %edx
 6525      00
 6526 33e0 4889CE   		movq	%rcx, %rsi
 6527 33e3 4889C7   		movq	%rax, %rdi
 6528 33e6 E8000000 		call	_ZN8UnitTest11TestDetailsC1ERKS0_i
 6528      00
 136:testConv.cpp  **** 	CHECK_EQUAL('6', getHexLowerNibble(0xF6));
 6529              		.loc 3 136 0 is_stmt 0 discriminator 12
 6530 33eb E8000000 		call	_ZN8UnitTest11CurrentTest7ResultsEv
 6530      00
 6531 33f0 488B00   		movq	(%rax), %rax
 6532 33f3 488D4DC0 		leaq	-64(%rbp), %rcx
 6533 33f7 BA000000 		movl	$.LC53, %edx
 6533      00
 6534 33fc 4889CE   		movq	%rcx, %rsi
 6535 33ff 4889C7   		movq	%rax, %rdi
 6536 3402 E8000000 		call	_ZN8UnitTest11TestResults13OnTestFailureERKNS_11TestDetailsEPKc
 6536      00
 6537              	.LEHE340:
 6538              	.LEHB341:
 136:testConv.cpp  **** 	CHECK_EQUAL('6', getHexLowerNibble(0xF6));
 6539              		.loc 3 136 0 discriminator 16
 6540 3407 E8000000 		call	__cxa_end_catch
 6540      00
 6541              	.LEHE341:
 6542 340c E9F3FAFF 		jmp	.L385
 6542      FF
 6543              	.L430:
 6544 3411 4889C3   		movq	%rax, %rbx
 137:testConv.cpp  **** 	CHECK_EQUAL('7', getHexLowerNibble(0xF7));
 6545              		.loc 3 137 0 is_stmt 1
 6546 3414 E8000000 		call	__cxa_end_catch
 6546      00
 6547 3419 4889D8   		movq	%rbx, %rax
 6548 341c 4889C7   		movq	%rax, %rdi
 6549              	.LEHB342:
 6550 341f E8000000 		call	_Unwind_Resume
 6550      00
 6551              	.LEHE342:
 6552              	.L429:
 6553 3424 4889C7   		movq	%rax, %rdi
 6554 3427 E8000000 		call	__cxa_begin_catch
 6554      00
 6555              	.LEHB343:
 6556 342c E8000000 		call	_ZN8UnitTest11CurrentTest7DetailsEv
 6556      00
 6557 3431 488B08   		movq	(%rax), %rcx
 6558 3434 488D45C0 		leaq	-64(%rbp), %rax
 6559 3438 BA890000 		movl	$137, %edx
 6559      00
 6560 343d 4889CE   		movq	%rcx, %rsi
 6561 3440 4889C7   		movq	%rax, %rdi
 6562 3443 E8000000 		call	_ZN8UnitTest11TestDetailsC1ERKS0_i
 6562      00
 137:testConv.cpp  **** 	CHECK_EQUAL('7', getHexLowerNibble(0xF7));
 6563              		.loc 3 137 0 is_stmt 0 discriminator 12
 6564 3448 E8000000 		call	_ZN8UnitTest11CurrentTest7ResultsEv
 6564      00
 6565 344d 488B00   		movq	(%rax), %rax
 6566 3450 488D4DC0 		leaq	-64(%rbp), %rcx
 6567 3454 BA000000 		movl	$.LC54, %edx
 6567      00
 6568 3459 4889CE   		movq	%rcx, %rsi
 6569 345c 4889C7   		movq	%rax, %rdi
 6570 345f E8000000 		call	_ZN8UnitTest11TestResults13OnTestFailureERKNS_11TestDetailsEPKc
 6570      00
 6571              	.LEHE343:
 6572              	.LEHB344:
 137:testConv.cpp  **** 	CHECK_EQUAL('7', getHexLowerNibble(0xF7));
 6573              		.loc 3 137 0 discriminator 16
 6574 3464 E8000000 		call	__cxa_end_catch
 6574      00
 6575              	.LEHE344:
 6576 3469 E9DFFAFF 		jmp	.L388
 6576      FF
 6577              	.L432:
 6578 346e 4889C3   		movq	%rax, %rbx
 138:testConv.cpp  **** 	CHECK_EQUAL('8', getHexLowerNibble(0xF8));
 6579              		.loc 3 138 0 is_stmt 1
 6580 3471 E8000000 		call	__cxa_end_catch
 6580      00
 6581 3476 4889D8   		movq	%rbx, %rax
 6582 3479 4889C7   		movq	%rax, %rdi
 6583              	.LEHB345:
 6584 347c E8000000 		call	_Unwind_Resume
 6584      00
 6585              	.LEHE345:
 6586              	.L431:
 6587 3481 4889C7   		movq	%rax, %rdi
 6588 3484 E8000000 		call	__cxa_begin_catch
 6588      00
 6589              	.LEHB346:
 6590 3489 E8000000 		call	_ZN8UnitTest11CurrentTest7DetailsEv
 6590      00
 6591 348e 488B08   		movq	(%rax), %rcx
 6592 3491 488D45C0 		leaq	-64(%rbp), %rax
 6593 3495 BA8A0000 		movl	$138, %edx
 6593      00
 6594 349a 4889CE   		movq	%rcx, %rsi
 6595 349d 4889C7   		movq	%rax, %rdi
 6596 34a0 E8000000 		call	_ZN8UnitTest11TestDetailsC1ERKS0_i
 6596      00
 138:testConv.cpp  **** 	CHECK_EQUAL('8', getHexLowerNibble(0xF8));
 6597              		.loc 3 138 0 is_stmt 0 discriminator 12
 6598 34a5 E8000000 		call	_ZN8UnitTest11CurrentTest7ResultsEv
 6598      00
 6599 34aa 488B00   		movq	(%rax), %rax
 6600 34ad 488D4DC0 		leaq	-64(%rbp), %rcx
 6601 34b1 BA000000 		movl	$.LC55, %edx
 6601      00
 6602 34b6 4889CE   		movq	%rcx, %rsi
 6603 34b9 4889C7   		movq	%rax, %rdi
 6604 34bc E8000000 		call	_ZN8UnitTest11TestResults13OnTestFailureERKNS_11TestDetailsEPKc
 6604      00
 6605              	.LEHE346:
 6606              	.LEHB347:
 138:testConv.cpp  **** 	CHECK_EQUAL('8', getHexLowerNibble(0xF8));
 6607              		.loc 3 138 0 discriminator 16
 6608 34c1 E8000000 		call	__cxa_end_catch
 6608      00
 6609              	.LEHE347:
 6610 34c6 E9CBFAFF 		jmp	.L391
 6610      FF
 6611              	.L434:
 6612 34cb 4889C3   		movq	%rax, %rbx
 139:testConv.cpp  **** 	CHECK_EQUAL('9', getHexLowerNibble(0xF9));
 6613              		.loc 3 139 0 is_stmt 1
 6614 34ce E8000000 		call	__cxa_end_catch
 6614      00
 6615 34d3 4889D8   		movq	%rbx, %rax
 6616 34d6 4889C7   		movq	%rax, %rdi
 6617              	.LEHB348:
 6618 34d9 E8000000 		call	_Unwind_Resume
 6618      00
 6619              	.LEHE348:
 6620              	.L433:
 6621 34de 4889C7   		movq	%rax, %rdi
 6622 34e1 E8000000 		call	__cxa_begin_catch
 6622      00
 6623              	.LEHB349:
 6624 34e6 E8000000 		call	_ZN8UnitTest11CurrentTest7DetailsEv
 6624      00
 6625 34eb 488B08   		movq	(%rax), %rcx
 6626 34ee 488D45C0 		leaq	-64(%rbp), %rax
 6627 34f2 BA8B0000 		movl	$139, %edx
 6627      00
 6628 34f7 4889CE   		movq	%rcx, %rsi
 6629 34fa 4889C7   		movq	%rax, %rdi
 6630 34fd E8000000 		call	_ZN8UnitTest11TestDetailsC1ERKS0_i
 6630      00
 139:testConv.cpp  **** 	CHECK_EQUAL('9', getHexLowerNibble(0xF9));
 6631              		.loc 3 139 0 is_stmt 0 discriminator 12
 6632 3502 E8000000 		call	_ZN8UnitTest11CurrentTest7ResultsEv
 6632      00
 6633 3507 488B00   		movq	(%rax), %rax
 6634 350a 488D4DC0 		leaq	-64(%rbp), %rcx
 6635 350e BA000000 		movl	$.LC56, %edx
 6635      00
 6636 3513 4889CE   		movq	%rcx, %rsi
 6637 3516 4889C7   		movq	%rax, %rdi
 6638 3519 E8000000 		call	_ZN8UnitTest11TestResults13OnTestFailureERKNS_11TestDetailsEPKc
 6638      00
 6639              	.LEHE349:
 6640              	.LEHB350:
 139:testConv.cpp  **** 	CHECK_EQUAL('9', getHexLowerNibble(0xF9));
 6641              		.loc 3 139 0 discriminator 16
 6642 351e E8000000 		call	__cxa_end_catch
 6642      00
 6643              	.LEHE350:
 6644 3523 E9B7FAFF 		jmp	.L394
 6644      FF
 6645              	.L436:
 6646 3528 4889C3   		movq	%rax, %rbx
 140:testConv.cpp  **** 	CHECK_EQUAL('A', getHexLowerNibble(0xFA));
 6647              		.loc 3 140 0 is_stmt 1
 6648 352b E8000000 		call	__cxa_end_catch
 6648      00
 6649 3530 4889D8   		movq	%rbx, %rax
 6650 3533 4889C7   		movq	%rax, %rdi
 6651              	.LEHB351:
 6652 3536 E8000000 		call	_Unwind_Resume
 6652      00
 6653              	.LEHE351:
 6654              	.L435:
 6655 353b 4889C7   		movq	%rax, %rdi
 6656 353e E8000000 		call	__cxa_begin_catch
 6656      00
 6657              	.LEHB352:
 6658 3543 E8000000 		call	_ZN8UnitTest11CurrentTest7DetailsEv
 6658      00
 6659 3548 488B08   		movq	(%rax), %rcx
 6660 354b 488D45C0 		leaq	-64(%rbp), %rax
 6661 354f BA8C0000 		movl	$140, %edx
 6661      00
 6662 3554 4889CE   		movq	%rcx, %rsi
 6663 3557 4889C7   		movq	%rax, %rdi
 6664 355a E8000000 		call	_ZN8UnitTest11TestDetailsC1ERKS0_i
 6664      00
 140:testConv.cpp  **** 	CHECK_EQUAL('A', getHexLowerNibble(0xFA));
 6665              		.loc 3 140 0 is_stmt 0 discriminator 12
 6666 355f E8000000 		call	_ZN8UnitTest11CurrentTest7ResultsEv
 6666      00
 6667 3564 488B00   		movq	(%rax), %rax
 6668 3567 488D4DC0 		leaq	-64(%rbp), %rcx
 6669 356b BA000000 		movl	$.LC57, %edx
 6669      00
 6670 3570 4889CE   		movq	%rcx, %rsi
 6671 3573 4889C7   		movq	%rax, %rdi
 6672 3576 E8000000 		call	_ZN8UnitTest11TestResults13OnTestFailureERKNS_11TestDetailsEPKc
 6672      00
 6673              	.LEHE352:
 6674              	.LEHB353:
 140:testConv.cpp  **** 	CHECK_EQUAL('A', getHexLowerNibble(0xFA));
 6675              		.loc 3 140 0 discriminator 16
 6676 357b E8000000 		call	__cxa_end_catch
 6676      00
 6677              	.LEHE353:
 6678 3580 E9A3FAFF 		jmp	.L397
 6678      FF
 6679              	.L438:
 6680 3585 4889C3   		movq	%rax, %rbx
 141:testConv.cpp  **** 	CHECK_EQUAL('B', getHexLowerNibble(0xFB));
 6681              		.loc 3 141 0 is_stmt 1
 6682 3588 E8000000 		call	__cxa_end_catch
 6682      00
 6683 358d 4889D8   		movq	%rbx, %rax
 6684 3590 4889C7   		movq	%rax, %rdi
 6685              	.LEHB354:
 6686 3593 E8000000 		call	_Unwind_Resume
 6686      00
 6687              	.LEHE354:
 6688              	.L437:
 6689 3598 4889C7   		movq	%rax, %rdi
 6690 359b E8000000 		call	__cxa_begin_catch
 6690      00
 6691              	.LEHB355:
 6692 35a0 E8000000 		call	_ZN8UnitTest11CurrentTest7DetailsEv
 6692      00
 6693 35a5 488B08   		movq	(%rax), %rcx
 6694 35a8 488D45C0 		leaq	-64(%rbp), %rax
 6695 35ac BA8D0000 		movl	$141, %edx
 6695      00
 6696 35b1 4889CE   		movq	%rcx, %rsi
 6697 35b4 4889C7   		movq	%rax, %rdi
 6698 35b7 E8000000 		call	_ZN8UnitTest11TestDetailsC1ERKS0_i
 6698      00
 141:testConv.cpp  **** 	CHECK_EQUAL('B', getHexLowerNibble(0xFB));
 6699              		.loc 3 141 0 is_stmt 0 discriminator 12
 6700 35bc E8000000 		call	_ZN8UnitTest11CurrentTest7ResultsEv
 6700      00
 6701 35c1 488B00   		movq	(%rax), %rax
 6702 35c4 488D4DC0 		leaq	-64(%rbp), %rcx
 6703 35c8 BA000000 		movl	$.LC58, %edx
 6703      00
 6704 35cd 4889CE   		movq	%rcx, %rsi
 6705 35d0 4889C7   		movq	%rax, %rdi
 6706 35d3 E8000000 		call	_ZN8UnitTest11TestResults13OnTestFailureERKNS_11TestDetailsEPKc
 6706      00
 6707              	.LEHE355:
 6708              	.LEHB356:
 141:testConv.cpp  **** 	CHECK_EQUAL('B', getHexLowerNibble(0xFB));
 6709              		.loc 3 141 0 discriminator 16
 6710 35d8 E8000000 		call	__cxa_end_catch
 6710      00
 6711              	.LEHE356:
 6712 35dd E98FFAFF 		jmp	.L400
 6712      FF
 6713              	.L440:
 6714 35e2 4889C3   		movq	%rax, %rbx
 142:testConv.cpp  **** 	CHECK_EQUAL('C', getHexLowerNibble(0xFC));
 6715              		.loc 3 142 0 is_stmt 1
 6716 35e5 E8000000 		call	__cxa_end_catch
 6716      00
 6717 35ea 4889D8   		movq	%rbx, %rax
 6718 35ed 4889C7   		movq	%rax, %rdi
 6719              	.LEHB357:
 6720 35f0 E8000000 		call	_Unwind_Resume
 6720      00
 6721              	.LEHE357:
 6722              	.L439:
 6723 35f5 4889C7   		movq	%rax, %rdi
 6724 35f8 E8000000 		call	__cxa_begin_catch
 6724      00
 6725              	.LEHB358:
 6726 35fd E8000000 		call	_ZN8UnitTest11CurrentTest7DetailsEv
 6726      00
 6727 3602 488B08   		movq	(%rax), %rcx
 6728 3605 488D45C0 		leaq	-64(%rbp), %rax
 6729 3609 BA8E0000 		movl	$142, %edx
 6729      00
 6730 360e 4889CE   		movq	%rcx, %rsi
 6731 3611 4889C7   		movq	%rax, %rdi
 6732 3614 E8000000 		call	_ZN8UnitTest11TestDetailsC1ERKS0_i
 6732      00
 142:testConv.cpp  **** 	CHECK_EQUAL('C', getHexLowerNibble(0xFC));
 6733              		.loc 3 142 0 is_stmt 0 discriminator 12
 6734 3619 E8000000 		call	_ZN8UnitTest11CurrentTest7ResultsEv
 6734      00
 6735 361e 488B00   		movq	(%rax), %rax
 6736 3621 488D4DC0 		leaq	-64(%rbp), %rcx
 6737 3625 BA000000 		movl	$.LC59, %edx
 6737      00
 6738 362a 4889CE   		movq	%rcx, %rsi
 6739 362d 4889C7   		movq	%rax, %rdi
 6740 3630 E8000000 		call	_ZN8UnitTest11TestResults13OnTestFailureERKNS_11TestDetailsEPKc
 6740      00
 6741              	.LEHE358:
 6742              	.LEHB359:
 142:testConv.cpp  **** 	CHECK_EQUAL('C', getHexLowerNibble(0xFC));
 6743              		.loc 3 142 0 discriminator 16
 6744 3635 E8000000 		call	__cxa_end_catch
 6744      00
 6745              	.LEHE359:
 6746 363a E97BFAFF 		jmp	.L403
 6746      FF
 6747              	.L442:
 6748 363f 4889C3   		movq	%rax, %rbx
 143:testConv.cpp  **** 	CHECK_EQUAL('D', getHexLowerNibble(0xFD));
 6749              		.loc 3 143 0 is_stmt 1
 6750 3642 E8000000 		call	__cxa_end_catch
 6750      00
 6751 3647 4889D8   		movq	%rbx, %rax
 6752 364a 4889C7   		movq	%rax, %rdi
 6753              	.LEHB360:
 6754 364d E8000000 		call	_Unwind_Resume
 6754      00
 6755              	.LEHE360:
 6756              	.L441:
 6757 3652 4889C7   		movq	%rax, %rdi
 6758 3655 E8000000 		call	__cxa_begin_catch
 6758      00
 6759              	.LEHB361:
 6760 365a E8000000 		call	_ZN8UnitTest11CurrentTest7DetailsEv
 6760      00
 6761 365f 488B08   		movq	(%rax), %rcx
 6762 3662 488D45C0 		leaq	-64(%rbp), %rax
 6763 3666 BA8F0000 		movl	$143, %edx
 6763      00
 6764 366b 4889CE   		movq	%rcx, %rsi
 6765 366e 4889C7   		movq	%rax, %rdi
 6766 3671 E8000000 		call	_ZN8UnitTest11TestDetailsC1ERKS0_i
 6766      00
 143:testConv.cpp  **** 	CHECK_EQUAL('D', getHexLowerNibble(0xFD));
 6767              		.loc 3 143 0 is_stmt 0 discriminator 12
 6768 3676 E8000000 		call	_ZN8UnitTest11CurrentTest7ResultsEv
 6768      00
 6769 367b 488B00   		movq	(%rax), %rax
 6770 367e 488D4DC0 		leaq	-64(%rbp), %rcx
 6771 3682 BA000000 		movl	$.LC60, %edx
 6771      00
 6772 3687 4889CE   		movq	%rcx, %rsi
 6773 368a 4889C7   		movq	%rax, %rdi
 6774 368d E8000000 		call	_ZN8UnitTest11TestResults13OnTestFailureERKNS_11TestDetailsEPKc
 6774      00
 6775              	.LEHE361:
 6776              	.LEHB362:
 143:testConv.cpp  **** 	CHECK_EQUAL('D', getHexLowerNibble(0xFD));
 6777              		.loc 3 143 0 discriminator 16
 6778 3692 E8000000 		call	__cxa_end_catch
 6778      00
 6779              	.LEHE362:
 6780 3697 E967FAFF 		jmp	.L406
 6780      FF
 6781              	.L444:
 6782 369c 4889C3   		movq	%rax, %rbx
 144:testConv.cpp  **** 	CHECK_EQUAL('E', getHexLowerNibble(0xFE));
 6783              		.loc 3 144 0 is_stmt 1
 6784 369f E8000000 		call	__cxa_end_catch
 6784      00
 6785 36a4 4889D8   		movq	%rbx, %rax
 6786 36a7 4889C7   		movq	%rax, %rdi
 6787              	.LEHB363:
 6788 36aa E8000000 		call	_Unwind_Resume
 6788      00
 6789              	.LEHE363:
 6790              	.L443:
 6791 36af 4889C7   		movq	%rax, %rdi
 6792 36b2 E8000000 		call	__cxa_begin_catch
 6792      00
 6793              	.LEHB364:
 6794 36b7 E8000000 		call	_ZN8UnitTest11CurrentTest7DetailsEv
 6794      00
 6795 36bc 488B08   		movq	(%rax), %rcx
 6796 36bf 488D45C0 		leaq	-64(%rbp), %rax
 6797 36c3 BA900000 		movl	$144, %edx
 6797      00
 6798 36c8 4889CE   		movq	%rcx, %rsi
 6799 36cb 4889C7   		movq	%rax, %rdi
 6800 36ce E8000000 		call	_ZN8UnitTest11TestDetailsC1ERKS0_i
 6800      00
 144:testConv.cpp  **** 	CHECK_EQUAL('E', getHexLowerNibble(0xFE));
 6801              		.loc 3 144 0 is_stmt 0 discriminator 12
 6802 36d3 E8000000 		call	_ZN8UnitTest11CurrentTest7ResultsEv
 6802      00
 6803 36d8 488B00   		movq	(%rax), %rax
 6804 36db 488D4DC0 		leaq	-64(%rbp), %rcx
 6805 36df BA000000 		movl	$.LC61, %edx
 6805      00
 6806 36e4 4889CE   		movq	%rcx, %rsi
 6807 36e7 4889C7   		movq	%rax, %rdi
 6808 36ea E8000000 		call	_ZN8UnitTest11TestResults13OnTestFailureERKNS_11TestDetailsEPKc
 6808      00
 6809              	.LEHE364:
 6810              	.LEHB365:
 144:testConv.cpp  **** 	CHECK_EQUAL('E', getHexLowerNibble(0xFE));
 6811              		.loc 3 144 0 discriminator 16
 6812 36ef E8000000 		call	__cxa_end_catch
 6812      00
 6813              	.LEHE365:
 6814 36f4 E953FAFF 		jmp	.L409
 6814      FF
 6815              	.L446:
 6816 36f9 4889C3   		movq	%rax, %rbx
 145:testConv.cpp  **** 	CHECK_EQUAL('F', getHexLowerNibble(0xFF));
 6817              		.loc 3 145 0 is_stmt 1
 6818 36fc E8000000 		call	__cxa_end_catch
 6818      00
 6819 3701 4889D8   		movq	%rbx, %rax
 6820 3704 4889C7   		movq	%rax, %rdi
 6821              	.LEHB366:
 6822 3707 E8000000 		call	_Unwind_Resume
 6822      00
 6823              	.LEHE366:
 6824              	.L445:
 6825 370c 4889C7   		movq	%rax, %rdi
 6826 370f E8000000 		call	__cxa_begin_catch
 6826      00
 6827              	.LEHB367:
 6828 3714 E8000000 		call	_ZN8UnitTest11CurrentTest7DetailsEv
 6828      00
 6829 3719 488B08   		movq	(%rax), %rcx
 6830 371c 488D45C0 		leaq	-64(%rbp), %rax
 6831 3720 BA910000 		movl	$145, %edx
 6831      00
 6832 3725 4889CE   		movq	%rcx, %rsi
 6833 3728 4889C7   		movq	%rax, %rdi
 6834 372b E8000000 		call	_ZN8UnitTest11TestDetailsC1ERKS0_i
 6834      00
 145:testConv.cpp  **** 	CHECK_EQUAL('F', getHexLowerNibble(0xFF));
 6835              		.loc 3 145 0 is_stmt 0 discriminator 12
 6836 3730 E8000000 		call	_ZN8UnitTest11CurrentTest7ResultsEv
 6836      00
 6837 3735 488B00   		movq	(%rax), %rax
 6838 3738 488D4DC0 		leaq	-64(%rbp), %rcx
 6839 373c BA000000 		movl	$.LC62, %edx
 6839      00
 6840 3741 4889CE   		movq	%rcx, %rsi
 6841 3744 4889C7   		movq	%rax, %rdi
 6842 3747 E8000000 		call	_ZN8UnitTest11TestResults13OnTestFailureERKNS_11TestDetailsEPKc
 6842      00
 6843              	.LEHE367:
 6844              	.LEHB368:
 145:testConv.cpp  **** 	CHECK_EQUAL('F', getHexLowerNibble(0xFF));
 6845              		.loc 3 145 0 discriminator 16
 6846 374c E8000000 		call	__cxa_end_catch
 6846      00
 6847              	.LEHE368:
 6848 3751 E93FFAFF 		jmp	.L412
 6848      FF
 6849              	.L448:
 6850 3756 4889C3   		movq	%rax, %rbx
 146:testConv.cpp  **** }
 6851              		.loc 3 146 0 is_stmt 1
 6852 3759 E8000000 		call	__cxa_end_catch
 6852      00
 6853 375e 4889D8   		movq	%rbx, %rax
 6854 3761 4889C7   		movq	%rax, %rdi
 6855              	.LEHB369:
 6856 3764 E8000000 		call	_Unwind_Resume
 6856      00
 6857              	.LEHE369:
 6858              	.L447:
 6859 3769 4889C7   		movq	%rax, %rdi
 6860 376c E8000000 		call	__cxa_begin_catch
 6860      00
 6861              	.LEHB370:
 6862 3771 E8000000 		call	_ZN8UnitTest11CurrentTest7DetailsEv
 6862      00
 6863 3776 488B08   		movq	(%rax), %rcx
 6864 3779 488D45C0 		leaq	-64(%rbp), %rax
 6865 377d BA920000 		movl	$146, %edx
 6865      00
 6866 3782 4889CE   		movq	%rcx, %rsi
 6867 3785 4889C7   		movq	%rax, %rdi
 6868 3788 E8000000 		call	_ZN8UnitTest11TestDetailsC1ERKS0_i
 6868      00
 146:testConv.cpp  **** }
 6869              		.loc 3 146 0 is_stmt 0 discriminator 12
 6870 378d E8000000 		call	_ZN8UnitTest11CurrentTest7ResultsEv
 6870      00
 6871 3792 488B00   		movq	(%rax), %rax
 6872 3795 488D4DC0 		leaq	-64(%rbp), %rcx
 6873 3799 BA000000 		movl	$.LC63, %edx
 6873      00
 6874 379e 4889CE   		movq	%rcx, %rsi
 6875 37a1 4889C7   		movq	%rax, %rdi
 6876 37a4 E8000000 		call	_ZN8UnitTest11TestResults13OnTestFailureERKNS_11TestDetailsEPKc
 6876      00
 6877              	.LEHE370:
 6878              	.LEHB371:
 146:testConv.cpp  **** }
 6879              		.loc 3 146 0 discriminator 16
 6880 37a9 E8000000 		call	__cxa_end_catch
 6880      00
 6881              	.LEHE371:
 6882              	.L449:
 6883              		.loc 3 147 0 is_stmt 1
 6884 37ae 90       		nop
 6885 37af 488B45E8 		movq	-24(%rbp), %rax
 6886 37b3 64483304 		xorq	%fs:40, %rax
 6886      25280000 
 6886      00
 6887 37bc 7405     		je	.L416
 6888 37be E8000000 		call	__stack_chk_fail
 6888      00
 6889              	.L416:
 6890 37c3 4883C458 		addq	$88, %rsp
 6891 37c7 5B       		popq	%rbx
 6892 37c8 5D       		popq	%rbp
 6893              		.cfi_def_cfa 7, 8
 6894 37c9 C3       		ret
 6895              		.cfi_endproc
 6896              	.LFE1084:
 6897              		.section	.gcc_except_table
 6898              		.align 4
 6899              	.LLSDA1084:
 6900 069c FF       		.byte	0xff
 6901 069d 03       		.byte	0x3
 6902 069e E802     		.uleb128 .LLSDATT1084-.LLSDATTD1084
 6903              	.LLSDATTD1084:
 6904 06a0 01       		.byte	0x1
 6905 06a1 DE02     		.uleb128 .LLSDACSE1084-.LLSDACSB1084
 6906              	.LLSDACSB1084:
 6907 06a3 1C       		.uleb128 .LEHB308-.LFB1084
 6908 06a4 49       		.uleb128 .LEHE308-.LEHB308
 6909 06a5 C409     		.uleb128 .L417-.LFB1084
 6910 06a7 01       		.uleb128 0x1
 6911 06a8 65       		.uleb128 .LEHB309-.LFB1084
 6912 06a9 49       		.uleb128 .LEHE309-.LEHB309
 6913 06aa A10A     		.uleb128 .L419-.LFB1084
 6914 06ac 01       		.uleb128 0x1
 6915 06ad AE01     		.uleb128 .LEHB310-.LFB1084
 6916 06af 49       		.uleb128 .LEHE310-.LEHB310
 6917 06b0 FE0A     		.uleb128 .L421-.LFB1084
 6918 06b2 01       		.uleb128 0x1
 6919 06b3 F701     		.uleb128 .LEHB311-.LFB1084
 6920 06b5 49       		.uleb128 .LEHE311-.LEHB311
 6921 06b6 DB0B     		.uleb128 .L423-.LFB1084
 6922 06b8 01       		.uleb128 0x1
 6923 06b9 C002     		.uleb128 .LEHB312-.LFB1084
 6924 06bb 49       		.uleb128 .LEHE312-.LEHB312
 6925 06bc B80C     		.uleb128 .L425-.LFB1084
 6926 06be 01       		.uleb128 0x1
 6927 06bf 8903     		.uleb128 .LEHB313-.LFB1084
 6928 06c1 49       		.uleb128 .LEHE313-.LEHB313
 6929 06c2 950D     		.uleb128 .L427-.LFB1084
 6930 06c4 01       		.uleb128 0x1
 6931 06c5 D203     		.uleb128 .LEHB314-.LFB1084
 6932 06c7 49       		.uleb128 .LEHE314-.LEHB314
 6933 06c8 F20D     		.uleb128 .L429-.LFB1084
 6934 06ca 01       		.uleb128 0x1
 6935 06cb 9B04     		.uleb128 .LEHB315-.LFB1084
 6936 06cd 49       		.uleb128 .LEHE315-.LEHB315
 6937 06ce CF0E     		.uleb128 .L431-.LFB1084
 6938 06d0 01       		.uleb128 0x1
 6939 06d1 E404     		.uleb128 .LEHB316-.LFB1084
 6940 06d3 49       		.uleb128 .LEHE316-.LEHB316
 6941 06d4 AC0F     		.uleb128 .L433-.LFB1084
 6942 06d6 01       		.uleb128 0x1
 6943 06d7 AD05     		.uleb128 .LEHB317-.LFB1084
 6944 06d9 49       		.uleb128 .LEHE317-.LEHB317
 6945 06da 8910     		.uleb128 .L435-.LFB1084
 6946 06dc 01       		.uleb128 0x1
 6947 06dd F605     		.uleb128 .LEHB318-.LFB1084
 6948 06df 49       		.uleb128 .LEHE318-.LEHB318
 6949 06e0 E610     		.uleb128 .L437-.LFB1084
 6950 06e2 01       		.uleb128 0x1
 6951 06e3 BF06     		.uleb128 .LEHB319-.LFB1084
 6952 06e5 49       		.uleb128 .LEHE319-.LEHB319
 6953 06e6 C311     		.uleb128 .L439-.LFB1084
 6954 06e8 01       		.uleb128 0x1
 6955 06e9 8807     		.uleb128 .LEHB320-.LFB1084
 6956 06eb 49       		.uleb128 .LEHE320-.LEHB320
 6957 06ec A012     		.uleb128 .L441-.LFB1084
 6958 06ee 01       		.uleb128 0x1
 6959 06ef D107     		.uleb128 .LEHB321-.LFB1084
 6960 06f1 49       		.uleb128 .LEHE321-.LEHB321
 6961 06f2 FD12     		.uleb128 .L443-.LFB1084
 6962 06f4 01       		.uleb128 0x1
 6963 06f5 9A08     		.uleb128 .LEHB322-.LFB1084
 6964 06f7 49       		.uleb128 .LEHE322-.LEHB322
 6965 06f8 DA13     		.uleb128 .L445-.LFB1084
 6966 06fa 01       		.uleb128 0x1
 6967 06fb E308     		.uleb128 .LEHB323-.LFB1084
 6968 06fd 49       		.uleb128 .LEHE323-.LEHB323
 6969 06fe B714     		.uleb128 .L447-.LFB1084
 6970 0700 01       		.uleb128 0x1
 6971 0701 BF09     		.uleb128 .LEHB324-.LFB1084
 6972 0703 05       		.uleb128 .LEHE324-.LEHB324
 6973 0704 00       		.uleb128 0
 6974 0705 00       		.uleb128 0
 6975 0706 CC09     		.uleb128 .LEHB325-.LFB1084
 6976 0708 38       		.uleb128 .LEHE325-.LEHB325
 6977 0709 B109     		.uleb128 .L418-.LFB1084
 6978 070b 00       		.uleb128 0
 6979 070c 840A     		.uleb128 .LEHB326-.LFB1084
 6980 070e 05       		.uleb128 .LEHE326-.LEHB326
 6981 070f 00       		.uleb128 0
 6982 0710 00       		.uleb128 0
 6983 0711 9C0A     		.uleb128 .LEHB327-.LFB1084
 6984 0713 05       		.uleb128 .LEHE327-.LEHB327
 6985 0714 00       		.uleb128 0
 6986 0715 00       		.uleb128 0
 6987 0716 A90A     		.uleb128 .LEHB328-.LFB1084
 6988 0718 38       		.uleb128 .LEHE328-.LEHB328
 6989 0719 8E0A     		.uleb128 .L420-.LFB1084
 6990 071b 00       		.uleb128 0
 6991 071c E10A     		.uleb128 .LEHB329-.LFB1084
 6992 071e 05       		.uleb128 .LEHE329-.LEHB329
 6993 071f 00       		.uleb128 0
 6994 0720 00       		.uleb128 0
 6995 0721 F90A     		.uleb128 .LEHB330-.LFB1084
 6996 0723 05       		.uleb128 .LEHE330-.LEHB330
 6997 0724 00       		.uleb128 0
 6998 0725 00       		.uleb128 0
 6999 0726 860B     		.uleb128 .LEHB331-.LFB1084
 7000 0728 38       		.uleb128 .LEHE331-.LEHB331
 7001 0729 EB0A     		.uleb128 .L422-.LFB1084
 7002 072b 00       		.uleb128 0
 7003 072c BE0B     		.uleb128 .LEHB332-.LFB1084
 7004 072e 05       		.uleb128 .LEHE332-.LEHB332
 7005 072f 00       		.uleb128 0
 7006 0730 00       		.uleb128 0
 7007 0731 D60B     		.uleb128 .LEHB333-.LFB1084
 7008 0733 05       		.uleb128 .LEHE333-.LEHB333
 7009 0734 00       		.uleb128 0
 7010 0735 00       		.uleb128 0
 7011 0736 E30B     		.uleb128 .LEHB334-.LFB1084
 7012 0738 38       		.uleb128 .LEHE334-.LEHB334
 7013 0739 C80B     		.uleb128 .L424-.LFB1084
 7014 073b 00       		.uleb128 0
 7015 073c 9B0C     		.uleb128 .LEHB335-.LFB1084
 7016 073e 05       		.uleb128 .LEHE335-.LEHB335
 7017 073f 00       		.uleb128 0
 7018 0740 00       		.uleb128 0
 7019 0741 B30C     		.uleb128 .LEHB336-.LFB1084
 7020 0743 05       		.uleb128 .LEHE336-.LEHB336
 7021 0744 00       		.uleb128 0
 7022 0745 00       		.uleb128 0
 7023 0746 C00C     		.uleb128 .LEHB337-.LFB1084
 7024 0748 38       		.uleb128 .LEHE337-.LEHB337
 7025 0749 A50C     		.uleb128 .L426-.LFB1084
 7026 074b 00       		.uleb128 0
 7027 074c F80C     		.uleb128 .LEHB338-.LFB1084
 7028 074e 05       		.uleb128 .LEHE338-.LEHB338
 7029 074f 00       		.uleb128 0
 7030 0750 00       		.uleb128 0
 7031 0751 900D     		.uleb128 .LEHB339-.LFB1084
 7032 0753 05       		.uleb128 .LEHE339-.LEHB339
 7033 0754 00       		.uleb128 0
 7034 0755 00       		.uleb128 0
 7035 0756 9D0D     		.uleb128 .LEHB340-.LFB1084
 7036 0758 38       		.uleb128 .LEHE340-.LEHB340
 7037 0759 820D     		.uleb128 .L428-.LFB1084
 7038 075b 00       		.uleb128 0
 7039 075c D50D     		.uleb128 .LEHB341-.LFB1084
 7040 075e 05       		.uleb128 .LEHE341-.LEHB341
 7041 075f 00       		.uleb128 0
 7042 0760 00       		.uleb128 0
 7043 0761 ED0D     		.uleb128 .LEHB342-.LFB1084
 7044 0763 05       		.uleb128 .LEHE342-.LEHB342
 7045 0764 00       		.uleb128 0
 7046 0765 00       		.uleb128 0
 7047 0766 FA0D     		.uleb128 .LEHB343-.LFB1084
 7048 0768 38       		.uleb128 .LEHE343-.LEHB343
 7049 0769 DF0D     		.uleb128 .L430-.LFB1084
 7050 076b 00       		.uleb128 0
 7051 076c B20E     		.uleb128 .LEHB344-.LFB1084
 7052 076e 05       		.uleb128 .LEHE344-.LEHB344
 7053 076f 00       		.uleb128 0
 7054 0770 00       		.uleb128 0
 7055 0771 CA0E     		.uleb128 .LEHB345-.LFB1084
 7056 0773 05       		.uleb128 .LEHE345-.LEHB345
 7057 0774 00       		.uleb128 0
 7058 0775 00       		.uleb128 0
 7059 0776 D70E     		.uleb128 .LEHB346-.LFB1084
 7060 0778 38       		.uleb128 .LEHE346-.LEHB346
 7061 0779 BC0E     		.uleb128 .L432-.LFB1084
 7062 077b 00       		.uleb128 0
 7063 077c 8F0F     		.uleb128 .LEHB347-.LFB1084
 7064 077e 05       		.uleb128 .LEHE347-.LEHB347
 7065 077f 00       		.uleb128 0
 7066 0780 00       		.uleb128 0
 7067 0781 A70F     		.uleb128 .LEHB348-.LFB1084
 7068 0783 05       		.uleb128 .LEHE348-.LEHB348
 7069 0784 00       		.uleb128 0
 7070 0785 00       		.uleb128 0
 7071 0786 B40F     		.uleb128 .LEHB349-.LFB1084
 7072 0788 38       		.uleb128 .LEHE349-.LEHB349
 7073 0789 990F     		.uleb128 .L434-.LFB1084
 7074 078b 00       		.uleb128 0
 7075 078c EC0F     		.uleb128 .LEHB350-.LFB1084
 7076 078e 05       		.uleb128 .LEHE350-.LEHB350
 7077 078f 00       		.uleb128 0
 7078 0790 00       		.uleb128 0
 7079 0791 8410     		.uleb128 .LEHB351-.LFB1084
 7080 0793 05       		.uleb128 .LEHE351-.LEHB351
 7081 0794 00       		.uleb128 0
 7082 0795 00       		.uleb128 0
 7083 0796 9110     		.uleb128 .LEHB352-.LFB1084
 7084 0798 38       		.uleb128 .LEHE352-.LEHB352
 7085 0799 F60F     		.uleb128 .L436-.LFB1084
 7086 079b 00       		.uleb128 0
 7087 079c C910     		.uleb128 .LEHB353-.LFB1084
 7088 079e 05       		.uleb128 .LEHE353-.LEHB353
 7089 079f 00       		.uleb128 0
 7090 07a0 00       		.uleb128 0
 7091 07a1 E110     		.uleb128 .LEHB354-.LFB1084
 7092 07a3 05       		.uleb128 .LEHE354-.LEHB354
 7093 07a4 00       		.uleb128 0
 7094 07a5 00       		.uleb128 0
 7095 07a6 EE10     		.uleb128 .LEHB355-.LFB1084
 7096 07a8 38       		.uleb128 .LEHE355-.LEHB355
 7097 07a9 D310     		.uleb128 .L438-.LFB1084
 7098 07ab 00       		.uleb128 0
 7099 07ac A611     		.uleb128 .LEHB356-.LFB1084
 7100 07ae 05       		.uleb128 .LEHE356-.LEHB356
 7101 07af 00       		.uleb128 0
 7102 07b0 00       		.uleb128 0
 7103 07b1 BE11     		.uleb128 .LEHB357-.LFB1084
 7104 07b3 05       		.uleb128 .LEHE357-.LEHB357
 7105 07b4 00       		.uleb128 0
 7106 07b5 00       		.uleb128 0
 7107 07b6 CB11     		.uleb128 .LEHB358-.LFB1084
 7108 07b8 38       		.uleb128 .LEHE358-.LEHB358
 7109 07b9 B011     		.uleb128 .L440-.LFB1084
 7110 07bb 00       		.uleb128 0
 7111 07bc 8312     		.uleb128 .LEHB359-.LFB1084
 7112 07be 05       		.uleb128 .LEHE359-.LEHB359
 7113 07bf 00       		.uleb128 0
 7114 07c0 00       		.uleb128 0
 7115 07c1 9B12     		.uleb128 .LEHB360-.LFB1084
 7116 07c3 05       		.uleb128 .LEHE360-.LEHB360
 7117 07c4 00       		.uleb128 0
 7118 07c5 00       		.uleb128 0
 7119 07c6 A812     		.uleb128 .LEHB361-.LFB1084
 7120 07c8 38       		.uleb128 .LEHE361-.LEHB361
 7121 07c9 8D12     		.uleb128 .L442-.LFB1084
 7122 07cb 00       		.uleb128 0
 7123 07cc E012     		.uleb128 .LEHB362-.LFB1084
 7124 07ce 05       		.uleb128 .LEHE362-.LEHB362
 7125 07cf 00       		.uleb128 0
 7126 07d0 00       		.uleb128 0
 7127 07d1 F812     		.uleb128 .LEHB363-.LFB1084
 7128 07d3 05       		.uleb128 .LEHE363-.LEHB363
 7129 07d4 00       		.uleb128 0
 7130 07d5 00       		.uleb128 0
 7131 07d6 8513     		.uleb128 .LEHB364-.LFB1084
 7132 07d8 38       		.uleb128 .LEHE364-.LEHB364
 7133 07d9 EA12     		.uleb128 .L444-.LFB1084
 7134 07db 00       		.uleb128 0
 7135 07dc BD13     		.uleb128 .LEHB365-.LFB1084
 7136 07de 05       		.uleb128 .LEHE365-.LEHB365
 7137 07df 00       		.uleb128 0
 7138 07e0 00       		.uleb128 0
 7139 07e1 D513     		.uleb128 .LEHB366-.LFB1084
 7140 07e3 05       		.uleb128 .LEHE366-.LEHB366
 7141 07e4 00       		.uleb128 0
 7142 07e5 00       		.uleb128 0
 7143 07e6 E213     		.uleb128 .LEHB367-.LFB1084
 7144 07e8 38       		.uleb128 .LEHE367-.LEHB367
 7145 07e9 C713     		.uleb128 .L446-.LFB1084
 7146 07eb 00       		.uleb128 0
 7147 07ec 9A14     		.uleb128 .LEHB368-.LFB1084
 7148 07ee 05       		.uleb128 .LEHE368-.LEHB368
 7149 07ef 00       		.uleb128 0
 7150 07f0 00       		.uleb128 0
 7151 07f1 B214     		.uleb128 .LEHB369-.LFB1084
 7152 07f3 05       		.uleb128 .LEHE369-.LEHB369
 7153 07f4 00       		.uleb128 0
 7154 07f5 00       		.uleb128 0
 7155 07f6 BF14     		.uleb128 .LEHB370-.LFB1084
 7156 07f8 38       		.uleb128 .LEHE370-.LEHB370
 7157 07f9 A414     		.uleb128 .L448-.LFB1084
 7158 07fb 00       		.uleb128 0
 7159 07fc F714     		.uleb128 .LEHB371-.LFB1084
 7160 07fe 05       		.uleb128 .LEHE371-.LEHB371
 7161 07ff 00       		.uleb128 0
 7162 0800 00       		.uleb128 0
 7163              	.LLSDACSE1084:
 7164 0801 01       		.byte	0x1
 7165 0802 00       		.byte	0
 7166 0803 00       		.align 4
 7167 0804 00000000 		.long	0
 7168              	
 7169              	.LLSDATT1084:
 7170              		.text
 7172              		.section	.text._ZN8UnitTest15MemoryOutStreamD1Ev,"axG",@progbits,_ZN8UnitTest15MemoryOutStreamD1Ev
 7173              		.align 2
 7174              		.weak	_ZN8UnitTest15MemoryOutStreamD1Ev
 7176              	_ZN8UnitTest15MemoryOutStreamD1Ev:
 7177              	.LFB1115:
  13:/home/asoreyh/Dropbox/projects/lago/lago-software/acqua/brc/lago/makestuff/libs/libutpp/MemoryOutStream.h **** {
 7178              		.loc 2 13 0
 7179              		.cfi_startproc
 7180              		.cfi_personality 0x3,__gxx_personality_v0
 7181              		.cfi_lsda 0x3,.LLSDA1115
 7182 0000 55       		pushq	%rbp
 7183              		.cfi_def_cfa_offset 16
 7184              		.cfi_offset 6, -16
 7185 0001 4889E5   		movq	%rsp, %rbp
 7186              		.cfi_def_cfa_register 6
 7187 0004 53       		pushq	%rbx
 7188 0005 4883EC18 		subq	$24, %rsp
 7189              		.cfi_offset 3, -24
 7190 0009 48897DE8 		movq	%rdi, -24(%rbp)
 7191              	.LBB12:
  13:/home/asoreyh/Dropbox/projects/lago/lago-software/acqua/brc/lago/makestuff/libs/libutpp/MemoryOutStream.h **** {
 7192              		.loc 2 13 0
 7193 000d BA000000 		movl	$_ZTVN8UnitTest15MemoryOutStreamE+24, %edx
 7193      00
 7194 0012 488B45E8 		movq	-24(%rbp), %rax
 7195 0016 488910   		movq	%rdx, (%rax)
 7196 0019 BA600000 		movl	$96, %edx
 7196      00
 7197 001e 488B45E8 		movq	-24(%rbp), %rax
 7198 0022 4801D0   		addq	%rdx, %rax
 7199 0025 BA000000 		movl	$_ZTVN8UnitTest15MemoryOutStreamE+64, %edx
 7199      00
 7200 002a 488910   		movq	%rdx, (%rax)
 7201 002d 488B45E8 		movq	-24(%rbp), %rax
 7202 0031 4883C058 		addq	$88, %rax
 7203 0035 4889C7   		movq	%rax, %rdi
 7204              	.LEHB372:
 7205 0038 E8000000 		call	_ZNSsD1Ev
 7205      00
 7206              	.LEHE372:
  13:/home/asoreyh/Dropbox/projects/lago/lago-software/acqua/brc/lago/makestuff/libs/libutpp/MemoryOutStream.h **** {
 7207              		.loc 2 13 0 is_stmt 0 discriminator 14
 7208 003d BA000000 		movl	$_ZTTN8UnitTest15MemoryOutStreamE+8, %edx
 7208      00
 7209 0042 488B45E8 		movq	-24(%rbp), %rax
 7210 0046 4889D6   		movq	%rdx, %rsi
 7211 0049 4889C7   		movq	%rax, %rdi
 7212              	.LEHB373:
 7213 004c E8000000 		call	_ZNSt19basic_ostringstreamIcSt11char_traitsIcESaIcEED2Ev
 7213      00
 7214              	.LEHE373:
  13:/home/asoreyh/Dropbox/projects/lago/lago-software/acqua/brc/lago/makestuff/libs/libutpp/MemoryOutStream.h **** {
 7215              		.loc 2 13 0 discriminator 20
 7216 0051 B8020000 		movl	$2, %eax
 7216      00
 7217 0056 85C0     		testl	%eax, %eax
 7218 0058 7410     		je	.L452
  13:/home/asoreyh/Dropbox/projects/lago/lago-software/acqua/brc/lago/makestuff/libs/libutpp/MemoryOutStream.h **** {
 7219              		.loc 2 13 0 discriminator 21
 7220 005a 488B45E8 		movq	-24(%rbp), %rax
 7221 005e 4883C060 		addq	$96, %rax
 7222 0062 4889C7   		movq	%rax, %rdi
 7223              	.LEHB374:
 7224 0065 E8000000 		call	_ZNSt9basic_iosIcSt11char_traitsIcEED2Ev
 7224      00
 7225              	.LEHE374:
 7226              	.L452:
 7227              	.LBE12:
  13:/home/asoreyh/Dropbox/projects/lago/lago-software/acqua/brc/lago/makestuff/libs/libutpp/MemoryOutStream.h **** {
 7228              		.loc 2 13 0 discriminator 24
 7229 006a B8000000 		movl	$0, %eax
 7229      00
 7230 006f 85C0     		testl	%eax, %eax
 7231 0071 744E     		je	.L459
  13:/home/asoreyh/Dropbox/projects/lago/lago-software/acqua/brc/lago/makestuff/libs/libutpp/MemoryOutStream.h **** {
 7232              		.loc 2 13 0 discriminator 25
 7233 0073 488B45E8 		movq	-24(%rbp), %rax
 7234 0077 4889C7   		movq	%rax, %rdi
 7235 007a E8000000 		call	_ZdlPv
 7235      00
 7236 007f EB40     		jmp	.L459
 7237              	.L457:
 7238 0081 4889C3   		movq	%rax, %rbx
 7239              	.LBB13:
  13:/home/asoreyh/Dropbox/projects/lago/lago-software/acqua/brc/lago/makestuff/libs/libutpp/MemoryOutStream.h **** {
 7240              		.loc 2 13 0
 7241 0084 BA000000 		movl	$_ZTTN8UnitTest15MemoryOutStreamE+8, %edx
 7241      00
 7242 0089 488B45E8 		movq	-24(%rbp), %rax
 7243 008d 4889D6   		movq	%rdx, %rsi
 7244 0090 4889C7   		movq	%rax, %rdi
 7245 0093 E8000000 		call	_ZNSt19basic_ostringstreamIcSt11char_traitsIcESaIcEED2Ev
 7245      00
 7246 0098 EB03     		jmp	.L455
 7247              	.L458:
 7248 009a 4889C3   		movq	%rax, %rbx
 7249              	.L455:
  13:/home/asoreyh/Dropbox/projects/lago/lago-software/acqua/brc/lago/makestuff/libs/libutpp/MemoryOutStream.h **** {
 7250              		.loc 2 13 0 discriminator 19
 7251 009d B8020000 		movl	$2, %eax
 7251      00
 7252 00a2 85C0     		testl	%eax, %eax
 7253 00a4 7410     		je	.L456
  13:/home/asoreyh/Dropbox/projects/lago/lago-software/acqua/brc/lago/makestuff/libs/libutpp/MemoryOutStream.h **** {
 7254              		.loc 2 13 0 discriminator 32
 7255 00a6 488B45E8 		movq	-24(%rbp), %rax
 7256 00aa 4883C060 		addq	$96, %rax
 7257 00ae 4889C7   		movq	%rax, %rdi
 7258 00b1 E8000000 		call	_ZNSt9basic_iosIcSt11char_traitsIcEED2Ev
 7258      00
 7259              	.L456:
 7260 00b6 4889D8   		movq	%rbx, %rax
 7261 00b9 4889C7   		movq	%rax, %rdi
 7262              	.LEHB375:
 7263 00bc E8000000 		call	_Unwind_Resume
 7263      00
 7264              	.LEHE375:
 7265              	.L459:
 7266              	.LBE13:
  13:/home/asoreyh/Dropbox/projects/lago/lago-software/acqua/brc/lago/makestuff/libs/libutpp/MemoryOutStream.h **** {
 7267              		.loc 2 13 0
 7268 00c1 4883C418 		addq	$24, %rsp
 7269 00c5 5B       		popq	%rbx
 7270 00c6 5D       		popq	%rbp
 7271              		.cfi_def_cfa 7, 8
 7272 00c7 C3       		ret
 7273              		.cfi_endproc
 7274              	.LFE1115:
 7275              		.section	.gcc_except_table
 7276              	.LLSDA1115:
 7277 0808 FF       		.byte	0xff
 7278 0809 FF       		.byte	0xff
 7279 080a 01       		.byte	0x1
 7280 080b 13       		.uleb128 .LLSDACSE1115-.LLSDACSB1115
 7281              	.LLSDACSB1115:
 7282 080c 38       		.uleb128 .LEHB372-.LFB1115
 7283 080d 05       		.uleb128 .LEHE372-.LEHB372
 7284 080e 8101     		.uleb128 .L457-.LFB1115
 7285 0810 00       		.uleb128 0
 7286 0811 4C       		.uleb128 .LEHB373-.LFB1115
 7287 0812 05       		.uleb128 .LEHE373-.LEHB373
 7288 0813 9A01     		.uleb128 .L458-.LFB1115
 7289 0815 00       		.uleb128 0
 7290 0816 65       		.uleb128 .LEHB374-.LFB1115
 7291 0817 05       		.uleb128 .LEHE374-.LEHB374
 7292 0818 00       		.uleb128 0
 7293 0819 00       		.uleb128 0
 7294 081a BC01     		.uleb128 .LEHB375-.LFB1115
 7295 081c 05       		.uleb128 .LEHE375-.LEHB375
 7296 081d 00       		.uleb128 0
 7297 081e 00       		.uleb128 0
 7298              	.LLSDACSE1115:
 7299              		.section	.text._ZN8UnitTest15MemoryOutStreamD1Ev,"axG",@progbits,_ZN8UnitTest15MemoryOutStreamD1Ev
 7301              		.set	.LTHUNK0,_ZN8UnitTest15MemoryOutStreamD1Ev
 7302              		.weak	_ZTv0_n24_N8UnitTest15MemoryOutStreamD1Ev
 7304              	_ZTv0_n24_N8UnitTest15MemoryOutStreamD1Ev:
 7305              	.LFB1188:
  13:/home/asoreyh/Dropbox/projects/lago/lago-software/acqua/brc/lago/makestuff/libs/libutpp/MemoryOutStream.h **** {
 7306              		.loc 2 13 0 is_stmt 1
 7307              		.cfi_startproc
 7308 00c8 4C8B17   		movq	(%rdi), %r10
 7309 00cb 49037AE8 		addq	-24(%r10), %rdi
 7310 00cf E92CFFFF 		jmp	.LTHUNK0
 7310      FF
 7311              		.cfi_endproc
 7312              	.LFE1188:
 7314              		.section	.text._ZN8UnitTest15MemoryOutStreamD0Ev,"axG",@progbits,_ZN8UnitTest15MemoryOutStreamD0Ev
 7315              		.align 2
 7316              		.weak	_ZN8UnitTest15MemoryOutStreamD0Ev
 7318              	_ZN8UnitTest15MemoryOutStreamD0Ev:
 7319              	.LFB1116:
  13:/home/asoreyh/Dropbox/projects/lago/lago-software/acqua/brc/lago/makestuff/libs/libutpp/MemoryOutStream.h **** {
 7320              		.loc 2 13 0
 7321              		.cfi_startproc
 7322 0000 55       		pushq	%rbp
 7323              		.cfi_def_cfa_offset 16
 7324              		.cfi_offset 6, -16
 7325 0001 4889E5   		movq	%rsp, %rbp
 7326              		.cfi_def_cfa_register 6
 7327 0004 4883EC10 		subq	$16, %rsp
 7328 0008 48897DF8 		movq	%rdi, -8(%rbp)
  13:/home/asoreyh/Dropbox/projects/lago/lago-software/acqua/brc/lago/makestuff/libs/libutpp/MemoryOutStream.h **** {
 7329              		.loc 2 13 0
 7330 000c 488B45F8 		movq	-8(%rbp), %rax
 7331 0010 4889C7   		movq	%rax, %rdi
 7332 0013 E8000000 		call	_ZN8UnitTest15MemoryOutStreamD1Ev
 7332      00
 7333 0018 488B45F8 		movq	-8(%rbp), %rax
 7334 001c 4889C7   		movq	%rax, %rdi
 7335 001f E8000000 		call	_ZdlPv
 7335      00
 7336 0024 C9       		leave
 7337              		.cfi_def_cfa 7, 8
 7338 0025 C3       		ret
 7339              		.cfi_endproc
 7340              	.LFE1116:
 7342              		.set	.LTHUNK1,_ZN8UnitTest15MemoryOutStreamD0Ev
 7343              		.weak	_ZTv0_n24_N8UnitTest15MemoryOutStreamD0Ev
 7345              	_ZTv0_n24_N8UnitTest15MemoryOutStreamD0Ev:
 7346              	.LFB1189:
  13:/home/asoreyh/Dropbox/projects/lago/lago-software/acqua/brc/lago/makestuff/libs/libutpp/MemoryOutStream.h **** {
 7347              		.loc 2 13 0
 7348              		.cfi_startproc
 7349 0026 4C8B17   		movq	(%rdi), %r10
 7350 0029 49037AE8 		addq	-24(%r10), %rdi
 7351 002d EBD1     		jmp	.LTHUNK1
 7352              		.cfi_endproc
 7353              	.LFE1189:
 7355              		.section	.rodata
 7356              	.LC64:
 7357 0d81 45787065 		.string	"Expected "
 7357      63746564 
 7357      2000
 7358              	.LC65:
 7359 0d8b 20627574 		.string	" but was "
 7359      20776173 
 7359      2000
 7360              		.section	.text._ZN8UnitTest10CheckEqualIbbEEvRNS_11TestResultsERKT_RKT0_RKNS_11TestDetailsE,"axG",
 7361              		.weak	_ZN8UnitTest10CheckEqualIbbEEvRNS_11TestResultsERKT_RKT0_RKNS_11TestDetailsE
 7363              	_ZN8UnitTest10CheckEqualIbbEEvRNS_11TestResultsERKT_RKT0_RKNS_11TestDetailsE:
 7364              	.LFB1112:
 7365              		.file 4 "/home/asoreyh/Dropbox/projects/lago/lago-software/acqua/brc/lago/makestuff/libs/libutpp/C
   1:/home/asoreyh/Dropbox/projects/lago/lago-software/acqua/brc/lago/makestuff/libs/libutpp/Checks.h **** #ifndef UNITTEST_CHECKS_H
   2:/home/asoreyh/Dropbox/projects/lago/lago-software/acqua/brc/lago/makestuff/libs/libutpp/Checks.h **** #define UNITTEST_CHECKS_H
   3:/home/asoreyh/Dropbox/projects/lago/lago-software/acqua/brc/lago/makestuff/libs/libutpp/Checks.h **** 
   4:/home/asoreyh/Dropbox/projects/lago/lago-software/acqua/brc/lago/makestuff/libs/libutpp/Checks.h **** #include "Config.h"
   5:/home/asoreyh/Dropbox/projects/lago/lago-software/acqua/brc/lago/makestuff/libs/libutpp/Checks.h **** #include "TestResults.h"
   6:/home/asoreyh/Dropbox/projects/lago/lago-software/acqua/brc/lago/makestuff/libs/libutpp/Checks.h **** #include "MemoryOutStream.h"
   7:/home/asoreyh/Dropbox/projects/lago/lago-software/acqua/brc/lago/makestuff/libs/libutpp/Checks.h **** 
   8:/home/asoreyh/Dropbox/projects/lago/lago-software/acqua/brc/lago/makestuff/libs/libutpp/Checks.h **** namespace UnitTest {
   9:/home/asoreyh/Dropbox/projects/lago/lago-software/acqua/brc/lago/makestuff/libs/libutpp/Checks.h **** 
  10:/home/asoreyh/Dropbox/projects/lago/lago-software/acqua/brc/lago/makestuff/libs/libutpp/Checks.h **** 
  11:/home/asoreyh/Dropbox/projects/lago/lago-software/acqua/brc/lago/makestuff/libs/libutpp/Checks.h **** template< typename Value >
  12:/home/asoreyh/Dropbox/projects/lago/lago-software/acqua/brc/lago/makestuff/libs/libutpp/Checks.h **** bool Check(Value const value)
  13:/home/asoreyh/Dropbox/projects/lago/lago-software/acqua/brc/lago/makestuff/libs/libutpp/Checks.h **** {
  14:/home/asoreyh/Dropbox/projects/lago/lago-software/acqua/brc/lago/makestuff/libs/libutpp/Checks.h ****     return !!value; // doing double negative to avoid silly VS warnings
  15:/home/asoreyh/Dropbox/projects/lago/lago-software/acqua/brc/lago/makestuff/libs/libutpp/Checks.h **** }
  16:/home/asoreyh/Dropbox/projects/lago/lago-software/acqua/brc/lago/makestuff/libs/libutpp/Checks.h **** 
  17:/home/asoreyh/Dropbox/projects/lago/lago-software/acqua/brc/lago/makestuff/libs/libutpp/Checks.h **** 
  18:/home/asoreyh/Dropbox/projects/lago/lago-software/acqua/brc/lago/makestuff/libs/libutpp/Checks.h **** template< typename Expected, typename Actual >
  19:/home/asoreyh/Dropbox/projects/lago/lago-software/acqua/brc/lago/makestuff/libs/libutpp/Checks.h **** void CheckEqual(TestResults& results, Expected const& expected, Actual const& actual, TestDetails c
 7366              		.loc 4 19 0
 7367              		.cfi_startproc
 7368              		.cfi_personality 0x3,__gxx_personality_v0
 7369              		.cfi_lsda 0x3,.LLSDA1112
 7370 0000 55       		pushq	%rbp
 7371              		.cfi_def_cfa_offset 16
 7372              		.cfi_offset 6, -16
 7373 0001 4889E5   		movq	%rsp, %rbp
 7374              		.cfi_def_cfa_register 6
 7375 0004 4154     		pushq	%r12
 7376 0006 53       		pushq	%rbx
 7377 0007 4881EC90 		subq	$400, %rsp
 7377      010000
 7378              		.cfi_offset 12, -24
 7379              		.cfi_offset 3, -32
 7380 000e 4889BD78 		movq	%rdi, -392(%rbp)
 7380      FEFFFF
 7381 0015 4889B570 		movq	%rsi, -400(%rbp)
 7381      FEFFFF
 7382 001c 48899568 		movq	%rdx, -408(%rbp)
 7382      FEFFFF
 7383 0023 48898D60 		movq	%rcx, -416(%rbp)
 7383      FEFFFF
 7384              		.loc 4 19 0
 7385 002a 64488B04 		movq	%fs:40, %rax
 7385      25280000 
 7385      00
 7386 0033 488945E8 		movq	%rax, -24(%rbp)
 7387 0037 31C0     		xorl	%eax, %eax
 7388              	.LBB14:
 7389              	.LBB15:
  20:/home/asoreyh/Dropbox/projects/lago/lago-software/acqua/brc/lago/makestuff/libs/libutpp/Checks.h **** {
  21:/home/asoreyh/Dropbox/projects/lago/lago-software/acqua/brc/lago/makestuff/libs/libutpp/Checks.h ****     if (!(expected == actual))
 7390              		.loc 4 21 0
 7391 0039 488B8570 		movq	-400(%rbp), %rax
 7391      FEFFFF
 7392 0040 0FB610   		movzbl	(%rax), %edx
 7393 0043 488B8568 		movq	-408(%rbp), %rax
 7393      FEFFFF
 7394 004a 0FB600   		movzbl	(%rax), %eax
 7395 004d 38C2     		cmpb	%al, %dl
 7396 004f 0F849A00 		je	.L463
 7396      0000
 7397              	.LBB16:
  22:/home/asoreyh/Dropbox/projects/lago/lago-software/acqua/brc/lago/makestuff/libs/libutpp/Checks.h ****     {
  23:/home/asoreyh/Dropbox/projects/lago/lago-software/acqua/brc/lago/makestuff/libs/libutpp/Checks.h ****         UnitTest::MemoryOutStream stream;
 7398              		.loc 4 23 0
 7399 0055 488D8580 		leaq	-384(%rbp), %rax
 7399      FEFFFF
 7400 005c 4889C7   		movq	%rax, %rdi
 7401              	.LEHB376:
 7402 005f E8000000 		call	_ZN8UnitTest15MemoryOutStreamC1Ev
 7402      00
 7403              	.LEHE376:
  24:/home/asoreyh/Dropbox/projects/lago/lago-software/acqua/brc/lago/makestuff/libs/libutpp/Checks.h ****         stream << "Expected " << expected << " but was " << actual;
 7404              		.loc 4 24 0
 7405 0064 488B8568 		movq	-408(%rbp), %rax
 7405      FEFFFF
 7406 006b 0FB600   		movzbl	(%rax), %eax
 7407 006e 0FB6D8   		movzbl	%al, %ebx
 7408 0071 488B8570 		movq	-400(%rbp), %rax
 7408      FEFFFF
 7409 0078 0FB600   		movzbl	(%rax), %eax
 7410 007b 440FB6E0 		movzbl	%al, %r12d
 7411 007f 488D8580 		leaq	-384(%rbp), %rax
 7411      FEFFFF
 7412 0086 BE000000 		movl	$.LC64, %esi
 7412      00
 7413 008b 4889C7   		movq	%rax, %rdi
 7414              	.LEHB377:
 7415 008e E8000000 		call	_ZStlsISt11char_traitsIcEERSt13basic_ostreamIcT_ES5_PKc
 7415      00
 7416 0093 4489E6   		movl	%r12d, %esi
 7417 0096 4889C7   		movq	%rax, %rdi
 7418 0099 E8000000 		call	_ZNSolsEb
 7418      00
 7419              		.loc 4 24 0 is_stmt 0 discriminator 1
 7420 009e BE000000 		movl	$.LC65, %esi
 7420      00
 7421 00a3 4889C7   		movq	%rax, %rdi
 7422 00a6 E8000000 		call	_ZStlsISt11char_traitsIcEERSt13basic_ostreamIcT_ES5_PKc
 7422      00
 7423              		.loc 4 24 0 discriminator 2
 7424 00ab 89DE     		movl	%ebx, %esi
 7425 00ad 4889C7   		movq	%rax, %rdi
 7426 00b0 E8000000 		call	_ZNSolsEb
 7426      00
  25:/home/asoreyh/Dropbox/projects/lago/lago-software/acqua/brc/lago/makestuff/libs/libutpp/Checks.h **** 
  26:/home/asoreyh/Dropbox/projects/lago/lago-software/acqua/brc/lago/makestuff/libs/libutpp/Checks.h ****         results.OnTestFailure(details, stream.GetText());
 7427              		.loc 4 26 0 is_stmt 1
 7428 00b5 488D8580 		leaq	-384(%rbp), %rax
 7428      FEFFFF
 7429 00bc 4889C7   		movq	%rax, %rdi
 7430 00bf E8000000 		call	_ZNK8UnitTest15MemoryOutStream7GetTextEv
 7430      00
 7431 00c4 4889C2   		movq	%rax, %rdx
 7432 00c7 488B8D60 		movq	-416(%rbp), %rcx
 7432      FEFFFF
 7433 00ce 488B8578 		movq	-392(%rbp), %rax
 7433      FEFFFF
 7434 00d5 4889CE   		movq	%rcx, %rsi
 7435 00d8 4889C7   		movq	%rax, %rdi
 7436 00db E8000000 		call	_ZN8UnitTest11TestResults13OnTestFailureERKNS_11TestDetailsEPKc
 7436      00
 7437              	.LEHE377:
 7438              		.loc 4 26 0 is_stmt 0 discriminator 4
 7439 00e0 488D8580 		leaq	-384(%rbp), %rax
 7439      FEFFFF
 7440 00e7 4889C7   		movq	%rax, %rdi
 7441              	.LEHB378:
 7442 00ea E8000000 		call	_ZN8UnitTest15MemoryOutStreamD1Ev
 7442      00
 7443              	.LEHE378:
 7444              	.L463:
 7445              	.LBE16:
 7446              	.LBE15:
 7447              	.LBE14:
  27:/home/asoreyh/Dropbox/projects/lago/lago-software/acqua/brc/lago/makestuff/libs/libutpp/Checks.h ****     }
  28:/home/asoreyh/Dropbox/projects/lago/lago-software/acqua/brc/lago/makestuff/libs/libutpp/Checks.h **** }
 7448              		.loc 4 28 0 is_stmt 1
 7449 00ef 488B45E8 		movq	-24(%rbp), %rax
 7450 00f3 64483304 		xorq	%fs:40, %rax
 7450      25280000 
 7450      00
 7451 00fc 7424     		je	.L465
 7452 00fe EB1D     		jmp	.L467
 7453              	.L466:
 7454 0100 4889C3   		movq	%rax, %rbx
 7455              	.LBB19:
 7456              	.LBB18:
 7457              	.LBB17:
  26:/home/asoreyh/Dropbox/projects/lago/lago-software/acqua/brc/lago/makestuff/libs/libutpp/Checks.h ****     }
 7458              		.loc 4 26 0
 7459 0103 488D8580 		leaq	-384(%rbp), %rax
 7459      FEFFFF
 7460 010a 4889C7   		movq	%rax, %rdi
 7461 010d E8000000 		call	_ZN8UnitTest15MemoryOutStreamD1Ev
 7461      00
 7462 0112 4889D8   		movq	%rbx, %rax
 7463 0115 4889C7   		movq	%rax, %rdi
 7464              	.LEHB379:
 7465 0118 E8000000 		call	_Unwind_Resume
 7465      00
 7466              	.LEHE379:
 7467              	.L467:
 7468              	.LBE17:
 7469              	.LBE18:
 7470              	.LBE19:
 7471              		.loc 4 28 0
 7472 011d E8000000 		call	__stack_chk_fail
 7472      00
 7473              	.L465:
 7474 0122 4881C490 		addq	$400, %rsp
 7474      010000
 7475 0129 5B       		popq	%rbx
 7476 012a 415C     		popq	%r12
 7477 012c 5D       		popq	%rbp
 7478              		.cfi_def_cfa 7, 8
 7479 012d C3       		ret
 7480              		.cfi_endproc
 7481              	.LFE1112:
 7482              		.section	.gcc_except_table
 7483              	.LLSDA1112:
 7484 081f FF       		.byte	0xff
 7485 0820 FF       		.byte	0xff
 7486 0821 01       		.byte	0x1
 7487 0822 14       		.uleb128 .LLSDACSE1112-.LLSDACSB1112
 7488              	.LLSDACSB1112:
 7489 0823 5F       		.uleb128 .LEHB376-.LFB1112
 7490 0824 05       		.uleb128 .LEHE376-.LEHB376
 7491 0825 00       		.uleb128 0
 7492 0826 00       		.uleb128 0
 7493 0827 8E01     		.uleb128 .LEHB377-.LFB1112
 7494 0829 52       		.uleb128 .LEHE377-.LEHB377
 7495 082a 8002     		.uleb128 .L466-.LFB1112
 7496 082c 00       		.uleb128 0
 7497 082d EA01     		.uleb128 .LEHB378-.LFB1112
 7498 082f 05       		.uleb128 .LEHE378-.LEHB378
 7499 0830 00       		.uleb128 0
 7500 0831 00       		.uleb128 0
 7501 0832 9802     		.uleb128 .LEHB379-.LFB1112
 7502 0834 05       		.uleb128 .LEHE379-.LEHB379
 7503 0835 00       		.uleb128 0
 7504 0836 00       		.uleb128 0
 7505              	.LLSDACSE1112:
 7506              		.section	.text._ZN8UnitTest10CheckEqualIbbEEvRNS_11TestResultsERKT_RKT0_RKNS_11TestDetailsE,"axG",
 7508              		.section	.text._ZN8UnitTest10CheckEqualIihEEvRNS_11TestResultsERKT_RKT0_RKNS_11TestDetailsE,"axG",
 7509              		.weak	_ZN8UnitTest10CheckEqualIihEEvRNS_11TestResultsERKT_RKT0_RKNS_11TestDetailsE
 7511              	_ZN8UnitTest10CheckEqualIihEEvRNS_11TestResultsERKT_RKT0_RKNS_11TestDetailsE:
 7512              	.LFB1117:
  19:/home/asoreyh/Dropbox/projects/lago/lago-software/acqua/brc/lago/makestuff/libs/libutpp/Checks.h **** {
 7513              		.loc 4 19 0
 7514              		.cfi_startproc
 7515              		.cfi_personality 0x3,__gxx_personality_v0
 7516              		.cfi_lsda 0x3,.LLSDA1117
 7517 0000 55       		pushq	%rbp
 7518              		.cfi_def_cfa_offset 16
 7519              		.cfi_offset 6, -16
 7520 0001 4889E5   		movq	%rsp, %rbp
 7521              		.cfi_def_cfa_register 6
 7522 0004 4154     		pushq	%r12
 7523 0006 53       		pushq	%rbx
 7524 0007 4881EC90 		subq	$400, %rsp
 7524      010000
 7525              		.cfi_offset 12, -24
 7526              		.cfi_offset 3, -32
 7527 000e 4889BD78 		movq	%rdi, -392(%rbp)
 7527      FEFFFF
 7528 0015 4889B570 		movq	%rsi, -400(%rbp)
 7528      FEFFFF
 7529 001c 48899568 		movq	%rdx, -408(%rbp)
 7529      FEFFFF
 7530 0023 48898D60 		movq	%rcx, -416(%rbp)
 7530      FEFFFF
  19:/home/asoreyh/Dropbox/projects/lago/lago-software/acqua/brc/lago/makestuff/libs/libutpp/Checks.h **** {
 7531              		.loc 4 19 0
 7532 002a 64488B04 		movq	%fs:40, %rax
 7532      25280000 
 7532      00
 7533 0033 488945E8 		movq	%rax, -24(%rbp)
 7534 0037 31C0     		xorl	%eax, %eax
 7535              	.LBB20:
 7536              	.LBB21:
  21:/home/asoreyh/Dropbox/projects/lago/lago-software/acqua/brc/lago/makestuff/libs/libutpp/Checks.h ****     {
 7537              		.loc 4 21 0
 7538 0039 488B8570 		movq	-400(%rbp), %rax
 7538      FEFFFF
 7539 0040 8B10     		movl	(%rax), %edx
 7540 0042 488B8568 		movq	-408(%rbp), %rax
 7540      FEFFFF
 7541 0049 0FB600   		movzbl	(%rax), %eax
 7542 004c 0FB6C0   		movzbl	%al, %eax
 7543 004f 39C2     		cmpl	%eax, %edx
 7544 0051 0F849600 		je	.L469
 7544      0000
 7545              	.LBB22:
  23:/home/asoreyh/Dropbox/projects/lago/lago-software/acqua/brc/lago/makestuff/libs/libutpp/Checks.h ****         stream << "Expected " << expected << " but was " << actual;
 7546              		.loc 4 23 0
 7547 0057 488D8580 		leaq	-384(%rbp), %rax
 7547      FEFFFF
 7548 005e 4889C7   		movq	%rax, %rdi
 7549              	.LEHB380:
 7550 0061 E8000000 		call	_ZN8UnitTest15MemoryOutStreamC1Ev
 7550      00
 7551              	.LEHE380:
  24:/home/asoreyh/Dropbox/projects/lago/lago-software/acqua/brc/lago/makestuff/libs/libutpp/Checks.h **** 
 7552              		.loc 4 24 0
 7553 0066 488B8568 		movq	-408(%rbp), %rax
 7553      FEFFFF
 7554 006d 0FB600   		movzbl	(%rax), %eax
 7555 0070 0FB6D8   		movzbl	%al, %ebx
 7556 0073 488B8570 		movq	-400(%rbp), %rax
 7556      FEFFFF
 7557 007a 448B20   		movl	(%rax), %r12d
 7558 007d 488D8580 		leaq	-384(%rbp), %rax
 7558      FEFFFF
 7559 0084 BE000000 		movl	$.LC64, %esi
 7559      00
 7560 0089 4889C7   		movq	%rax, %rdi
 7561              	.LEHB381:
 7562 008c E8000000 		call	_ZStlsISt11char_traitsIcEERSt13basic_ostreamIcT_ES5_PKc
 7562      00
 7563 0091 4489E6   		movl	%r12d, %esi
 7564 0094 4889C7   		movq	%rax, %rdi
 7565 0097 E8000000 		call	_ZNSolsEi
 7565      00
  24:/home/asoreyh/Dropbox/projects/lago/lago-software/acqua/brc/lago/makestuff/libs/libutpp/Checks.h **** 
 7566              		.loc 4 24 0 is_stmt 0 discriminator 1
 7567 009c BE000000 		movl	$.LC65, %esi
 7567      00
 7568 00a1 4889C7   		movq	%rax, %rdi
 7569 00a4 E8000000 		call	_ZStlsISt11char_traitsIcEERSt13basic_ostreamIcT_ES5_PKc
 7569      00
  24:/home/asoreyh/Dropbox/projects/lago/lago-software/acqua/brc/lago/makestuff/libs/libutpp/Checks.h **** 
 7570              		.loc 4 24 0 discriminator 2
 7571 00a9 89DE     		movl	%ebx, %esi
 7572 00ab 4889C7   		movq	%rax, %rdi
 7573 00ae E8000000 		call	_ZStlsISt11char_traitsIcEERSt13basic_ostreamIcT_ES5_h
 7573      00
  26:/home/asoreyh/Dropbox/projects/lago/lago-software/acqua/brc/lago/makestuff/libs/libutpp/Checks.h ****     }
 7574              		.loc 4 26 0 is_stmt 1
 7575 00b3 488D8580 		leaq	-384(%rbp), %rax
 7575      FEFFFF
 7576 00ba 4889C7   		movq	%rax, %rdi
 7577 00bd E8000000 		call	_ZNK8UnitTest15MemoryOutStream7GetTextEv
 7577      00
 7578 00c2 4889C2   		movq	%rax, %rdx
 7579 00c5 488B8D60 		movq	-416(%rbp), %rcx
 7579      FEFFFF
 7580 00cc 488B8578 		movq	-392(%rbp), %rax
 7580      FEFFFF
 7581 00d3 4889CE   		movq	%rcx, %rsi
 7582 00d6 4889C7   		movq	%rax, %rdi
 7583 00d9 E8000000 		call	_ZN8UnitTest11TestResults13OnTestFailureERKNS_11TestDetailsEPKc
 7583      00
 7584              	.LEHE381:
  26:/home/asoreyh/Dropbox/projects/lago/lago-software/acqua/brc/lago/makestuff/libs/libutpp/Checks.h ****     }
 7585              		.loc 4 26 0 is_stmt 0 discriminator 4
 7586 00de 488D8580 		leaq	-384(%rbp), %rax
 7586      FEFFFF
 7587 00e5 4889C7   		movq	%rax, %rdi
 7588              	.LEHB382:
 7589 00e8 E8000000 		call	_ZN8UnitTest15MemoryOutStreamD1Ev
 7589      00
 7590              	.LEHE382:
 7591              	.L469:
 7592              	.LBE22:
 7593              	.LBE21:
 7594              	.LBE20:
 7595              		.loc 4 28 0 is_stmt 1
 7596 00ed 488B45E8 		movq	-24(%rbp), %rax
 7597 00f1 64483304 		xorq	%fs:40, %rax
 7597      25280000 
 7597      00
 7598 00fa 7424     		je	.L471
 7599 00fc EB1D     		jmp	.L473
 7600              	.L472:
 7601 00fe 4889C3   		movq	%rax, %rbx
 7602              	.LBB25:
 7603              	.LBB24:
 7604              	.LBB23:
  26:/home/asoreyh/Dropbox/projects/lago/lago-software/acqua/brc/lago/makestuff/libs/libutpp/Checks.h ****     }
 7605              		.loc 4 26 0
 7606 0101 488D8580 		leaq	-384(%rbp), %rax
 7606      FEFFFF
 7607 0108 4889C7   		movq	%rax, %rdi
 7608 010b E8000000 		call	_ZN8UnitTest15MemoryOutStreamD1Ev
 7608      00
 7609 0110 4889D8   		movq	%rbx, %rax
 7610 0113 4889C7   		movq	%rax, %rdi
 7611              	.LEHB383:
 7612 0116 E8000000 		call	_Unwind_Resume
 7612      00
 7613              	.LEHE383:
 7614              	.L473:
 7615              	.LBE23:
 7616              	.LBE24:
 7617              	.LBE25:
 7618              		.loc 4 28 0
 7619 011b E8000000 		call	__stack_chk_fail
 7619      00
 7620              	.L471:
 7621 0120 4881C490 		addq	$400, %rsp
 7621      010000
 7622 0127 5B       		popq	%rbx
 7623 0128 415C     		popq	%r12
 7624 012a 5D       		popq	%rbp
 7625              		.cfi_def_cfa 7, 8
 7626 012b C3       		ret
 7627              		.cfi_endproc
 7628              	.LFE1117:
 7629              		.section	.gcc_except_table
 7630              	.LLSDA1117:
 7631 0837 FF       		.byte	0xff
 7632 0838 FF       		.byte	0xff
 7633 0839 01       		.byte	0x1
 7634 083a 14       		.uleb128 .LLSDACSE1117-.LLSDACSB1117
 7635              	.LLSDACSB1117:
 7636 083b 61       		.uleb128 .LEHB380-.LFB1117
 7637 083c 05       		.uleb128 .LEHE380-.LEHB380
 7638 083d 00       		.uleb128 0
 7639 083e 00       		.uleb128 0
 7640 083f 8C01     		.uleb128 .LEHB381-.LFB1117
 7641 0841 52       		.uleb128 .LEHE381-.LEHB381
 7642 0842 FE01     		.uleb128 .L472-.LFB1117
 7643 0844 00       		.uleb128 0
 7644 0845 E801     		.uleb128 .LEHB382-.LFB1117
 7645 0847 05       		.uleb128 .LEHE382-.LEHB382
 7646 0848 00       		.uleb128 0
 7647 0849 00       		.uleb128 0
 7648 084a 9602     		.uleb128 .LEHB383-.LFB1117
 7649 084c 05       		.uleb128 .LEHE383-.LEHB383
 7650 084d 00       		.uleb128 0
 7651 084e 00       		.uleb128 0
 7652              	.LLSDACSE1117:
 7653              		.section	.text._ZN8UnitTest10CheckEqualIihEEvRNS_11TestResultsERKT_RKT0_RKNS_11TestDetailsE,"axG",
 7655              		.section	.text._ZN8UnitTest10CheckEqualIccEEvRNS_11TestResultsERKT_RKT0_RKNS_11TestDetailsE,"axG",
 7656              		.weak	_ZN8UnitTest10CheckEqualIccEEvRNS_11TestResultsERKT_RKT0_RKNS_11TestDetailsE
 7658              	_ZN8UnitTest10CheckEqualIccEEvRNS_11TestResultsERKT_RKT0_RKNS_11TestDetailsE:
 7659              	.LFB1118:
  19:/home/asoreyh/Dropbox/projects/lago/lago-software/acqua/brc/lago/makestuff/libs/libutpp/Checks.h **** {
 7660              		.loc 4 19 0
 7661              		.cfi_startproc
 7662              		.cfi_personality 0x3,__gxx_personality_v0
 7663              		.cfi_lsda 0x3,.LLSDA1118
 7664 0000 55       		pushq	%rbp
 7665              		.cfi_def_cfa_offset 16
 7666              		.cfi_offset 6, -16
 7667 0001 4889E5   		movq	%rsp, %rbp
 7668              		.cfi_def_cfa_register 6
 7669 0004 4154     		pushq	%r12
 7670 0006 53       		pushq	%rbx
 7671 0007 4881EC90 		subq	$400, %rsp
 7671      010000
 7672              		.cfi_offset 12, -24
 7673              		.cfi_offset 3, -32
 7674 000e 4889BD78 		movq	%rdi, -392(%rbp)
 7674      FEFFFF
 7675 0015 4889B570 		movq	%rsi, -400(%rbp)
 7675      FEFFFF
 7676 001c 48899568 		movq	%rdx, -408(%rbp)
 7676      FEFFFF
 7677 0023 48898D60 		movq	%rcx, -416(%rbp)
 7677      FEFFFF
  19:/home/asoreyh/Dropbox/projects/lago/lago-software/acqua/brc/lago/makestuff/libs/libutpp/Checks.h **** {
 7678              		.loc 4 19 0
 7679 002a 64488B04 		movq	%fs:40, %rax
 7679      25280000 
 7679      00
 7680 0033 488945E8 		movq	%rax, -24(%rbp)
 7681 0037 31C0     		xorl	%eax, %eax
 7682              	.LBB26:
 7683              	.LBB27:
  21:/home/asoreyh/Dropbox/projects/lago/lago-software/acqua/brc/lago/makestuff/libs/libutpp/Checks.h ****     {
 7684              		.loc 4 21 0
 7685 0039 488B8570 		movq	-400(%rbp), %rax
 7685      FEFFFF
 7686 0040 0FB610   		movzbl	(%rax), %edx
 7687 0043 488B8568 		movq	-408(%rbp), %rax
 7687      FEFFFF
 7688 004a 0FB600   		movzbl	(%rax), %eax
 7689 004d 38C2     		cmpb	%al, %dl
 7690 004f 0F849A00 		je	.L475
 7690      0000
 7691              	.LBB28:
  23:/home/asoreyh/Dropbox/projects/lago/lago-software/acqua/brc/lago/makestuff/libs/libutpp/Checks.h ****         stream << "Expected " << expected << " but was " << actual;
 7692              		.loc 4 23 0
 7693 0055 488D8580 		leaq	-384(%rbp), %rax
 7693      FEFFFF
 7694 005c 4889C7   		movq	%rax, %rdi
 7695              	.LEHB384:
 7696 005f E8000000 		call	_ZN8UnitTest15MemoryOutStreamC1Ev
 7696      00
 7697              	.LEHE384:
  24:/home/asoreyh/Dropbox/projects/lago/lago-software/acqua/brc/lago/makestuff/libs/libutpp/Checks.h **** 
 7698              		.loc 4 24 0
 7699 0064 488B8568 		movq	-408(%rbp), %rax
 7699      FEFFFF
 7700 006b 0FB600   		movzbl	(%rax), %eax
 7701 006e 0FBED8   		movsbl	%al, %ebx
 7702 0071 488B8570 		movq	-400(%rbp), %rax
 7702      FEFFFF
 7703 0078 0FB600   		movzbl	(%rax), %eax
 7704 007b 440FBEE0 		movsbl	%al, %r12d
 7705 007f 488D8580 		leaq	-384(%rbp), %rax
 7705      FEFFFF
 7706 0086 BE000000 		movl	$.LC64, %esi
 7706      00
 7707 008b 4889C7   		movq	%rax, %rdi
 7708              	.LEHB385:
 7709 008e E8000000 		call	_ZStlsISt11char_traitsIcEERSt13basic_ostreamIcT_ES5_PKc
 7709      00
 7710 0093 4489E6   		movl	%r12d, %esi
 7711 0096 4889C7   		movq	%rax, %rdi
 7712 0099 E8000000 		call	_ZStlsISt11char_traitsIcEERSt13basic_ostreamIcT_ES5_c
 7712      00
  24:/home/asoreyh/Dropbox/projects/lago/lago-software/acqua/brc/lago/makestuff/libs/libutpp/Checks.h **** 
 7713              		.loc 4 24 0 is_stmt 0 discriminator 1
 7714 009e BE000000 		movl	$.LC65, %esi
 7714      00
 7715 00a3 4889C7   		movq	%rax, %rdi
 7716 00a6 E8000000 		call	_ZStlsISt11char_traitsIcEERSt13basic_ostreamIcT_ES5_PKc
 7716      00
  24:/home/asoreyh/Dropbox/projects/lago/lago-software/acqua/brc/lago/makestuff/libs/libutpp/Checks.h **** 
 7717              		.loc 4 24 0 discriminator 2
 7718 00ab 89DE     		movl	%ebx, %esi
 7719 00ad 4889C7   		movq	%rax, %rdi
 7720 00b0 E8000000 		call	_ZStlsISt11char_traitsIcEERSt13basic_ostreamIcT_ES5_c
 7720      00
  26:/home/asoreyh/Dropbox/projects/lago/lago-software/acqua/brc/lago/makestuff/libs/libutpp/Checks.h ****     }
 7721              		.loc 4 26 0 is_stmt 1
 7722 00b5 488D8580 		leaq	-384(%rbp), %rax
 7722      FEFFFF
 7723 00bc 4889C7   		movq	%rax, %rdi
 7724 00bf E8000000 		call	_ZNK8UnitTest15MemoryOutStream7GetTextEv
 7724      00
 7725 00c4 4889C2   		movq	%rax, %rdx
 7726 00c7 488B8D60 		movq	-416(%rbp), %rcx
 7726      FEFFFF
 7727 00ce 488B8578 		movq	-392(%rbp), %rax
 7727      FEFFFF
 7728 00d5 4889CE   		movq	%rcx, %rsi
 7729 00d8 4889C7   		movq	%rax, %rdi
 7730 00db E8000000 		call	_ZN8UnitTest11TestResults13OnTestFailureERKNS_11TestDetailsEPKc
 7730      00
 7731              	.LEHE385:
  26:/home/asoreyh/Dropbox/projects/lago/lago-software/acqua/brc/lago/makestuff/libs/libutpp/Checks.h ****     }
 7732              		.loc 4 26 0 is_stmt 0 discriminator 4
 7733 00e0 488D8580 		leaq	-384(%rbp), %rax
 7733      FEFFFF
 7734 00e7 4889C7   		movq	%rax, %rdi
 7735              	.LEHB386:
 7736 00ea E8000000 		call	_ZN8UnitTest15MemoryOutStreamD1Ev
 7736      00
 7737              	.LEHE386:
 7738              	.L475:
 7739              	.LBE28:
 7740              	.LBE27:
 7741              	.LBE26:
 7742              		.loc 4 28 0 is_stmt 1
 7743 00ef 488B45E8 		movq	-24(%rbp), %rax
 7744 00f3 64483304 		xorq	%fs:40, %rax
 7744      25280000 
 7744      00
 7745 00fc 7424     		je	.L477
 7746 00fe EB1D     		jmp	.L479
 7747              	.L478:
 7748 0100 4889C3   		movq	%rax, %rbx
 7749              	.LBB31:
 7750              	.LBB30:
 7751              	.LBB29:
  26:/home/asoreyh/Dropbox/projects/lago/lago-software/acqua/brc/lago/makestuff/libs/libutpp/Checks.h ****     }
 7752              		.loc 4 26 0
 7753 0103 488D8580 		leaq	-384(%rbp), %rax
 7753      FEFFFF
 7754 010a 4889C7   		movq	%rax, %rdi
 7755 010d E8000000 		call	_ZN8UnitTest15MemoryOutStreamD1Ev
 7755      00
 7756 0112 4889D8   		movq	%rbx, %rax
 7757 0115 4889C7   		movq	%rax, %rdi
 7758              	.LEHB387:
 7759 0118 E8000000 		call	_Unwind_Resume
 7759      00
 7760              	.LEHE387:
 7761              	.L479:
 7762              	.LBE29:
 7763              	.LBE30:
 7764              	.LBE31:
 7765              		.loc 4 28 0
 7766 011d E8000000 		call	__stack_chk_fail
 7766      00
 7767              	.L477:
 7768 0122 4881C490 		addq	$400, %rsp
 7768      010000
 7769 0129 5B       		popq	%rbx
 7770 012a 415C     		popq	%r12
 7771 012c 5D       		popq	%rbp
 7772              		.cfi_def_cfa 7, 8
 7773 012d C3       		ret
 7774              		.cfi_endproc
 7775              	.LFE1118:
 7776              		.section	.gcc_except_table
 7777              	.LLSDA1118:
 7778 084f FF       		.byte	0xff
 7779 0850 FF       		.byte	0xff
 7780 0851 01       		.byte	0x1
 7781 0852 14       		.uleb128 .LLSDACSE1118-.LLSDACSB1118
 7782              	.LLSDACSB1118:
 7783 0853 5F       		.uleb128 .LEHB384-.LFB1118
 7784 0854 05       		.uleb128 .LEHE384-.LEHB384
 7785 0855 00       		.uleb128 0
 7786 0856 00       		.uleb128 0
 7787 0857 8E01     		.uleb128 .LEHB385-.LFB1118
 7788 0859 52       		.uleb128 .LEHE385-.LEHB385
 7789 085a 8002     		.uleb128 .L478-.LFB1118
 7790 085c 00       		.uleb128 0
 7791 085d EA01     		.uleb128 .LEHB386-.LFB1118
 7792 085f 05       		.uleb128 .LEHE386-.LEHB386
 7793 0860 00       		.uleb128 0
 7794 0861 00       		.uleb128 0
 7795 0862 9802     		.uleb128 .LEHB387-.LFB1118
 7796 0864 05       		.uleb128 .LEHE387-.LEHB387
 7797 0865 00       		.uleb128 0
 7798 0866 00       		.uleb128 0
 7799              	.LLSDACSE1118:
 7800              		.section	.text._ZN8UnitTest10CheckEqualIccEEvRNS_11TestResultsERKT_RKT0_RKNS_11TestDetailsE,"axG",
 7802              		.weak	_ZTV30TestConv_testGetHexLowerNibble
 7803              		.section	.rodata._ZTV30TestConv_testGetHexLowerNibble,"aG",@progbits,_ZTV30TestConv_testGetHexLowe
 7804              		.align 32
 7807              	_ZTV30TestConv_testGetHexLowerNibble:
 7808 0000 00000000 		.quad	0
 7808      00000000 
 7809 0008 00000000 		.quad	_ZTI30TestConv_testGetHexLowerNibble
 7809      00000000 
 7810 0010 00000000 		.quad	_ZN30TestConv_testGetHexLowerNibbleD1Ev
 7810      00000000 
 7811 0018 00000000 		.quad	_ZN30TestConv_testGetHexLowerNibbleD0Ev
 7811      00000000 
 7812 0020 00000000 		.quad	_ZNK30TestConv_testGetHexLowerNibble7RunImplEv
 7812      00000000 
 7813              		.section	.text._ZN30TestConv_testGetHexLowerNibbleD2Ev,"axG",@progbits,_ZN30TestConv_testGetHexLow
 7814              		.align 2
 7815              		.weak	_ZN30TestConv_testGetHexLowerNibbleD2Ev
 7817              	_ZN30TestConv_testGetHexLowerNibbleD2Ev:
 7818              	.LFB1171:
 130:testConv.cpp  **** 	CHECK_EQUAL('0', getHexLowerNibble(0xF0));
 7819              		.loc 3 130 0
 7820              		.cfi_startproc
 7821 0000 55       		pushq	%rbp
 7822              		.cfi_def_cfa_offset 16
 7823              		.cfi_offset 6, -16
 7824 0001 4889E5   		movq	%rsp, %rbp
 7825              		.cfi_def_cfa_register 6
 7826 0004 4883EC10 		subq	$16, %rsp
 7827 0008 48897DF8 		movq	%rdi, -8(%rbp)
 7828              	.LBB32:
 130:testConv.cpp  **** 	CHECK_EQUAL('0', getHexLowerNibble(0xF0));
 7829              		.loc 3 130 0
 7830 000c 488B45F8 		movq	-8(%rbp), %rax
 7831 0010 48C70000 		movq	$_ZTV30TestConv_testGetHexLowerNibble+16, (%rax)
 7831      000000
 7832 0017 488B45F8 		movq	-8(%rbp), %rax
 7833 001b 4889C7   		movq	%rax, %rdi
 7834 001e E8000000 		call	_ZN8UnitTest4TestD2Ev
 7834      00
 7835              	.LBE32:
 7836 0023 B8000000 		movl	$0, %eax
 7836      00
 7837 0028 85C0     		testl	%eax, %eax
 7838 002a 740C     		je	.L480
 130:testConv.cpp  **** 	CHECK_EQUAL('0', getHexLowerNibble(0xF0));
 7839              		.loc 3 130 0 is_stmt 0 discriminator 4
 7840 002c 488B45F8 		movq	-8(%rbp), %rax
 7841 0030 4889C7   		movq	%rax, %rdi
 7842 0033 E8000000 		call	_ZdlPv
 7842      00
 7843              	.L480:
 130:testConv.cpp  **** 	CHECK_EQUAL('0', getHexLowerNibble(0xF0));
 7844              		.loc 3 130 0
 7845 0038 C9       		leave
 7846              		.cfi_def_cfa 7, 8
 7847 0039 C3       		ret
 7848              		.cfi_endproc
 7849              	.LFE1171:
 7851              		.weak	_ZN30TestConv_testGetHexLowerNibbleD1Ev
 7852              		.set	_ZN30TestConv_testGetHexLowerNibbleD1Ev,_ZN30TestConv_testGetHexLowerNibbleD2Ev
 7853              		.section	.text._ZN30TestConv_testGetHexLowerNibbleD0Ev,"axG",@progbits,_ZN30TestConv_testGetHexLow
 7854              		.align 2
 7855              		.weak	_ZN30TestConv_testGetHexLowerNibbleD0Ev
 7857              	_ZN30TestConv_testGetHexLowerNibbleD0Ev:
 7858              	.LFB1173:
 130:testConv.cpp  **** 	CHECK_EQUAL('0', getHexLowerNibble(0xF0));
 7859              		.loc 3 130 0 is_stmt 1
 7860              		.cfi_startproc
 7861 0000 55       		pushq	%rbp
 7862              		.cfi_def_cfa_offset 16
 7863              		.cfi_offset 6, -16
 7864 0001 4889E5   		movq	%rsp, %rbp
 7865              		.cfi_def_cfa_register 6
 7866 0004 4883EC10 		subq	$16, %rsp
 7867 0008 48897DF8 		movq	%rdi, -8(%rbp)
 130:testConv.cpp  **** 	CHECK_EQUAL('0', getHexLowerNibble(0xF0));
 7868              		.loc 3 130 0
 7869 000c 488B45F8 		movq	-8(%rbp), %rax
 7870 0010 4889C7   		movq	%rax, %rdi
 7871 0013 E8000000 		call	_ZN30TestConv_testGetHexLowerNibbleD1Ev
 7871      00
 7872 0018 488B45F8 		movq	-8(%rbp), %rax
 7873 001c 4889C7   		movq	%rax, %rdi
 7874 001f E8000000 		call	_ZdlPv
 7874      00
 7875 0024 C9       		leave
 7876              		.cfi_def_cfa 7, 8
 7877 0025 C3       		ret
 7878              		.cfi_endproc
 7879              	.LFE1173:
 7881              		.weak	_ZTV30TestConv_testGetHexUpperNibble
 7882              		.section	.rodata._ZTV30TestConv_testGetHexUpperNibble,"aG",@progbits,_ZTV30TestConv_testGetHexUppe
 7883              		.align 32
 7886              	_ZTV30TestConv_testGetHexUpperNibble:
 7887 0000 00000000 		.quad	0
 7887      00000000 
 7888 0008 00000000 		.quad	_ZTI30TestConv_testGetHexUpperNibble
 7888      00000000 
 7889 0010 00000000 		.quad	_ZN30TestConv_testGetHexUpperNibbleD1Ev
 7889      00000000 
 7890 0018 00000000 		.quad	_ZN30TestConv_testGetHexUpperNibbleD0Ev
 7890      00000000 
 7891 0020 00000000 		.quad	_ZNK30TestConv_testGetHexUpperNibble7RunImplEv
 7891      00000000 
 7892              		.section	.text._ZN30TestConv_testGetHexUpperNibbleD2Ev,"axG",@progbits,_ZN30TestConv_testGetHexUpp
 7893              		.align 2
 7894              		.weak	_ZN30TestConv_testGetHexUpperNibbleD2Ev
 7896              	_ZN30TestConv_testGetHexUpperNibbleD2Ev:
 7897              	.LFB1175:
 111:testConv.cpp  **** 	CHECK_EQUAL('0', getHexUpperNibble(0x0F));
 7898              		.loc 3 111 0
 7899              		.cfi_startproc
 7900 0000 55       		pushq	%rbp
 7901              		.cfi_def_cfa_offset 16
 7902              		.cfi_offset 6, -16
 7903 0001 4889E5   		movq	%rsp, %rbp
 7904              		.cfi_def_cfa_register 6
 7905 0004 4883EC10 		subq	$16, %rsp
 7906 0008 48897DF8 		movq	%rdi, -8(%rbp)
 7907              	.LBB33:
 111:testConv.cpp  **** 	CHECK_EQUAL('0', getHexUpperNibble(0x0F));
 7908              		.loc 3 111 0
 7909 000c 488B45F8 		movq	-8(%rbp), %rax
 7910 0010 48C70000 		movq	$_ZTV30TestConv_testGetHexUpperNibble+16, (%rax)
 7910      000000
 7911 0017 488B45F8 		movq	-8(%rbp), %rax
 7912 001b 4889C7   		movq	%rax, %rdi
 7913 001e E8000000 		call	_ZN8UnitTest4TestD2Ev
 7913      00
 7914              	.LBE33:
 7915 0023 B8000000 		movl	$0, %eax
 7915      00
 7916 0028 85C0     		testl	%eax, %eax
 7917 002a 740C     		je	.L485
 111:testConv.cpp  **** 	CHECK_EQUAL('0', getHexUpperNibble(0x0F));
 7918              		.loc 3 111 0 is_stmt 0 discriminator 4
 7919 002c 488B45F8 		movq	-8(%rbp), %rax
 7920 0030 4889C7   		movq	%rax, %rdi
 7921 0033 E8000000 		call	_ZdlPv
 7921      00
 7922              	.L485:
 111:testConv.cpp  **** 	CHECK_EQUAL('0', getHexUpperNibble(0x0F));
 7923              		.loc 3 111 0
 7924 0038 C9       		leave
 7925              		.cfi_def_cfa 7, 8
 7926 0039 C3       		ret
 7927              		.cfi_endproc
 7928              	.LFE1175:
 7930              		.weak	_ZN30TestConv_testGetHexUpperNibbleD1Ev
 7931              		.set	_ZN30TestConv_testGetHexUpperNibbleD1Ev,_ZN30TestConv_testGetHexUpperNibbleD2Ev
 7932              		.section	.text._ZN30TestConv_testGetHexUpperNibbleD0Ev,"axG",@progbits,_ZN30TestConv_testGetHexUpp
 7933              		.align 2
 7934              		.weak	_ZN30TestConv_testGetHexUpperNibbleD0Ev
 7936              	_ZN30TestConv_testGetHexUpperNibbleD0Ev:
 7937              	.LFB1177:
 111:testConv.cpp  **** 	CHECK_EQUAL('0', getHexUpperNibble(0x0F));
 7938              		.loc 3 111 0 is_stmt 1
 7939              		.cfi_startproc
 7940 0000 55       		pushq	%rbp
 7941              		.cfi_def_cfa_offset 16
 7942              		.cfi_offset 6, -16
 7943 0001 4889E5   		movq	%rsp, %rbp
 7944              		.cfi_def_cfa_register 6
 7945 0004 4883EC10 		subq	$16, %rsp
 7946 0008 48897DF8 		movq	%rdi, -8(%rbp)
 111:testConv.cpp  **** 	CHECK_EQUAL('0', getHexUpperNibble(0x0F));
 7947              		.loc 3 111 0
 7948 000c 488B45F8 		movq	-8(%rbp), %rax
 7949 0010 4889C7   		movq	%rax, %rdi
 7950 0013 E8000000 		call	_ZN30TestConv_testGetHexUpperNibbleD1Ev
 7950      00
 7951 0018 488B45F8 		movq	-8(%rbp), %rax
 7952 001c 4889C7   		movq	%rax, %rdi
 7953 001f E8000000 		call	_ZdlPv
 7953      00
 7954 0024 C9       		leave
 7955              		.cfi_def_cfa 7, 8
 7956 0025 C3       		ret
 7957              		.cfi_endproc
 7958              	.LFE1177:
 7960              		.weak	_ZTV23TestConv_testGetHexByte
 7961              		.section	.rodata._ZTV23TestConv_testGetHexByte,"aG",@progbits,_ZTV23TestConv_testGetHexByte,comdat
 7962              		.align 32
 7965              	_ZTV23TestConv_testGetHexByte:
 7966 0000 00000000 		.quad	0
 7966      00000000 
 7967 0008 00000000 		.quad	_ZTI23TestConv_testGetHexByte
 7967      00000000 
 7968 0010 00000000 		.quad	_ZN23TestConv_testGetHexByteD1Ev
 7968      00000000 
 7969 0018 00000000 		.quad	_ZN23TestConv_testGetHexByteD0Ev
 7969      00000000 
 7970 0020 00000000 		.quad	_ZNK23TestConv_testGetHexByte7RunImplEv
 7970      00000000 
 7971              		.section	.text._ZN23TestConv_testGetHexByteD2Ev,"axG",@progbits,_ZN23TestConv_testGetHexByteD5Ev,c
 7972              		.align 2
 7973              		.weak	_ZN23TestConv_testGetHexByteD2Ev
 7975              	_ZN23TestConv_testGetHexByteD2Ev:
 7976              	.LFB1179:
  93:testConv.cpp  **** 	uint8 byte;
 7977              		.loc 3 93 0
 7978              		.cfi_startproc
 7979 0000 55       		pushq	%rbp
 7980              		.cfi_def_cfa_offset 16
 7981              		.cfi_offset 6, -16
 7982 0001 4889E5   		movq	%rsp, %rbp
 7983              		.cfi_def_cfa_register 6
 7984 0004 4883EC10 		subq	$16, %rsp
 7985 0008 48897DF8 		movq	%rdi, -8(%rbp)
 7986              	.LBB34:
  93:testConv.cpp  **** 	uint8 byte;
 7987              		.loc 3 93 0
 7988 000c 488B45F8 		movq	-8(%rbp), %rax
 7989 0010 48C70000 		movq	$_ZTV23TestConv_testGetHexByte+16, (%rax)
 7989      000000
 7990 0017 488B45F8 		movq	-8(%rbp), %rax
 7991 001b 4889C7   		movq	%rax, %rdi
 7992 001e E8000000 		call	_ZN8UnitTest4TestD2Ev
 7992      00
 7993              	.LBE34:
 7994 0023 B8000000 		movl	$0, %eax
 7994      00
 7995 0028 85C0     		testl	%eax, %eax
 7996 002a 740C     		je	.L490
  93:testConv.cpp  **** 	uint8 byte;
 7997              		.loc 3 93 0 is_stmt 0 discriminator 4
 7998 002c 488B45F8 		movq	-8(%rbp), %rax
 7999 0030 4889C7   		movq	%rax, %rdi
 8000 0033 E8000000 		call	_ZdlPv
 8000      00
 8001              	.L490:
  93:testConv.cpp  **** 	uint8 byte;
 8002              		.loc 3 93 0
 8003 0038 C9       		leave
 8004              		.cfi_def_cfa 7, 8
 8005 0039 C3       		ret
 8006              		.cfi_endproc
 8007              	.LFE1179:
 8009              		.weak	_ZN23TestConv_testGetHexByteD1Ev
 8010              		.set	_ZN23TestConv_testGetHexByteD1Ev,_ZN23TestConv_testGetHexByteD2Ev
 8011              		.section	.text._ZN23TestConv_testGetHexByteD0Ev,"axG",@progbits,_ZN23TestConv_testGetHexByteD5Ev,c
 8012              		.align 2
 8013              		.weak	_ZN23TestConv_testGetHexByteD0Ev
 8015              	_ZN23TestConv_testGetHexByteD0Ev:
 8016              	.LFB1181:
  93:testConv.cpp  **** 	uint8 byte;
 8017              		.loc 3 93 0 is_stmt 1
 8018              		.cfi_startproc
 8019 0000 55       		pushq	%rbp
 8020              		.cfi_def_cfa_offset 16
 8021              		.cfi_offset 6, -16
 8022 0001 4889E5   		movq	%rsp, %rbp
 8023              		.cfi_def_cfa_register 6
 8024 0004 4883EC10 		subq	$16, %rsp
 8025 0008 48897DF8 		movq	%rdi, -8(%rbp)
  93:testConv.cpp  **** 	uint8 byte;
 8026              		.loc 3 93 0
 8027 000c 488B45F8 		movq	-8(%rbp), %rax
 8028 0010 4889C7   		movq	%rax, %rdi
 8029 0013 E8000000 		call	_ZN23TestConv_testGetHexByteD1Ev
 8029      00
 8030 0018 488B45F8 		movq	-8(%rbp), %rax
 8031 001c 4889C7   		movq	%rax, %rdi
 8032 001f E8000000 		call	_ZdlPv
 8032      00
 8033 0024 C9       		leave
 8034              		.cfi_def_cfa 7, 8
 8035 0025 C3       		ret
 8036              		.cfi_endproc
 8037              	.LFE1181:
 8039              		.weak	_ZTV25TestConv_testGetHexNibble
 8040              		.section	.rodata._ZTV25TestConv_testGetHexNibble,"aG",@progbits,_ZTV25TestConv_testGetHexNibble,co
 8041              		.align 32
 8044              	_ZTV25TestConv_testGetHexNibble:
 8045 0000 00000000 		.quad	0
 8045      00000000 
 8046 0008 00000000 		.quad	_ZTI25TestConv_testGetHexNibble
 8046      00000000 
 8047 0010 00000000 		.quad	_ZN25TestConv_testGetHexNibbleD1Ev
 8047      00000000 
 8048 0018 00000000 		.quad	_ZN25TestConv_testGetHexNibbleD0Ev
 8048      00000000 
 8049 0020 00000000 		.quad	_ZNK25TestConv_testGetHexNibble7RunImplEv
 8049      00000000 
 8050              		.section	.text._ZN25TestConv_testGetHexNibbleD2Ev,"axG",@progbits,_ZN25TestConv_testGetHexNibbleD5
 8051              		.align 2
 8052              		.weak	_ZN25TestConv_testGetHexNibbleD2Ev
 8054              	_ZN25TestConv_testGetHexNibbleD2Ev:
 8055              	.LFB1183:
  20:testConv.cpp  **** 	uint8 nibble;
 8056              		.loc 3 20 0
 8057              		.cfi_startproc
 8058 0000 55       		pushq	%rbp
 8059              		.cfi_def_cfa_offset 16
 8060              		.cfi_offset 6, -16
 8061 0001 4889E5   		movq	%rsp, %rbp
 8062              		.cfi_def_cfa_register 6
 8063 0004 4883EC10 		subq	$16, %rsp
 8064 0008 48897DF8 		movq	%rdi, -8(%rbp)
 8065              	.LBB35:
  20:testConv.cpp  **** 	uint8 nibble;
 8066              		.loc 3 20 0
 8067 000c 488B45F8 		movq	-8(%rbp), %rax
 8068 0010 48C70000 		movq	$_ZTV25TestConv_testGetHexNibble+16, (%rax)
 8068      000000
 8069 0017 488B45F8 		movq	-8(%rbp), %rax
 8070 001b 4889C7   		movq	%rax, %rdi
 8071 001e E8000000 		call	_ZN8UnitTest4TestD2Ev
 8071      00
 8072              	.LBE35:
 8073 0023 B8000000 		movl	$0, %eax
 8073      00
 8074 0028 85C0     		testl	%eax, %eax
 8075 002a 740C     		je	.L495
  20:testConv.cpp  **** 	uint8 nibble;
 8076              		.loc 3 20 0 is_stmt 0 discriminator 4
 8077 002c 488B45F8 		movq	-8(%rbp), %rax
 8078 0030 4889C7   		movq	%rax, %rdi
 8079 0033 E8000000 		call	_ZdlPv
 8079      00
 8080              	.L495:
  20:testConv.cpp  **** 	uint8 nibble;
 8081              		.loc 3 20 0
 8082 0038 C9       		leave
 8083              		.cfi_def_cfa 7, 8
 8084 0039 C3       		ret
 8085              		.cfi_endproc
 8086              	.LFE1183:
 8088              		.weak	_ZN25TestConv_testGetHexNibbleD1Ev
 8089              		.set	_ZN25TestConv_testGetHexNibbleD1Ev,_ZN25TestConv_testGetHexNibbleD2Ev
 8090              		.section	.text._ZN25TestConv_testGetHexNibbleD0Ev,"axG",@progbits,_ZN25TestConv_testGetHexNibbleD5
 8091              		.align 2
 8092              		.weak	_ZN25TestConv_testGetHexNibbleD0Ev
 8094              	_ZN25TestConv_testGetHexNibbleD0Ev:
 8095              	.LFB1185:
  20:testConv.cpp  **** 	uint8 nibble;
 8096              		.loc 3 20 0 is_stmt 1
 8097              		.cfi_startproc
 8098 0000 55       		pushq	%rbp
 8099              		.cfi_def_cfa_offset 16
 8100              		.cfi_offset 6, -16
 8101 0001 4889E5   		movq	%rsp, %rbp
 8102              		.cfi_def_cfa_register 6
 8103 0004 4883EC10 		subq	$16, %rsp
 8104 0008 48897DF8 		movq	%rdi, -8(%rbp)
  20:testConv.cpp  **** 	uint8 nibble;
 8105              		.loc 3 20 0
 8106 000c 488B45F8 		movq	-8(%rbp), %rax
 8107 0010 4889C7   		movq	%rax, %rdi
 8108 0013 E8000000 		call	_ZN25TestConv_testGetHexNibbleD1Ev
 8108      00
 8109 0018 488B45F8 		movq	-8(%rbp), %rax
 8110 001c 4889C7   		movq	%rax, %rdi
 8111 001f E8000000 		call	_ZdlPv
 8111      00
 8112 0024 C9       		leave
 8113              		.cfi_def_cfa 7, 8
 8114 0025 C3       		ret
 8115              		.cfi_endproc
 8116              	.LFE1185:
 8118              		.weak	_ZTVN8UnitTest15MemoryOutStreamE
 8119              		.section	.rodata._ZTVN8UnitTest15MemoryOutStreamE,"aG",@progbits,_ZTVN8UnitTest15MemoryOutStreamE,
 8120              		.align 64
 8123              	_ZTVN8UnitTest15MemoryOutStreamE:
 8124 0000 60000000 		.quad	96
 8124      00000000 
 8125 0008 00000000 		.quad	0
 8125      00000000 
 8126 0010 00000000 		.quad	_ZTIN8UnitTest15MemoryOutStreamE
 8126      00000000 
 8127 0018 00000000 		.quad	_ZN8UnitTest15MemoryOutStreamD1Ev
 8127      00000000 
 8128 0020 00000000 		.quad	_ZN8UnitTest15MemoryOutStreamD0Ev
 8128      00000000 
 8129 0028 A0FFFFFF 		.quad	-96
 8129      FFFFFFFF 
 8130 0030 A0FFFFFF 		.quad	-96
 8130      FFFFFFFF 
 8131 0038 00000000 		.quad	_ZTIN8UnitTest15MemoryOutStreamE
 8131      00000000 
 8132 0040 00000000 		.quad	_ZTv0_n24_N8UnitTest15MemoryOutStreamD1Ev
 8132      00000000 
 8133 0048 00000000 		.quad	_ZTv0_n24_N8UnitTest15MemoryOutStreamD0Ev
 8133      00000000 
 8134              		.weak	_ZTTN8UnitTest15MemoryOutStreamE
 8135              		.section	.rodata._ZTTN8UnitTest15MemoryOutStreamE,"aG",@progbits,_ZTVN8UnitTest15MemoryOutStreamE,
 8136              		.align 32
 8139              	_ZTTN8UnitTest15MemoryOutStreamE:
 8140 0000 00000000 		.quad	_ZTVN8UnitTest15MemoryOutStreamE+24
 8140      00000000 
 8141 0008 00000000 		.quad	_ZTCN8UnitTest15MemoryOutStreamE0_St19basic_ostringstreamIcSt11char_traitsIcESaIcEE+24
 8141      00000000 
 8142 0010 00000000 		.quad	_ZTCN8UnitTest15MemoryOutStreamE0_So+24
 8142      00000000 
 8143 0018 00000000 		.quad	_ZTCN8UnitTest15MemoryOutStreamE0_So+64
 8143      00000000 
 8144 0020 00000000 		.quad	_ZTCN8UnitTest15MemoryOutStreamE0_St19basic_ostringstreamIcSt11char_traitsIcESaIcEE+64
 8144      00000000 
 8145 0028 00000000 		.quad	_ZTVN8UnitTest15MemoryOutStreamE+64
 8145      00000000 
 8146              		.hidden	_ZTCN8UnitTest15MemoryOutStreamE0_St19basic_ostringstreamIcSt11char_traitsIcESaIcEE
 8147              		.weak	_ZTCN8UnitTest15MemoryOutStreamE0_St19basic_ostringstreamIcSt11char_traitsIcESaIcEE
 8148              		.section	.rodata._ZTCN8UnitTest15MemoryOutStreamE0_St19basic_ostringstreamIcSt11char_traitsIcESaIc
 8149              		.align 64
 8152              	_ZTCN8UnitTest15MemoryOutStreamE0_St19basic_ostringstreamIcSt11char_traitsIcESaIcEE:
 8153 0000 60000000 		.quad	96
 8153      00000000 
 8154 0008 00000000 		.quad	0
 8154      00000000 
 8155 0010 00000000 		.quad	_ZTISt19basic_ostringstreamIcSt11char_traitsIcESaIcEE
 8155      00000000 
 8156 0018 00000000 		.quad	0
 8156      00000000 
 8157 0020 00000000 		.quad	0
 8157      00000000 
 8158 0028 A0FFFFFF 		.quad	-96
 8158      FFFFFFFF 
 8159 0030 A0FFFFFF 		.quad	-96
 8159      FFFFFFFF 
 8160 0038 00000000 		.quad	_ZTISt19basic_ostringstreamIcSt11char_traitsIcESaIcEE
 8160      00000000 
 8161 0040 00000000 		.quad	0
 8161      00000000 
 8162 0048 00000000 		.quad	0
 8162      00000000 
 8163              		.hidden	_ZTCN8UnitTest15MemoryOutStreamE0_So
 8164              		.weak	_ZTCN8UnitTest15MemoryOutStreamE0_So
 8165              		.section	.rodata._ZTCN8UnitTest15MemoryOutStreamE0_So,"aG",@progbits,_ZTVN8UnitTest15MemoryOutStre
 8166              		.align 64
 8169              	_ZTCN8UnitTest15MemoryOutStreamE0_So:
 8170 0000 60000000 		.quad	96
 8170      00000000 
 8171 0008 00000000 		.quad	0
 8171      00000000 
 8172 0010 00000000 		.quad	_ZTISo
 8172      00000000 
 8173 0018 00000000 		.quad	0
 8173      00000000 
 8174 0020 00000000 		.quad	0
 8174      00000000 
 8175 0028 A0FFFFFF 		.quad	-96
 8175      FFFFFFFF 
 8176 0030 A0FFFFFF 		.quad	-96
 8176      FFFFFFFF 
 8177 0038 00000000 		.quad	_ZTISo
 8177      00000000 
 8178 0040 00000000 		.quad	0
 8178      00000000 
 8179 0048 00000000 		.quad	0
 8179      00000000 
 8180              		.weak	_ZTI30TestConv_testGetHexLowerNibble
 8181              		.section	.rodata._ZTI30TestConv_testGetHexLowerNibble,"aG",@progbits,_ZTI30TestConv_testGetHexLowe
 8182              		.align 16
 8185              	_ZTI30TestConv_testGetHexLowerNibble:
 8186 0000 00000000 		.quad	_ZTVN10__cxxabiv120__si_class_type_infoE+16
 8186      00000000 
 8187 0008 00000000 		.quad	_ZTS30TestConv_testGetHexLowerNibble
 8187      00000000 
 8188 0010 00000000 		.quad	_ZTIN8UnitTest4TestE
 8188      00000000 
 8189              		.weak	_ZTS30TestConv_testGetHexLowerNibble
 8190              		.section	.rodata._ZTS30TestConv_testGetHexLowerNibble,"aG",@progbits,_ZTS30TestConv_testGetHexLowe
 8191              		.align 32
 8194              	_ZTS30TestConv_testGetHexLowerNibble:
 8195 0000 33305465 		.string	"30TestConv_testGetHexLowerNibble"
 8195      7374436F 
 8195      6E765F74 
 8195      65737447 
 8195      65744865 
 8196              		.weak	_ZTI30TestConv_testGetHexUpperNibble
 8197              		.section	.rodata._ZTI30TestConv_testGetHexUpperNibble,"aG",@progbits,_ZTI30TestConv_testGetHexUppe
 8198              		.align 16
 8201              	_ZTI30TestConv_testGetHexUpperNibble:
 8202 0000 00000000 		.quad	_ZTVN10__cxxabiv120__si_class_type_infoE+16
 8202      00000000 
 8203 0008 00000000 		.quad	_ZTS30TestConv_testGetHexUpperNibble
 8203      00000000 
 8204 0010 00000000 		.quad	_ZTIN8UnitTest4TestE
 8204      00000000 
 8205              		.weak	_ZTS30TestConv_testGetHexUpperNibble
 8206              		.section	.rodata._ZTS30TestConv_testGetHexUpperNibble,"aG",@progbits,_ZTS30TestConv_testGetHexUppe
 8207              		.align 32
 8210              	_ZTS30TestConv_testGetHexUpperNibble:
 8211 0000 33305465 		.string	"30TestConv_testGetHexUpperNibble"
 8211      7374436F 
 8211      6E765F74 
 8211      65737447 
 8211      65744865 
 8212              		.weak	_ZTI23TestConv_testGetHexByte
 8213              		.section	.rodata._ZTI23TestConv_testGetHexByte,"aG",@progbits,_ZTI23TestConv_testGetHexByte,comdat
 8214              		.align 16
 8217              	_ZTI23TestConv_testGetHexByte:
 8218 0000 00000000 		.quad	_ZTVN10__cxxabiv120__si_class_type_infoE+16
 8218      00000000 
 8219 0008 00000000 		.quad	_ZTS23TestConv_testGetHexByte
 8219      00000000 
 8220 0010 00000000 		.quad	_ZTIN8UnitTest4TestE
 8220      00000000 
 8221              		.weak	_ZTS23TestConv_testGetHexByte
 8222              		.section	.rodata._ZTS23TestConv_testGetHexByte,"aG",@progbits,_ZTS23TestConv_testGetHexByte,comdat
 8223              		.align 16
 8226              	_ZTS23TestConv_testGetHexByte:
 8227 0000 32335465 		.string	"23TestConv_testGetHexByte"
 8227      7374436F 
 8227      6E765F74 
 8227      65737447 
 8227      65744865 
 8228              		.weak	_ZTI25TestConv_testGetHexNibble
 8229              		.section	.rodata._ZTI25TestConv_testGetHexNibble,"aG",@progbits,_ZTI25TestConv_testGetHexNibble,co
 8230              		.align 16
 8233              	_ZTI25TestConv_testGetHexNibble:
 8234 0000 00000000 		.quad	_ZTVN10__cxxabiv120__si_class_type_infoE+16
 8234      00000000 
 8235 0008 00000000 		.quad	_ZTS25TestConv_testGetHexNibble
 8235      00000000 
 8236 0010 00000000 		.quad	_ZTIN8UnitTest4TestE
 8236      00000000 
 8237              		.weak	_ZTS25TestConv_testGetHexNibble
 8238              		.section	.rodata._ZTS25TestConv_testGetHexNibble,"aG",@progbits,_ZTS25TestConv_testGetHexNibble,co
 8239              		.align 16
 8242              	_ZTS25TestConv_testGetHexNibble:
 8243 0000 32355465 		.string	"25TestConv_testGetHexNibble"
 8243      7374436F 
 8243      6E765F74 
 8243      65737447 
 8243      65744865 
 8244              		.weak	_ZTSN8UnitTest15MemoryOutStreamE
 8245              		.section	.rodata._ZTSN8UnitTest15MemoryOutStreamE,"aG",@progbits,_ZTSN8UnitTest15MemoryOutStreamE,
 8246              		.align 16
 8249              	_ZTSN8UnitTest15MemoryOutStreamE:
 8250 0000 4E38556E 		.string	"N8UnitTest15MemoryOutStreamE"
 8250      69745465 
 8250      73743135 
 8250      4D656D6F 
 8250      72794F75 
 8251              		.weak	_ZTIN8UnitTest15MemoryOutStreamE
 8252              		.section	.rodata._ZTIN8UnitTest15MemoryOutStreamE,"aG",@progbits,_ZTIN8UnitTest15MemoryOutStreamE,
 8253              		.align 16
 8256              	_ZTIN8UnitTest15MemoryOutStreamE:
 8257 0000 00000000 		.quad	_ZTVN10__cxxabiv120__si_class_type_infoE+16
 8257      00000000 
 8258 0008 00000000 		.quad	_ZTSN8UnitTest15MemoryOutStreamE
 8258      00000000 
 8259 0010 00000000 		.quad	_ZTISt19basic_ostringstreamIcSt11char_traitsIcESaIcEE
 8259      00000000 
 8260              		.text
 8262              	_Z41__static_initialization_and_destruction_0ii:
 8263              	.LFB1186:
 8264              		.loc 3 147 0
 8265              		.cfi_startproc
 8266 37ca 55       		pushq	%rbp
 8267              		.cfi_def_cfa_offset 16
 8268              		.cfi_offset 6, -16
 8269 37cb 4889E5   		movq	%rsp, %rbp
 8270              		.cfi_def_cfa_register 6
 8271 37ce 4883EC10 		subq	$16, %rsp
 8272 37d2 897DFC   		movl	%edi, -4(%rbp)
 8273 37d5 8975F8   		movl	%esi, -8(%rbp)
 8274              		.loc 3 147 0
 8275 37d8 837DFC01 		cmpl	$1, -4(%rbp)
 8276 37dc 0F85E100 		jne	.L500
 8276      0000
 8277              		.loc 3 147 0 is_stmt 0 discriminator 1
 8278 37e2 817DF8FF 		cmpl	$65535, -8(%rbp)
 8278      FF0000
 8279 37e9 0F85D400 		jne	.L500
 8279      0000
  20:testConv.cpp  **** 	uint8 nibble;
 8280              		.loc 3 20 0 is_stmt 1
 8281 37ef BF000000 		movl	$testConv_testGetHexNibbleInstance, %edi
 8281      00
 8282 37f4 E8000000 		call	_ZN25TestConv_testGetHexNibbleC1Ev
 8282      00
 8283 37f9 BA000000 		movl	$__dso_handle, %edx
 8283      00
 8284 37fe BE000000 		movl	$testConv_testGetHexNibbleInstance, %esi
 8284      00
 8285 3803 BF000000 		movl	$_ZN25TestConv_testGetHexNibbleD1Ev, %edi
 8285      00
 8286 3808 E8000000 		call	__cxa_atexit
 8286      00
 8287 380d E8000000 		call	_ZN8UnitTest4Test11GetTestListEv
 8287      00
 8288 3812 BA000000 		movl	$testConv_testGetHexNibbleInstance, %edx
 8288      00
 8289 3817 4889C6   		movq	%rax, %rsi
 8290 381a BF000000 		movl	$adderConv_testGetHexNibble, %edi
 8290      00
 8291 381f E8000000 		call	_ZN8UnitTest9ListAdderC1ERNS_8TestListEPNS_4TestE
 8291      00
  93:testConv.cpp  **** 	uint8 byte;
 8292              		.loc 3 93 0
 8293 3824 BF000000 		movl	$testConv_testGetHexByteInstance, %edi
 8293      00
 8294 3829 E8000000 		call	_ZN23TestConv_testGetHexByteC1Ev
 8294      00
 8295 382e BA000000 		movl	$__dso_handle, %edx
 8295      00
 8296 3833 BE000000 		movl	$testConv_testGetHexByteInstance, %esi
 8296      00
 8297 3838 BF000000 		movl	$_ZN23TestConv_testGetHexByteD1Ev, %edi
 8297      00
 8298 383d E8000000 		call	__cxa_atexit
 8298      00
 8299 3842 E8000000 		call	_ZN8UnitTest4Test11GetTestListEv
 8299      00
 8300 3847 BA000000 		movl	$testConv_testGetHexByteInstance, %edx
 8300      00
 8301 384c 4889C6   		movq	%rax, %rsi
 8302 384f BF000000 		movl	$adderConv_testGetHexByte, %edi
 8302      00
 8303 3854 E8000000 		call	_ZN8UnitTest9ListAdderC1ERNS_8TestListEPNS_4TestE
 8303      00
 111:testConv.cpp  **** 	CHECK_EQUAL('0', getHexUpperNibble(0x0F));
 8304              		.loc 3 111 0
 8305 3859 BF000000 		movl	$testConv_testGetHexUpperNibbleInstance, %edi
 8305      00
 8306 385e E8000000 		call	_ZN30TestConv_testGetHexUpperNibbleC1Ev
 8306      00
 8307 3863 BA000000 		movl	$__dso_handle, %edx
 8307      00
 8308 3868 BE000000 		movl	$testConv_testGetHexUpperNibbleInstance, %esi
 8308      00
 8309 386d BF000000 		movl	$_ZN30TestConv_testGetHexUpperNibbleD1Ev, %edi
 8309      00
 8310 3872 E8000000 		call	__cxa_atexit
 8310      00
 8311 3877 E8000000 		call	_ZN8UnitTest4Test11GetTestListEv
 8311      00
 8312 387c BA000000 		movl	$testConv_testGetHexUpperNibbleInstance, %edx
 8312      00
 8313 3881 4889C6   		movq	%rax, %rsi
 8314 3884 BF000000 		movl	$adderConv_testGetHexUpperNibble, %edi
 8314      00
 8315 3889 E8000000 		call	_ZN8UnitTest9ListAdderC1ERNS_8TestListEPNS_4TestE
 8315      00
 130:testConv.cpp  **** 	CHECK_EQUAL('0', getHexLowerNibble(0xF0));
 8316              		.loc 3 130 0
 8317 388e BF000000 		movl	$testConv_testGetHexLowerNibbleInstance, %edi
 8317      00
 8318 3893 E8000000 		call	_ZN30TestConv_testGetHexLowerNibbleC1Ev
 8318      00
 8319 3898 BA000000 		movl	$__dso_handle, %edx
 8319      00
 8320 389d BE000000 		movl	$testConv_testGetHexLowerNibbleInstance, %esi
 8320      00
 8321 38a2 BF000000 		movl	$_ZN30TestConv_testGetHexLowerNibbleD1Ev, %edi
 8321      00
 8322 38a7 E8000000 		call	__cxa_atexit
 8322      00
 8323 38ac E8000000 		call	_ZN8UnitTest4Test11GetTestListEv
 8323      00
 8324 38b1 BA000000 		movl	$testConv_testGetHexLowerNibbleInstance, %edx
 8324      00
 8325 38b6 4889C6   		movq	%rax, %rsi
 8326 38b9 BF000000 		movl	$adderConv_testGetHexLowerNibble, %edi
 8326      00
 8327 38be E8000000 		call	_ZN8UnitTest9ListAdderC1ERNS_8TestListEPNS_4TestE
 8327      00
 8328              	.L500:
 8329              		.loc 3 147 0
 8330 38c3 C9       		leave
 8331              		.cfi_def_cfa 7, 8
 8332 38c4 C3       		ret
 8333              		.cfi_endproc
 8334              	.LFE1186:
 8337              	_GLOBAL__sub_I_testConv_testGetHexNibbleInstance:
 8338              	.LFB1187:
 8339              		.loc 3 147 0
 8340              		.cfi_startproc
 8341 38c5 55       		pushq	%rbp
 8342              		.cfi_def_cfa_offset 16
 8343              		.cfi_offset 6, -16
 8344 38c6 4889E5   		movq	%rsp, %rbp
 8345              		.cfi_def_cfa_register 6
 8346              		.loc 3 147 0
 8347 38c9 BEFFFF00 		movl	$65535, %esi
 8347      00
 8348 38ce BF010000 		movl	$1, %edi
 8348      00
 8349 38d3 E8F2FEFF 		call	_Z41__static_initialization_and_destruction_0ii
 8349      FF
 8350 38d8 5D       		popq	%rbp
 8351              		.cfi_def_cfa 7, 8
 8352 38d9 C3       		ret
 8353              		.cfi_endproc
 8354              	.LFE1187:
 8356              		.section	.init_array,"aw"
 8357              		.align 8
 8358 0000 00000000 		.quad	_GLOBAL__sub_I_testConv_testGetHexNibbleInstance
 8358      00000000 
 8359              		.section	.rodata
 8360 0d95 000000   		.align 8
 8363              	_ZZL18__gthread_active_pvE20__gthread_active_ptr:
 8364 0d98 00000000 		.quad	_ZL28__gthrw___pthread_key_createPjPFvPvE
 8364      00000000 
 8365              		.weakref	_ZL28__gthrw___pthread_key_createPjPFvPvE,__pthread_key_create
 8366              		.text
 8367              	.Letext0:
 8368              		.file 5 "/home/asoreyh/Dropbox/projects/lago/lago-software/acqua/brc/lago/makestuff/libs/libutpp/T
 8369              		.file 6 "/home/asoreyh/Dropbox/projects/lago/lago-software/acqua/brc/lago/makestuff/libs/libutpp/T
 8370              		.file 7 "/home/asoreyh/Dropbox/projects/lago/lago-software/acqua/brc/lago/makestuff/libs/libutpp/T
 8371              		.file 8 "<built-in>"
 8372              		.file 9 "/usr/include/stdio.h"
 8373              		.file 10 "/usr/lib/gcc/x86_64-linux-gnu/4.9/include/stddef.h"
 8374              		.file 11 "/usr/include/wchar.h"
 8375              		.file 12 "/usr/include/c++/4.9/cwchar"
 8376              		.file 13 "/usr/include/c++/4.9/bits/char_traits.h"
 8377              		.file 14 "/usr/include/x86_64-linux-gnu/c++/4.9/bits/c++config.h"
 8378              		.file 15 "/usr/include/c++/4.9/clocale"
 8379              		.file 16 "/usr/include/c++/4.9/bits/allocator.h"
 8380              		.file 17 "/usr/include/c++/4.9/bits/basic_string.h"
 8381              		.file 18 "/usr/include/c++/4.9/bits/basic_string.tcc"
 8382              		.file 19 "/usr/include/c++/4.9/bits/stringfwd.h"
 8383              		.file 20 "/usr/include/c++/4.9/cwctype"
 8384              		.file 21 "/usr/include/time.h"
 8385              		.file 22 "/usr/include/c++/4.9/debug/debug.h"
 8386              		.file 23 "/usr/include/c++/4.9/bits/predefined_ops.h"
 8387              		.file 24 "/usr/include/c++/4.9/ext/new_allocator.h"
 8388              		.file 25 "/usr/include/c++/4.9/ext/numeric_traits.h"
 8389              		.file 26 "/usr/include/locale.h"
 8390              		.file 27 "/usr/include/x86_64-linux-gnu/bits/types.h"
 8391              		.file 28 "/usr/include/x86_64-linux-gnu/c++/4.9/bits/atomic_word.h"
 8392              		.file 29 "/usr/include/wctype.h"
 8393              		.file 30 "/home/asoreyh/Dropbox/projects/lago/lago-software/acqua/brc/lago/makestuff/common/makest
DEFINED SYMBOLS
                            *ABS*:0000000000000000 testConv.cpp
     /tmp/ccADS28o.s:10     .text._ZN13UnitTestSuite12GetSuiteNameEv:0000000000000000 _ZN13UnitTestSuite12GetSuiteNameEv
     /tmp/ccADS28o.s:33     .text._ZN8UnitTest15MemoryOutStreamC1Ev:0000000000000000 _ZN8UnitTest15MemoryOutStreamC1Ev
     /tmp/ccADS28o.s:8139   .rodata._ZTTN8UnitTest15MemoryOutStreamE:0000000000000000 _ZTTN8UnitTest15MemoryOutStreamE
     /tmp/ccADS28o.s:8123   .rodata._ZTVN8UnitTest15MemoryOutStreamE:0000000000000000 _ZTVN8UnitTest15MemoryOutStreamE
     /tmp/ccADS28o.s:151    .text._ZN25TestConv_testGetHexNibbleC2Ev:0000000000000000 _ZN25TestConv_testGetHexNibbleC2Ev
     /tmp/ccADS28o.s:8044   .rodata._ZTV25TestConv_testGetHexNibble:0000000000000000 _ZTV25TestConv_testGetHexNibble
     /tmp/ccADS28o.s:151    .text._ZN25TestConv_testGetHexNibbleC2Ev:0000000000000000 _ZN25TestConv_testGetHexNibbleC1Ev
     /tmp/ccADS28o.s:189    .bss:0000000000000000 testConv_testGetHexNibbleInstance
     /tmp/ccADS28o.s:194    .bss:0000000000000038 adderConv_testGetHexNibble
     /tmp/ccADS28o.s:255    .text:0000000000000000 _ZNK25TestConv_testGetHexNibble7RunImplEv
     /tmp/ccADS28o.s:7363   .text._ZN8UnitTest10CheckEqualIbbEEvRNS_11TestResultsERKT_RKT0_RKNS_11TestDetailsE:0000000000000000 _ZN8UnitTest10CheckEqualIbbEEvRNS_11TestResultsERKT_RKT0_RKNS_11TestDetailsE
     /tmp/ccADS28o.s:7511   .text._ZN8UnitTest10CheckEqualIihEEvRNS_11TestResultsERKT_RKT0_RKNS_11TestDetailsE:0000000000000000 _ZN8UnitTest10CheckEqualIihEEvRNS_11TestResultsERKT_RKT0_RKNS_11TestDetailsE
     /tmp/ccADS28o.s:3745   .text._ZN23TestConv_testGetHexByteC2Ev:0000000000000000 _ZN23TestConv_testGetHexByteC2Ev
     /tmp/ccADS28o.s:7965   .rodata._ZTV23TestConv_testGetHexByte:0000000000000000 _ZTV23TestConv_testGetHexByte
     /tmp/ccADS28o.s:3745   .text._ZN23TestConv_testGetHexByteC2Ev:0000000000000000 _ZN23TestConv_testGetHexByteC1Ev
     /tmp/ccADS28o.s:3782   .bss:0000000000000040 testConv_testGetHexByteInstance
     /tmp/ccADS28o.s:3787   .bss:0000000000000078 adderConv_testGetHexByte
     /tmp/ccADS28o.s:3813   .text:0000000000001d2c _ZNK23TestConv_testGetHexByte7RunImplEv
     /tmp/ccADS28o.s:4497   .text._ZN30TestConv_testGetHexUpperNibbleC2Ev:0000000000000000 _ZN30TestConv_testGetHexUpperNibbleC2Ev
     /tmp/ccADS28o.s:7886   .rodata._ZTV30TestConv_testGetHexUpperNibble:0000000000000000 _ZTV30TestConv_testGetHexUpperNibble
     /tmp/ccADS28o.s:4497   .text._ZN30TestConv_testGetHexUpperNibbleC2Ev:0000000000000000 _ZN30TestConv_testGetHexUpperNibbleC1Ev
     /tmp/ccADS28o.s:4534   .bss:0000000000000080 testConv_testGetHexUpperNibbleInstance
     /tmp/ccADS28o.s:4539   .bss:00000000000000b8 adderConv_testGetHexUpperNibble
     /tmp/ccADS28o.s:4594   .text:000000000000229a _ZNK30TestConv_testGetHexUpperNibble7RunImplEv
     /tmp/ccADS28o.s:7658   .text._ZN8UnitTest10CheckEqualIccEEvRNS_11TestResultsERKT_RKT0_RKNS_11TestDetailsE:0000000000000000 _ZN8UnitTest10CheckEqualIccEEvRNS_11TestResultsERKT_RKT0_RKNS_11TestDetailsE
     /tmp/ccADS28o.s:5838   .text._ZN30TestConv_testGetHexLowerNibbleC2Ev:0000000000000000 _ZN30TestConv_testGetHexLowerNibbleC2Ev
     /tmp/ccADS28o.s:7807   .rodata._ZTV30TestConv_testGetHexLowerNibble:0000000000000000 _ZTV30TestConv_testGetHexLowerNibble
     /tmp/ccADS28o.s:5838   .text._ZN30TestConv_testGetHexLowerNibbleC2Ev:0000000000000000 _ZN30TestConv_testGetHexLowerNibbleC1Ev
     /tmp/ccADS28o.s:5875   .bss:00000000000000c0 testConv_testGetHexLowerNibbleInstance
     /tmp/ccADS28o.s:5880   .bss:00000000000000f8 adderConv_testGetHexLowerNibble
     /tmp/ccADS28o.s:5935   .text:0000000000002d32 _ZNK30TestConv_testGetHexLowerNibble7RunImplEv
     /tmp/ccADS28o.s:7176   .text._ZN8UnitTest15MemoryOutStreamD1Ev:0000000000000000 _ZN8UnitTest15MemoryOutStreamD1Ev
     /tmp/ccADS28o.s:7304   .text._ZN8UnitTest15MemoryOutStreamD1Ev:00000000000000c8 _ZTv0_n24_N8UnitTest15MemoryOutStreamD1Ev
     /tmp/ccADS28o.s:7318   .text._ZN8UnitTest15MemoryOutStreamD0Ev:0000000000000000 _ZN8UnitTest15MemoryOutStreamD0Ev
     /tmp/ccADS28o.s:7345   .text._ZN8UnitTest15MemoryOutStreamD0Ev:0000000000000026 _ZTv0_n24_N8UnitTest15MemoryOutStreamD0Ev
     /tmp/ccADS28o.s:8185   .rodata._ZTI30TestConv_testGetHexLowerNibble:0000000000000000 _ZTI30TestConv_testGetHexLowerNibble
     /tmp/ccADS28o.s:7817   .text._ZN30TestConv_testGetHexLowerNibbleD2Ev:0000000000000000 _ZN30TestConv_testGetHexLowerNibbleD1Ev
     /tmp/ccADS28o.s:7857   .text._ZN30TestConv_testGetHexLowerNibbleD0Ev:0000000000000000 _ZN30TestConv_testGetHexLowerNibbleD0Ev
     /tmp/ccADS28o.s:7817   .text._ZN30TestConv_testGetHexLowerNibbleD2Ev:0000000000000000 _ZN30TestConv_testGetHexLowerNibbleD2Ev
     /tmp/ccADS28o.s:8201   .rodata._ZTI30TestConv_testGetHexUpperNibble:0000000000000000 _ZTI30TestConv_testGetHexUpperNibble
     /tmp/ccADS28o.s:7896   .text._ZN30TestConv_testGetHexUpperNibbleD2Ev:0000000000000000 _ZN30TestConv_testGetHexUpperNibbleD1Ev
     /tmp/ccADS28o.s:7936   .text._ZN30TestConv_testGetHexUpperNibbleD0Ev:0000000000000000 _ZN30TestConv_testGetHexUpperNibbleD0Ev
     /tmp/ccADS28o.s:7896   .text._ZN30TestConv_testGetHexUpperNibbleD2Ev:0000000000000000 _ZN30TestConv_testGetHexUpperNibbleD2Ev
     /tmp/ccADS28o.s:8217   .rodata._ZTI23TestConv_testGetHexByte:0000000000000000 _ZTI23TestConv_testGetHexByte
     /tmp/ccADS28o.s:7975   .text._ZN23TestConv_testGetHexByteD2Ev:0000000000000000 _ZN23TestConv_testGetHexByteD1Ev
     /tmp/ccADS28o.s:8015   .text._ZN23TestConv_testGetHexByteD0Ev:0000000000000000 _ZN23TestConv_testGetHexByteD0Ev
     /tmp/ccADS28o.s:7975   .text._ZN23TestConv_testGetHexByteD2Ev:0000000000000000 _ZN23TestConv_testGetHexByteD2Ev
     /tmp/ccADS28o.s:8233   .rodata._ZTI25TestConv_testGetHexNibble:0000000000000000 _ZTI25TestConv_testGetHexNibble
     /tmp/ccADS28o.s:8054   .text._ZN25TestConv_testGetHexNibbleD2Ev:0000000000000000 _ZN25TestConv_testGetHexNibbleD1Ev
     /tmp/ccADS28o.s:8094   .text._ZN25TestConv_testGetHexNibbleD0Ev:0000000000000000 _ZN25TestConv_testGetHexNibbleD0Ev
     /tmp/ccADS28o.s:8054   .text._ZN25TestConv_testGetHexNibbleD2Ev:0000000000000000 _ZN25TestConv_testGetHexNibbleD2Ev
     /tmp/ccADS28o.s:8256   .rodata._ZTIN8UnitTest15MemoryOutStreamE:0000000000000000 _ZTIN8UnitTest15MemoryOutStreamE
     /tmp/ccADS28o.s:8152   .rodata._ZTCN8UnitTest15MemoryOutStreamE0_St19basic_ostringstreamIcSt11char_traitsIcESaIcEE:0000000000000000 _ZTCN8UnitTest15MemoryOutStreamE0_St19basic_ostringstreamIcSt11char_traitsIcESaIcEE
     /tmp/ccADS28o.s:8169   .rodata._ZTCN8UnitTest15MemoryOutStreamE0_So:0000000000000000 _ZTCN8UnitTest15MemoryOutStreamE0_So
     /tmp/ccADS28o.s:8194   .rodata._ZTS30TestConv_testGetHexLowerNibble:0000000000000000 _ZTS30TestConv_testGetHexLowerNibble
     /tmp/ccADS28o.s:8210   .rodata._ZTS30TestConv_testGetHexUpperNibble:0000000000000000 _ZTS30TestConv_testGetHexUpperNibble
     /tmp/ccADS28o.s:8226   .rodata._ZTS23TestConv_testGetHexByte:0000000000000000 _ZTS23TestConv_testGetHexByte
     /tmp/ccADS28o.s:8242   .rodata._ZTS25TestConv_testGetHexNibble:0000000000000000 _ZTS25TestConv_testGetHexNibble
     /tmp/ccADS28o.s:8249   .rodata._ZTSN8UnitTest15MemoryOutStreamE:0000000000000000 _ZTSN8UnitTest15MemoryOutStreamE
     /tmp/ccADS28o.s:8262   .text:00000000000037ca _Z41__static_initialization_and_destruction_0ii
     /tmp/ccADS28o.s:8337   .text:00000000000038c5 _GLOBAL__sub_I_testConv_testGetHexNibbleInstance
     /tmp/ccADS28o.s:8363   .rodata:0000000000000d98 _ZZL18__gthread_active_pvE20__gthread_active_ptr
                           .group:0000000000000000 _ZN25TestConv_testGetHexNibbleC5Ev
                           .group:0000000000000000 _ZN23TestConv_testGetHexByteC5Ev
                           .group:0000000000000000 _ZN30TestConv_testGetHexUpperNibbleC5Ev
                           .group:0000000000000000 _ZN30TestConv_testGetHexLowerNibbleC5Ev
                           .group:0000000000000000 _ZN30TestConv_testGetHexLowerNibbleD5Ev
                           .group:0000000000000000 _ZN30TestConv_testGetHexUpperNibbleD5Ev
                           .group:0000000000000000 _ZN23TestConv_testGetHexByteD5Ev
                           .group:0000000000000000 _ZN25TestConv_testGetHexNibbleD5Ev

UNDEFINED SYMBOLS
__gxx_personality_v0
_ZNSt9basic_iosIcSt11char_traitsIcEEC2Ev
_ZNSt19basic_ostringstreamIcSt11char_traitsIcESaIcEEC2ESt13_Ios_Openmode
_ZNSsC1Ev
_ZNSt19basic_ostringstreamIcSt11char_traitsIcESaIcEED2Ev
_ZNSt9basic_iosIcSt11char_traitsIcEED2Ev
_Unwind_Resume
_ZN8UnitTest4TestC2EPKcS2_S2_i
getHexNibble
_ZN8UnitTest11CurrentTest7DetailsEv
_ZN8UnitTest11TestDetailsC1ERKS0_i
_ZN8UnitTest11CurrentTest7ResultsEv
__cxa_end_catch
__cxa_begin_catch
_ZN8UnitTest11TestResults13OnTestFailureERKNS_11TestDetailsEPKc
__stack_chk_fail
getHexByte
getHexUpperNibble
getHexLowerNibble
_ZNSsD1Ev
_ZdlPv
_ZStlsISt11char_traitsIcEERSt13basic_ostreamIcT_ES5_PKc
_ZNSolsEb
_ZNK8UnitTest15MemoryOutStream7GetTextEv
_ZNSolsEi
_ZStlsISt11char_traitsIcEERSt13basic_ostreamIcT_ES5_h
_ZStlsISt11char_traitsIcEERSt13basic_ostreamIcT_ES5_c
_ZN8UnitTest4TestD2Ev
_ZTISt19basic_ostringstreamIcSt11char_traitsIcESaIcEE
_ZTISo
_ZTVN10__cxxabiv120__si_class_type_infoE
_ZTIN8UnitTest4TestE
__dso_handle
__cxa_atexit
_ZN8UnitTest4Test11GetTestListEv
_ZN8UnitTest9ListAdderC1ERNS_8TestListEPNS_4TestE
__pthread_key_create
