   1              		.file	"testHexIO.cpp"
   2              		.text
   3              	.Ltext0:
   4              		.section	.text._ZStorSt13_Ios_OpenmodeS_,"axG",@progbits,_ZStorSt13_Ios_OpenmodeS_,comdat
   5              		.weak	_ZStorSt13_Ios_OpenmodeS_
   7              	_ZStorSt13_Ios_OpenmodeS_:
   8              	.LFB641:
   9              		.file 1 "/usr/include/c++/4.9/bits/ios_base.h"
   1:/usr/include/c++/4.9/bits/ios_base.h **** // Iostreams base classes -*- C++ -*-
   2:/usr/include/c++/4.9/bits/ios_base.h **** 
   3:/usr/include/c++/4.9/bits/ios_base.h **** // Copyright (C) 1997-2014 Free Software Foundation, Inc.
   4:/usr/include/c++/4.9/bits/ios_base.h **** //
   5:/usr/include/c++/4.9/bits/ios_base.h **** // This file is part of the GNU ISO C++ Library.  This library is free
   6:/usr/include/c++/4.9/bits/ios_base.h **** // software; you can redistribute it and/or modify it under the
   7:/usr/include/c++/4.9/bits/ios_base.h **** // terms of the GNU General Public License as published by the
   8:/usr/include/c++/4.9/bits/ios_base.h **** // Free Software Foundation; either version 3, or (at your option)
   9:/usr/include/c++/4.9/bits/ios_base.h **** // any later version.
  10:/usr/include/c++/4.9/bits/ios_base.h **** 
  11:/usr/include/c++/4.9/bits/ios_base.h **** // This library is distributed in the hope that it will be useful,
  12:/usr/include/c++/4.9/bits/ios_base.h **** // but WITHOUT ANY WARRANTY; without even the implied warranty of
  13:/usr/include/c++/4.9/bits/ios_base.h **** // MERCHANTABILITY or FITNESS FOR A PARTICULAR PURPOSE.  See the
  14:/usr/include/c++/4.9/bits/ios_base.h **** // GNU General Public License for more details.
  15:/usr/include/c++/4.9/bits/ios_base.h **** 
  16:/usr/include/c++/4.9/bits/ios_base.h **** // Under Section 7 of GPL version 3, you are granted additional
  17:/usr/include/c++/4.9/bits/ios_base.h **** // permissions described in the GCC Runtime Library Exception, version
  18:/usr/include/c++/4.9/bits/ios_base.h **** // 3.1, as published by the Free Software Foundation.
  19:/usr/include/c++/4.9/bits/ios_base.h **** 
  20:/usr/include/c++/4.9/bits/ios_base.h **** // You should have received a copy of the GNU General Public License and
  21:/usr/include/c++/4.9/bits/ios_base.h **** // a copy of the GCC Runtime Library Exception along with this program;
  22:/usr/include/c++/4.9/bits/ios_base.h **** // see the files COPYING3 and COPYING.RUNTIME respectively.  If not, see
  23:/usr/include/c++/4.9/bits/ios_base.h **** // <http://www.gnu.org/licenses/>.
  24:/usr/include/c++/4.9/bits/ios_base.h **** 
  25:/usr/include/c++/4.9/bits/ios_base.h **** /** @file bits/ios_base.h
  26:/usr/include/c++/4.9/bits/ios_base.h ****  *  This is an internal header file, included by other library headers.
  27:/usr/include/c++/4.9/bits/ios_base.h ****  *  Do not attempt to use it directly. @headername{ios}
  28:/usr/include/c++/4.9/bits/ios_base.h ****  */
  29:/usr/include/c++/4.9/bits/ios_base.h **** 
  30:/usr/include/c++/4.9/bits/ios_base.h **** //
  31:/usr/include/c++/4.9/bits/ios_base.h **** // ISO C++ 14882: 27.4  Iostreams base classes
  32:/usr/include/c++/4.9/bits/ios_base.h **** //
  33:/usr/include/c++/4.9/bits/ios_base.h **** 
  34:/usr/include/c++/4.9/bits/ios_base.h **** #ifndef _IOS_BASE_H
  35:/usr/include/c++/4.9/bits/ios_base.h **** #define _IOS_BASE_H 1
  36:/usr/include/c++/4.9/bits/ios_base.h **** 
  37:/usr/include/c++/4.9/bits/ios_base.h **** #pragma GCC system_header
  38:/usr/include/c++/4.9/bits/ios_base.h **** 
  39:/usr/include/c++/4.9/bits/ios_base.h **** #include <ext/atomicity.h>
  40:/usr/include/c++/4.9/bits/ios_base.h **** #include <bits/localefwd.h>
  41:/usr/include/c++/4.9/bits/ios_base.h **** #include <bits/locale_classes.h>
  42:/usr/include/c++/4.9/bits/ios_base.h **** 
  43:/usr/include/c++/4.9/bits/ios_base.h **** namespace std _GLIBCXX_VISIBILITY(default)
  44:/usr/include/c++/4.9/bits/ios_base.h **** {
  45:/usr/include/c++/4.9/bits/ios_base.h **** _GLIBCXX_BEGIN_NAMESPACE_VERSION
  46:/usr/include/c++/4.9/bits/ios_base.h **** 
  47:/usr/include/c++/4.9/bits/ios_base.h ****   // The following definitions of bitmask types are enums, not ints,
  48:/usr/include/c++/4.9/bits/ios_base.h ****   // as permitted (but not required) in the standard, in order to provide
  49:/usr/include/c++/4.9/bits/ios_base.h ****   // better type safety in iostream calls.  A side effect is that
  50:/usr/include/c++/4.9/bits/ios_base.h ****   // expressions involving them are no longer compile-time constants.
  51:/usr/include/c++/4.9/bits/ios_base.h ****   enum _Ios_Fmtflags 
  52:/usr/include/c++/4.9/bits/ios_base.h ****     { 
  53:/usr/include/c++/4.9/bits/ios_base.h ****       _S_boolalpha 	= 1L << 0,
  54:/usr/include/c++/4.9/bits/ios_base.h ****       _S_dec 		= 1L << 1,
  55:/usr/include/c++/4.9/bits/ios_base.h ****       _S_fixed 		= 1L << 2,
  56:/usr/include/c++/4.9/bits/ios_base.h ****       _S_hex 		= 1L << 3,
  57:/usr/include/c++/4.9/bits/ios_base.h ****       _S_internal 	= 1L << 4,
  58:/usr/include/c++/4.9/bits/ios_base.h ****       _S_left 		= 1L << 5,
  59:/usr/include/c++/4.9/bits/ios_base.h ****       _S_oct 		= 1L << 6,
  60:/usr/include/c++/4.9/bits/ios_base.h ****       _S_right 		= 1L << 7,
  61:/usr/include/c++/4.9/bits/ios_base.h ****       _S_scientific 	= 1L << 8,
  62:/usr/include/c++/4.9/bits/ios_base.h ****       _S_showbase 	= 1L << 9,
  63:/usr/include/c++/4.9/bits/ios_base.h ****       _S_showpoint 	= 1L << 10,
  64:/usr/include/c++/4.9/bits/ios_base.h ****       _S_showpos 	= 1L << 11,
  65:/usr/include/c++/4.9/bits/ios_base.h ****       _S_skipws 	= 1L << 12,
  66:/usr/include/c++/4.9/bits/ios_base.h ****       _S_unitbuf 	= 1L << 13,
  67:/usr/include/c++/4.9/bits/ios_base.h ****       _S_uppercase 	= 1L << 14,
  68:/usr/include/c++/4.9/bits/ios_base.h ****       _S_adjustfield 	= _S_left | _S_right | _S_internal,
  69:/usr/include/c++/4.9/bits/ios_base.h ****       _S_basefield 	= _S_dec | _S_oct | _S_hex,
  70:/usr/include/c++/4.9/bits/ios_base.h ****       _S_floatfield 	= _S_scientific | _S_fixed,
  71:/usr/include/c++/4.9/bits/ios_base.h ****       _S_ios_fmtflags_end = 1L << 16 
  72:/usr/include/c++/4.9/bits/ios_base.h ****     };
  73:/usr/include/c++/4.9/bits/ios_base.h **** 
  74:/usr/include/c++/4.9/bits/ios_base.h ****   inline _GLIBCXX_CONSTEXPR _Ios_Fmtflags
  75:/usr/include/c++/4.9/bits/ios_base.h ****   operator&(_Ios_Fmtflags __a, _Ios_Fmtflags __b)
  76:/usr/include/c++/4.9/bits/ios_base.h ****   { return _Ios_Fmtflags(static_cast<int>(__a) & static_cast<int>(__b)); }
  77:/usr/include/c++/4.9/bits/ios_base.h **** 
  78:/usr/include/c++/4.9/bits/ios_base.h ****   inline _GLIBCXX_CONSTEXPR _Ios_Fmtflags
  79:/usr/include/c++/4.9/bits/ios_base.h ****   operator|(_Ios_Fmtflags __a, _Ios_Fmtflags __b)
  80:/usr/include/c++/4.9/bits/ios_base.h ****   { return _Ios_Fmtflags(static_cast<int>(__a) | static_cast<int>(__b)); }
  81:/usr/include/c++/4.9/bits/ios_base.h **** 
  82:/usr/include/c++/4.9/bits/ios_base.h ****   inline _GLIBCXX_CONSTEXPR _Ios_Fmtflags
  83:/usr/include/c++/4.9/bits/ios_base.h ****   operator^(_Ios_Fmtflags __a, _Ios_Fmtflags __b)
  84:/usr/include/c++/4.9/bits/ios_base.h ****   { return _Ios_Fmtflags(static_cast<int>(__a) ^ static_cast<int>(__b)); }
  85:/usr/include/c++/4.9/bits/ios_base.h **** 
  86:/usr/include/c++/4.9/bits/ios_base.h ****   inline _GLIBCXX_CONSTEXPR _Ios_Fmtflags
  87:/usr/include/c++/4.9/bits/ios_base.h ****   operator~(_Ios_Fmtflags __a)
  88:/usr/include/c++/4.9/bits/ios_base.h ****   { return _Ios_Fmtflags(~static_cast<int>(__a)); }
  89:/usr/include/c++/4.9/bits/ios_base.h **** 
  90:/usr/include/c++/4.9/bits/ios_base.h ****   inline const _Ios_Fmtflags&
  91:/usr/include/c++/4.9/bits/ios_base.h ****   operator|=(_Ios_Fmtflags& __a, _Ios_Fmtflags __b)
  92:/usr/include/c++/4.9/bits/ios_base.h ****   { return __a = __a | __b; }
  93:/usr/include/c++/4.9/bits/ios_base.h **** 
  94:/usr/include/c++/4.9/bits/ios_base.h ****   inline const _Ios_Fmtflags&
  95:/usr/include/c++/4.9/bits/ios_base.h ****   operator&=(_Ios_Fmtflags& __a, _Ios_Fmtflags __b)
  96:/usr/include/c++/4.9/bits/ios_base.h ****   { return __a = __a & __b; }
  97:/usr/include/c++/4.9/bits/ios_base.h **** 
  98:/usr/include/c++/4.9/bits/ios_base.h ****   inline const _Ios_Fmtflags&
  99:/usr/include/c++/4.9/bits/ios_base.h ****   operator^=(_Ios_Fmtflags& __a, _Ios_Fmtflags __b)
 100:/usr/include/c++/4.9/bits/ios_base.h ****   { return __a = __a ^ __b; }
 101:/usr/include/c++/4.9/bits/ios_base.h **** 
 102:/usr/include/c++/4.9/bits/ios_base.h **** 
 103:/usr/include/c++/4.9/bits/ios_base.h ****   enum _Ios_Openmode 
 104:/usr/include/c++/4.9/bits/ios_base.h ****     { 
 105:/usr/include/c++/4.9/bits/ios_base.h ****       _S_app 		= 1L << 0,
 106:/usr/include/c++/4.9/bits/ios_base.h ****       _S_ate 		= 1L << 1,
 107:/usr/include/c++/4.9/bits/ios_base.h ****       _S_bin 		= 1L << 2,
 108:/usr/include/c++/4.9/bits/ios_base.h ****       _S_in 		= 1L << 3,
 109:/usr/include/c++/4.9/bits/ios_base.h ****       _S_out 		= 1L << 4,
 110:/usr/include/c++/4.9/bits/ios_base.h ****       _S_trunc 		= 1L << 5,
 111:/usr/include/c++/4.9/bits/ios_base.h ****       _S_ios_openmode_end = 1L << 16 
 112:/usr/include/c++/4.9/bits/ios_base.h ****     };
 113:/usr/include/c++/4.9/bits/ios_base.h **** 
 114:/usr/include/c++/4.9/bits/ios_base.h ****   inline _GLIBCXX_CONSTEXPR _Ios_Openmode
 115:/usr/include/c++/4.9/bits/ios_base.h ****   operator&(_Ios_Openmode __a, _Ios_Openmode __b)
 116:/usr/include/c++/4.9/bits/ios_base.h ****   { return _Ios_Openmode(static_cast<int>(__a) & static_cast<int>(__b)); }
 117:/usr/include/c++/4.9/bits/ios_base.h **** 
 118:/usr/include/c++/4.9/bits/ios_base.h ****   inline _GLIBCXX_CONSTEXPR _Ios_Openmode
 119:/usr/include/c++/4.9/bits/ios_base.h ****   operator|(_Ios_Openmode __a, _Ios_Openmode __b)
 120:/usr/include/c++/4.9/bits/ios_base.h ****   { return _Ios_Openmode(static_cast<int>(__a) | static_cast<int>(__b)); }
  10              		.loc 1 120 0
  11              		.cfi_startproc
  12 0000 55       		pushq	%rbp
  13              		.cfi_def_cfa_offset 16
  14              		.cfi_offset 6, -16
  15 0001 4889E5   		movq	%rsp, %rbp
  16              		.cfi_def_cfa_register 6
  17 0004 897DFC   		movl	%edi, -4(%rbp)
  18 0007 8975F8   		movl	%esi, -8(%rbp)
  19              		.loc 1 120 0
  20 000a 8B55FC   		movl	-4(%rbp), %edx
  21 000d 8B45F8   		movl	-8(%rbp), %eax
  22 0010 09D0     		orl	%edx, %eax
  23 0012 5D       		popq	%rbp
  24              		.cfi_def_cfa 7, 8
  25 0013 C3       		ret
  26              		.cfi_endproc
  27              	.LFE641:
  29              		.section	.rodata
  30              	.LC0:
  31 0000 44656661 		.string	"DefaultSuite"
  31      756C7453 
  31      75697465 
  31      00
  32              		.section	.text._ZN13UnitTestSuite12GetSuiteNameEv,"axG",@progbits,_ZN13UnitTestSuite12GetSuiteName
  33              		.weak	_ZN13UnitTestSuite12GetSuiteNameEv
  35              	_ZN13UnitTestSuite12GetSuiteNameEv:
  36              	.LFB1081:
  37              		.file 2 "/home/asoreyh/Dropbox/projects/lago/lago-software/acqua/brc/lago/makestuff/libs/libutpp/T
   1:/home/asoreyh/Dropbox/projects/lago/lago-software/acqua/brc/lago/makestuff/libs/libutpp/TestSuite.h **** #ifndef UNITTEST_TESTSUITE_H
   2:/home/asoreyh/Dropbox/projects/lago/lago-software/acqua/brc/lago/makestuff/libs/libutpp/TestSuite.h **** #define UNITTEST_TESTSUITE_H
   3:/home/asoreyh/Dropbox/projects/lago/lago-software/acqua/brc/lago/makestuff/libs/libutpp/TestSuite.h **** 
   4:/home/asoreyh/Dropbox/projects/lago/lago-software/acqua/brc/lago/makestuff/libs/libutpp/TestSuite.h **** namespace UnitTestSuite {
   5:/home/asoreyh/Dropbox/projects/lago/lago-software/acqua/brc/lago/makestuff/libs/libutpp/TestSuite.h **** 
   6:/home/asoreyh/Dropbox/projects/lago/lago-software/acqua/brc/lago/makestuff/libs/libutpp/TestSuite.h ****     inline char const* GetSuiteName ()
   7:/home/asoreyh/Dropbox/projects/lago/lago-software/acqua/brc/lago/makestuff/libs/libutpp/TestSuite.h ****     {
  38              		.loc 2 7 0
  39              		.cfi_startproc
  40 0000 55       		pushq	%rbp
  41              		.cfi_def_cfa_offset 16
  42              		.cfi_offset 6, -16
  43 0001 4889E5   		movq	%rsp, %rbp
  44              		.cfi_def_cfa_register 6
   8:/home/asoreyh/Dropbox/projects/lago/lago-software/acqua/brc/lago/makestuff/libs/libutpp/TestSuite.h ****         return "DefaultSuite";
  45              		.loc 2 8 0
  46 0004 B8000000 		movl	$.LC0, %eax
  46      00
   9:/home/asoreyh/Dropbox/projects/lago/lago-software/acqua/brc/lago/makestuff/libs/libutpp/TestSuite.h ****     }
  47              		.loc 2 9 0
  48 0009 5D       		popq	%rbp
  49              		.cfi_def_cfa 7, 8
  50 000a C3       		ret
  51              		.cfi_endproc
  52              	.LFE1081:
  54              		.section	.text._ZN8UnitTest15MemoryOutStreamC1Ev,"axG",@progbits,_ZN8UnitTest15MemoryOutStreamC1Ev
  55              		.align 2
  56              		.weak	_ZN8UnitTest15MemoryOutStreamC1Ev
  58              	_ZN8UnitTest15MemoryOutStreamC1Ev:
  59              	.LFB1117:
  60              		.file 3 "/home/asoreyh/Dropbox/projects/lago/lago-software/acqua/brc/lago/makestuff/libs/libutpp/M
   1:/home/asoreyh/Dropbox/projects/lago/lago-software/acqua/brc/lago/makestuff/libs/libutpp/MemoryOutStream.h **** #ifndef UNITTEST_MEMORYOUTSTREAM_H
   2:/home/asoreyh/Dropbox/projects/lago/lago-software/acqua/brc/lago/makestuff/libs/libutpp/MemoryOutStream.h **** #define UNITTEST_MEMORYOUTSTREAM_H
   3:/home/asoreyh/Dropbox/projects/lago/lago-software/acqua/brc/lago/makestuff/libs/libutpp/MemoryOutStream.h **** 
   4:/home/asoreyh/Dropbox/projects/lago/lago-software/acqua/brc/lago/makestuff/libs/libutpp/MemoryOutStream.h **** #include "Config.h"
   5:/home/asoreyh/Dropbox/projects/lago/lago-software/acqua/brc/lago/makestuff/libs/libutpp/MemoryOutStream.h **** 
   6:/home/asoreyh/Dropbox/projects/lago/lago-software/acqua/brc/lago/makestuff/libs/libutpp/MemoryOutStream.h **** #ifndef UNITTEST_USE_CUSTOM_STREAMS
   7:/home/asoreyh/Dropbox/projects/lago/lago-software/acqua/brc/lago/makestuff/libs/libutpp/MemoryOutStream.h **** 
   8:/home/asoreyh/Dropbox/projects/lago/lago-software/acqua/brc/lago/makestuff/libs/libutpp/MemoryOutStream.h **** #include <sstream>
   9:/home/asoreyh/Dropbox/projects/lago/lago-software/acqua/brc/lago/makestuff/libs/libutpp/MemoryOutStream.h **** 
  10:/home/asoreyh/Dropbox/projects/lago/lago-software/acqua/brc/lago/makestuff/libs/libutpp/MemoryOutStream.h **** namespace UnitTest
  11:/home/asoreyh/Dropbox/projects/lago/lago-software/acqua/brc/lago/makestuff/libs/libutpp/MemoryOutStream.h **** {
  12:/home/asoreyh/Dropbox/projects/lago/lago-software/acqua/brc/lago/makestuff/libs/libutpp/MemoryOutStream.h **** 
  13:/home/asoreyh/Dropbox/projects/lago/lago-software/acqua/brc/lago/makestuff/libs/libutpp/MemoryOutStream.h **** class MemoryOutStream : public std::ostringstream
  14:/home/asoreyh/Dropbox/projects/lago/lago-software/acqua/brc/lago/makestuff/libs/libutpp/MemoryOutStream.h **** {
  15:/home/asoreyh/Dropbox/projects/lago/lago-software/acqua/brc/lago/makestuff/libs/libutpp/MemoryOutStream.h **** public:
  16:/home/asoreyh/Dropbox/projects/lago/lago-software/acqua/brc/lago/makestuff/libs/libutpp/MemoryOutStream.h ****     MemoryOutStream() {}
  61              		.loc 3 16 0
  62              		.cfi_startproc
  63              		.cfi_personality 0x3,__gxx_personality_v0
  64              		.cfi_lsda 0x3,.LLSDA1117
  65 0000 55       		pushq	%rbp
  66              		.cfi_def_cfa_offset 16
  67              		.cfi_offset 6, -16
  68 0001 4889E5   		movq	%rsp, %rbp
  69              		.cfi_def_cfa_register 6
  70 0004 53       		pushq	%rbx
  71 0005 4883EC18 		subq	$24, %rsp
  72              		.cfi_offset 3, -24
  73 0009 48897DE8 		movq	%rdi, -24(%rbp)
  74              	.LBB2:
  75              		.loc 3 16 0
  76 000d 488B45E8 		movq	-24(%rbp), %rax
  77 0011 4883C060 		addq	$96, %rax
  78 0015 4889C7   		movq	%rax, %rdi
  79              	.LEHB0:
  80 0018 E8000000 		call	_ZNSt9basic_iosIcSt11char_traitsIcEEC2Ev
  80      00
  81              	.LEHE0:
  82 001d B9000000 		movl	$_ZTTN8UnitTest15MemoryOutStreamE+8, %ecx
  82      00
  83 0022 488B45E8 		movq	-24(%rbp), %rax
  84 0026 BA100000 		movl	$16, %edx
  84      00
  85 002b 4889CE   		movq	%rcx, %rsi
  86 002e 4889C7   		movq	%rax, %rdi
  87              	.LEHB1:
  88 0031 E8000000 		call	_ZNSt19basic_ostringstreamIcSt11char_traitsIcESaIcEEC2ESt13_Ios_Openmode
  88      00
  89              	.LEHE1:
  90              		.loc 3 16 0 is_stmt 0 discriminator 9
  91 0036 BA000000 		movl	$_ZTVN8UnitTest15MemoryOutStreamE+24, %edx
  91      00
  92 003b 488B45E8 		movq	-24(%rbp), %rax
  93 003f 488910   		movq	%rdx, (%rax)
  94 0042 BA600000 		movl	$96, %edx
  94      00
  95 0047 488B45E8 		movq	-24(%rbp), %rax
  96 004b 4801D0   		addq	%rdx, %rax
  97 004e BA000000 		movl	$_ZTVN8UnitTest15MemoryOutStreamE+64, %edx
  97      00
  98 0053 488910   		movq	%rdx, (%rax)
  99 0056 488B45E8 		movq	-24(%rbp), %rax
 100 005a 4883C058 		addq	$88, %rax
 101 005e 4889C7   		movq	%rax, %rdi
 102              	.LEHB2:
 103 0061 E8000000 		call	_ZNSsC1Ev
 103      00
 104              	.LEHE2:
 105              	.LBE2:
 106              		.loc 3 16 0
 107 0066 EB37     		jmp	.L10
 108              	.L8:
 109 0068 4889C3   		movq	%rax, %rbx
 110              	.LBB3:
 111 006b BA000000 		movl	$_ZTTN8UnitTest15MemoryOutStreamE+8, %edx
 111      00
 112 0070 488B45E8 		movq	-24(%rbp), %rax
 113 0074 4889D6   		movq	%rdx, %rsi
 114 0077 4889C7   		movq	%rax, %rdi
 115 007a E8000000 		call	_ZNSt19basic_ostringstreamIcSt11char_traitsIcESaIcEED2Ev
 115      00
 116 007f EB03     		jmp	.L7
 117              	.L9:
 118 0081 4889C3   		movq	%rax, %rbx
 119              	.L7:
 120              		.loc 3 16 0 discriminator 28
 121 0084 488B45E8 		movq	-24(%rbp), %rax
 122 0088 4883C060 		addq	$96, %rax
 123 008c 4889C7   		movq	%rax, %rdi
 124 008f E8000000 		call	_ZNSt9basic_iosIcSt11char_traitsIcEED2Ev
 124      00
 125 0094 4889D8   		movq	%rbx, %rax
 126 0097 4889C7   		movq	%rax, %rdi
 127              	.LEHB3:
 128 009a E8000000 		call	_Unwind_Resume
 128      00
 129              	.LEHE3:
 130              	.L10:
 131              	.LBE3:
 132              		.loc 3 16 0
 133 009f 4883C418 		addq	$24, %rsp
 134 00a3 5B       		popq	%rbx
 135 00a4 5D       		popq	%rbp
 136              		.cfi_def_cfa 7, 8
 137 00a5 C3       		ret
 138              		.cfi_endproc
 139              	.LFE1117:
 140              		.globl	__gxx_personality_v0
 141              		.section	.gcc_except_table._ZN8UnitTest15MemoryOutStreamC1Ev,"aG",@progbits,_ZN8UnitTest15MemoryOu
 142              	.LLSDA1117:
 143 0000 FF       		.byte	0xff
 144 0001 FF       		.byte	0xff
 145 0002 01       		.byte	0x1
 146 0003 12       		.uleb128 .LLSDACSE1117-.LLSDACSB1117
 147              	.LLSDACSB1117:
 148 0004 18       		.uleb128 .LEHB0-.LFB1117
 149 0005 05       		.uleb128 .LEHE0-.LEHB0
 150 0006 00       		.uleb128 0
 151 0007 00       		.uleb128 0
 152 0008 31       		.uleb128 .LEHB1-.LFB1117
 153 0009 05       		.uleb128 .LEHE1-.LEHB1
 154 000a 8101     		.uleb128 .L9-.LFB1117
 155 000c 00       		.uleb128 0
 156 000d 61       		.uleb128 .LEHB2-.LFB1117
 157 000e 05       		.uleb128 .LEHE2-.LEHB2
 158 000f 68       		.uleb128 .L8-.LFB1117
 159 0010 00       		.uleb128 0
 160 0011 9A01     		.uleb128 .LEHB3-.LFB1117
 161 0013 05       		.uleb128 .LEHE3-.LEHB3
 162 0014 00       		.uleb128 0
 163 0015 00       		.uleb128 0
 164              	.LLSDACSE1117:
 165              		.section	.text._ZN8UnitTest15MemoryOutStreamC1Ev,"axG",@progbits,_ZN8UnitTest15MemoryOutStreamC1Ev
 167              		.section	.rodata
 168              	.LC1:
 169 000d 74657374 		.string	"testHexIO.cpp"
 169      48657849 
 169      4F2E6370 
 169      7000
 170              	.LC2:
 171 001b 48657849 		.string	"HexIO_testValidDataLine"
 171      4F5F7465 
 171      73745661 
 171      6C696444 
 171      6174614C 
 172              		.section	.text._ZN27TestHexIO_testValidDataLineC2Ev,"axG",@progbits,_ZN27TestHexIO_testValidDataLi
 173              		.align 2
 174              		.weak	_ZN27TestHexIO_testValidDataLineC2Ev
 176              	_ZN27TestHexIO_testValidDataLineC2Ev:
 177              	.LFB1134:
 178              		.file 4 "testHexIO.cpp"
   1:testHexIO.cpp **** /*
   2:testHexIO.cpp ****  * Copyright (C) 2009-2012 Chris McClelland
   3:testHexIO.cpp ****  *
   4:testHexIO.cpp ****  * This program is free software: you can redistribute it and/or modify
   5:testHexIO.cpp ****  * it under the terms of the GNU Lesser General Public License as published by
   6:testHexIO.cpp ****  * the Free Software Foundation, either version 3 of the License, or
   7:testHexIO.cpp ****  * (at your option) any later version.
   8:testHexIO.cpp ****  *
   9:testHexIO.cpp ****  * This program is distributed in the hope that it will be useful,
  10:testHexIO.cpp ****  * but WITHOUT ANY WARRANTY; without even the implied warranty of
  11:testHexIO.cpp ****  * MERCHANTABILITY or FITNESS FOR A PARTICULAR PURPOSE.  See the
  12:testHexIO.cpp ****  * GNU Lesser General Public License for more details.
  13:testHexIO.cpp ****  *
  14:testHexIO.cpp ****  * You should have received a copy of the GNU Lesser General Public License
  15:testHexIO.cpp ****  * along with this program.  If not, see <http://www.gnu.org/licenses/>.
  16:testHexIO.cpp ****  */
  17:testHexIO.cpp **** #include <cstdarg>
  18:testHexIO.cpp **** #include <string>
  19:testHexIO.cpp **** #include <fstream>
  20:testHexIO.cpp **** #include <cstring>
  21:testHexIO.cpp **** #include <UnitTest++.h>
  22:testHexIO.cpp **** #include "../private.h"
  23:testHexIO.cpp **** #include "../libbuffer.h"
  24:testHexIO.cpp **** 
  25:testHexIO.cpp **** using namespace std;
  26:testHexIO.cpp **** 
  27:testHexIO.cpp **** TEST(HexIO_testValidDataLine) {
 179              		.loc 4 27 0 is_stmt 1
 180              		.cfi_startproc
 181 0000 55       		pushq	%rbp
 182              		.cfi_def_cfa_offset 16
 183              		.cfi_offset 6, -16
 184 0001 4889E5   		movq	%rsp, %rbp
 185              		.cfi_def_cfa_register 6
 186 0004 4883EC10 		subq	$16, %rsp
 187 0008 48897DF8 		movq	%rdi, -8(%rbp)
 188              	.LBB4:
 189              		.loc 4 27 0
 190 000c E8000000 		call	_ZN13UnitTestSuite12GetSuiteNameEv
 190      00
 191 0011 4889C2   		movq	%rax, %rdx
 192 0014 488B45F8 		movq	-8(%rbp), %rax
 193 0018 41B81B00 		movl	$27, %r8d
 193      0000
 194 001e B9000000 		movl	$.LC1, %ecx
 194      00
 195 0023 BE000000 		movl	$.LC2, %esi
 195      00
 196 0028 4889C7   		movq	%rax, %rdi
 197 002b E8000000 		call	_ZN8UnitTest4TestC2EPKcS2_S2_i
 197      00
 198 0030 488B45F8 		movq	-8(%rbp), %rax
 199 0034 48C70000 		movq	$_ZTV27TestHexIO_testValidDataLine+16, (%rax)
 199      000000
 200              	.LBE4:
 201 003b C9       		leave
 202              		.cfi_def_cfa 7, 8
 203 003c C3       		ret
 204              		.cfi_endproc
 205              	.LFE1134:
 207              		.weak	_ZN27TestHexIO_testValidDataLineC1Ev
 208              		.set	_ZN27TestHexIO_testValidDataLineC1Ev,_ZN27TestHexIO_testValidDataLineC2Ev
 209              		.globl	testHexIO_testValidDataLineInstance
 210              		.bss
 211              		.align 32
 214              	testHexIO_testValidDataLineInstance:
 215 0000 00000000 		.zero	56
 215      00000000 
 215      00000000 
 215      00000000 
 215      00000000 
 216              		.globl	adderHexIO_testValidDataLine
 219              	adderHexIO_testValidDataLine:
 220 0038 00       		.zero	1
 221              		.section	.rodata
 222              	.LC3:
 223 0033 3A303430 		.string	":040BE10075820022F7\n"
 223      42453130 
 223      30373538 
 223      32303032 
 223      3246370A 
 224              		.align 8
 225              	.LC4:
 226 0048 556E6861 		.string	"Unhandled exception in CHECK_EQUAL(BUF_SUCCESS, status)"
 226      6E646C65 
 226      64206578 
 226      63657074 
 226      696F6E20 
 227              		.align 8
 228              	.LC5:
 229 0080 556E6861 		.string	"Unhandled exception in CHECK_EQUAL(0x00, recordType)"
 229      6E646C65 
 229      64206578 
 229      63657074 
 229      696F6E20 
 230 00b5 000000   		.align 8
 231              	.LC6:
 232 00b8 556E6861 		.string	"Unhandled exception in CHECK_EQUAL(0x0BE1+4UL, data.length)"
 232      6E646C65 
 232      64206578 
 232      63657074 
 232      696F6E20 
 233 00f4 00000000 		.align 8
 234              	.LC7:
 235 00f8 556E6861 		.string	"Unhandled exception in CHECK_EQUAL(0x0BE1+4UL, mask.length)"
 235      6E646C65 
 235      64206578 
 235      63657074 
 235      696F6E20 
 236 0134 00000000 		.align 8
 237              	.LC8:
 238 0138 556E6861 		.string	"Unhandled exception in CHECK_EQUAL(4096UL, data.capacity)"
 238      6E646C65 
 238      64206578 
 238      63657074 
 238      696F6E20 
 239 0172 00000000 		.align 8
 239      0000
 240              	.LC9:
 241 0178 556E6861 		.string	"Unhandled exception in CHECK_EQUAL(4096UL, mask.capacity)"
 241      6E646C65 
 241      64206578 
 241      63657074 
 241      696F6E20 
 242 01b2 00000000 		.align 8
 242      0000
 243              	.LC10:
 244 01b8 556E6861 		.string	"Unhandled exception in CHECK_ARRAY_EQUAL(expected, data.data + 0x0BE1)"
 244      6E646C65 
 244      64206578 
 244      63657074 
 244      696F6E20 
 245              		.text
 246              		.align 2
 247              		.globl	_ZNK27TestHexIO_testValidDataLine7RunImplEv
 249              	_ZNK27TestHexIO_testValidDataLine7RunImplEv:
 250              	.LFB1136:
 251              		.loc 4 27 0
 252              		.cfi_startproc
 253              		.cfi_personality 0x3,__gxx_personality_v0
 254              		.cfi_lsda 0x3,.LLSDA1136
 255 0000 55       		pushq	%rbp
 256              		.cfi_def_cfa_offset 16
 257              		.cfi_offset 6, -16
 258 0001 4889E5   		movq	%rsp, %rbp
 259              		.cfi_def_cfa_register 6
 260 0004 53       		pushq	%rbx
 261 0005 4881ECA8 		subq	$168, %rsp
 261      000000
 262              		.cfi_offset 3, -24
 263 000c 4889BD58 		movq	%rdi, -168(%rbp)
 263      FFFFFF
 264              		.loc 4 27 0
 265 0013 64488B04 		movq	%fs:40, %rax
 265      25280000 
 265      00
 266 001c 488945E8 		movq	%rax, -24(%rbp)
 267 0020 31C0     		xorl	%eax, %eax
 268              	.LBB5:
  28:testHexIO.cpp **** 	Buffer data, mask;
  29:testHexIO.cpp **** 	BufferStatus status;
  30:testHexIO.cpp **** 	const char *line = ":040BE10075820022F7\n";
 269              		.loc 4 30 0
 270 0022 48C78578 		movq	$.LC3, -136(%rbp)
 270      FFFFFF00 
 270      000000
  31:testHexIO.cpp **** 	uint8 recordType;
  32:testHexIO.cpp **** 	uint32 seg = 0x00000000;
 271              		.loc 4 32 0
 272 002d C7856CFF 		movl	$0, -148(%rbp)
 272      FFFF0000 
 272      0000
  33:testHexIO.cpp **** 	const uint8 expected[] = {0x75, 0x82, 0x00, 0x22};
 273              		.loc 4 33 0
 274 0037 C645E075 		movb	$117, -32(%rbp)
 275 003b C645E182 		movb	$-126, -31(%rbp)
 276 003f C645E200 		movb	$0, -30(%rbp)
 277 0043 C645E322 		movb	$34, -29(%rbp)
  34:testHexIO.cpp **** 	status = bufInitialise(&data, 1024, 0x00, NULL);
 278              		.loc 4 34 0
 279 0047 488D4580 		leaq	-128(%rbp), %rax
 280 004b B9000000 		movl	$0, %ecx
 280      00
 281 0050 BA000000 		movl	$0, %edx
 281      00
 282 0055 BE000400 		movl	$1024, %esi
 282      00
 283 005a 4889C7   		movq	%rax, %rdi
 284              	.LEHB4:
 285 005d E8000000 		call	bufInitialise
 285      00
 286              	.LEHE4:
 287 0062 898568FF 		movl	%eax, -152(%rbp)
 287      FFFF
 288              	.LEHB5:
  35:testHexIO.cpp **** 	CHECK_EQUAL(BUF_SUCCESS, status);
 289              		.loc 4 35 0
 290 0068 E8000000 		call	_ZN8UnitTest11CurrentTest7DetailsEv
 290      00
 291 006d 488B08   		movq	(%rax), %rcx
 292 0070 488D45C0 		leaq	-64(%rbp), %rax
 293 0074 BA230000 		movl	$35, %edx
 293      00
 294 0079 4889CE   		movq	%rcx, %rsi
 295 007c 4889C7   		movq	%rax, %rdi
 296 007f E8000000 		call	_ZN8UnitTest11TestDetailsC1ERKS0_i
 296      00
 297              		.loc 4 35 0 is_stmt 0 discriminator 2
 298 0084 C745A000 		movl	$0, -96(%rbp)
 298      000000
 299 008b E8000000 		call	_ZN8UnitTest11CurrentTest7ResultsEv
 299      00
 300 0090 488B00   		movq	(%rax), %rax
 301 0093 488D4DC0 		leaq	-64(%rbp), %rcx
 302 0097 488D9568 		leaq	-152(%rbp), %rdx
 302      FFFFFF
 303 009e 488D75A0 		leaq	-96(%rbp), %rsi
 304 00a2 4889C7   		movq	%rax, %rdi
 305 00a5 E8000000 		call	_ZN8UnitTest10CheckEqualI12BufferStatusS1_EEvRNS_11TestResultsERKT_RKT0_RKNS_11TestDetailsE
 305      00
 306              	.LEHE5:
 307              	.L15:
  36:testHexIO.cpp **** 	status = bufInitialise(&mask, 1024, 0x00, NULL);
 308              		.loc 4 36 0 is_stmt 1
 309 00aa 488D45A0 		leaq	-96(%rbp), %rax
 310 00ae B9000000 		movl	$0, %ecx
 310      00
 311 00b3 BA000000 		movl	$0, %edx
 311      00
 312 00b8 BE000400 		movl	$1024, %esi
 312      00
 313 00bd 4889C7   		movq	%rax, %rdi
 314              	.LEHB6:
 315 00c0 E8000000 		call	bufInitialise
 315      00
 316              	.LEHE6:
 317 00c5 898568FF 		movl	%eax, -152(%rbp)
 317      FFFF
 318              	.LEHB7:
  37:testHexIO.cpp **** 	CHECK_EQUAL(BUF_SUCCESS, status);
 319              		.loc 4 37 0
 320 00cb E8000000 		call	_ZN8UnitTest11CurrentTest7DetailsEv
 320      00
 321 00d0 488B08   		movq	(%rax), %rcx
 322 00d3 488D45C0 		leaq	-64(%rbp), %rax
 323 00d7 BA250000 		movl	$37, %edx
 323      00
 324 00dc 4889CE   		movq	%rcx, %rsi
 325 00df 4889C7   		movq	%rax, %rdi
 326 00e2 E8000000 		call	_ZN8UnitTest11TestDetailsC1ERKS0_i
 326      00
 327              		.loc 4 37 0 is_stmt 0 discriminator 2
 328 00e7 C78570FF 		movl	$0, -144(%rbp)
 328      FFFF0000 
 328      0000
 329 00f1 E8000000 		call	_ZN8UnitTest11CurrentTest7ResultsEv
 329      00
 330 00f6 488B00   		movq	(%rax), %rax
 331 00f9 488D4DC0 		leaq	-64(%rbp), %rcx
 332 00fd 488D9568 		leaq	-152(%rbp), %rdx
 332      FFFFFF
 333 0104 488DB570 		leaq	-144(%rbp), %rsi
 333      FFFFFF
 334 010b 4889C7   		movq	%rax, %rdi
 335 010e E8000000 		call	_ZN8UnitTest10CheckEqualI12BufferStatusS1_EEvRNS_11TestResultsERKT_RKT0_RKNS_11TestDetailsE
 335      00
 336              	.LEHE7:
 337              	.L18:
  38:testHexIO.cpp **** 	status = bufProcessLine(line, 0, &data, &mask, &seg, &recordType, NULL);
 338              		.loc 4 38 0 is_stmt 1
 339 0113 4883EC08 		subq	$8, %rsp
 340 0117 488DBD67 		leaq	-153(%rbp), %rdi
 340      FFFFFF
 341 011e 488DB56C 		leaq	-148(%rbp), %rsi
 341      FFFFFF
 342 0125 488D4DA0 		leaq	-96(%rbp), %rcx
 343 0129 488D5580 		leaq	-128(%rbp), %rdx
 344 012d 488B8578 		movq	-136(%rbp), %rax
 344      FFFFFF
 345 0134 6A00     		pushq	$0
 346 0136 4989F9   		movq	%rdi, %r9
 347 0139 4989F0   		movq	%rsi, %r8
 348 013c BE000000 		movl	$0, %esi
 348      00
 349 0141 4889C7   		movq	%rax, %rdi
 350              	.LEHB8:
 351 0144 E8000000 		call	bufProcessLine
 351      00
 352              	.LEHE8:
 353 0149 4883C410 		addq	$16, %rsp
 354 014d 898568FF 		movl	%eax, -152(%rbp)
 354      FFFF
 355              	.LEHB9:
  39:testHexIO.cpp **** 	CHECK_EQUAL(BUF_SUCCESS, status);
 356              		.loc 4 39 0
 357 0153 E8000000 		call	_ZN8UnitTest11CurrentTest7DetailsEv
 357      00
 358 0158 488B08   		movq	(%rax), %rcx
 359 015b 488D45C0 		leaq	-64(%rbp), %rax
 360 015f BA270000 		movl	$39, %edx
 360      00
 361 0164 4889CE   		movq	%rcx, %rsi
 362 0167 4889C7   		movq	%rax, %rdi
 363 016a E8000000 		call	_ZN8UnitTest11TestDetailsC1ERKS0_i
 363      00
 364              		.loc 4 39 0 is_stmt 0 discriminator 2
 365 016f C78570FF 		movl	$0, -144(%rbp)
 365      FFFF0000 
 365      0000
 366 0179 E8000000 		call	_ZN8UnitTest11CurrentTest7ResultsEv
 366      00
 367 017e 488B00   		movq	(%rax), %rax
 368 0181 488D4DC0 		leaq	-64(%rbp), %rcx
 369 0185 488D9568 		leaq	-152(%rbp), %rdx
 369      FFFFFF
 370 018c 488DB570 		leaq	-144(%rbp), %rsi
 370      FFFFFF
 371 0193 4889C7   		movq	%rax, %rdi
 372 0196 E8000000 		call	_ZN8UnitTest10CheckEqualI12BufferStatusS1_EEvRNS_11TestResultsERKT_RKT0_RKNS_11TestDetailsE
 372      00
 373              	.LEHE9:
 374              	.L21:
 375              	.LEHB10:
  40:testHexIO.cpp **** 	CHECK_EQUAL(0x00, recordType);
 376              		.loc 4 40 0 is_stmt 1
 377 019b E8000000 		call	_ZN8UnitTest11CurrentTest7DetailsEv
 377      00
 378 01a0 488B08   		movq	(%rax), %rcx
 379 01a3 488D45C0 		leaq	-64(%rbp), %rax
 380 01a7 BA280000 		movl	$40, %edx
 380      00
 381 01ac 4889CE   		movq	%rcx, %rsi
 382 01af 4889C7   		movq	%rax, %rdi
 383 01b2 E8000000 		call	_ZN8UnitTest11TestDetailsC1ERKS0_i
 383      00
 384              		.loc 4 40 0 is_stmt 0 discriminator 2
 385 01b7 C78570FF 		movl	$0, -144(%rbp)
 385      FFFF0000 
 385      0000
 386 01c1 E8000000 		call	_ZN8UnitTest11CurrentTest7ResultsEv
 386      00
 387 01c6 488B00   		movq	(%rax), %rax
 388 01c9 488D4DC0 		leaq	-64(%rbp), %rcx
 389 01cd 488D9567 		leaq	-153(%rbp), %rdx
 389      FFFFFF
 390 01d4 488DB570 		leaq	-144(%rbp), %rsi
 390      FFFFFF
 391 01db 4889C7   		movq	%rax, %rdi
 392 01de E8000000 		call	_ZN8UnitTest10CheckEqualIihEEvRNS_11TestResultsERKT_RKT0_RKNS_11TestDetailsE
 392      00
 393              	.LEHE10:
 394              	.L24:
 395              	.LEHB11:
  41:testHexIO.cpp **** 	CHECK_EQUAL(0x0BE1+4UL, data.length);
 396              		.loc 4 41 0 is_stmt 1
 397 01e3 E8000000 		call	_ZN8UnitTest11CurrentTest7DetailsEv
 397      00
 398 01e8 488B08   		movq	(%rax), %rcx
 399 01eb 488D45C0 		leaq	-64(%rbp), %rax
 400 01ef BA290000 		movl	$41, %edx
 400      00
 401 01f4 4889CE   		movq	%rcx, %rsi
 402 01f7 4889C7   		movq	%rax, %rdi
 403 01fa E8000000 		call	_ZN8UnitTest11TestDetailsC1ERKS0_i
 403      00
 404              		.loc 4 41 0 is_stmt 0 discriminator 2
 405 01ff 48C78570 		movq	$3045, -144(%rbp)
 405      FFFFFFE5 
 405      0B0000
 406 020a E8000000 		call	_ZN8UnitTest11CurrentTest7ResultsEv
 406      00
 407 020f 488B00   		movq	(%rax), %rax
 408 0212 488D55C0 		leaq	-64(%rbp), %rdx
 409 0216 488D4D80 		leaq	-128(%rbp), %rcx
 410 021a 488D7908 		leaq	8(%rcx), %rdi
 411 021e 488DB570 		leaq	-144(%rbp), %rsi
 411      FFFFFF
 412 0225 4889D1   		movq	%rdx, %rcx
 413 0228 4889FA   		movq	%rdi, %rdx
 414 022b 4889C7   		movq	%rax, %rdi
 415 022e E8000000 		call	_ZN8UnitTest10CheckEqualImjEEvRNS_11TestResultsERKT_RKT0_RKNS_11TestDetailsE
 415      00
 416              	.LEHE11:
 417              	.L27:
 418              	.LEHB12:
  42:testHexIO.cpp **** 	CHECK_EQUAL(0x0BE1+4UL, mask.length);
 419              		.loc 4 42 0 is_stmt 1
 420 0233 E8000000 		call	_ZN8UnitTest11CurrentTest7DetailsEv
 420      00
 421 0238 488B08   		movq	(%rax), %rcx
 422 023b 488D45C0 		leaq	-64(%rbp), %rax
 423 023f BA2A0000 		movl	$42, %edx
 423      00
 424 0244 4889CE   		movq	%rcx, %rsi
 425 0247 4889C7   		movq	%rax, %rdi
 426 024a E8000000 		call	_ZN8UnitTest11TestDetailsC1ERKS0_i
 426      00
 427              		.loc 4 42 0 is_stmt 0 discriminator 2
 428 024f 48C78570 		movq	$3045, -144(%rbp)
 428      FFFFFFE5 
 428      0B0000
 429 025a E8000000 		call	_ZN8UnitTest11CurrentTest7ResultsEv
 429      00
 430 025f 488B00   		movq	(%rax), %rax
 431 0262 488D55C0 		leaq	-64(%rbp), %rdx
 432 0266 488D4DA0 		leaq	-96(%rbp), %rcx
 433 026a 488D7908 		leaq	8(%rcx), %rdi
 434 026e 488DB570 		leaq	-144(%rbp), %rsi
 434      FFFFFF
 435 0275 4889D1   		movq	%rdx, %rcx
 436 0278 4889FA   		movq	%rdi, %rdx
 437 027b 4889C7   		movq	%rax, %rdi
 438 027e E8000000 		call	_ZN8UnitTest10CheckEqualImjEEvRNS_11TestResultsERKT_RKT0_RKNS_11TestDetailsE
 438      00
 439              	.LEHE12:
 440              	.L30:
 441              	.LEHB13:
  43:testHexIO.cpp **** 	CHECK_EQUAL(4096UL, data.capacity);
 442              		.loc 4 43 0 is_stmt 1
 443 0283 E8000000 		call	_ZN8UnitTest11CurrentTest7DetailsEv
 443      00
 444 0288 488B08   		movq	(%rax), %rcx
 445 028b 488D45C0 		leaq	-64(%rbp), %rax
 446 028f BA2B0000 		movl	$43, %edx
 446      00
 447 0294 4889CE   		movq	%rcx, %rsi
 448 0297 4889C7   		movq	%rax, %rdi
 449 029a E8000000 		call	_ZN8UnitTest11TestDetailsC1ERKS0_i
 449      00
 450              		.loc 4 43 0 is_stmt 0 discriminator 2
 451 029f 48C78570 		movq	$4096, -144(%rbp)
 451      FFFFFF00 
 451      100000
 452 02aa E8000000 		call	_ZN8UnitTest11CurrentTest7ResultsEv
 452      00
 453 02af 488B00   		movq	(%rax), %rax
 454 02b2 488D55C0 		leaq	-64(%rbp), %rdx
 455 02b6 488D4D80 		leaq	-128(%rbp), %rcx
 456 02ba 488D790C 		leaq	12(%rcx), %rdi
 457 02be 488DB570 		leaq	-144(%rbp), %rsi
 457      FFFFFF
 458 02c5 4889D1   		movq	%rdx, %rcx
 459 02c8 4889FA   		movq	%rdi, %rdx
 460 02cb 4889C7   		movq	%rax, %rdi
 461 02ce E8000000 		call	_ZN8UnitTest10CheckEqualImjEEvRNS_11TestResultsERKT_RKT0_RKNS_11TestDetailsE
 461      00
 462              	.LEHE13:
 463              	.L33:
 464              	.LEHB14:
  44:testHexIO.cpp **** 	CHECK_EQUAL(4096UL, mask.capacity);
 465              		.loc 4 44 0 is_stmt 1
 466 02d3 E8000000 		call	_ZN8UnitTest11CurrentTest7DetailsEv
 466      00
 467 02d8 488B08   		movq	(%rax), %rcx
 468 02db 488D45C0 		leaq	-64(%rbp), %rax
 469 02df BA2C0000 		movl	$44, %edx
 469      00
 470 02e4 4889CE   		movq	%rcx, %rsi
 471 02e7 4889C7   		movq	%rax, %rdi
 472 02ea E8000000 		call	_ZN8UnitTest11TestDetailsC1ERKS0_i
 472      00
 473              		.loc 4 44 0 is_stmt 0 discriminator 2
 474 02ef 48C78570 		movq	$4096, -144(%rbp)
 474      FFFFFF00 
 474      100000
 475 02fa E8000000 		call	_ZN8UnitTest11CurrentTest7ResultsEv
 475      00
 476 02ff 488B00   		movq	(%rax), %rax
 477 0302 488D55C0 		leaq	-64(%rbp), %rdx
 478 0306 488D4DA0 		leaq	-96(%rbp), %rcx
 479 030a 488D790C 		leaq	12(%rcx), %rdi
 480 030e 488DB570 		leaq	-144(%rbp), %rsi
 480      FFFFFF
 481 0315 4889D1   		movq	%rdx, %rcx
 482 0318 4889FA   		movq	%rdi, %rdx
 483 031b 4889C7   		movq	%rax, %rdi
 484 031e E8000000 		call	_ZN8UnitTest10CheckEqualImjEEvRNS_11TestResultsERKT_RKT0_RKNS_11TestDetailsE
 484      00
 485              	.LEHE14:
 486              	.L36:
 487              	.LEHB15:
  45:testHexIO.cpp **** 	CHECK_ARRAY_EQUAL(expected, data.data + 0x0BE1, 4);
 488              		.loc 4 45 0 is_stmt 1
 489 0323 E8000000 		call	_ZN8UnitTest11CurrentTest7DetailsEv
 489      00
 490 0328 488B08   		movq	(%rax), %rcx
 491 032b 488D45C0 		leaq	-64(%rbp), %rax
 492 032f BA2D0000 		movl	$45, %edx
 492      00
 493 0334 4889CE   		movq	%rcx, %rsi
 494 0337 4889C7   		movq	%rax, %rdi
 495 033a E8000000 		call	_ZN8UnitTest11TestDetailsC1ERKS0_i
 495      00
 496              		.loc 4 45 0 is_stmt 0 discriminator 2
 497 033f 488B4580 		movq	-128(%rbp), %rax
 498 0343 4805E10B 		addq	$3041, %rax
 498      0000
 499 0349 48898570 		movq	%rax, -144(%rbp)
 499      FFFFFF
 500 0350 E8000000 		call	_ZN8UnitTest11CurrentTest7ResultsEv
 500      00
 501 0355 488B00   		movq	(%rax), %rax
 502 0358 488D4DC0 		leaq	-64(%rbp), %rcx
 503 035c 488D9570 		leaq	-144(%rbp), %rdx
 503      FFFFFF
 504 0363 488D75E0 		leaq	-32(%rbp), %rsi
 505 0367 4989C8   		movq	%rcx, %r8
 506 036a B9040000 		movl	$4, %ecx
 506      00
 507 036f 4889C7   		movq	%rax, %rdi
 508 0372 E8000000 		call	_ZN8UnitTest15CheckArrayEqualIA4_hPhEEvRNS_11TestResultsERKT_RKT0_iRKNS_11TestDetailsE
 508      00
 509              	.LEHE15:
 510              	.L39:
  46:testHexIO.cpp **** 	bufDestroy(&mask);
 511              		.loc 4 46 0 is_stmt 1
 512 0377 488D45A0 		leaq	-96(%rbp), %rax
 513 037b 4889C7   		movq	%rax, %rdi
 514              	.LEHB16:
 515 037e E8000000 		call	bufDestroy
 515      00
  47:testHexIO.cpp **** 	bufDestroy(&data);
 516              		.loc 4 47 0
 517 0383 488D4580 		leaq	-128(%rbp), %rax
 518 0387 4889C7   		movq	%rax, %rdi
 519 038a E8000000 		call	bufDestroy
 519      00
 520              	.LEHE16:
 521              	.LBE5:
  48:testHexIO.cpp **** }
 522              		.loc 4 48 0
 523 038f 488B45E8 		movq	-24(%rbp), %rax
 524 0393 64483304 		xorq	%fs:40, %rax
 524      25280000 
 524      00
 525 039c 0F844F03 		je	.L40
 525      0000
 526 03a2 E9450300 		jmp	.L59
 526      00
 527              	.L42:
 528 03a7 4889C3   		movq	%rax, %rbx
 529              	.LBB6:
  35:testHexIO.cpp **** 	status = bufInitialise(&mask, 1024, 0x00, NULL);
 530              		.loc 4 35 0
 531 03aa E8000000 		call	__cxa_end_catch
 531      00
 532 03af 4889D8   		movq	%rbx, %rax
 533 03b2 4889C7   		movq	%rax, %rdi
 534              	.LEHB17:
 535 03b5 E8000000 		call	_Unwind_Resume
 535      00
 536              	.LEHE17:
 537              	.L41:
 538 03ba 4889C7   		movq	%rax, %rdi
 539 03bd E8000000 		call	__cxa_begin_catch
 539      00
 540              	.LEHB18:
 541 03c2 E8000000 		call	_ZN8UnitTest11CurrentTest7DetailsEv
 541      00
 542 03c7 488B08   		movq	(%rax), %rcx
 543 03ca 488D45C0 		leaq	-64(%rbp), %rax
 544 03ce BA230000 		movl	$35, %edx
 544      00
 545 03d3 4889CE   		movq	%rcx, %rsi
 546 03d6 4889C7   		movq	%rax, %rdi
 547 03d9 E8000000 		call	_ZN8UnitTest11TestDetailsC1ERKS0_i
 547      00
  35:testHexIO.cpp **** 	status = bufInitialise(&mask, 1024, 0x00, NULL);
 548              		.loc 4 35 0 is_stmt 0 discriminator 10
 549 03de E8000000 		call	_ZN8UnitTest11CurrentTest7ResultsEv
 549      00
 550 03e3 488B00   		movq	(%rax), %rax
 551 03e6 488D4DC0 		leaq	-64(%rbp), %rcx
 552 03ea BA000000 		movl	$.LC4, %edx
 552      00
 553 03ef 4889CE   		movq	%rcx, %rsi
 554 03f2 4889C7   		movq	%rax, %rdi
 555 03f5 E8000000 		call	_ZN8UnitTest11TestResults13OnTestFailureERKNS_11TestDetailsEPKc
 555      00
 556              	.LEHE18:
 557              	.LEHB19:
  35:testHexIO.cpp **** 	status = bufInitialise(&mask, 1024, 0x00, NULL);
 558              		.loc 4 35 0 discriminator 14
 559 03fa E8000000 		call	__cxa_end_catch
 559      00
 560              	.LEHE19:
 561 03ff E9A6FCFF 		jmp	.L15
 561      FF
 562              	.L44:
 563 0404 4889C3   		movq	%rax, %rbx
  37:testHexIO.cpp **** 	status = bufProcessLine(line, 0, &data, &mask, &seg, &recordType, NULL);
 564              		.loc 4 37 0 is_stmt 1
 565 0407 E8000000 		call	__cxa_end_catch
 565      00
 566 040c 4889D8   		movq	%rbx, %rax
 567 040f 4889C7   		movq	%rax, %rdi
 568              	.LEHB20:
 569 0412 E8000000 		call	_Unwind_Resume
 569      00
 570              	.LEHE20:
 571              	.L43:
 572 0417 4889C7   		movq	%rax, %rdi
 573 041a E8000000 		call	__cxa_begin_catch
 573      00
 574              	.LEHB21:
 575 041f E8000000 		call	_ZN8UnitTest11CurrentTest7DetailsEv
 575      00
 576 0424 488B08   		movq	(%rax), %rcx
 577 0427 488D45C0 		leaq	-64(%rbp), %rax
 578 042b BA250000 		movl	$37, %edx
 578      00
 579 0430 4889CE   		movq	%rcx, %rsi
 580 0433 4889C7   		movq	%rax, %rdi
 581 0436 E8000000 		call	_ZN8UnitTest11TestDetailsC1ERKS0_i
 581      00
  37:testHexIO.cpp **** 	status = bufProcessLine(line, 0, &data, &mask, &seg, &recordType, NULL);
 582              		.loc 4 37 0 is_stmt 0 discriminator 10
 583 043b E8000000 		call	_ZN8UnitTest11CurrentTest7ResultsEv
 583      00
 584 0440 488B00   		movq	(%rax), %rax
 585 0443 488D4DC0 		leaq	-64(%rbp), %rcx
 586 0447 BA000000 		movl	$.LC4, %edx
 586      00
 587 044c 4889CE   		movq	%rcx, %rsi
 588 044f 4889C7   		movq	%rax, %rdi
 589 0452 E8000000 		call	_ZN8UnitTest11TestResults13OnTestFailureERKNS_11TestDetailsEPKc
 589      00
 590              	.LEHE21:
 591              	.LEHB22:
  37:testHexIO.cpp **** 	status = bufProcessLine(line, 0, &data, &mask, &seg, &recordType, NULL);
 592              		.loc 4 37 0 discriminator 14
 593 0457 E8000000 		call	__cxa_end_catch
 593      00
 594              	.LEHE22:
 595 045c E9B2FCFF 		jmp	.L18
 595      FF
 596              	.L46:
 597 0461 4889C3   		movq	%rax, %rbx
  39:testHexIO.cpp **** 	CHECK_EQUAL(0x00, recordType);
 598              		.loc 4 39 0 is_stmt 1
 599 0464 E8000000 		call	__cxa_end_catch
 599      00
 600 0469 4889D8   		movq	%rbx, %rax
 601 046c 4889C7   		movq	%rax, %rdi
 602              	.LEHB23:
 603 046f E8000000 		call	_Unwind_Resume
 603      00
 604              	.LEHE23:
 605              	.L45:
 606 0474 4889C7   		movq	%rax, %rdi
 607 0477 E8000000 		call	__cxa_begin_catch
 607      00
 608              	.LEHB24:
 609 047c E8000000 		call	_ZN8UnitTest11CurrentTest7DetailsEv
 609      00
 610 0481 488B08   		movq	(%rax), %rcx
 611 0484 488D45C0 		leaq	-64(%rbp), %rax
 612 0488 BA270000 		movl	$39, %edx
 612      00
 613 048d 4889CE   		movq	%rcx, %rsi
 614 0490 4889C7   		movq	%rax, %rdi
 615 0493 E8000000 		call	_ZN8UnitTest11TestDetailsC1ERKS0_i
 615      00
  39:testHexIO.cpp **** 	CHECK_EQUAL(0x00, recordType);
 616              		.loc 4 39 0 is_stmt 0 discriminator 10
 617 0498 E8000000 		call	_ZN8UnitTest11CurrentTest7ResultsEv
 617      00
 618 049d 488B00   		movq	(%rax), %rax
 619 04a0 488D4DC0 		leaq	-64(%rbp), %rcx
 620 04a4 BA000000 		movl	$.LC4, %edx
 620      00
 621 04a9 4889CE   		movq	%rcx, %rsi
 622 04ac 4889C7   		movq	%rax, %rdi
 623 04af E8000000 		call	_ZN8UnitTest11TestResults13OnTestFailureERKNS_11TestDetailsEPKc
 623      00
 624              	.LEHE24:
 625              	.LEHB25:
  39:testHexIO.cpp **** 	CHECK_EQUAL(0x00, recordType);
 626              		.loc 4 39 0 discriminator 14
 627 04b4 E8000000 		call	__cxa_end_catch
 627      00
 628              	.LEHE25:
 629 04b9 E9DDFCFF 		jmp	.L21
 629      FF
 630              	.L48:
 631 04be 4889C3   		movq	%rax, %rbx
  40:testHexIO.cpp **** 	CHECK_EQUAL(0x0BE1+4UL, data.length);
 632              		.loc 4 40 0 is_stmt 1
 633 04c1 E8000000 		call	__cxa_end_catch
 633      00
 634 04c6 4889D8   		movq	%rbx, %rax
 635 04c9 4889C7   		movq	%rax, %rdi
 636              	.LEHB26:
 637 04cc E8000000 		call	_Unwind_Resume
 637      00
 638              	.LEHE26:
 639              	.L47:
 640 04d1 4889C7   		movq	%rax, %rdi
 641 04d4 E8000000 		call	__cxa_begin_catch
 641      00
 642              	.LEHB27:
 643 04d9 E8000000 		call	_ZN8UnitTest11CurrentTest7DetailsEv
 643      00
 644 04de 488B08   		movq	(%rax), %rcx
 645 04e1 488D45C0 		leaq	-64(%rbp), %rax
 646 04e5 BA280000 		movl	$40, %edx
 646      00
 647 04ea 4889CE   		movq	%rcx, %rsi
 648 04ed 4889C7   		movq	%rax, %rdi
 649 04f0 E8000000 		call	_ZN8UnitTest11TestDetailsC1ERKS0_i
 649      00
  40:testHexIO.cpp **** 	CHECK_EQUAL(0x0BE1+4UL, data.length);
 650              		.loc 4 40 0 is_stmt 0 discriminator 10
 651 04f5 E8000000 		call	_ZN8UnitTest11CurrentTest7ResultsEv
 651      00
 652 04fa 488B00   		movq	(%rax), %rax
 653 04fd 488D4DC0 		leaq	-64(%rbp), %rcx
 654 0501 BA000000 		movl	$.LC5, %edx
 654      00
 655 0506 4889CE   		movq	%rcx, %rsi
 656 0509 4889C7   		movq	%rax, %rdi
 657 050c E8000000 		call	_ZN8UnitTest11TestResults13OnTestFailureERKNS_11TestDetailsEPKc
 657      00
 658              	.LEHE27:
 659              	.LEHB28:
  40:testHexIO.cpp **** 	CHECK_EQUAL(0x0BE1+4UL, data.length);
 660              		.loc 4 40 0 discriminator 14
 661 0511 E8000000 		call	__cxa_end_catch
 661      00
 662              	.LEHE28:
 663 0516 E9C8FCFF 		jmp	.L24
 663      FF
 664              	.L50:
 665 051b 4889C3   		movq	%rax, %rbx
  41:testHexIO.cpp **** 	CHECK_EQUAL(0x0BE1+4UL, mask.length);
 666              		.loc 4 41 0 is_stmt 1
 667 051e E8000000 		call	__cxa_end_catch
 667      00
 668 0523 4889D8   		movq	%rbx, %rax
 669 0526 4889C7   		movq	%rax, %rdi
 670              	.LEHB29:
 671 0529 E8000000 		call	_Unwind_Resume
 671      00
 672              	.LEHE29:
 673              	.L49:
 674 052e 4889C7   		movq	%rax, %rdi
 675 0531 E8000000 		call	__cxa_begin_catch
 675      00
 676              	.LEHB30:
 677 0536 E8000000 		call	_ZN8UnitTest11CurrentTest7DetailsEv
 677      00
 678 053b 488B08   		movq	(%rax), %rcx
 679 053e 488D45C0 		leaq	-64(%rbp), %rax
 680 0542 BA290000 		movl	$41, %edx
 680      00
 681 0547 4889CE   		movq	%rcx, %rsi
 682 054a 4889C7   		movq	%rax, %rdi
 683 054d E8000000 		call	_ZN8UnitTest11TestDetailsC1ERKS0_i
 683      00
  41:testHexIO.cpp **** 	CHECK_EQUAL(0x0BE1+4UL, mask.length);
 684              		.loc 4 41 0 is_stmt 0 discriminator 10
 685 0552 E8000000 		call	_ZN8UnitTest11CurrentTest7ResultsEv
 685      00
 686 0557 488B00   		movq	(%rax), %rax
 687 055a 488D4DC0 		leaq	-64(%rbp), %rcx
 688 055e BA000000 		movl	$.LC6, %edx
 688      00
 689 0563 4889CE   		movq	%rcx, %rsi
 690 0566 4889C7   		movq	%rax, %rdi
 691 0569 E8000000 		call	_ZN8UnitTest11TestResults13OnTestFailureERKNS_11TestDetailsEPKc
 691      00
 692              	.LEHE30:
 693              	.LEHB31:
  41:testHexIO.cpp **** 	CHECK_EQUAL(0x0BE1+4UL, mask.length);
 694              		.loc 4 41 0 discriminator 14
 695 056e E8000000 		call	__cxa_end_catch
 695      00
 696              	.LEHE31:
 697 0573 E9BBFCFF 		jmp	.L27
 697      FF
 698              	.L52:
 699 0578 4889C3   		movq	%rax, %rbx
  42:testHexIO.cpp **** 	CHECK_EQUAL(4096UL, data.capacity);
 700              		.loc 4 42 0 is_stmt 1
 701 057b E8000000 		call	__cxa_end_catch
 701      00
 702 0580 4889D8   		movq	%rbx, %rax
 703 0583 4889C7   		movq	%rax, %rdi
 704              	.LEHB32:
 705 0586 E8000000 		call	_Unwind_Resume
 705      00
 706              	.LEHE32:
 707              	.L51:
 708 058b 4889C7   		movq	%rax, %rdi
 709 058e E8000000 		call	__cxa_begin_catch
 709      00
 710              	.LEHB33:
 711 0593 E8000000 		call	_ZN8UnitTest11CurrentTest7DetailsEv
 711      00
 712 0598 488B08   		movq	(%rax), %rcx
 713 059b 488D45C0 		leaq	-64(%rbp), %rax
 714 059f BA2A0000 		movl	$42, %edx
 714      00
 715 05a4 4889CE   		movq	%rcx, %rsi
 716 05a7 4889C7   		movq	%rax, %rdi
 717 05aa E8000000 		call	_ZN8UnitTest11TestDetailsC1ERKS0_i
 717      00
  42:testHexIO.cpp **** 	CHECK_EQUAL(4096UL, data.capacity);
 718              		.loc 4 42 0 is_stmt 0 discriminator 10
 719 05af E8000000 		call	_ZN8UnitTest11CurrentTest7ResultsEv
 719      00
 720 05b4 488B00   		movq	(%rax), %rax
 721 05b7 488D4DC0 		leaq	-64(%rbp), %rcx
 722 05bb BA000000 		movl	$.LC7, %edx
 722      00
 723 05c0 4889CE   		movq	%rcx, %rsi
 724 05c3 4889C7   		movq	%rax, %rdi
 725 05c6 E8000000 		call	_ZN8UnitTest11TestResults13OnTestFailureERKNS_11TestDetailsEPKc
 725      00
 726              	.LEHE33:
 727              	.LEHB34:
  42:testHexIO.cpp **** 	CHECK_EQUAL(4096UL, data.capacity);
 728              		.loc 4 42 0 discriminator 14
 729 05cb E8000000 		call	__cxa_end_catch
 729      00
 730              	.LEHE34:
 731 05d0 E9AEFCFF 		jmp	.L30
 731      FF
 732              	.L54:
 733 05d5 4889C3   		movq	%rax, %rbx
  43:testHexIO.cpp **** 	CHECK_EQUAL(4096UL, mask.capacity);
 734              		.loc 4 43 0 is_stmt 1
 735 05d8 E8000000 		call	__cxa_end_catch
 735      00
 736 05dd 4889D8   		movq	%rbx, %rax
 737 05e0 4889C7   		movq	%rax, %rdi
 738              	.LEHB35:
 739 05e3 E8000000 		call	_Unwind_Resume
 739      00
 740              	.LEHE35:
 741              	.L53:
 742 05e8 4889C7   		movq	%rax, %rdi
 743 05eb E8000000 		call	__cxa_begin_catch
 743      00
 744              	.LEHB36:
 745 05f0 E8000000 		call	_ZN8UnitTest11CurrentTest7DetailsEv
 745      00
 746 05f5 488B08   		movq	(%rax), %rcx
 747 05f8 488D45C0 		leaq	-64(%rbp), %rax
 748 05fc BA2B0000 		movl	$43, %edx
 748      00
 749 0601 4889CE   		movq	%rcx, %rsi
 750 0604 4889C7   		movq	%rax, %rdi
 751 0607 E8000000 		call	_ZN8UnitTest11TestDetailsC1ERKS0_i
 751      00
  43:testHexIO.cpp **** 	CHECK_EQUAL(4096UL, mask.capacity);
 752              		.loc 4 43 0 is_stmt 0 discriminator 10
 753 060c E8000000 		call	_ZN8UnitTest11CurrentTest7ResultsEv
 753      00
 754 0611 488B00   		movq	(%rax), %rax
 755 0614 488D4DC0 		leaq	-64(%rbp), %rcx
 756 0618 BA000000 		movl	$.LC8, %edx
 756      00
 757 061d 4889CE   		movq	%rcx, %rsi
 758 0620 4889C7   		movq	%rax, %rdi
 759 0623 E8000000 		call	_ZN8UnitTest11TestResults13OnTestFailureERKNS_11TestDetailsEPKc
 759      00
 760              	.LEHE36:
 761              	.LEHB37:
  43:testHexIO.cpp **** 	CHECK_EQUAL(4096UL, mask.capacity);
 762              		.loc 4 43 0 discriminator 14
 763 0628 E8000000 		call	__cxa_end_catch
 763      00
 764              	.LEHE37:
 765 062d E9A1FCFF 		jmp	.L33
 765      FF
 766              	.L56:
 767 0632 4889C3   		movq	%rax, %rbx
  44:testHexIO.cpp **** 	CHECK_ARRAY_EQUAL(expected, data.data + 0x0BE1, 4);
 768              		.loc 4 44 0 is_stmt 1
 769 0635 E8000000 		call	__cxa_end_catch
 769      00
 770 063a 4889D8   		movq	%rbx, %rax
 771 063d 4889C7   		movq	%rax, %rdi
 772              	.LEHB38:
 773 0640 E8000000 		call	_Unwind_Resume
 773      00
 774              	.LEHE38:
 775              	.L55:
 776 0645 4889C7   		movq	%rax, %rdi
 777 0648 E8000000 		call	__cxa_begin_catch
 777      00
 778              	.LEHB39:
 779 064d E8000000 		call	_ZN8UnitTest11CurrentTest7DetailsEv
 779      00
 780 0652 488B08   		movq	(%rax), %rcx
 781 0655 488D45C0 		leaq	-64(%rbp), %rax
 782 0659 BA2C0000 		movl	$44, %edx
 782      00
 783 065e 4889CE   		movq	%rcx, %rsi
 784 0661 4889C7   		movq	%rax, %rdi
 785 0664 E8000000 		call	_ZN8UnitTest11TestDetailsC1ERKS0_i
 785      00
  44:testHexIO.cpp **** 	CHECK_ARRAY_EQUAL(expected, data.data + 0x0BE1, 4);
 786              		.loc 4 44 0 is_stmt 0 discriminator 10
 787 0669 E8000000 		call	_ZN8UnitTest11CurrentTest7ResultsEv
 787      00
 788 066e 488B00   		movq	(%rax), %rax
 789 0671 488D4DC0 		leaq	-64(%rbp), %rcx
 790 0675 BA000000 		movl	$.LC9, %edx
 790      00
 791 067a 4889CE   		movq	%rcx, %rsi
 792 067d 4889C7   		movq	%rax, %rdi
 793 0680 E8000000 		call	_ZN8UnitTest11TestResults13OnTestFailureERKNS_11TestDetailsEPKc
 793      00
 794              	.LEHE39:
 795              	.LEHB40:
  44:testHexIO.cpp **** 	CHECK_ARRAY_EQUAL(expected, data.data + 0x0BE1, 4);
 796              		.loc 4 44 0 discriminator 14
 797 0685 E8000000 		call	__cxa_end_catch
 797      00
 798              	.LEHE40:
 799 068a E994FCFF 		jmp	.L36
 799      FF
 800              	.L58:
 801 068f 4889C3   		movq	%rax, %rbx
  45:testHexIO.cpp **** 	bufDestroy(&mask);
 802              		.loc 4 45 0 is_stmt 1
 803 0692 E8000000 		call	__cxa_end_catch
 803      00
 804 0697 4889D8   		movq	%rbx, %rax
 805 069a 4889C7   		movq	%rax, %rdi
 806              	.LEHB41:
 807 069d E8000000 		call	_Unwind_Resume
 807      00
 808              	.LEHE41:
 809              	.L57:
 810 06a2 4889C7   		movq	%rax, %rdi
 811 06a5 E8000000 		call	__cxa_begin_catch
 811      00
 812              	.LEHB42:
 813 06aa E8000000 		call	_ZN8UnitTest11CurrentTest7DetailsEv
 813      00
 814 06af 488B08   		movq	(%rax), %rcx
 815 06b2 488D45C0 		leaq	-64(%rbp), %rax
 816 06b6 BA2D0000 		movl	$45, %edx
 816      00
 817 06bb 4889CE   		movq	%rcx, %rsi
 818 06be 4889C7   		movq	%rax, %rdi
 819 06c1 E8000000 		call	_ZN8UnitTest11TestDetailsC1ERKS0_i
 819      00
  45:testHexIO.cpp **** 	bufDestroy(&mask);
 820              		.loc 4 45 0 is_stmt 0 discriminator 10
 821 06c6 E8000000 		call	_ZN8UnitTest11CurrentTest7ResultsEv
 821      00
 822 06cb 488B00   		movq	(%rax), %rax
 823 06ce 488D4DC0 		leaq	-64(%rbp), %rcx
 824 06d2 BA000000 		movl	$.LC10, %edx
 824      00
 825 06d7 4889CE   		movq	%rcx, %rsi
 826 06da 4889C7   		movq	%rax, %rdi
 827 06dd E8000000 		call	_ZN8UnitTest11TestResults13OnTestFailureERKNS_11TestDetailsEPKc
 827      00
 828              	.LEHE42:
 829              	.LEHB43:
  45:testHexIO.cpp **** 	bufDestroy(&mask);
 830              		.loc 4 45 0 discriminator 14
 831 06e2 E8000000 		call	__cxa_end_catch
 831      00
 832              	.LEHE43:
 833 06e7 E98BFCFF 		jmp	.L39
 833      FF
 834              	.L59:
 835              	.LBE6:
 836              		.loc 4 48 0 is_stmt 1
 837 06ec E8000000 		call	__stack_chk_fail
 837      00
 838              	.L40:
 839 06f1 488B5DF8 		movq	-8(%rbp), %rbx
 840 06f5 C9       		leave
 841              		.cfi_def_cfa 7, 8
 842 06f6 C3       		ret
 843              		.cfi_endproc
 844              	.LFE1136:
 845              		.section	.gcc_except_table,"a",@progbits
 846              		.align 4
 847              	.LLSDA1136:
 848 0000 FF       		.byte	0xff
 849 0001 03       		.byte	0x3
 850 0002 E401     		.uleb128 .LLSDATT1136-.LLSDATTD1136
 851              	.LLSDATTD1136:
 852 0004 01       		.byte	0x1
 853 0005 D801     		.uleb128 .LLSDACSE1136-.LLSDACSB1136
 854              	.LLSDACSB1136:
 855 0007 5D       		.uleb128 .LEHB4-.LFB1136
 856 0008 05       		.uleb128 .LEHE4-.LEHB4
 857 0009 00       		.uleb128 0
 858 000a 00       		.uleb128 0
 859 000b 68       		.uleb128 .LEHB5-.LFB1136
 860 000c 42       		.uleb128 .LEHE5-.LEHB5
 861 000d BA07     		.uleb128 .L41-.LFB1136
 862 000f 01       		.uleb128 0x1
 863 0010 C001     		.uleb128 .LEHB6-.LFB1136
 864 0012 05       		.uleb128 .LEHE6-.LEHB6
 865 0013 00       		.uleb128 0
 866 0014 00       		.uleb128 0
 867 0015 CB01     		.uleb128 .LEHB7-.LFB1136
 868 0017 48       		.uleb128 .LEHE7-.LEHB7
 869 0018 9708     		.uleb128 .L43-.LFB1136
 870 001a 01       		.uleb128 0x1
 871 001b C402     		.uleb128 .LEHB8-.LFB1136
 872 001d 05       		.uleb128 .LEHE8-.LEHB8
 873 001e 00       		.uleb128 0
 874 001f 00       		.uleb128 0
 875 0020 D302     		.uleb128 .LEHB9-.LFB1136
 876 0022 48       		.uleb128 .LEHE9-.LEHB9
 877 0023 F408     		.uleb128 .L45-.LFB1136
 878 0025 01       		.uleb128 0x1
 879 0026 9B03     		.uleb128 .LEHB10-.LFB1136
 880 0028 48       		.uleb128 .LEHE10-.LEHB10
 881 0029 D109     		.uleb128 .L47-.LFB1136
 882 002b 01       		.uleb128 0x1
 883 002c E303     		.uleb128 .LEHB11-.LFB1136
 884 002e 50       		.uleb128 .LEHE11-.LEHB11
 885 002f AE0A     		.uleb128 .L49-.LFB1136
 886 0031 01       		.uleb128 0x1
 887 0032 B304     		.uleb128 .LEHB12-.LFB1136
 888 0034 50       		.uleb128 .LEHE12-.LEHB12
 889 0035 8B0B     		.uleb128 .L51-.LFB1136
 890 0037 01       		.uleb128 0x1
 891 0038 8305     		.uleb128 .LEHB13-.LFB1136
 892 003a 50       		.uleb128 .LEHE13-.LEHB13
 893 003b E80B     		.uleb128 .L53-.LFB1136
 894 003d 01       		.uleb128 0x1
 895 003e D305     		.uleb128 .LEHB14-.LFB1136
 896 0040 50       		.uleb128 .LEHE14-.LEHB14
 897 0041 C50C     		.uleb128 .L55-.LFB1136
 898 0043 01       		.uleb128 0x1
 899 0044 A306     		.uleb128 .LEHB15-.LFB1136
 900 0046 54       		.uleb128 .LEHE15-.LEHB15
 901 0047 A20D     		.uleb128 .L57-.LFB1136
 902 0049 01       		.uleb128 0x1
 903 004a FE06     		.uleb128 .LEHB16-.LFB1136
 904 004c 11       		.uleb128 .LEHE16-.LEHB16
 905 004d 00       		.uleb128 0
 906 004e 00       		.uleb128 0
 907 004f B507     		.uleb128 .LEHB17-.LFB1136
 908 0051 05       		.uleb128 .LEHE17-.LEHB17
 909 0052 00       		.uleb128 0
 910 0053 00       		.uleb128 0
 911 0054 C207     		.uleb128 .LEHB18-.LFB1136
 912 0056 38       		.uleb128 .LEHE18-.LEHB18
 913 0057 A707     		.uleb128 .L42-.LFB1136
 914 0059 00       		.uleb128 0
 915 005a FA07     		.uleb128 .LEHB19-.LFB1136
 916 005c 05       		.uleb128 .LEHE19-.LEHB19
 917 005d 00       		.uleb128 0
 918 005e 00       		.uleb128 0
 919 005f 9208     		.uleb128 .LEHB20-.LFB1136
 920 0061 05       		.uleb128 .LEHE20-.LEHB20
 921 0062 00       		.uleb128 0
 922 0063 00       		.uleb128 0
 923 0064 9F08     		.uleb128 .LEHB21-.LFB1136
 924 0066 38       		.uleb128 .LEHE21-.LEHB21
 925 0067 8408     		.uleb128 .L44-.LFB1136
 926 0069 00       		.uleb128 0
 927 006a D708     		.uleb128 .LEHB22-.LFB1136
 928 006c 05       		.uleb128 .LEHE22-.LEHB22
 929 006d 00       		.uleb128 0
 930 006e 00       		.uleb128 0
 931 006f EF08     		.uleb128 .LEHB23-.LFB1136
 932 0071 05       		.uleb128 .LEHE23-.LEHB23
 933 0072 00       		.uleb128 0
 934 0073 00       		.uleb128 0
 935 0074 FC08     		.uleb128 .LEHB24-.LFB1136
 936 0076 38       		.uleb128 .LEHE24-.LEHB24
 937 0077 E108     		.uleb128 .L46-.LFB1136
 938 0079 00       		.uleb128 0
 939 007a B409     		.uleb128 .LEHB25-.LFB1136
 940 007c 05       		.uleb128 .LEHE25-.LEHB25
 941 007d 00       		.uleb128 0
 942 007e 00       		.uleb128 0
 943 007f CC09     		.uleb128 .LEHB26-.LFB1136
 944 0081 05       		.uleb128 .LEHE26-.LEHB26
 945 0082 00       		.uleb128 0
 946 0083 00       		.uleb128 0
 947 0084 D909     		.uleb128 .LEHB27-.LFB1136
 948 0086 38       		.uleb128 .LEHE27-.LEHB27
 949 0087 BE09     		.uleb128 .L48-.LFB1136
 950 0089 00       		.uleb128 0
 951 008a 910A     		.uleb128 .LEHB28-.LFB1136
 952 008c 05       		.uleb128 .LEHE28-.LEHB28
 953 008d 00       		.uleb128 0
 954 008e 00       		.uleb128 0
 955 008f A90A     		.uleb128 .LEHB29-.LFB1136
 956 0091 05       		.uleb128 .LEHE29-.LEHB29
 957 0092 00       		.uleb128 0
 958 0093 00       		.uleb128 0
 959 0094 B60A     		.uleb128 .LEHB30-.LFB1136
 960 0096 38       		.uleb128 .LEHE30-.LEHB30
 961 0097 9B0A     		.uleb128 .L50-.LFB1136
 962 0099 00       		.uleb128 0
 963 009a EE0A     		.uleb128 .LEHB31-.LFB1136
 964 009c 05       		.uleb128 .LEHE31-.LEHB31
 965 009d 00       		.uleb128 0
 966 009e 00       		.uleb128 0
 967 009f 860B     		.uleb128 .LEHB32-.LFB1136
 968 00a1 05       		.uleb128 .LEHE32-.LEHB32
 969 00a2 00       		.uleb128 0
 970 00a3 00       		.uleb128 0
 971 00a4 930B     		.uleb128 .LEHB33-.LFB1136
 972 00a6 38       		.uleb128 .LEHE33-.LEHB33
 973 00a7 F80A     		.uleb128 .L52-.LFB1136
 974 00a9 00       		.uleb128 0
 975 00aa CB0B     		.uleb128 .LEHB34-.LFB1136
 976 00ac 05       		.uleb128 .LEHE34-.LEHB34
 977 00ad 00       		.uleb128 0
 978 00ae 00       		.uleb128 0
 979 00af E30B     		.uleb128 .LEHB35-.LFB1136
 980 00b1 05       		.uleb128 .LEHE35-.LEHB35
 981 00b2 00       		.uleb128 0
 982 00b3 00       		.uleb128 0
 983 00b4 F00B     		.uleb128 .LEHB36-.LFB1136
 984 00b6 38       		.uleb128 .LEHE36-.LEHB36
 985 00b7 D50B     		.uleb128 .L54-.LFB1136
 986 00b9 00       		.uleb128 0
 987 00ba A80C     		.uleb128 .LEHB37-.LFB1136
 988 00bc 05       		.uleb128 .LEHE37-.LEHB37
 989 00bd 00       		.uleb128 0
 990 00be 00       		.uleb128 0
 991 00bf C00C     		.uleb128 .LEHB38-.LFB1136
 992 00c1 05       		.uleb128 .LEHE38-.LEHB38
 993 00c2 00       		.uleb128 0
 994 00c3 00       		.uleb128 0
 995 00c4 CD0C     		.uleb128 .LEHB39-.LFB1136
 996 00c6 38       		.uleb128 .LEHE39-.LEHB39
 997 00c7 B20C     		.uleb128 .L56-.LFB1136
 998 00c9 00       		.uleb128 0
 999 00ca 850D     		.uleb128 .LEHB40-.LFB1136
 1000 00cc 05       		.uleb128 .LEHE40-.LEHB40
 1001 00cd 00       		.uleb128 0
 1002 00ce 00       		.uleb128 0
 1003 00cf 9D0D     		.uleb128 .LEHB41-.LFB1136
 1004 00d1 05       		.uleb128 .LEHE41-.LEHB41
 1005 00d2 00       		.uleb128 0
 1006 00d3 00       		.uleb128 0
 1007 00d4 AA0D     		.uleb128 .LEHB42-.LFB1136
 1008 00d6 38       		.uleb128 .LEHE42-.LEHB42
 1009 00d7 8F0D     		.uleb128 .L58-.LFB1136
 1010 00d9 00       		.uleb128 0
 1011 00da E20D     		.uleb128 .LEHB43-.LFB1136
 1012 00dc 05       		.uleb128 .LEHE43-.LEHB43
 1013 00dd 00       		.uleb128 0
 1014 00de 00       		.uleb128 0
 1015              	.LLSDACSE1136:
 1016 00df 01       		.byte	0x1
 1017 00e0 00       		.byte	0
 1018 00e1 000000   		.align 4
 1019 00e4 00000000 		.long	0
 1020              	
 1021              	.LLSDATT1136:
 1022              		.text
 1024              		.section	.rodata
 1025              	.LC11:
 1026 01ff 48657849 		.string	"HexIO_testValidEOF"
 1026      4F5F7465 
 1026      73745661 
 1026      6C696445 
 1026      4F4600
 1027              		.section	.text._ZN22TestHexIO_testValidEOFC2Ev,"axG",@progbits,_ZN22TestHexIO_testValidEOFC5Ev,com
 1028              		.align 2
 1029              		.weak	_ZN22TestHexIO_testValidEOFC2Ev
 1031              	_ZN22TestHexIO_testValidEOFC2Ev:
 1032              	.LFB1138:
  49:testHexIO.cpp **** 
  50:testHexIO.cpp **** TEST(HexIO_testValidEOF) {
 1033              		.loc 4 50 0
 1034              		.cfi_startproc
 1035 0000 55       		pushq	%rbp
 1036              		.cfi_def_cfa_offset 16
 1037              		.cfi_offset 6, -16
 1038 0001 4889E5   		movq	%rsp, %rbp
 1039              		.cfi_def_cfa_register 6
 1040 0004 4883EC10 		subq	$16, %rsp
 1041 0008 48897DF8 		movq	%rdi, -8(%rbp)
 1042              	.LBB7:
 1043              		.loc 4 50 0
 1044 000c E8000000 		call	_ZN13UnitTestSuite12GetSuiteNameEv
 1044      00
 1045 0011 4889C2   		movq	%rax, %rdx
 1046 0014 488B45F8 		movq	-8(%rbp), %rax
 1047 0018 41B83200 		movl	$50, %r8d
 1047      0000
 1048 001e B9000000 		movl	$.LC1, %ecx
 1048      00
 1049 0023 BE000000 		movl	$.LC11, %esi
 1049      00
 1050 0028 4889C7   		movq	%rax, %rdi
 1051 002b E8000000 		call	_ZN8UnitTest4TestC2EPKcS2_S2_i
 1051      00
 1052 0030 488B45F8 		movq	-8(%rbp), %rax
 1053 0034 48C70000 		movq	$_ZTV22TestHexIO_testValidEOF+16, (%rax)
 1053      000000
 1054              	.LBE7:
 1055 003b C9       		leave
 1056              		.cfi_def_cfa 7, 8
 1057 003c C3       		ret
 1058              		.cfi_endproc
 1059              	.LFE1138:
 1061              		.weak	_ZN22TestHexIO_testValidEOFC1Ev
 1062              		.set	_ZN22TestHexIO_testValidEOFC1Ev,_ZN22TestHexIO_testValidEOFC2Ev
 1063              		.globl	testHexIO_testValidEOFInstance
 1064              		.bss
 1065 0039 00000000 		.align 32
 1065      000000
 1068              	testHexIO_testValidEOFInstance:
 1069 0040 00000000 		.zero	56
 1069      00000000 
 1069      00000000 
 1069      00000000 
 1069      00000000 
 1070              		.globl	adderHexIO_testValidEOF
 1073              	adderHexIO_testValidEOF:
 1074 0078 00       		.zero	1
 1075              		.section	.rodata
 1076              	.LC12:
 1077 0212 3A303030 		.string	":00000001FF\n"
 1077      30303030 
 1077      3146460A 
 1077      00
 1078 021f 00       		.align 8
 1079              	.LC13:
 1080 0220 556E6861 		.string	"Unhandled exception in CHECK_EQUAL(0x01, recordType)"
 1080      6E646C65 
 1080      64206578 
 1080      63657074 
 1080      696F6E20 
 1081 0255 000000   		.align 8
 1082              	.LC14:
 1083 0258 556E6861 		.string	"Unhandled exception in CHECK_EQUAL(0UL, data.length)"
 1083      6E646C65 
 1083      64206578 
 1083      63657074 
 1083      696F6E20 
 1084 028d 000000   		.align 8
 1085              	.LC15:
 1086 0290 556E6861 		.string	"Unhandled exception in CHECK_EQUAL(0UL, mask.length)"
 1086      6E646C65 
 1086      64206578 
 1086      63657074 
 1086      696F6E20 
 1087              		.text
 1088 06f7 90       		.align 2
 1089              		.globl	_ZNK22TestHexIO_testValidEOF7RunImplEv
 1091              	_ZNK22TestHexIO_testValidEOF7RunImplEv:
 1092              	.LFB1140:
 1093              		.loc 4 50 0
 1094              		.cfi_startproc
 1095              		.cfi_personality 0x3,__gxx_personality_v0
 1096              		.cfi_lsda 0x3,.LLSDA1140
 1097 06f8 55       		pushq	%rbp
 1098              		.cfi_def_cfa_offset 16
 1099              		.cfi_offset 6, -16
 1100 06f9 4889E5   		movq	%rsp, %rbp
 1101              		.cfi_def_cfa_register 6
 1102 06fc 53       		pushq	%rbx
 1103 06fd 4881ECA8 		subq	$168, %rsp
 1103      000000
 1104              		.cfi_offset 3, -24
 1105 0704 4889BD58 		movq	%rdi, -168(%rbp)
 1105      FFFFFF
 1106              		.loc 4 50 0
 1107 070b 64488B04 		movq	%fs:40, %rax
 1107      25280000 
 1107      00
 1108 0714 488945E8 		movq	%rax, -24(%rbp)
 1109 0718 31C0     		xorl	%eax, %eax
 1110              	.LBB8:
  51:testHexIO.cpp **** 	Buffer data, mask;
  52:testHexIO.cpp **** 	BufferStatus status;
  53:testHexIO.cpp **** 	const char *line = ":00000001FF\n";
 1111              		.loc 4 53 0
 1112 071a 48C78578 		movq	$.LC12, -136(%rbp)
 1112      FFFFFF00 
 1112      000000
  54:testHexIO.cpp **** 	uint8 recordType;
  55:testHexIO.cpp **** 	uint32 seg = 0x00000000;
 1113              		.loc 4 55 0
 1114 0725 C7856CFF 		movl	$0, -148(%rbp)
 1114      FFFF0000 
 1114      0000
  56:testHexIO.cpp **** 	status = bufInitialise(&data, 1024, 0x00, NULL);
 1115              		.loc 4 56 0
 1116 072f 488D4580 		leaq	-128(%rbp), %rax
 1117 0733 B9000000 		movl	$0, %ecx
 1117      00
 1118 0738 BA000000 		movl	$0, %edx
 1118      00
 1119 073d BE000400 		movl	$1024, %esi
 1119      00
 1120 0742 4889C7   		movq	%rax, %rdi
 1121              	.LEHB44:
 1122 0745 E8000000 		call	bufInitialise
 1122      00
 1123              	.LEHE44:
 1124 074a 898568FF 		movl	%eax, -152(%rbp)
 1124      FFFF
 1125              	.LEHB45:
  57:testHexIO.cpp **** 	CHECK_EQUAL(BUF_SUCCESS, status);
 1126              		.loc 4 57 0
 1127 0750 E8000000 		call	_ZN8UnitTest11CurrentTest7DetailsEv
 1127      00
 1128 0755 488B08   		movq	(%rax), %rcx
 1129 0758 488D45C0 		leaq	-64(%rbp), %rax
 1130 075c BA390000 		movl	$57, %edx
 1130      00
 1131 0761 4889CE   		movq	%rcx, %rsi
 1132 0764 4889C7   		movq	%rax, %rdi
 1133 0767 E8000000 		call	_ZN8UnitTest11TestDetailsC1ERKS0_i
 1133      00
 1134              		.loc 4 57 0 is_stmt 0 discriminator 2
 1135 076c C745A000 		movl	$0, -96(%rbp)
 1135      000000
 1136 0773 E8000000 		call	_ZN8UnitTest11CurrentTest7ResultsEv
 1136      00
 1137 0778 488B00   		movq	(%rax), %rax
 1138 077b 488D4DC0 		leaq	-64(%rbp), %rcx
 1139 077f 488D9568 		leaq	-152(%rbp), %rdx
 1139      FFFFFF
 1140 0786 488D75A0 		leaq	-96(%rbp), %rsi
 1141 078a 4889C7   		movq	%rax, %rdi
 1142 078d E8000000 		call	_ZN8UnitTest10CheckEqualI12BufferStatusS1_EEvRNS_11TestResultsERKT_RKT0_RKNS_11TestDetailsE
 1142      00
 1143              	.LEHE45:
 1144              	.L64:
  58:testHexIO.cpp **** 	status = bufInitialise(&mask, 1024, 0x00, NULL);
 1145              		.loc 4 58 0 is_stmt 1
 1146 0792 488D45A0 		leaq	-96(%rbp), %rax
 1147 0796 B9000000 		movl	$0, %ecx
 1147      00
 1148 079b BA000000 		movl	$0, %edx
 1148      00
 1149 07a0 BE000400 		movl	$1024, %esi
 1149      00
 1150 07a5 4889C7   		movq	%rax, %rdi
 1151              	.LEHB46:
 1152 07a8 E8000000 		call	bufInitialise
 1152      00
 1153              	.LEHE46:
 1154 07ad 898568FF 		movl	%eax, -152(%rbp)
 1154      FFFF
 1155              	.LEHB47:
  59:testHexIO.cpp **** 	CHECK_EQUAL(BUF_SUCCESS, status);
 1156              		.loc 4 59 0
 1157 07b3 E8000000 		call	_ZN8UnitTest11CurrentTest7DetailsEv
 1157      00
 1158 07b8 488B08   		movq	(%rax), %rcx
 1159 07bb 488D45C0 		leaq	-64(%rbp), %rax
 1160 07bf BA3B0000 		movl	$59, %edx
 1160      00
 1161 07c4 4889CE   		movq	%rcx, %rsi
 1162 07c7 4889C7   		movq	%rax, %rdi
 1163 07ca E8000000 		call	_ZN8UnitTest11TestDetailsC1ERKS0_i
 1163      00
 1164              		.loc 4 59 0 is_stmt 0 discriminator 2
 1165 07cf C78570FF 		movl	$0, -144(%rbp)
 1165      FFFF0000 
 1165      0000
 1166 07d9 E8000000 		call	_ZN8UnitTest11CurrentTest7ResultsEv
 1166      00
 1167 07de 488B00   		movq	(%rax), %rax
 1168 07e1 488D4DC0 		leaq	-64(%rbp), %rcx
 1169 07e5 488D9568 		leaq	-152(%rbp), %rdx
 1169      FFFFFF
 1170 07ec 488DB570 		leaq	-144(%rbp), %rsi
 1170      FFFFFF
 1171 07f3 4889C7   		movq	%rax, %rdi
 1172 07f6 E8000000 		call	_ZN8UnitTest10CheckEqualI12BufferStatusS1_EEvRNS_11TestResultsERKT_RKT0_RKNS_11TestDetailsE
 1172      00
 1173              	.LEHE47:
 1174              	.L67:
  60:testHexIO.cpp **** 	status = bufProcessLine(line, 0, &data, &mask, &seg, &recordType, NULL);
 1175              		.loc 4 60 0 is_stmt 1
 1176 07fb 4883EC08 		subq	$8, %rsp
 1177 07ff 488DBD67 		leaq	-153(%rbp), %rdi
 1177      FFFFFF
 1178 0806 488DB56C 		leaq	-148(%rbp), %rsi
 1178      FFFFFF
 1179 080d 488D4DA0 		leaq	-96(%rbp), %rcx
 1180 0811 488D5580 		leaq	-128(%rbp), %rdx
 1181 0815 488B8578 		movq	-136(%rbp), %rax
 1181      FFFFFF
 1182 081c 6A00     		pushq	$0
 1183 081e 4989F9   		movq	%rdi, %r9
 1184 0821 4989F0   		movq	%rsi, %r8
 1185 0824 BE000000 		movl	$0, %esi
 1185      00
 1186 0829 4889C7   		movq	%rax, %rdi
 1187              	.LEHB48:
 1188 082c E8000000 		call	bufProcessLine
 1188      00
 1189              	.LEHE48:
 1190 0831 4883C410 		addq	$16, %rsp
 1191 0835 898568FF 		movl	%eax, -152(%rbp)
 1191      FFFF
 1192              	.LEHB49:
  61:testHexIO.cpp **** 	CHECK_EQUAL(BUF_SUCCESS, status);
 1193              		.loc 4 61 0
 1194 083b E8000000 		call	_ZN8UnitTest11CurrentTest7DetailsEv
 1194      00
 1195 0840 488B08   		movq	(%rax), %rcx
 1196 0843 488D45C0 		leaq	-64(%rbp), %rax
 1197 0847 BA3D0000 		movl	$61, %edx
 1197      00
 1198 084c 4889CE   		movq	%rcx, %rsi
 1199 084f 4889C7   		movq	%rax, %rdi
 1200 0852 E8000000 		call	_ZN8UnitTest11TestDetailsC1ERKS0_i
 1200      00
 1201              		.loc 4 61 0 is_stmt 0 discriminator 2
 1202 0857 C78570FF 		movl	$0, -144(%rbp)
 1202      FFFF0000 
 1202      0000
 1203 0861 E8000000 		call	_ZN8UnitTest11CurrentTest7ResultsEv
 1203      00
 1204 0866 488B00   		movq	(%rax), %rax
 1205 0869 488D4DC0 		leaq	-64(%rbp), %rcx
 1206 086d 488D9568 		leaq	-152(%rbp), %rdx
 1206      FFFFFF
 1207 0874 488DB570 		leaq	-144(%rbp), %rsi
 1207      FFFFFF
 1208 087b 4889C7   		movq	%rax, %rdi
 1209 087e E8000000 		call	_ZN8UnitTest10CheckEqualI12BufferStatusS1_EEvRNS_11TestResultsERKT_RKT0_RKNS_11TestDetailsE
 1209      00
 1210              	.LEHE49:
 1211              	.L70:
 1212              	.LEHB50:
  62:testHexIO.cpp **** 	CHECK_EQUAL(0x01, recordType);
 1213              		.loc 4 62 0 is_stmt 1
 1214 0883 E8000000 		call	_ZN8UnitTest11CurrentTest7DetailsEv
 1214      00
 1215 0888 488B08   		movq	(%rax), %rcx
 1216 088b 488D45C0 		leaq	-64(%rbp), %rax
 1217 088f BA3E0000 		movl	$62, %edx
 1217      00
 1218 0894 4889CE   		movq	%rcx, %rsi
 1219 0897 4889C7   		movq	%rax, %rdi
 1220 089a E8000000 		call	_ZN8UnitTest11TestDetailsC1ERKS0_i
 1220      00
 1221              		.loc 4 62 0 is_stmt 0 discriminator 2
 1222 089f C78570FF 		movl	$1, -144(%rbp)
 1222      FFFF0100 
 1222      0000
 1223 08a9 E8000000 		call	_ZN8UnitTest11CurrentTest7ResultsEv
 1223      00
 1224 08ae 488B00   		movq	(%rax), %rax
 1225 08b1 488D4DC0 		leaq	-64(%rbp), %rcx
 1226 08b5 488D9567 		leaq	-153(%rbp), %rdx
 1226      FFFFFF
 1227 08bc 488DB570 		leaq	-144(%rbp), %rsi
 1227      FFFFFF
 1228 08c3 4889C7   		movq	%rax, %rdi
 1229 08c6 E8000000 		call	_ZN8UnitTest10CheckEqualIihEEvRNS_11TestResultsERKT_RKT0_RKNS_11TestDetailsE
 1229      00
 1230              	.LEHE50:
 1231              	.L73:
 1232              	.LEHB51:
  63:testHexIO.cpp **** 	CHECK_EQUAL(0UL, data.length);
 1233              		.loc 4 63 0 is_stmt 1
 1234 08cb E8000000 		call	_ZN8UnitTest11CurrentTest7DetailsEv
 1234      00
 1235 08d0 488B08   		movq	(%rax), %rcx
 1236 08d3 488D45C0 		leaq	-64(%rbp), %rax
 1237 08d7 BA3F0000 		movl	$63, %edx
 1237      00
 1238 08dc 4889CE   		movq	%rcx, %rsi
 1239 08df 4889C7   		movq	%rax, %rdi
 1240 08e2 E8000000 		call	_ZN8UnitTest11TestDetailsC1ERKS0_i
 1240      00
 1241              		.loc 4 63 0 is_stmt 0 discriminator 2
 1242 08e7 48C78570 		movq	$0, -144(%rbp)
 1242      FFFFFF00 
 1242      000000
 1243 08f2 E8000000 		call	_ZN8UnitTest11CurrentTest7ResultsEv
 1243      00
 1244 08f7 488B00   		movq	(%rax), %rax
 1245 08fa 488D55C0 		leaq	-64(%rbp), %rdx
 1246 08fe 488D4D80 		leaq	-128(%rbp), %rcx
 1247 0902 488D7908 		leaq	8(%rcx), %rdi
 1248 0906 488DB570 		leaq	-144(%rbp), %rsi
 1248      FFFFFF
 1249 090d 4889D1   		movq	%rdx, %rcx
 1250 0910 4889FA   		movq	%rdi, %rdx
 1251 0913 4889C7   		movq	%rax, %rdi
 1252 0916 E8000000 		call	_ZN8UnitTest10CheckEqualImjEEvRNS_11TestResultsERKT_RKT0_RKNS_11TestDetailsE
 1252      00
 1253              	.LEHE51:
 1254              	.L76:
 1255              	.LEHB52:
  64:testHexIO.cpp **** 	CHECK_EQUAL(0UL, mask.length);
 1256              		.loc 4 64 0 is_stmt 1
 1257 091b E8000000 		call	_ZN8UnitTest11CurrentTest7DetailsEv
 1257      00
 1258 0920 488B08   		movq	(%rax), %rcx
 1259 0923 488D45C0 		leaq	-64(%rbp), %rax
 1260 0927 BA400000 		movl	$64, %edx
 1260      00
 1261 092c 4889CE   		movq	%rcx, %rsi
 1262 092f 4889C7   		movq	%rax, %rdi
 1263 0932 E8000000 		call	_ZN8UnitTest11TestDetailsC1ERKS0_i
 1263      00
 1264              		.loc 4 64 0 is_stmt 0 discriminator 2
 1265 0937 48C78570 		movq	$0, -144(%rbp)
 1265      FFFFFF00 
 1265      000000
 1266 0942 E8000000 		call	_ZN8UnitTest11CurrentTest7ResultsEv
 1266      00
 1267 0947 488B00   		movq	(%rax), %rax
 1268 094a 488D55C0 		leaq	-64(%rbp), %rdx
 1269 094e 488D4DA0 		leaq	-96(%rbp), %rcx
 1270 0952 488D7908 		leaq	8(%rcx), %rdi
 1271 0956 488DB570 		leaq	-144(%rbp), %rsi
 1271      FFFFFF
 1272 095d 4889D1   		movq	%rdx, %rcx
 1273 0960 4889FA   		movq	%rdi, %rdx
 1274 0963 4889C7   		movq	%rax, %rdi
 1275 0966 E8000000 		call	_ZN8UnitTest10CheckEqualImjEEvRNS_11TestResultsERKT_RKT0_RKNS_11TestDetailsE
 1275      00
 1276              	.LEHE52:
 1277              	.L79:
  65:testHexIO.cpp **** 	bufDestroy(&mask);
 1278              		.loc 4 65 0 is_stmt 1
 1279 096b 488D45A0 		leaq	-96(%rbp), %rax
 1280 096f 4889C7   		movq	%rax, %rdi
 1281              	.LEHB53:
 1282 0972 E8000000 		call	bufDestroy
 1282      00
  66:testHexIO.cpp **** 	bufDestroy(&data);
 1283              		.loc 4 66 0
 1284 0977 488D4580 		leaq	-128(%rbp), %rax
 1285 097b 4889C7   		movq	%rax, %rdi
 1286 097e E8000000 		call	bufDestroy
 1286      00
 1287              	.LEHE53:
 1288              	.LBE8:
  67:testHexIO.cpp **** }
 1289              		.loc 4 67 0
 1290 0983 488B45E8 		movq	-24(%rbp), %rax
 1291 0987 64483304 		xorq	%fs:40, %rax
 1291      25280000 
 1291      00
 1292 0990 0F843802 		je	.L80
 1292      0000
 1293 0996 E92E0200 		jmp	.L93
 1293      00
 1294              	.L82:
 1295 099b 4889C3   		movq	%rax, %rbx
 1296              	.LBB9:
  57:testHexIO.cpp **** 	status = bufInitialise(&mask, 1024, 0x00, NULL);
 1297              		.loc 4 57 0
 1298 099e E8000000 		call	__cxa_end_catch
 1298      00
 1299 09a3 4889D8   		movq	%rbx, %rax
 1300 09a6 4889C7   		movq	%rax, %rdi
 1301              	.LEHB54:
 1302 09a9 E8000000 		call	_Unwind_Resume
 1302      00
 1303              	.LEHE54:
 1304              	.L81:
 1305 09ae 4889C7   		movq	%rax, %rdi
 1306 09b1 E8000000 		call	__cxa_begin_catch
 1306      00
 1307              	.LEHB55:
 1308 09b6 E8000000 		call	_ZN8UnitTest11CurrentTest7DetailsEv
 1308      00
 1309 09bb 488B08   		movq	(%rax), %rcx
 1310 09be 488D45C0 		leaq	-64(%rbp), %rax
 1311 09c2 BA390000 		movl	$57, %edx
 1311      00
 1312 09c7 4889CE   		movq	%rcx, %rsi
 1313 09ca 4889C7   		movq	%rax, %rdi
 1314 09cd E8000000 		call	_ZN8UnitTest11TestDetailsC1ERKS0_i
 1314      00
  57:testHexIO.cpp **** 	status = bufInitialise(&mask, 1024, 0x00, NULL);
 1315              		.loc 4 57 0 is_stmt 0 discriminator 10
 1316 09d2 E8000000 		call	_ZN8UnitTest11CurrentTest7ResultsEv
 1316      00
 1317 09d7 488B00   		movq	(%rax), %rax
 1318 09da 488D4DC0 		leaq	-64(%rbp), %rcx
 1319 09de BA000000 		movl	$.LC4, %edx
 1319      00
 1320 09e3 4889CE   		movq	%rcx, %rsi
 1321 09e6 4889C7   		movq	%rax, %rdi
 1322 09e9 E8000000 		call	_ZN8UnitTest11TestResults13OnTestFailureERKNS_11TestDetailsEPKc
 1322      00
 1323              	.LEHE55:
 1324              	.LEHB56:
  57:testHexIO.cpp **** 	status = bufInitialise(&mask, 1024, 0x00, NULL);
 1325              		.loc 4 57 0 discriminator 14
 1326 09ee E8000000 		call	__cxa_end_catch
 1326      00
 1327              	.LEHE56:
 1328 09f3 E99AFDFF 		jmp	.L64
 1328      FF
 1329              	.L84:
 1330 09f8 4889C3   		movq	%rax, %rbx
  59:testHexIO.cpp **** 	status = bufProcessLine(line, 0, &data, &mask, &seg, &recordType, NULL);
 1331              		.loc 4 59 0 is_stmt 1
 1332 09fb E8000000 		call	__cxa_end_catch
 1332      00
 1333 0a00 4889D8   		movq	%rbx, %rax
 1334 0a03 4889C7   		movq	%rax, %rdi
 1335              	.LEHB57:
 1336 0a06 E8000000 		call	_Unwind_Resume
 1336      00
 1337              	.LEHE57:
 1338              	.L83:
 1339 0a0b 4889C7   		movq	%rax, %rdi
 1340 0a0e E8000000 		call	__cxa_begin_catch
 1340      00
 1341              	.LEHB58:
 1342 0a13 E8000000 		call	_ZN8UnitTest11CurrentTest7DetailsEv
 1342      00
 1343 0a18 488B08   		movq	(%rax), %rcx
 1344 0a1b 488D45C0 		leaq	-64(%rbp), %rax
 1345 0a1f BA3B0000 		movl	$59, %edx
 1345      00
 1346 0a24 4889CE   		movq	%rcx, %rsi
 1347 0a27 4889C7   		movq	%rax, %rdi
 1348 0a2a E8000000 		call	_ZN8UnitTest11TestDetailsC1ERKS0_i
 1348      00
  59:testHexIO.cpp **** 	status = bufProcessLine(line, 0, &data, &mask, &seg, &recordType, NULL);
 1349              		.loc 4 59 0 is_stmt 0 discriminator 10
 1350 0a2f E8000000 		call	_ZN8UnitTest11CurrentTest7ResultsEv
 1350      00
 1351 0a34 488B00   		movq	(%rax), %rax
 1352 0a37 488D4DC0 		leaq	-64(%rbp), %rcx
 1353 0a3b BA000000 		movl	$.LC4, %edx
 1353      00
 1354 0a40 4889CE   		movq	%rcx, %rsi
 1355 0a43 4889C7   		movq	%rax, %rdi
 1356 0a46 E8000000 		call	_ZN8UnitTest11TestResults13OnTestFailureERKNS_11TestDetailsEPKc
 1356      00
 1357              	.LEHE58:
 1358              	.LEHB59:
  59:testHexIO.cpp **** 	status = bufProcessLine(line, 0, &data, &mask, &seg, &recordType, NULL);
 1359              		.loc 4 59 0 discriminator 14
 1360 0a4b E8000000 		call	__cxa_end_catch
 1360      00
 1361              	.LEHE59:
 1362 0a50 E9A6FDFF 		jmp	.L67
 1362      FF
 1363              	.L86:
 1364 0a55 4889C3   		movq	%rax, %rbx
  61:testHexIO.cpp **** 	CHECK_EQUAL(0x01, recordType);
 1365              		.loc 4 61 0 is_stmt 1
 1366 0a58 E8000000 		call	__cxa_end_catch
 1366      00
 1367 0a5d 4889D8   		movq	%rbx, %rax
 1368 0a60 4889C7   		movq	%rax, %rdi
 1369              	.LEHB60:
 1370 0a63 E8000000 		call	_Unwind_Resume
 1370      00
 1371              	.LEHE60:
 1372              	.L85:
 1373 0a68 4889C7   		movq	%rax, %rdi
 1374 0a6b E8000000 		call	__cxa_begin_catch
 1374      00
 1375              	.LEHB61:
 1376 0a70 E8000000 		call	_ZN8UnitTest11CurrentTest7DetailsEv
 1376      00
 1377 0a75 488B08   		movq	(%rax), %rcx
 1378 0a78 488D45C0 		leaq	-64(%rbp), %rax
 1379 0a7c BA3D0000 		movl	$61, %edx
 1379      00
 1380 0a81 4889CE   		movq	%rcx, %rsi
 1381 0a84 4889C7   		movq	%rax, %rdi
 1382 0a87 E8000000 		call	_ZN8UnitTest11TestDetailsC1ERKS0_i
 1382      00
  61:testHexIO.cpp **** 	CHECK_EQUAL(0x01, recordType);
 1383              		.loc 4 61 0 is_stmt 0 discriminator 10
 1384 0a8c E8000000 		call	_ZN8UnitTest11CurrentTest7ResultsEv
 1384      00
 1385 0a91 488B00   		movq	(%rax), %rax
 1386 0a94 488D4DC0 		leaq	-64(%rbp), %rcx
 1387 0a98 BA000000 		movl	$.LC4, %edx
 1387      00
 1388 0a9d 4889CE   		movq	%rcx, %rsi
 1389 0aa0 4889C7   		movq	%rax, %rdi
 1390 0aa3 E8000000 		call	_ZN8UnitTest11TestResults13OnTestFailureERKNS_11TestDetailsEPKc
 1390      00
 1391              	.LEHE61:
 1392              	.LEHB62:
  61:testHexIO.cpp **** 	CHECK_EQUAL(0x01, recordType);
 1393              		.loc 4 61 0 discriminator 14
 1394 0aa8 E8000000 		call	__cxa_end_catch
 1394      00
 1395              	.LEHE62:
 1396 0aad E9D1FDFF 		jmp	.L70
 1396      FF
 1397              	.L88:
 1398 0ab2 4889C3   		movq	%rax, %rbx
  62:testHexIO.cpp **** 	CHECK_EQUAL(0UL, data.length);
 1399              		.loc 4 62 0 is_stmt 1
 1400 0ab5 E8000000 		call	__cxa_end_catch
 1400      00
 1401 0aba 4889D8   		movq	%rbx, %rax
 1402 0abd 4889C7   		movq	%rax, %rdi
 1403              	.LEHB63:
 1404 0ac0 E8000000 		call	_Unwind_Resume
 1404      00
 1405              	.LEHE63:
 1406              	.L87:
 1407 0ac5 4889C7   		movq	%rax, %rdi
 1408 0ac8 E8000000 		call	__cxa_begin_catch
 1408      00
 1409              	.LEHB64:
 1410 0acd E8000000 		call	_ZN8UnitTest11CurrentTest7DetailsEv
 1410      00
 1411 0ad2 488B08   		movq	(%rax), %rcx
 1412 0ad5 488D45C0 		leaq	-64(%rbp), %rax
 1413 0ad9 BA3E0000 		movl	$62, %edx
 1413      00
 1414 0ade 4889CE   		movq	%rcx, %rsi
 1415 0ae1 4889C7   		movq	%rax, %rdi
 1416 0ae4 E8000000 		call	_ZN8UnitTest11TestDetailsC1ERKS0_i
 1416      00
  62:testHexIO.cpp **** 	CHECK_EQUAL(0UL, data.length);
 1417              		.loc 4 62 0 is_stmt 0 discriminator 10
 1418 0ae9 E8000000 		call	_ZN8UnitTest11CurrentTest7ResultsEv
 1418      00
 1419 0aee 488B00   		movq	(%rax), %rax
 1420 0af1 488D4DC0 		leaq	-64(%rbp), %rcx
 1421 0af5 BA000000 		movl	$.LC13, %edx
 1421      00
 1422 0afa 4889CE   		movq	%rcx, %rsi
 1423 0afd 4889C7   		movq	%rax, %rdi
 1424 0b00 E8000000 		call	_ZN8UnitTest11TestResults13OnTestFailureERKNS_11TestDetailsEPKc
 1424      00
 1425              	.LEHE64:
 1426              	.LEHB65:
  62:testHexIO.cpp **** 	CHECK_EQUAL(0UL, data.length);
 1427              		.loc 4 62 0 discriminator 14
 1428 0b05 E8000000 		call	__cxa_end_catch
 1428      00
 1429              	.LEHE65:
 1430 0b0a E9BCFDFF 		jmp	.L73
 1430      FF
 1431              	.L90:
 1432 0b0f 4889C3   		movq	%rax, %rbx
  63:testHexIO.cpp **** 	CHECK_EQUAL(0UL, mask.length);
 1433              		.loc 4 63 0 is_stmt 1
 1434 0b12 E8000000 		call	__cxa_end_catch
 1434      00
 1435 0b17 4889D8   		movq	%rbx, %rax
 1436 0b1a 4889C7   		movq	%rax, %rdi
 1437              	.LEHB66:
 1438 0b1d E8000000 		call	_Unwind_Resume
 1438      00
 1439              	.LEHE66:
 1440              	.L89:
 1441 0b22 4889C7   		movq	%rax, %rdi
 1442 0b25 E8000000 		call	__cxa_begin_catch
 1442      00
 1443              	.LEHB67:
 1444 0b2a E8000000 		call	_ZN8UnitTest11CurrentTest7DetailsEv
 1444      00
 1445 0b2f 488B08   		movq	(%rax), %rcx
 1446 0b32 488D45C0 		leaq	-64(%rbp), %rax
 1447 0b36 BA3F0000 		movl	$63, %edx
 1447      00
 1448 0b3b 4889CE   		movq	%rcx, %rsi
 1449 0b3e 4889C7   		movq	%rax, %rdi
 1450 0b41 E8000000 		call	_ZN8UnitTest11TestDetailsC1ERKS0_i
 1450      00
  63:testHexIO.cpp **** 	CHECK_EQUAL(0UL, mask.length);
 1451              		.loc 4 63 0 is_stmt 0 discriminator 10
 1452 0b46 E8000000 		call	_ZN8UnitTest11CurrentTest7ResultsEv
 1452      00
 1453 0b4b 488B00   		movq	(%rax), %rax
 1454 0b4e 488D4DC0 		leaq	-64(%rbp), %rcx
 1455 0b52 BA000000 		movl	$.LC14, %edx
 1455      00
 1456 0b57 4889CE   		movq	%rcx, %rsi
 1457 0b5a 4889C7   		movq	%rax, %rdi
 1458 0b5d E8000000 		call	_ZN8UnitTest11TestResults13OnTestFailureERKNS_11TestDetailsEPKc
 1458      00
 1459              	.LEHE67:
 1460              	.LEHB68:
  63:testHexIO.cpp **** 	CHECK_EQUAL(0UL, mask.length);
 1461              		.loc 4 63 0 discriminator 14
 1462 0b62 E8000000 		call	__cxa_end_catch
 1462      00
 1463              	.LEHE68:
 1464 0b67 E9AFFDFF 		jmp	.L76
 1464      FF
 1465              	.L92:
 1466 0b6c 4889C3   		movq	%rax, %rbx
  64:testHexIO.cpp **** 	bufDestroy(&mask);
 1467              		.loc 4 64 0 is_stmt 1
 1468 0b6f E8000000 		call	__cxa_end_catch
 1468      00
 1469 0b74 4889D8   		movq	%rbx, %rax
 1470 0b77 4889C7   		movq	%rax, %rdi
 1471              	.LEHB69:
 1472 0b7a E8000000 		call	_Unwind_Resume
 1472      00
 1473              	.LEHE69:
 1474              	.L91:
 1475 0b7f 4889C7   		movq	%rax, %rdi
 1476 0b82 E8000000 		call	__cxa_begin_catch
 1476      00
 1477              	.LEHB70:
 1478 0b87 E8000000 		call	_ZN8UnitTest11CurrentTest7DetailsEv
 1478      00
 1479 0b8c 488B08   		movq	(%rax), %rcx
 1480 0b8f 488D45C0 		leaq	-64(%rbp), %rax
 1481 0b93 BA400000 		movl	$64, %edx
 1481      00
 1482 0b98 4889CE   		movq	%rcx, %rsi
 1483 0b9b 4889C7   		movq	%rax, %rdi
 1484 0b9e E8000000 		call	_ZN8UnitTest11TestDetailsC1ERKS0_i
 1484      00
  64:testHexIO.cpp **** 	bufDestroy(&mask);
 1485              		.loc 4 64 0 is_stmt 0 discriminator 10
 1486 0ba3 E8000000 		call	_ZN8UnitTest11CurrentTest7ResultsEv
 1486      00
 1487 0ba8 488B00   		movq	(%rax), %rax
 1488 0bab 488D4DC0 		leaq	-64(%rbp), %rcx
 1489 0baf BA000000 		movl	$.LC15, %edx
 1489      00
 1490 0bb4 4889CE   		movq	%rcx, %rsi
 1491 0bb7 4889C7   		movq	%rax, %rdi
 1492 0bba E8000000 		call	_ZN8UnitTest11TestResults13OnTestFailureERKNS_11TestDetailsEPKc
 1492      00
 1493              	.LEHE70:
 1494              	.LEHB71:
  64:testHexIO.cpp **** 	bufDestroy(&mask);
 1495              		.loc 4 64 0 discriminator 14
 1496 0bbf E8000000 		call	__cxa_end_catch
 1496      00
 1497              	.LEHE71:
 1498 0bc4 E9A2FDFF 		jmp	.L79
 1498      FF
 1499              	.L93:
 1500              	.LBE9:
 1501              		.loc 4 67 0 is_stmt 1
 1502 0bc9 E8000000 		call	__stack_chk_fail
 1502      00
 1503              	.L80:
 1504 0bce 488B5DF8 		movq	-8(%rbp), %rbx
 1505 0bd2 C9       		leave
 1506              		.cfi_def_cfa 7, 8
 1507 0bd3 C3       		ret
 1508              		.cfi_endproc
 1509              	.LFE1140:
 1510              		.section	.gcc_except_table
 1511              		.align 4
 1512              	.LLSDA1140:
 1513 00e8 FF       		.byte	0xff
 1514 00e9 03       		.byte	0x3
 1515 00ea A001     		.uleb128 .LLSDATT1140-.LLSDATTD1140
 1516              	.LLSDATTD1140:
 1517 00ec 01       		.byte	0x1
 1518 00ed 9601     		.uleb128 .LLSDACSE1140-.LLSDACSB1140
 1519              	.LLSDACSB1140:
 1520 00ef 4D       		.uleb128 .LEHB44-.LFB1140
 1521 00f0 05       		.uleb128 .LEHE44-.LEHB44
 1522 00f1 00       		.uleb128 0
 1523 00f2 00       		.uleb128 0
 1524 00f3 58       		.uleb128 .LEHB45-.LFB1140
 1525 00f4 42       		.uleb128 .LEHE45-.LEHB45
 1526 00f5 B605     		.uleb128 .L81-.LFB1140
 1527 00f7 01       		.uleb128 0x1
 1528 00f8 B001     		.uleb128 .LEHB46-.LFB1140
 1529 00fa 05       		.uleb128 .LEHE46-.LEHB46
 1530 00fb 00       		.uleb128 0
 1531 00fc 00       		.uleb128 0
 1532 00fd BB01     		.uleb128 .LEHB47-.LFB1140
 1533 00ff 48       		.uleb128 .LEHE47-.LEHB47
 1534 0100 9306     		.uleb128 .L83-.LFB1140
 1535 0102 01       		.uleb128 0x1
 1536 0103 B402     		.uleb128 .LEHB48-.LFB1140
 1537 0105 05       		.uleb128 .LEHE48-.LEHB48
 1538 0106 00       		.uleb128 0
 1539 0107 00       		.uleb128 0
 1540 0108 C302     		.uleb128 .LEHB49-.LFB1140
 1541 010a 48       		.uleb128 .LEHE49-.LEHB49
 1542 010b F006     		.uleb128 .L85-.LFB1140
 1543 010d 01       		.uleb128 0x1
 1544 010e 8B03     		.uleb128 .LEHB50-.LFB1140
 1545 0110 48       		.uleb128 .LEHE50-.LEHB50
 1546 0111 CD07     		.uleb128 .L87-.LFB1140
 1547 0113 01       		.uleb128 0x1
 1548 0114 D303     		.uleb128 .LEHB51-.LFB1140
 1549 0116 50       		.uleb128 .LEHE51-.LEHB51
 1550 0117 AA08     		.uleb128 .L89-.LFB1140
 1551 0119 01       		.uleb128 0x1
 1552 011a A304     		.uleb128 .LEHB52-.LFB1140
 1553 011c 50       		.uleb128 .LEHE52-.LEHB52
 1554 011d 8709     		.uleb128 .L91-.LFB1140
 1555 011f 01       		.uleb128 0x1
 1556 0120 FA04     		.uleb128 .LEHB53-.LFB1140
 1557 0122 11       		.uleb128 .LEHE53-.LEHB53
 1558 0123 00       		.uleb128 0
 1559 0124 00       		.uleb128 0
 1560 0125 B105     		.uleb128 .LEHB54-.LFB1140
 1561 0127 05       		.uleb128 .LEHE54-.LEHB54
 1562 0128 00       		.uleb128 0
 1563 0129 00       		.uleb128 0
 1564 012a BE05     		.uleb128 .LEHB55-.LFB1140
 1565 012c 38       		.uleb128 .LEHE55-.LEHB55
 1566 012d A305     		.uleb128 .L82-.LFB1140
 1567 012f 00       		.uleb128 0
 1568 0130 F605     		.uleb128 .LEHB56-.LFB1140
 1569 0132 05       		.uleb128 .LEHE56-.LEHB56
 1570 0133 00       		.uleb128 0
 1571 0134 00       		.uleb128 0
 1572 0135 8E06     		.uleb128 .LEHB57-.LFB1140
 1573 0137 05       		.uleb128 .LEHE57-.LEHB57
 1574 0138 00       		.uleb128 0
 1575 0139 00       		.uleb128 0
 1576 013a 9B06     		.uleb128 .LEHB58-.LFB1140
 1577 013c 38       		.uleb128 .LEHE58-.LEHB58
 1578 013d 8006     		.uleb128 .L84-.LFB1140
 1579 013f 00       		.uleb128 0
 1580 0140 D306     		.uleb128 .LEHB59-.LFB1140
 1581 0142 05       		.uleb128 .LEHE59-.LEHB59
 1582 0143 00       		.uleb128 0
 1583 0144 00       		.uleb128 0
 1584 0145 EB06     		.uleb128 .LEHB60-.LFB1140
 1585 0147 05       		.uleb128 .LEHE60-.LEHB60
 1586 0148 00       		.uleb128 0
 1587 0149 00       		.uleb128 0
 1588 014a F806     		.uleb128 .LEHB61-.LFB1140
 1589 014c 38       		.uleb128 .LEHE61-.LEHB61
 1590 014d DD06     		.uleb128 .L86-.LFB1140
 1591 014f 00       		.uleb128 0
 1592 0150 B007     		.uleb128 .LEHB62-.LFB1140
 1593 0152 05       		.uleb128 .LEHE62-.LEHB62
 1594 0153 00       		.uleb128 0
 1595 0154 00       		.uleb128 0
 1596 0155 C807     		.uleb128 .LEHB63-.LFB1140
 1597 0157 05       		.uleb128 .LEHE63-.LEHB63
 1598 0158 00       		.uleb128 0
 1599 0159 00       		.uleb128 0
 1600 015a D507     		.uleb128 .LEHB64-.LFB1140
 1601 015c 38       		.uleb128 .LEHE64-.LEHB64
 1602 015d BA07     		.uleb128 .L88-.LFB1140
 1603 015f 00       		.uleb128 0
 1604 0160 8D08     		.uleb128 .LEHB65-.LFB1140
 1605 0162 05       		.uleb128 .LEHE65-.LEHB65
 1606 0163 00       		.uleb128 0
 1607 0164 00       		.uleb128 0
 1608 0165 A508     		.uleb128 .LEHB66-.LFB1140
 1609 0167 05       		.uleb128 .LEHE66-.LEHB66
 1610 0168 00       		.uleb128 0
 1611 0169 00       		.uleb128 0
 1612 016a B208     		.uleb128 .LEHB67-.LFB1140
 1613 016c 38       		.uleb128 .LEHE67-.LEHB67
 1614 016d 9708     		.uleb128 .L90-.LFB1140
 1615 016f 00       		.uleb128 0
 1616 0170 EA08     		.uleb128 .LEHB68-.LFB1140
 1617 0172 05       		.uleb128 .LEHE68-.LEHB68
 1618 0173 00       		.uleb128 0
 1619 0174 00       		.uleb128 0
 1620 0175 8209     		.uleb128 .LEHB69-.LFB1140
 1621 0177 05       		.uleb128 .LEHE69-.LEHB69
 1622 0178 00       		.uleb128 0
 1623 0179 00       		.uleb128 0
 1624 017a 8F09     		.uleb128 .LEHB70-.LFB1140
 1625 017c 38       		.uleb128 .LEHE70-.LEHB70
 1626 017d F408     		.uleb128 .L92-.LFB1140
 1627 017f 00       		.uleb128 0
 1628 0180 C709     		.uleb128 .LEHB71-.LFB1140
 1629 0182 05       		.uleb128 .LEHE71-.LEHB71
 1630 0183 00       		.uleb128 0
 1631 0184 00       		.uleb128 0
 1632              	.LLSDACSE1140:
 1633 0185 01       		.byte	0x1
 1634 0186 00       		.byte	0
 1635 0187 00       		.align 4
 1636 0188 00000000 		.long	0
 1637              	
 1638              	.LLSDATT1140:
 1639              		.text
 1641              		.section	.rodata
 1642              	.LC16:
 1643 02c5 48657849 		.string	"HexIO_testJunkStartCode"
 1643      4F5F7465 
 1643      73744A75 
 1643      6E6B5374 
 1643      61727443 
 1644              		.section	.text._ZN27TestHexIO_testJunkStartCodeC2Ev,"axG",@progbits,_ZN27TestHexIO_testJunkStartCo
 1645              		.align 2
 1646              		.weak	_ZN27TestHexIO_testJunkStartCodeC2Ev
 1648              	_ZN27TestHexIO_testJunkStartCodeC2Ev:
 1649              	.LFB1142:
  68:testHexIO.cpp **** 
  69:testHexIO.cpp **** TEST(HexIO_testJunkStartCode) {
 1650              		.loc 4 69 0
 1651              		.cfi_startproc
 1652 0000 55       		pushq	%rbp
 1653              		.cfi_def_cfa_offset 16
 1654              		.cfi_offset 6, -16
 1655 0001 4889E5   		movq	%rsp, %rbp
 1656              		.cfi_def_cfa_register 6
 1657 0004 4883EC10 		subq	$16, %rsp
 1658 0008 48897DF8 		movq	%rdi, -8(%rbp)
 1659              	.LBB10:
 1660              		.loc 4 69 0
 1661 000c E8000000 		call	_ZN13UnitTestSuite12GetSuiteNameEv
 1661      00
 1662 0011 4889C2   		movq	%rax, %rdx
 1663 0014 488B45F8 		movq	-8(%rbp), %rax
 1664 0018 41B84500 		movl	$69, %r8d
 1664      0000
 1665 001e B9000000 		movl	$.LC1, %ecx
 1665      00
 1666 0023 BE000000 		movl	$.LC16, %esi
 1666      00
 1667 0028 4889C7   		movq	%rax, %rdi
 1668 002b E8000000 		call	_ZN8UnitTest4TestC2EPKcS2_S2_i
 1668      00
 1669 0030 488B45F8 		movq	-8(%rbp), %rax
 1670 0034 48C70000 		movq	$_ZTV27TestHexIO_testJunkStartCode+16, (%rax)
 1670      000000
 1671              	.LBE10:
 1672 003b C9       		leave
 1673              		.cfi_def_cfa 7, 8
 1674 003c C3       		ret
 1675              		.cfi_endproc
 1676              	.LFE1142:
 1678              		.weak	_ZN27TestHexIO_testJunkStartCodeC1Ev
 1679              		.set	_ZN27TestHexIO_testJunkStartCodeC1Ev,_ZN27TestHexIO_testJunkStartCodeC2Ev
 1680              		.globl	testHexIO_testJunkStartCodeInstance
 1681              		.bss
 1682 0079 00000000 		.align 32
 1682      000000
 1685              	testHexIO_testJunkStartCodeInstance:
 1686 0080 00000000 		.zero	56
 1686      00000000 
 1686      00000000 
 1686      00000000 
 1686      00000000 
 1687              		.globl	adderHexIO_testJunkStartCode
 1690              	adderHexIO_testJunkStartCode:
 1691 00b8 00       		.zero	1
 1692              		.section	.rodata
 1693              	.LC17:
 1694 02dd 2E303430 		.string	".040BE10075820022F7\n"
 1694      42453130 
 1694      30373538 
 1694      32303032 
 1694      3246370A 
 1695 02f2 00000000 		.align 8
 1695      0000
 1696              	.LC18:
 1697 02f8 556E6861 		.string	"Unhandled exception in CHECK_EQUAL(HEX_JUNK_START_CODE, status)"
 1697      6E646C65 
 1697      64206578 
 1697      63657074 
 1697      696F6E20 
 1698              		.text
 1699              		.align 2
 1700              		.globl	_ZNK27TestHexIO_testJunkStartCode7RunImplEv
 1702              	_ZNK27TestHexIO_testJunkStartCode7RunImplEv:
 1703              	.LFB1144:
 1704              		.loc 4 69 0
 1705              		.cfi_startproc
 1706              		.cfi_personality 0x3,__gxx_personality_v0
 1707              		.cfi_lsda 0x3,.LLSDA1144
 1708 0bd4 55       		pushq	%rbp
 1709              		.cfi_def_cfa_offset 16
 1710              		.cfi_offset 6, -16
 1711 0bd5 4889E5   		movq	%rsp, %rbp
 1712              		.cfi_def_cfa_register 6
 1713 0bd8 53       		pushq	%rbx
 1714 0bd9 4881EC88 		subq	$136, %rsp
 1714      000000
 1715              		.cfi_offset 3, -24
 1716 0be0 4889BD78 		movq	%rdi, -136(%rbp)
 1716      FFFFFF
 1717              		.loc 4 69 0
 1718 0be7 64488B04 		movq	%fs:40, %rax
 1718      25280000 
 1718      00
 1719 0bf0 488945E8 		movq	%rax, -24(%rbp)
 1720 0bf4 31C0     		xorl	%eax, %eax
 1721              	.LBB11:
  70:testHexIO.cpp **** 	Buffer data;
  71:testHexIO.cpp **** 	BufferStatus status;
  72:testHexIO.cpp **** 	const char *line = ".040BE10075820022F7\n";
 1722              		.loc 4 72 0
 1723 0bf6 48C74598 		movq	$.LC17, -104(%rbp)
 1723      00000000 
  73:testHexIO.cpp **** 	uint8 recordType;
  74:testHexIO.cpp **** 	uint32 seg = 0x00000000;
 1724              		.loc 4 74 0
 1725 0bfe C7459000 		movl	$0, -112(%rbp)
 1725      000000
  75:testHexIO.cpp **** 	status = bufInitialise(&data, 1024, 0x00, NULL);
 1726              		.loc 4 75 0
 1727 0c05 488D45A0 		leaq	-96(%rbp), %rax
 1728 0c09 B9000000 		movl	$0, %ecx
 1728      00
 1729 0c0e BA000000 		movl	$0, %edx
 1729      00
 1730 0c13 BE000400 		movl	$1024, %esi
 1730      00
 1731 0c18 4889C7   		movq	%rax, %rdi
 1732              	.LEHB72:
 1733 0c1b E8000000 		call	bufInitialise
 1733      00
 1734              	.LEHE72:
 1735 0c20 89458C   		movl	%eax, -116(%rbp)
 1736              	.LEHB73:
  76:testHexIO.cpp **** 	CHECK_EQUAL(BUF_SUCCESS, status);
 1737              		.loc 4 76 0
 1738 0c23 E8000000 		call	_ZN8UnitTest11CurrentTest7DetailsEv
 1738      00
 1739 0c28 488B08   		movq	(%rax), %rcx
 1740 0c2b 488D45C0 		leaq	-64(%rbp), %rax
 1741 0c2f BA4C0000 		movl	$76, %edx
 1741      00
 1742 0c34 4889CE   		movq	%rcx, %rsi
 1743 0c37 4889C7   		movq	%rax, %rdi
 1744 0c3a E8000000 		call	_ZN8UnitTest11TestDetailsC1ERKS0_i
 1744      00
 1745              		.loc 4 76 0 is_stmt 0 discriminator 2
 1746 0c3f C7459400 		movl	$0, -108(%rbp)
 1746      000000
 1747 0c46 E8000000 		call	_ZN8UnitTest11CurrentTest7ResultsEv
 1747      00
 1748 0c4b 488B00   		movq	(%rax), %rax
 1749 0c4e 488D4DC0 		leaq	-64(%rbp), %rcx
 1750 0c52 488D558C 		leaq	-116(%rbp), %rdx
 1751 0c56 488D7594 		leaq	-108(%rbp), %rsi
 1752 0c5a 4889C7   		movq	%rax, %rdi
 1753 0c5d E8000000 		call	_ZN8UnitTest10CheckEqualI12BufferStatusS1_EEvRNS_11TestResultsERKT_RKT0_RKNS_11TestDetailsE
 1753      00
 1754              	.LEHE73:
 1755              	.L98:
  77:testHexIO.cpp **** 	status = bufProcessLine(line, 0, &data, NULL, &seg, &recordType, NULL);
 1756              		.loc 4 77 0 is_stmt 1
 1757 0c62 4883EC08 		subq	$8, %rsp
 1758 0c66 488D758B 		leaq	-117(%rbp), %rsi
 1759 0c6a 488D4D90 		leaq	-112(%rbp), %rcx
 1760 0c6e 488D55A0 		leaq	-96(%rbp), %rdx
 1761 0c72 488B4598 		movq	-104(%rbp), %rax
 1762 0c76 6A00     		pushq	$0
 1763 0c78 4989F1   		movq	%rsi, %r9
 1764 0c7b 4989C8   		movq	%rcx, %r8
 1765 0c7e B9000000 		movl	$0, %ecx
 1765      00
 1766 0c83 BE000000 		movl	$0, %esi
 1766      00
 1767 0c88 4889C7   		movq	%rax, %rdi
 1768              	.LEHB74:
 1769 0c8b E8000000 		call	bufProcessLine
 1769      00
 1770              	.LEHE74:
 1771 0c90 4883C410 		addq	$16, %rsp
 1772 0c94 89458C   		movl	%eax, -116(%rbp)
 1773              	.LEHB75:
  78:testHexIO.cpp **** 	CHECK_EQUAL(HEX_JUNK_START_CODE, status);
 1774              		.loc 4 78 0
 1775 0c97 E8000000 		call	_ZN8UnitTest11CurrentTest7DetailsEv
 1775      00
 1776 0c9c 488B08   		movq	(%rax), %rcx
 1777 0c9f 488D45C0 		leaq	-64(%rbp), %rax
 1778 0ca3 BA4E0000 		movl	$78, %edx
 1778      00
 1779 0ca8 4889CE   		movq	%rcx, %rsi
 1780 0cab 4889C7   		movq	%rax, %rdi
 1781 0cae E8000000 		call	_ZN8UnitTest11TestDetailsC1ERKS0_i
 1781      00
 1782              		.loc 4 78 0 is_stmt 0 discriminator 2
 1783 0cb3 C7459407 		movl	$7, -108(%rbp)
 1783      000000
 1784 0cba E8000000 		call	_ZN8UnitTest11CurrentTest7ResultsEv
 1784      00
 1785 0cbf 488B00   		movq	(%rax), %rax
 1786 0cc2 488D4DC0 		leaq	-64(%rbp), %rcx
 1787 0cc6 488D558C 		leaq	-116(%rbp), %rdx
 1788 0cca 488D7594 		leaq	-108(%rbp), %rsi
 1789 0cce 4889C7   		movq	%rax, %rdi
 1790 0cd1 E8000000 		call	_ZN8UnitTest10CheckEqualI12BufferStatusS1_EEvRNS_11TestResultsERKT_RKT0_RKNS_11TestDetailsE
 1790      00
 1791              	.LEHE75:
 1792              	.L101:
  79:testHexIO.cpp **** 	bufDestroy(&data);
 1793              		.loc 4 79 0 is_stmt 1
 1794 0cd6 488D45A0 		leaq	-96(%rbp), %rax
 1795 0cda 4889C7   		movq	%rax, %rdi
 1796              	.LEHB76:
 1797 0cdd E8000000 		call	bufDestroy
 1797      00
 1798              	.LEHE76:
 1799              	.LBE11:
  80:testHexIO.cpp **** }
 1800              		.loc 4 80 0
 1801 0ce2 488B45E8 		movq	-24(%rbp), %rax
 1802 0ce6 64483304 		xorq	%fs:40, %rax
 1802      25280000 
 1802      00
 1803 0cef 0F84C400 		je	.L102
 1803      0000
 1804 0cf5 E9BA0000 		jmp	.L107
 1804      00
 1805              	.L104:
 1806 0cfa 4889C3   		movq	%rax, %rbx
 1807              	.LBB12:
  76:testHexIO.cpp **** 	status = bufProcessLine(line, 0, &data, NULL, &seg, &recordType, NULL);
 1808              		.loc 4 76 0
 1809 0cfd E8000000 		call	__cxa_end_catch
 1809      00
 1810 0d02 4889D8   		movq	%rbx, %rax
 1811 0d05 4889C7   		movq	%rax, %rdi
 1812              	.LEHB77:
 1813 0d08 E8000000 		call	_Unwind_Resume
 1813      00
 1814              	.LEHE77:
 1815              	.L103:
 1816 0d0d 4889C7   		movq	%rax, %rdi
 1817 0d10 E8000000 		call	__cxa_begin_catch
 1817      00
 1818              	.LEHB78:
 1819 0d15 E8000000 		call	_ZN8UnitTest11CurrentTest7DetailsEv
 1819      00
 1820 0d1a 488B08   		movq	(%rax), %rcx
 1821 0d1d 488D45C0 		leaq	-64(%rbp), %rax
 1822 0d21 BA4C0000 		movl	$76, %edx
 1822      00
 1823 0d26 4889CE   		movq	%rcx, %rsi
 1824 0d29 4889C7   		movq	%rax, %rdi
 1825 0d2c E8000000 		call	_ZN8UnitTest11TestDetailsC1ERKS0_i
 1825      00
  76:testHexIO.cpp **** 	status = bufProcessLine(line, 0, &data, NULL, &seg, &recordType, NULL);
 1826              		.loc 4 76 0 is_stmt 0 discriminator 10
 1827 0d31 E8000000 		call	_ZN8UnitTest11CurrentTest7ResultsEv
 1827      00
 1828 0d36 488B00   		movq	(%rax), %rax
 1829 0d39 488D4DC0 		leaq	-64(%rbp), %rcx
 1830 0d3d BA000000 		movl	$.LC4, %edx
 1830      00
 1831 0d42 4889CE   		movq	%rcx, %rsi
 1832 0d45 4889C7   		movq	%rax, %rdi
 1833 0d48 E8000000 		call	_ZN8UnitTest11TestResults13OnTestFailureERKNS_11TestDetailsEPKc
 1833      00
 1834              	.LEHE78:
 1835              	.LEHB79:
  76:testHexIO.cpp **** 	status = bufProcessLine(line, 0, &data, NULL, &seg, &recordType, NULL);
 1836              		.loc 4 76 0 discriminator 14
 1837 0d4d E8000000 		call	__cxa_end_catch
 1837      00
 1838              	.LEHE79:
 1839 0d52 E90BFFFF 		jmp	.L98
 1839      FF
 1840              	.L106:
 1841 0d57 4889C3   		movq	%rax, %rbx
  78:testHexIO.cpp **** 	bufDestroy(&data);
 1842              		.loc 4 78 0 is_stmt 1
 1843 0d5a E8000000 		call	__cxa_end_catch
 1843      00
 1844 0d5f 4889D8   		movq	%rbx, %rax
 1845 0d62 4889C7   		movq	%rax, %rdi
 1846              	.LEHB80:
 1847 0d65 E8000000 		call	_Unwind_Resume
 1847      00
 1848              	.LEHE80:
 1849              	.L105:
 1850 0d6a 4889C7   		movq	%rax, %rdi
 1851 0d6d E8000000 		call	__cxa_begin_catch
 1851      00
 1852              	.LEHB81:
 1853 0d72 E8000000 		call	_ZN8UnitTest11CurrentTest7DetailsEv
 1853      00
 1854 0d77 488B08   		movq	(%rax), %rcx
 1855 0d7a 488D45C0 		leaq	-64(%rbp), %rax
 1856 0d7e BA4E0000 		movl	$78, %edx
 1856      00
 1857 0d83 4889CE   		movq	%rcx, %rsi
 1858 0d86 4889C7   		movq	%rax, %rdi
 1859 0d89 E8000000 		call	_ZN8UnitTest11TestDetailsC1ERKS0_i
 1859      00
  78:testHexIO.cpp **** 	bufDestroy(&data);
 1860              		.loc 4 78 0 is_stmt 0 discriminator 10
 1861 0d8e E8000000 		call	_ZN8UnitTest11CurrentTest7ResultsEv
 1861      00
 1862 0d93 488B00   		movq	(%rax), %rax
 1863 0d96 488D4DC0 		leaq	-64(%rbp), %rcx
 1864 0d9a BA000000 		movl	$.LC18, %edx
 1864      00
 1865 0d9f 4889CE   		movq	%rcx, %rsi
 1866 0da2 4889C7   		movq	%rax, %rdi
 1867 0da5 E8000000 		call	_ZN8UnitTest11TestResults13OnTestFailureERKNS_11TestDetailsEPKc
 1867      00
 1868              	.LEHE81:
 1869              	.LEHB82:
  78:testHexIO.cpp **** 	bufDestroy(&data);
 1870              		.loc 4 78 0 discriminator 14
 1871 0daa E8000000 		call	__cxa_end_catch
 1871      00
 1872              	.LEHE82:
 1873 0daf E922FFFF 		jmp	.L101
 1873      FF
 1874              	.L107:
 1875              	.LBE12:
 1876              		.loc 4 80 0 is_stmt 1
 1877 0db4 E8000000 		call	__stack_chk_fail
 1877      00
 1878              	.L102:
 1879 0db9 488B5DF8 		movq	-8(%rbp), %rbx
 1880 0dbd C9       		leave
 1881              		.cfi_def_cfa 7, 8
 1882 0dbe C3       		ret
 1883              		.cfi_endproc
 1884              	.LFE1144:
 1885              		.section	.gcc_except_table
 1886              		.align 4
 1887              	.LLSDA1144:
 1888 018c FF       		.byte	0xff
 1889 018d 03       		.byte	0x3
 1890 018e 41       		.uleb128 .LLSDATT1144-.LLSDATTD1144
 1891              	.LLSDATTD1144:
 1892 018f 01       		.byte	0x1
 1893 0190 39       		.uleb128 .LLSDACSE1144-.LLSDACSB1144
 1894              	.LLSDACSB1144:
 1895 0191 47       		.uleb128 .LEHB72-.LFB1144
 1896 0192 05       		.uleb128 .LEHE72-.LEHB72
 1897 0193 00       		.uleb128 0
 1898 0194 00       		.uleb128 0
 1899 0195 4F       		.uleb128 .LEHB73-.LFB1144
 1900 0196 3F       		.uleb128 .LEHE73-.LEHB73
 1901 0197 B902     		.uleb128 .L103-.LFB1144
 1902 0199 01       		.uleb128 0x1
 1903 019a B701     		.uleb128 .LEHB74-.LFB1144
 1904 019c 05       		.uleb128 .LEHE74-.LEHB74
 1905 019d 00       		.uleb128 0
 1906 019e 00       		.uleb128 0
 1907 019f C301     		.uleb128 .LEHB75-.LFB1144
 1908 01a1 3F       		.uleb128 .LEHE75-.LEHB75
 1909 01a2 9603     		.uleb128 .L105-.LFB1144
 1910 01a4 01       		.uleb128 0x1
 1911 01a5 8902     		.uleb128 .LEHB76-.LFB1144
 1912 01a7 05       		.uleb128 .LEHE76-.LEHB76
 1913 01a8 00       		.uleb128 0
 1914 01a9 00       		.uleb128 0
 1915 01aa B402     		.uleb128 .LEHB77-.LFB1144
 1916 01ac 05       		.uleb128 .LEHE77-.LEHB77
 1917 01ad 00       		.uleb128 0
 1918 01ae 00       		.uleb128 0
 1919 01af C102     		.uleb128 .LEHB78-.LFB1144
 1920 01b1 38       		.uleb128 .LEHE78-.LEHB78
 1921 01b2 A602     		.uleb128 .L104-.LFB1144
 1922 01b4 00       		.uleb128 0
 1923 01b5 F902     		.uleb128 .LEHB79-.LFB1144
 1924 01b7 05       		.uleb128 .LEHE79-.LEHB79
 1925 01b8 00       		.uleb128 0
 1926 01b9 00       		.uleb128 0
 1927 01ba 9103     		.uleb128 .LEHB80-.LFB1144
 1928 01bc 05       		.uleb128 .LEHE80-.LEHB80
 1929 01bd 00       		.uleb128 0
 1930 01be 00       		.uleb128 0
 1931 01bf 9E03     		.uleb128 .LEHB81-.LFB1144
 1932 01c1 38       		.uleb128 .LEHE81-.LEHB81
 1933 01c2 8303     		.uleb128 .L106-.LFB1144
 1934 01c4 00       		.uleb128 0
 1935 01c5 D603     		.uleb128 .LEHB82-.LFB1144
 1936 01c7 05       		.uleb128 .LEHE82-.LEHB82
 1937 01c8 00       		.uleb128 0
 1938 01c9 00       		.uleb128 0
 1939              	.LLSDACSE1144:
 1940 01ca 01       		.byte	0x1
 1941 01cb 00       		.byte	0
 1942              		.align 4
 1943 01cc 00000000 		.long	0
 1944              	
 1945              	.LLSDATT1144:
 1946              		.text
 1948              		.section	.rodata
 1949              	.LC19:
 1950 0338 48657849 		.string	"HexIO_testJunkByteCount"
 1950      4F5F7465 
 1950      73744A75 
 1950      6E6B4279 
 1950      7465436F 
 1951              		.section	.text._ZN27TestHexIO_testJunkByteCountC2Ev,"axG",@progbits,_ZN27TestHexIO_testJunkByteCou
 1952              		.align 2
 1953              		.weak	_ZN27TestHexIO_testJunkByteCountC2Ev
 1955              	_ZN27TestHexIO_testJunkByteCountC2Ev:
 1956              	.LFB1146:
  81:testHexIO.cpp **** 
  82:testHexIO.cpp **** TEST(HexIO_testJunkByteCount) {
 1957              		.loc 4 82 0
 1958              		.cfi_startproc
 1959 0000 55       		pushq	%rbp
 1960              		.cfi_def_cfa_offset 16
 1961              		.cfi_offset 6, -16
 1962 0001 4889E5   		movq	%rsp, %rbp
 1963              		.cfi_def_cfa_register 6
 1964 0004 4883EC10 		subq	$16, %rsp
 1965 0008 48897DF8 		movq	%rdi, -8(%rbp)
 1966              	.LBB13:
 1967              		.loc 4 82 0
 1968 000c E8000000 		call	_ZN13UnitTestSuite12GetSuiteNameEv
 1968      00
 1969 0011 4889C2   		movq	%rax, %rdx
 1970 0014 488B45F8 		movq	-8(%rbp), %rax
 1971 0018 41B85200 		movl	$82, %r8d
 1971      0000
 1972 001e B9000000 		movl	$.LC1, %ecx
 1972      00
 1973 0023 BE000000 		movl	$.LC19, %esi
 1973      00
 1974 0028 4889C7   		movq	%rax, %rdi
 1975 002b E8000000 		call	_ZN8UnitTest4TestC2EPKcS2_S2_i
 1975      00
 1976 0030 488B45F8 		movq	-8(%rbp), %rax
 1977 0034 48C70000 		movq	$_ZTV27TestHexIO_testJunkByteCount+16, (%rax)
 1977      000000
 1978              	.LBE13:
 1979 003b C9       		leave
 1980              		.cfi_def_cfa 7, 8
 1981 003c C3       		ret
 1982              		.cfi_endproc
 1983              	.LFE1146:
 1985              		.weak	_ZN27TestHexIO_testJunkByteCountC1Ev
 1986              		.set	_ZN27TestHexIO_testJunkByteCountC1Ev,_ZN27TestHexIO_testJunkByteCountC2Ev
 1987              		.globl	testHexIO_testJunkByteCountInstance
 1988              		.bss
 1989 00b9 00000000 		.align 32
 1989      000000
 1992              	testHexIO_testJunkByteCountInstance:
 1993 00c0 00000000 		.zero	56
 1993      00000000 
 1993      00000000 
 1993      00000000 
 1993      00000000 
 1994              		.globl	adderHexIO_testJunkByteCount
 1997              	adderHexIO_testJunkByteCount:
 1998 00f8 00       		.zero	1
 1999              		.section	.rodata
 2000              	.LC20:
 2001 0350 3A2E2E30 		.string	":..0BE10075820022F7\n"
 2001      42453130 
 2001      30373538 
 2001      32303032 
 2001      3246370A 
 2002 0365 000000   		.align 8
 2003              	.LC21:
 2004 0368 556E6861 		.string	"Unhandled exception in CHECK_EQUAL(HEX_JUNK_BYTE_COUNT, status)"
 2004      6E646C65 
 2004      64206578 
 2004      63657074 
 2004      696F6E20 
 2005              		.text
 2006 0dbf 90       		.align 2
 2007              		.globl	_ZNK27TestHexIO_testJunkByteCount7RunImplEv
 2009              	_ZNK27TestHexIO_testJunkByteCount7RunImplEv:
 2010              	.LFB1148:
 2011              		.loc 4 82 0
 2012              		.cfi_startproc
 2013              		.cfi_personality 0x3,__gxx_personality_v0
 2014              		.cfi_lsda 0x3,.LLSDA1148
 2015 0dc0 55       		pushq	%rbp
 2016              		.cfi_def_cfa_offset 16
 2017              		.cfi_offset 6, -16
 2018 0dc1 4889E5   		movq	%rsp, %rbp
 2019              		.cfi_def_cfa_register 6
 2020 0dc4 53       		pushq	%rbx
 2021 0dc5 4881EC88 		subq	$136, %rsp
 2021      000000
 2022              		.cfi_offset 3, -24
 2023 0dcc 4889BD78 		movq	%rdi, -136(%rbp)
 2023      FFFFFF
 2024              		.loc 4 82 0
 2025 0dd3 64488B04 		movq	%fs:40, %rax
 2025      25280000 
 2025      00
 2026 0ddc 488945E8 		movq	%rax, -24(%rbp)
 2027 0de0 31C0     		xorl	%eax, %eax
 2028              	.LBB14:
  83:testHexIO.cpp **** 	Buffer data;
  84:testHexIO.cpp **** 	BufferStatus status;
  85:testHexIO.cpp **** 	const char *line = ":..0BE10075820022F7\n";
 2029              		.loc 4 85 0
 2030 0de2 48C74598 		movq	$.LC20, -104(%rbp)
 2030      00000000 
  86:testHexIO.cpp **** 	uint8 recordType;
  87:testHexIO.cpp **** 	uint32 seg = 0x00000000;
 2031              		.loc 4 87 0
 2032 0dea C7459000 		movl	$0, -112(%rbp)
 2032      000000
  88:testHexIO.cpp **** 	status = bufInitialise(&data, 1024, 0x00, NULL);
 2033              		.loc 4 88 0
 2034 0df1 488D45A0 		leaq	-96(%rbp), %rax
 2035 0df5 B9000000 		movl	$0, %ecx
 2035      00
 2036 0dfa BA000000 		movl	$0, %edx
 2036      00
 2037 0dff BE000400 		movl	$1024, %esi
 2037      00
 2038 0e04 4889C7   		movq	%rax, %rdi
 2039              	.LEHB83:
 2040 0e07 E8000000 		call	bufInitialise
 2040      00
 2041              	.LEHE83:
 2042 0e0c 89458C   		movl	%eax, -116(%rbp)
 2043              	.LEHB84:
  89:testHexIO.cpp **** 	CHECK_EQUAL(BUF_SUCCESS, status);
 2044              		.loc 4 89 0
 2045 0e0f E8000000 		call	_ZN8UnitTest11CurrentTest7DetailsEv
 2045      00
 2046 0e14 488B08   		movq	(%rax), %rcx
 2047 0e17 488D45C0 		leaq	-64(%rbp), %rax
 2048 0e1b BA590000 		movl	$89, %edx
 2048      00
 2049 0e20 4889CE   		movq	%rcx, %rsi
 2050 0e23 4889C7   		movq	%rax, %rdi
 2051 0e26 E8000000 		call	_ZN8UnitTest11TestDetailsC1ERKS0_i
 2051      00
 2052              		.loc 4 89 0 is_stmt 0 discriminator 2
 2053 0e2b C7459400 		movl	$0, -108(%rbp)
 2053      000000
 2054 0e32 E8000000 		call	_ZN8UnitTest11CurrentTest7ResultsEv
 2054      00
 2055 0e37 488B00   		movq	(%rax), %rax
 2056 0e3a 488D4DC0 		leaq	-64(%rbp), %rcx
 2057 0e3e 488D558C 		leaq	-116(%rbp), %rdx
 2058 0e42 488D7594 		leaq	-108(%rbp), %rsi
 2059 0e46 4889C7   		movq	%rax, %rdi
 2060 0e49 E8000000 		call	_ZN8UnitTest10CheckEqualI12BufferStatusS1_EEvRNS_11TestResultsERKT_RKT0_RKNS_11TestDetailsE
 2060      00
 2061              	.LEHE84:
 2062              	.L112:
  90:testHexIO.cpp **** 	status = bufProcessLine(line, 0, &data, NULL, &seg, &recordType, NULL);
 2063              		.loc 4 90 0 is_stmt 1
 2064 0e4e 4883EC08 		subq	$8, %rsp
 2065 0e52 488D758B 		leaq	-117(%rbp), %rsi
 2066 0e56 488D4D90 		leaq	-112(%rbp), %rcx
 2067 0e5a 488D55A0 		leaq	-96(%rbp), %rdx
 2068 0e5e 488B4598 		movq	-104(%rbp), %rax
 2069 0e62 6A00     		pushq	$0
 2070 0e64 4989F1   		movq	%rsi, %r9
 2071 0e67 4989C8   		movq	%rcx, %r8
 2072 0e6a B9000000 		movl	$0, %ecx
 2072      00
 2073 0e6f BE000000 		movl	$0, %esi
 2073      00
 2074 0e74 4889C7   		movq	%rax, %rdi
 2075              	.LEHB85:
 2076 0e77 E8000000 		call	bufProcessLine
 2076      00
 2077              	.LEHE85:
 2078 0e7c 4883C410 		addq	$16, %rsp
 2079 0e80 89458C   		movl	%eax, -116(%rbp)
 2080              	.LEHB86:
  91:testHexIO.cpp **** 	CHECK_EQUAL(HEX_JUNK_BYTE_COUNT, status);
 2081              		.loc 4 91 0
 2082 0e83 E8000000 		call	_ZN8UnitTest11CurrentTest7DetailsEv
 2082      00
 2083 0e88 488B08   		movq	(%rax), %rcx
 2084 0e8b 488D45C0 		leaq	-64(%rbp), %rax
 2085 0e8f BA5B0000 		movl	$91, %edx
 2085      00
 2086 0e94 4889CE   		movq	%rcx, %rsi
 2087 0e97 4889C7   		movq	%rax, %rdi
 2088 0e9a E8000000 		call	_ZN8UnitTest11TestDetailsC1ERKS0_i
 2088      00
 2089              		.loc 4 91 0 is_stmt 0 discriminator 2
 2090 0e9f C7459408 		movl	$8, -108(%rbp)
 2090      000000
 2091 0ea6 E8000000 		call	_ZN8UnitTest11CurrentTest7ResultsEv
 2091      00
 2092 0eab 488B00   		movq	(%rax), %rax
 2093 0eae 488D4DC0 		leaq	-64(%rbp), %rcx
 2094 0eb2 488D558C 		leaq	-116(%rbp), %rdx
 2095 0eb6 488D7594 		leaq	-108(%rbp), %rsi
 2096 0eba 4889C7   		movq	%rax, %rdi
 2097 0ebd E8000000 		call	_ZN8UnitTest10CheckEqualI12BufferStatusS1_EEvRNS_11TestResultsERKT_RKT0_RKNS_11TestDetailsE
 2097      00
 2098              	.LEHE86:
 2099              	.L115:
  92:testHexIO.cpp **** 	bufDestroy(&data);
 2100              		.loc 4 92 0 is_stmt 1
 2101 0ec2 488D45A0 		leaq	-96(%rbp), %rax
 2102 0ec6 4889C7   		movq	%rax, %rdi
 2103              	.LEHB87:
 2104 0ec9 E8000000 		call	bufDestroy
 2104      00
 2105              	.LEHE87:
 2106              	.LBE14:
  93:testHexIO.cpp **** }
 2107              		.loc 4 93 0
 2108 0ece 488B45E8 		movq	-24(%rbp), %rax
 2109 0ed2 64483304 		xorq	%fs:40, %rax
 2109      25280000 
 2109      00
 2110 0edb 0F84C400 		je	.L116
 2110      0000
 2111 0ee1 E9BA0000 		jmp	.L121
 2111      00
 2112              	.L118:
 2113 0ee6 4889C3   		movq	%rax, %rbx
 2114              	.LBB15:
  89:testHexIO.cpp **** 	status = bufProcessLine(line, 0, &data, NULL, &seg, &recordType, NULL);
 2115              		.loc 4 89 0
 2116 0ee9 E8000000 		call	__cxa_end_catch
 2116      00
 2117 0eee 4889D8   		movq	%rbx, %rax
 2118 0ef1 4889C7   		movq	%rax, %rdi
 2119              	.LEHB88:
 2120 0ef4 E8000000 		call	_Unwind_Resume
 2120      00
 2121              	.LEHE88:
 2122              	.L117:
 2123 0ef9 4889C7   		movq	%rax, %rdi
 2124 0efc E8000000 		call	__cxa_begin_catch
 2124      00
 2125              	.LEHB89:
 2126 0f01 E8000000 		call	_ZN8UnitTest11CurrentTest7DetailsEv
 2126      00
 2127 0f06 488B08   		movq	(%rax), %rcx
 2128 0f09 488D45C0 		leaq	-64(%rbp), %rax
 2129 0f0d BA590000 		movl	$89, %edx
 2129      00
 2130 0f12 4889CE   		movq	%rcx, %rsi
 2131 0f15 4889C7   		movq	%rax, %rdi
 2132 0f18 E8000000 		call	_ZN8UnitTest11TestDetailsC1ERKS0_i
 2132      00
  89:testHexIO.cpp **** 	status = bufProcessLine(line, 0, &data, NULL, &seg, &recordType, NULL);
 2133              		.loc 4 89 0 is_stmt 0 discriminator 10
 2134 0f1d E8000000 		call	_ZN8UnitTest11CurrentTest7ResultsEv
 2134      00
 2135 0f22 488B00   		movq	(%rax), %rax
 2136 0f25 488D4DC0 		leaq	-64(%rbp), %rcx
 2137 0f29 BA000000 		movl	$.LC4, %edx
 2137      00
 2138 0f2e 4889CE   		movq	%rcx, %rsi
 2139 0f31 4889C7   		movq	%rax, %rdi
 2140 0f34 E8000000 		call	_ZN8UnitTest11TestResults13OnTestFailureERKNS_11TestDetailsEPKc
 2140      00
 2141              	.LEHE89:
 2142              	.LEHB90:
  89:testHexIO.cpp **** 	status = bufProcessLine(line, 0, &data, NULL, &seg, &recordType, NULL);
 2143              		.loc 4 89 0 discriminator 14
 2144 0f39 E8000000 		call	__cxa_end_catch
 2144      00
 2145              	.LEHE90:
 2146 0f3e E90BFFFF 		jmp	.L112
 2146      FF
 2147              	.L120:
 2148 0f43 4889C3   		movq	%rax, %rbx
  91:testHexIO.cpp **** 	bufDestroy(&data);
 2149              		.loc 4 91 0 is_stmt 1
 2150 0f46 E8000000 		call	__cxa_end_catch
 2150      00
 2151 0f4b 4889D8   		movq	%rbx, %rax
 2152 0f4e 4889C7   		movq	%rax, %rdi
 2153              	.LEHB91:
 2154 0f51 E8000000 		call	_Unwind_Resume
 2154      00
 2155              	.LEHE91:
 2156              	.L119:
 2157 0f56 4889C7   		movq	%rax, %rdi
 2158 0f59 E8000000 		call	__cxa_begin_catch
 2158      00
 2159              	.LEHB92:
 2160 0f5e E8000000 		call	_ZN8UnitTest11CurrentTest7DetailsEv
 2160      00
 2161 0f63 488B08   		movq	(%rax), %rcx
 2162 0f66 488D45C0 		leaq	-64(%rbp), %rax
 2163 0f6a BA5B0000 		movl	$91, %edx
 2163      00
 2164 0f6f 4889CE   		movq	%rcx, %rsi
 2165 0f72 4889C7   		movq	%rax, %rdi
 2166 0f75 E8000000 		call	_ZN8UnitTest11TestDetailsC1ERKS0_i
 2166      00
  91:testHexIO.cpp **** 	bufDestroy(&data);
 2167              		.loc 4 91 0 is_stmt 0 discriminator 10
 2168 0f7a E8000000 		call	_ZN8UnitTest11CurrentTest7ResultsEv
 2168      00
 2169 0f7f 488B00   		movq	(%rax), %rax
 2170 0f82 488D4DC0 		leaq	-64(%rbp), %rcx
 2171 0f86 BA000000 		movl	$.LC21, %edx
 2171      00
 2172 0f8b 4889CE   		movq	%rcx, %rsi
 2173 0f8e 4889C7   		movq	%rax, %rdi
 2174 0f91 E8000000 		call	_ZN8UnitTest11TestResults13OnTestFailureERKNS_11TestDetailsEPKc
 2174      00
 2175              	.LEHE92:
 2176              	.LEHB93:
  91:testHexIO.cpp **** 	bufDestroy(&data);
 2177              		.loc 4 91 0 discriminator 14
 2178 0f96 E8000000 		call	__cxa_end_catch
 2178      00
 2179              	.LEHE93:
 2180 0f9b E922FFFF 		jmp	.L115
 2180      FF
 2181              	.L121:
 2182              	.LBE15:
 2183              		.loc 4 93 0 is_stmt 1
 2184 0fa0 E8000000 		call	__stack_chk_fail
 2184      00
 2185              	.L116:
 2186 0fa5 488B5DF8 		movq	-8(%rbp), %rbx
 2187 0fa9 C9       		leave
 2188              		.cfi_def_cfa 7, 8
 2189 0faa C3       		ret
 2190              		.cfi_endproc
 2191              	.LFE1148:
 2192              		.section	.gcc_except_table
 2193              		.align 4
 2194              	.LLSDA1148:
 2195 01d0 FF       		.byte	0xff
 2196 01d1 03       		.byte	0x3
 2197 01d2 41       		.uleb128 .LLSDATT1148-.LLSDATTD1148
 2198              	.LLSDATTD1148:
 2199 01d3 01       		.byte	0x1
 2200 01d4 39       		.uleb128 .LLSDACSE1148-.LLSDACSB1148
 2201              	.LLSDACSB1148:
 2202 01d5 47       		.uleb128 .LEHB83-.LFB1148
 2203 01d6 05       		.uleb128 .LEHE83-.LEHB83
 2204 01d7 00       		.uleb128 0
 2205 01d8 00       		.uleb128 0
 2206 01d9 4F       		.uleb128 .LEHB84-.LFB1148
 2207 01da 3F       		.uleb128 .LEHE84-.LEHB84
 2208 01db B902     		.uleb128 .L117-.LFB1148
 2209 01dd 01       		.uleb128 0x1
 2210 01de B701     		.uleb128 .LEHB85-.LFB1148
 2211 01e0 05       		.uleb128 .LEHE85-.LEHB85
 2212 01e1 00       		.uleb128 0
 2213 01e2 00       		.uleb128 0
 2214 01e3 C301     		.uleb128 .LEHB86-.LFB1148
 2215 01e5 3F       		.uleb128 .LEHE86-.LEHB86
 2216 01e6 9603     		.uleb128 .L119-.LFB1148
 2217 01e8 01       		.uleb128 0x1
 2218 01e9 8902     		.uleb128 .LEHB87-.LFB1148
 2219 01eb 05       		.uleb128 .LEHE87-.LEHB87
 2220 01ec 00       		.uleb128 0
 2221 01ed 00       		.uleb128 0
 2222 01ee B402     		.uleb128 .LEHB88-.LFB1148
 2223 01f0 05       		.uleb128 .LEHE88-.LEHB88
 2224 01f1 00       		.uleb128 0
 2225 01f2 00       		.uleb128 0
 2226 01f3 C102     		.uleb128 .LEHB89-.LFB1148
 2227 01f5 38       		.uleb128 .LEHE89-.LEHB89
 2228 01f6 A602     		.uleb128 .L118-.LFB1148
 2229 01f8 00       		.uleb128 0
 2230 01f9 F902     		.uleb128 .LEHB90-.LFB1148
 2231 01fb 05       		.uleb128 .LEHE90-.LEHB90
 2232 01fc 00       		.uleb128 0
 2233 01fd 00       		.uleb128 0
 2234 01fe 9103     		.uleb128 .LEHB91-.LFB1148
 2235 0200 05       		.uleb128 .LEHE91-.LEHB91
 2236 0201 00       		.uleb128 0
 2237 0202 00       		.uleb128 0
 2238 0203 9E03     		.uleb128 .LEHB92-.LFB1148
 2239 0205 38       		.uleb128 .LEHE92-.LEHB92
 2240 0206 8303     		.uleb128 .L120-.LFB1148
 2241 0208 00       		.uleb128 0
 2242 0209 D603     		.uleb128 .LEHB93-.LFB1148
 2243 020b 05       		.uleb128 .LEHE93-.LEHB93
 2244 020c 00       		.uleb128 0
 2245 020d 00       		.uleb128 0
 2246              	.LLSDACSE1148:
 2247 020e 01       		.byte	0x1
 2248 020f 00       		.byte	0
 2249              		.align 4
 2250 0210 00000000 		.long	0
 2251              	
 2252              	.LLSDATT1148:
 2253              		.text
 2255              		.section	.rodata
 2256              	.LC22:
 2257 03a8 48657849 		.string	"HexIO_testJunkAddrMsb"
 2257      4F5F7465 
 2257      73744A75 
 2257      6E6B4164 
 2257      64724D73 
 2258              		.section	.text._ZN25TestHexIO_testJunkAddrMsbC2Ev,"axG",@progbits,_ZN25TestHexIO_testJunkAddrMsbC5
 2259              		.align 2
 2260              		.weak	_ZN25TestHexIO_testJunkAddrMsbC2Ev
 2262              	_ZN25TestHexIO_testJunkAddrMsbC2Ev:
 2263              	.LFB1150:
  94:testHexIO.cpp **** 
  95:testHexIO.cpp **** TEST(HexIO_testJunkAddrMsb) {
 2264              		.loc 4 95 0
 2265              		.cfi_startproc
 2266 0000 55       		pushq	%rbp
 2267              		.cfi_def_cfa_offset 16
 2268              		.cfi_offset 6, -16
 2269 0001 4889E5   		movq	%rsp, %rbp
 2270              		.cfi_def_cfa_register 6
 2271 0004 4883EC10 		subq	$16, %rsp
 2272 0008 48897DF8 		movq	%rdi, -8(%rbp)
 2273              	.LBB16:
 2274              		.loc 4 95 0
 2275 000c E8000000 		call	_ZN13UnitTestSuite12GetSuiteNameEv
 2275      00
 2276 0011 4889C2   		movq	%rax, %rdx
 2277 0014 488B45F8 		movq	-8(%rbp), %rax
 2278 0018 41B85F00 		movl	$95, %r8d
 2278      0000
 2279 001e B9000000 		movl	$.LC1, %ecx
 2279      00
 2280 0023 BE000000 		movl	$.LC22, %esi
 2280      00
 2281 0028 4889C7   		movq	%rax, %rdi
 2282 002b E8000000 		call	_ZN8UnitTest4TestC2EPKcS2_S2_i
 2282      00
 2283 0030 488B45F8 		movq	-8(%rbp), %rax
 2284 0034 48C70000 		movq	$_ZTV25TestHexIO_testJunkAddrMsb+16, (%rax)
 2284      000000
 2285              	.LBE16:
 2286 003b C9       		leave
 2287              		.cfi_def_cfa 7, 8
 2288 003c C3       		ret
 2289              		.cfi_endproc
 2290              	.LFE1150:
 2292              		.weak	_ZN25TestHexIO_testJunkAddrMsbC1Ev
 2293              		.set	_ZN25TestHexIO_testJunkAddrMsbC1Ev,_ZN25TestHexIO_testJunkAddrMsbC2Ev
 2294              		.globl	testHexIO_testJunkAddrMsbInstance
 2295              		.bss
 2296 00f9 00000000 		.align 32
 2296      000000
 2299              	testHexIO_testJunkAddrMsbInstance:
 2300 0100 00000000 		.zero	56
 2300      00000000 
 2300      00000000 
 2300      00000000 
 2300      00000000 
 2301              		.globl	adderHexIO_testJunkAddrMsb
 2304              	adderHexIO_testJunkAddrMsb:
 2305 0138 00       		.zero	1
 2306              		.section	.rodata
 2307              	.LC23:
 2308 03be 3A30342E 		.string	":04..E10075820022F7\n"
 2308      2E453130 
 2308      30373538 
 2308      32303032 
 2308      3246370A 
 2309 03d3 00000000 		.align 8
 2309      00
 2310              	.LC24:
 2311 03d8 556E6861 		.string	"Unhandled exception in CHECK_EQUAL(HEX_JUNK_ADDR_MSB, status)"
 2311      6E646C65 
 2311      64206578 
 2311      63657074 
 2311      696F6E20 
 2312              		.text
 2313 0fab 90       		.align 2
 2314              		.globl	_ZNK25TestHexIO_testJunkAddrMsb7RunImplEv
 2316              	_ZNK25TestHexIO_testJunkAddrMsb7RunImplEv:
 2317              	.LFB1152:
 2318              		.loc 4 95 0
 2319              		.cfi_startproc
 2320              		.cfi_personality 0x3,__gxx_personality_v0
 2321              		.cfi_lsda 0x3,.LLSDA1152
 2322 0fac 55       		pushq	%rbp
 2323              		.cfi_def_cfa_offset 16
 2324              		.cfi_offset 6, -16
 2325 0fad 4889E5   		movq	%rsp, %rbp
 2326              		.cfi_def_cfa_register 6
 2327 0fb0 53       		pushq	%rbx
 2328 0fb1 4881EC88 		subq	$136, %rsp
 2328      000000
 2329              		.cfi_offset 3, -24
 2330 0fb8 4889BD78 		movq	%rdi, -136(%rbp)
 2330      FFFFFF
 2331              		.loc 4 95 0
 2332 0fbf 64488B04 		movq	%fs:40, %rax
 2332      25280000 
 2332      00
 2333 0fc8 488945E8 		movq	%rax, -24(%rbp)
 2334 0fcc 31C0     		xorl	%eax, %eax
 2335              	.LBB17:
  96:testHexIO.cpp **** 	Buffer data;
  97:testHexIO.cpp **** 	BufferStatus status;
  98:testHexIO.cpp **** 	const char *line = ":04..E10075820022F7\n";
 2336              		.loc 4 98 0
 2337 0fce 48C74598 		movq	$.LC23, -104(%rbp)
 2337      00000000 
  99:testHexIO.cpp **** 	uint8 recordType;
 100:testHexIO.cpp **** 	uint32 seg = 0x00000000;
 2338              		.loc 4 100 0
 2339 0fd6 C7459000 		movl	$0, -112(%rbp)
 2339      000000
 101:testHexIO.cpp **** 	status = bufInitialise(&data, 1024, 0x00, NULL);
 2340              		.loc 4 101 0
 2341 0fdd 488D45A0 		leaq	-96(%rbp), %rax
 2342 0fe1 B9000000 		movl	$0, %ecx
 2342      00
 2343 0fe6 BA000000 		movl	$0, %edx
 2343      00
 2344 0feb BE000400 		movl	$1024, %esi
 2344      00
 2345 0ff0 4889C7   		movq	%rax, %rdi
 2346              	.LEHB94:
 2347 0ff3 E8000000 		call	bufInitialise
 2347      00
 2348              	.LEHE94:
 2349 0ff8 89458C   		movl	%eax, -116(%rbp)
 2350              	.LEHB95:
 102:testHexIO.cpp **** 	CHECK_EQUAL(BUF_SUCCESS, status);
 2351              		.loc 4 102 0
 2352 0ffb E8000000 		call	_ZN8UnitTest11CurrentTest7DetailsEv
 2352      00
 2353 1000 488B08   		movq	(%rax), %rcx
 2354 1003 488D45C0 		leaq	-64(%rbp), %rax
 2355 1007 BA660000 		movl	$102, %edx
 2355      00
 2356 100c 4889CE   		movq	%rcx, %rsi
 2357 100f 4889C7   		movq	%rax, %rdi
 2358 1012 E8000000 		call	_ZN8UnitTest11TestDetailsC1ERKS0_i
 2358      00
 2359              		.loc 4 102 0 is_stmt 0 discriminator 2
 2360 1017 C7459400 		movl	$0, -108(%rbp)
 2360      000000
 2361 101e E8000000 		call	_ZN8UnitTest11CurrentTest7ResultsEv
 2361      00
 2362 1023 488B00   		movq	(%rax), %rax
 2363 1026 488D4DC0 		leaq	-64(%rbp), %rcx
 2364 102a 488D558C 		leaq	-116(%rbp), %rdx
 2365 102e 488D7594 		leaq	-108(%rbp), %rsi
 2366 1032 4889C7   		movq	%rax, %rdi
 2367 1035 E8000000 		call	_ZN8UnitTest10CheckEqualI12BufferStatusS1_EEvRNS_11TestResultsERKT_RKT0_RKNS_11TestDetailsE
 2367      00
 2368              	.LEHE95:
 2369              	.L126:
 103:testHexIO.cpp **** 	status = bufProcessLine(line, 0, &data, NULL, &seg, &recordType, NULL);
 2370              		.loc 4 103 0 is_stmt 1
 2371 103a 4883EC08 		subq	$8, %rsp
 2372 103e 488D758B 		leaq	-117(%rbp), %rsi
 2373 1042 488D4D90 		leaq	-112(%rbp), %rcx
 2374 1046 488D55A0 		leaq	-96(%rbp), %rdx
 2375 104a 488B4598 		movq	-104(%rbp), %rax
 2376 104e 6A00     		pushq	$0
 2377 1050 4989F1   		movq	%rsi, %r9
 2378 1053 4989C8   		movq	%rcx, %r8
 2379 1056 B9000000 		movl	$0, %ecx
 2379      00
 2380 105b BE000000 		movl	$0, %esi
 2380      00
 2381 1060 4889C7   		movq	%rax, %rdi
 2382              	.LEHB96:
 2383 1063 E8000000 		call	bufProcessLine
 2383      00
 2384              	.LEHE96:
 2385 1068 4883C410 		addq	$16, %rsp
 2386 106c 89458C   		movl	%eax, -116(%rbp)
 2387              	.LEHB97:
 104:testHexIO.cpp **** 	CHECK_EQUAL(HEX_JUNK_ADDR_MSB, status);
 2388              		.loc 4 104 0
 2389 106f E8000000 		call	_ZN8UnitTest11CurrentTest7DetailsEv
 2389      00
 2390 1074 488B08   		movq	(%rax), %rcx
 2391 1077 488D45C0 		leaq	-64(%rbp), %rax
 2392 107b BA680000 		movl	$104, %edx
 2392      00
 2393 1080 4889CE   		movq	%rcx, %rsi
 2394 1083 4889C7   		movq	%rax, %rdi
 2395 1086 E8000000 		call	_ZN8UnitTest11TestDetailsC1ERKS0_i
 2395      00
 2396              		.loc 4 104 0 is_stmt 0 discriminator 2
 2397 108b C7459409 		movl	$9, -108(%rbp)
 2397      000000
 2398 1092 E8000000 		call	_ZN8UnitTest11CurrentTest7ResultsEv
 2398      00
 2399 1097 488B00   		movq	(%rax), %rax
 2400 109a 488D4DC0 		leaq	-64(%rbp), %rcx
 2401 109e 488D558C 		leaq	-116(%rbp), %rdx
 2402 10a2 488D7594 		leaq	-108(%rbp), %rsi
 2403 10a6 4889C7   		movq	%rax, %rdi
 2404 10a9 E8000000 		call	_ZN8UnitTest10CheckEqualI12BufferStatusS1_EEvRNS_11TestResultsERKT_RKT0_RKNS_11TestDetailsE
 2404      00
 2405              	.LEHE97:
 2406              	.L129:
 105:testHexIO.cpp **** 	bufDestroy(&data);
 2407              		.loc 4 105 0 is_stmt 1
 2408 10ae 488D45A0 		leaq	-96(%rbp), %rax
 2409 10b2 4889C7   		movq	%rax, %rdi
 2410              	.LEHB98:
 2411 10b5 E8000000 		call	bufDestroy
 2411      00
 2412              	.LEHE98:
 2413              	.LBE17:
 106:testHexIO.cpp **** }
 2414              		.loc 4 106 0
 2415 10ba 488B45E8 		movq	-24(%rbp), %rax
 2416 10be 64483304 		xorq	%fs:40, %rax
 2416      25280000 
 2416      00
 2417 10c7 0F84C400 		je	.L130
 2417      0000
 2418 10cd E9BA0000 		jmp	.L135
 2418      00
 2419              	.L132:
 2420 10d2 4889C3   		movq	%rax, %rbx
 2421              	.LBB18:
 102:testHexIO.cpp **** 	status = bufProcessLine(line, 0, &data, NULL, &seg, &recordType, NULL);
 2422              		.loc 4 102 0
 2423 10d5 E8000000 		call	__cxa_end_catch
 2423      00
 2424 10da 4889D8   		movq	%rbx, %rax
 2425 10dd 4889C7   		movq	%rax, %rdi
 2426              	.LEHB99:
 2427 10e0 E8000000 		call	_Unwind_Resume
 2427      00
 2428              	.LEHE99:
 2429              	.L131:
 2430 10e5 4889C7   		movq	%rax, %rdi
 2431 10e8 E8000000 		call	__cxa_begin_catch
 2431      00
 2432              	.LEHB100:
 2433 10ed E8000000 		call	_ZN8UnitTest11CurrentTest7DetailsEv
 2433      00
 2434 10f2 488B08   		movq	(%rax), %rcx
 2435 10f5 488D45C0 		leaq	-64(%rbp), %rax
 2436 10f9 BA660000 		movl	$102, %edx
 2436      00
 2437 10fe 4889CE   		movq	%rcx, %rsi
 2438 1101 4889C7   		movq	%rax, %rdi
 2439 1104 E8000000 		call	_ZN8UnitTest11TestDetailsC1ERKS0_i
 2439      00
 102:testHexIO.cpp **** 	status = bufProcessLine(line, 0, &data, NULL, &seg, &recordType, NULL);
 2440              		.loc 4 102 0 is_stmt 0 discriminator 10
 2441 1109 E8000000 		call	_ZN8UnitTest11CurrentTest7ResultsEv
 2441      00
 2442 110e 488B00   		movq	(%rax), %rax
 2443 1111 488D4DC0 		leaq	-64(%rbp), %rcx
 2444 1115 BA000000 		movl	$.LC4, %edx
 2444      00
 2445 111a 4889CE   		movq	%rcx, %rsi
 2446 111d 4889C7   		movq	%rax, %rdi
 2447 1120 E8000000 		call	_ZN8UnitTest11TestResults13OnTestFailureERKNS_11TestDetailsEPKc
 2447      00
 2448              	.LEHE100:
 2449              	.LEHB101:
 102:testHexIO.cpp **** 	status = bufProcessLine(line, 0, &data, NULL, &seg, &recordType, NULL);
 2450              		.loc 4 102 0 discriminator 14
 2451 1125 E8000000 		call	__cxa_end_catch
 2451      00
 2452              	.LEHE101:
 2453 112a E90BFFFF 		jmp	.L126
 2453      FF
 2454              	.L134:
 2455 112f 4889C3   		movq	%rax, %rbx
 104:testHexIO.cpp **** 	bufDestroy(&data);
 2456              		.loc 4 104 0 is_stmt 1
 2457 1132 E8000000 		call	__cxa_end_catch
 2457      00
 2458 1137 4889D8   		movq	%rbx, %rax
 2459 113a 4889C7   		movq	%rax, %rdi
 2460              	.LEHB102:
 2461 113d E8000000 		call	_Unwind_Resume
 2461      00
 2462              	.LEHE102:
 2463              	.L133:
 2464 1142 4889C7   		movq	%rax, %rdi
 2465 1145 E8000000 		call	__cxa_begin_catch
 2465      00
 2466              	.LEHB103:
 2467 114a E8000000 		call	_ZN8UnitTest11CurrentTest7DetailsEv
 2467      00
 2468 114f 488B08   		movq	(%rax), %rcx
 2469 1152 488D45C0 		leaq	-64(%rbp), %rax
 2470 1156 BA680000 		movl	$104, %edx
 2470      00
 2471 115b 4889CE   		movq	%rcx, %rsi
 2472 115e 4889C7   		movq	%rax, %rdi
 2473 1161 E8000000 		call	_ZN8UnitTest11TestDetailsC1ERKS0_i
 2473      00
 104:testHexIO.cpp **** 	bufDestroy(&data);
 2474              		.loc 4 104 0 is_stmt 0 discriminator 10
 2475 1166 E8000000 		call	_ZN8UnitTest11CurrentTest7ResultsEv
 2475      00
 2476 116b 488B00   		movq	(%rax), %rax
 2477 116e 488D4DC0 		leaq	-64(%rbp), %rcx
 2478 1172 BA000000 		movl	$.LC24, %edx
 2478      00
 2479 1177 4889CE   		movq	%rcx, %rsi
 2480 117a 4889C7   		movq	%rax, %rdi
 2481 117d E8000000 		call	_ZN8UnitTest11TestResults13OnTestFailureERKNS_11TestDetailsEPKc
 2481      00
 2482              	.LEHE103:
 2483              	.LEHB104:
 104:testHexIO.cpp **** 	bufDestroy(&data);
 2484              		.loc 4 104 0 discriminator 14
 2485 1182 E8000000 		call	__cxa_end_catch
 2485      00
 2486              	.LEHE104:
 2487 1187 E922FFFF 		jmp	.L129
 2487      FF
 2488              	.L135:
 2489              	.LBE18:
 2490              		.loc 4 106 0 is_stmt 1
 2491 118c E8000000 		call	__stack_chk_fail
 2491      00
 2492              	.L130:
 2493 1191 488B5DF8 		movq	-8(%rbp), %rbx
 2494 1195 C9       		leave
 2495              		.cfi_def_cfa 7, 8
 2496 1196 C3       		ret
 2497              		.cfi_endproc
 2498              	.LFE1152:
 2499              		.section	.gcc_except_table
 2500              		.align 4
 2501              	.LLSDA1152:
 2502 0214 FF       		.byte	0xff
 2503 0215 03       		.byte	0x3
 2504 0216 41       		.uleb128 .LLSDATT1152-.LLSDATTD1152
 2505              	.LLSDATTD1152:
 2506 0217 01       		.byte	0x1
 2507 0218 39       		.uleb128 .LLSDACSE1152-.LLSDACSB1152
 2508              	.LLSDACSB1152:
 2509 0219 47       		.uleb128 .LEHB94-.LFB1152
 2510 021a 05       		.uleb128 .LEHE94-.LEHB94
 2511 021b 00       		.uleb128 0
 2512 021c 00       		.uleb128 0
 2513 021d 4F       		.uleb128 .LEHB95-.LFB1152
 2514 021e 3F       		.uleb128 .LEHE95-.LEHB95
 2515 021f B902     		.uleb128 .L131-.LFB1152
 2516 0221 01       		.uleb128 0x1
 2517 0222 B701     		.uleb128 .LEHB96-.LFB1152
 2518 0224 05       		.uleb128 .LEHE96-.LEHB96
 2519 0225 00       		.uleb128 0
 2520 0226 00       		.uleb128 0
 2521 0227 C301     		.uleb128 .LEHB97-.LFB1152
 2522 0229 3F       		.uleb128 .LEHE97-.LEHB97
 2523 022a 9603     		.uleb128 .L133-.LFB1152
 2524 022c 01       		.uleb128 0x1
 2525 022d 8902     		.uleb128 .LEHB98-.LFB1152
 2526 022f 05       		.uleb128 .LEHE98-.LEHB98
 2527 0230 00       		.uleb128 0
 2528 0231 00       		.uleb128 0
 2529 0232 B402     		.uleb128 .LEHB99-.LFB1152
 2530 0234 05       		.uleb128 .LEHE99-.LEHB99
 2531 0235 00       		.uleb128 0
 2532 0236 00       		.uleb128 0
 2533 0237 C102     		.uleb128 .LEHB100-.LFB1152
 2534 0239 38       		.uleb128 .LEHE100-.LEHB100
 2535 023a A602     		.uleb128 .L132-.LFB1152
 2536 023c 00       		.uleb128 0
 2537 023d F902     		.uleb128 .LEHB101-.LFB1152
 2538 023f 05       		.uleb128 .LEHE101-.LEHB101
 2539 0240 00       		.uleb128 0
 2540 0241 00       		.uleb128 0
 2541 0242 9103     		.uleb128 .LEHB102-.LFB1152
 2542 0244 05       		.uleb128 .LEHE102-.LEHB102
 2543 0245 00       		.uleb128 0
 2544 0246 00       		.uleb128 0
 2545 0247 9E03     		.uleb128 .LEHB103-.LFB1152
 2546 0249 38       		.uleb128 .LEHE103-.LEHB103
 2547 024a 8303     		.uleb128 .L134-.LFB1152
 2548 024c 00       		.uleb128 0
 2549 024d D603     		.uleb128 .LEHB104-.LFB1152
 2550 024f 05       		.uleb128 .LEHE104-.LEHB104
 2551 0250 00       		.uleb128 0
 2552 0251 00       		.uleb128 0
 2553              	.LLSDACSE1152:
 2554 0252 01       		.byte	0x1
 2555 0253 00       		.byte	0
 2556              		.align 4
 2557 0254 00000000 		.long	0
 2558              	
 2559              	.LLSDATT1152:
 2560              		.text
 2562              		.section	.rodata
 2563              	.LC25:
 2564 0416 48657849 		.string	"HexIO_testJunkAddrLsb"
 2564      4F5F7465 
 2564      73744A75 
 2564      6E6B4164 
 2564      64724C73 
 2565              		.section	.text._ZN25TestHexIO_testJunkAddrLsbC2Ev,"axG",@progbits,_ZN25TestHexIO_testJunkAddrLsbC5
 2566              		.align 2
 2567              		.weak	_ZN25TestHexIO_testJunkAddrLsbC2Ev
 2569              	_ZN25TestHexIO_testJunkAddrLsbC2Ev:
 2570              	.LFB1154:
 107:testHexIO.cpp **** 
 108:testHexIO.cpp **** TEST(HexIO_testJunkAddrLsb) {
 2571              		.loc 4 108 0
 2572              		.cfi_startproc
 2573 0000 55       		pushq	%rbp
 2574              		.cfi_def_cfa_offset 16
 2575              		.cfi_offset 6, -16
 2576 0001 4889E5   		movq	%rsp, %rbp
 2577              		.cfi_def_cfa_register 6
 2578 0004 4883EC10 		subq	$16, %rsp
 2579 0008 48897DF8 		movq	%rdi, -8(%rbp)
 2580              	.LBB19:
 2581              		.loc 4 108 0
 2582 000c E8000000 		call	_ZN13UnitTestSuite12GetSuiteNameEv
 2582      00
 2583 0011 4889C2   		movq	%rax, %rdx
 2584 0014 488B45F8 		movq	-8(%rbp), %rax
 2585 0018 41B86C00 		movl	$108, %r8d
 2585      0000
 2586 001e B9000000 		movl	$.LC1, %ecx
 2586      00
 2587 0023 BE000000 		movl	$.LC25, %esi
 2587      00
 2588 0028 4889C7   		movq	%rax, %rdi
 2589 002b E8000000 		call	_ZN8UnitTest4TestC2EPKcS2_S2_i
 2589      00
 2590 0030 488B45F8 		movq	-8(%rbp), %rax
 2591 0034 48C70000 		movq	$_ZTV25TestHexIO_testJunkAddrLsb+16, (%rax)
 2591      000000
 2592              	.LBE19:
 2593 003b C9       		leave
 2594              		.cfi_def_cfa 7, 8
 2595 003c C3       		ret
 2596              		.cfi_endproc
 2597              	.LFE1154:
 2599              		.weak	_ZN25TestHexIO_testJunkAddrLsbC1Ev
 2600              		.set	_ZN25TestHexIO_testJunkAddrLsbC1Ev,_ZN25TestHexIO_testJunkAddrLsbC2Ev
 2601              		.globl	testHexIO_testJunkAddrLsbInstance
 2602              		.bss
 2603 0139 00000000 		.align 32
 2603      000000
 2606              	testHexIO_testJunkAddrLsbInstance:
 2607 0140 00000000 		.zero	56
 2607      00000000 
 2607      00000000 
 2607      00000000 
 2607      00000000 
 2608              		.globl	adderHexIO_testJunkAddrLsb
 2611              	adderHexIO_testJunkAddrLsb:
 2612 0178 00       		.zero	1
 2613              		.section	.rodata
 2614              	.LC26:
 2615 042c 3A303430 		.string	":040B..0075820022F7\n"
 2615      422E2E30 
 2615      30373538 
 2615      32303032 
 2615      3246370A 
 2616 0441 00000000 		.align 8
 2616      000000
 2617              	.LC27:
 2618 0448 556E6861 		.string	"Unhandled exception in CHECK_EQUAL(HEX_JUNK_ADDR_LSB, status)"
 2618      6E646C65 
 2618      64206578 
 2618      63657074 
 2618      696F6E20 
 2619              		.text
 2620 1197 90       		.align 2
 2621              		.globl	_ZNK25TestHexIO_testJunkAddrLsb7RunImplEv
 2623              	_ZNK25TestHexIO_testJunkAddrLsb7RunImplEv:
 2624              	.LFB1156:
 2625              		.loc 4 108 0
 2626              		.cfi_startproc
 2627              		.cfi_personality 0x3,__gxx_personality_v0
 2628              		.cfi_lsda 0x3,.LLSDA1156
 2629 1198 55       		pushq	%rbp
 2630              		.cfi_def_cfa_offset 16
 2631              		.cfi_offset 6, -16
 2632 1199 4889E5   		movq	%rsp, %rbp
 2633              		.cfi_def_cfa_register 6
 2634 119c 53       		pushq	%rbx
 2635 119d 4881EC88 		subq	$136, %rsp
 2635      000000
 2636              		.cfi_offset 3, -24
 2637 11a4 4889BD78 		movq	%rdi, -136(%rbp)
 2637      FFFFFF
 2638              		.loc 4 108 0
 2639 11ab 64488B04 		movq	%fs:40, %rax
 2639      25280000 
 2639      00
 2640 11b4 488945E8 		movq	%rax, -24(%rbp)
 2641 11b8 31C0     		xorl	%eax, %eax
 2642              	.LBB20:
 109:testHexIO.cpp **** 	Buffer data;
 110:testHexIO.cpp **** 	BufferStatus status;
 111:testHexIO.cpp **** 	const char *line = ":040B..0075820022F7\n";
 2643              		.loc 4 111 0
 2644 11ba 48C74598 		movq	$.LC26, -104(%rbp)
 2644      00000000 
 112:testHexIO.cpp **** 	uint8 recordType;
 113:testHexIO.cpp **** 	uint32 seg = 0x00000000;
 2645              		.loc 4 113 0
 2646 11c2 C7459000 		movl	$0, -112(%rbp)
 2646      000000
 114:testHexIO.cpp **** 	status = bufInitialise(&data, 1024, 0x00, NULL);
 2647              		.loc 4 114 0
 2648 11c9 488D45A0 		leaq	-96(%rbp), %rax
 2649 11cd B9000000 		movl	$0, %ecx
 2649      00
 2650 11d2 BA000000 		movl	$0, %edx
 2650      00
 2651 11d7 BE000400 		movl	$1024, %esi
 2651      00
 2652 11dc 4889C7   		movq	%rax, %rdi
 2653              	.LEHB105:
 2654 11df E8000000 		call	bufInitialise
 2654      00
 2655              	.LEHE105:
 2656 11e4 89458C   		movl	%eax, -116(%rbp)
 2657              	.LEHB106:
 115:testHexIO.cpp **** 	CHECK_EQUAL(BUF_SUCCESS, status);
 2658              		.loc 4 115 0
 2659 11e7 E8000000 		call	_ZN8UnitTest11CurrentTest7DetailsEv
 2659      00
 2660 11ec 488B08   		movq	(%rax), %rcx
 2661 11ef 488D45C0 		leaq	-64(%rbp), %rax
 2662 11f3 BA730000 		movl	$115, %edx
 2662      00
 2663 11f8 4889CE   		movq	%rcx, %rsi
 2664 11fb 4889C7   		movq	%rax, %rdi
 2665 11fe E8000000 		call	_ZN8UnitTest11TestDetailsC1ERKS0_i
 2665      00
 2666              		.loc 4 115 0 is_stmt 0 discriminator 2
 2667 1203 C7459400 		movl	$0, -108(%rbp)
 2667      000000
 2668 120a E8000000 		call	_ZN8UnitTest11CurrentTest7ResultsEv
 2668      00
 2669 120f 488B00   		movq	(%rax), %rax
 2670 1212 488D4DC0 		leaq	-64(%rbp), %rcx
 2671 1216 488D558C 		leaq	-116(%rbp), %rdx
 2672 121a 488D7594 		leaq	-108(%rbp), %rsi
 2673 121e 4889C7   		movq	%rax, %rdi
 2674 1221 E8000000 		call	_ZN8UnitTest10CheckEqualI12BufferStatusS1_EEvRNS_11TestResultsERKT_RKT0_RKNS_11TestDetailsE
 2674      00
 2675              	.LEHE106:
 2676              	.L140:
 116:testHexIO.cpp **** 	status = bufProcessLine(line, 0, &data, NULL, &seg, &recordType, NULL);
 2677              		.loc 4 116 0 is_stmt 1
 2678 1226 4883EC08 		subq	$8, %rsp
 2679 122a 488D758B 		leaq	-117(%rbp), %rsi
 2680 122e 488D4D90 		leaq	-112(%rbp), %rcx
 2681 1232 488D55A0 		leaq	-96(%rbp), %rdx
 2682 1236 488B4598 		movq	-104(%rbp), %rax
 2683 123a 6A00     		pushq	$0
 2684 123c 4989F1   		movq	%rsi, %r9
 2685 123f 4989C8   		movq	%rcx, %r8
 2686 1242 B9000000 		movl	$0, %ecx
 2686      00
 2687 1247 BE000000 		movl	$0, %esi
 2687      00
 2688 124c 4889C7   		movq	%rax, %rdi
 2689              	.LEHB107:
 2690 124f E8000000 		call	bufProcessLine
 2690      00
 2691              	.LEHE107:
 2692 1254 4883C410 		addq	$16, %rsp
 2693 1258 89458C   		movl	%eax, -116(%rbp)
 2694              	.LEHB108:
 117:testHexIO.cpp **** 	CHECK_EQUAL(HEX_JUNK_ADDR_LSB, status);
 2695              		.loc 4 117 0
 2696 125b E8000000 		call	_ZN8UnitTest11CurrentTest7DetailsEv
 2696      00
 2697 1260 488B08   		movq	(%rax), %rcx
 2698 1263 488D45C0 		leaq	-64(%rbp), %rax
 2699 1267 BA750000 		movl	$117, %edx
 2699      00
 2700 126c 4889CE   		movq	%rcx, %rsi
 2701 126f 4889C7   		movq	%rax, %rdi
 2702 1272 E8000000 		call	_ZN8UnitTest11TestDetailsC1ERKS0_i
 2702      00
 2703              		.loc 4 117 0 is_stmt 0 discriminator 2
 2704 1277 C745940A 		movl	$10, -108(%rbp)
 2704      000000
 2705 127e E8000000 		call	_ZN8UnitTest11CurrentTest7ResultsEv
 2705      00
 2706 1283 488B00   		movq	(%rax), %rax
 2707 1286 488D4DC0 		leaq	-64(%rbp), %rcx
 2708 128a 488D558C 		leaq	-116(%rbp), %rdx
 2709 128e 488D7594 		leaq	-108(%rbp), %rsi
 2710 1292 4889C7   		movq	%rax, %rdi
 2711 1295 E8000000 		call	_ZN8UnitTest10CheckEqualI12BufferStatusS1_EEvRNS_11TestResultsERKT_RKT0_RKNS_11TestDetailsE
 2711      00
 2712              	.LEHE108:
 2713              	.L143:
 118:testHexIO.cpp **** 	bufDestroy(&data);
 2714              		.loc 4 118 0 is_stmt 1
 2715 129a 488D45A0 		leaq	-96(%rbp), %rax
 2716 129e 4889C7   		movq	%rax, %rdi
 2717              	.LEHB109:
 2718 12a1 E8000000 		call	bufDestroy
 2718      00
 2719              	.LEHE109:
 2720              	.LBE20:
 119:testHexIO.cpp **** }
 2721              		.loc 4 119 0
 2722 12a6 488B45E8 		movq	-24(%rbp), %rax
 2723 12aa 64483304 		xorq	%fs:40, %rax
 2723      25280000 
 2723      00
 2724 12b3 0F84C400 		je	.L144
 2724      0000
 2725 12b9 E9BA0000 		jmp	.L149
 2725      00
 2726              	.L146:
 2727 12be 4889C3   		movq	%rax, %rbx
 2728              	.LBB21:
 115:testHexIO.cpp **** 	status = bufProcessLine(line, 0, &data, NULL, &seg, &recordType, NULL);
 2729              		.loc 4 115 0
 2730 12c1 E8000000 		call	__cxa_end_catch
 2730      00
 2731 12c6 4889D8   		movq	%rbx, %rax
 2732 12c9 4889C7   		movq	%rax, %rdi
 2733              	.LEHB110:
 2734 12cc E8000000 		call	_Unwind_Resume
 2734      00
 2735              	.LEHE110:
 2736              	.L145:
 2737 12d1 4889C7   		movq	%rax, %rdi
 2738 12d4 E8000000 		call	__cxa_begin_catch
 2738      00
 2739              	.LEHB111:
 2740 12d9 E8000000 		call	_ZN8UnitTest11CurrentTest7DetailsEv
 2740      00
 2741 12de 488B08   		movq	(%rax), %rcx
 2742 12e1 488D45C0 		leaq	-64(%rbp), %rax
 2743 12e5 BA730000 		movl	$115, %edx
 2743      00
 2744 12ea 4889CE   		movq	%rcx, %rsi
 2745 12ed 4889C7   		movq	%rax, %rdi
 2746 12f0 E8000000 		call	_ZN8UnitTest11TestDetailsC1ERKS0_i
 2746      00
 115:testHexIO.cpp **** 	status = bufProcessLine(line, 0, &data, NULL, &seg, &recordType, NULL);
 2747              		.loc 4 115 0 is_stmt 0 discriminator 10
 2748 12f5 E8000000 		call	_ZN8UnitTest11CurrentTest7ResultsEv
 2748      00
 2749 12fa 488B00   		movq	(%rax), %rax
 2750 12fd 488D4DC0 		leaq	-64(%rbp), %rcx
 2751 1301 BA000000 		movl	$.LC4, %edx
 2751      00
 2752 1306 4889CE   		movq	%rcx, %rsi
 2753 1309 4889C7   		movq	%rax, %rdi
 2754 130c E8000000 		call	_ZN8UnitTest11TestResults13OnTestFailureERKNS_11TestDetailsEPKc
 2754      00
 2755              	.LEHE111:
 2756              	.LEHB112:
 115:testHexIO.cpp **** 	status = bufProcessLine(line, 0, &data, NULL, &seg, &recordType, NULL);
 2757              		.loc 4 115 0 discriminator 14
 2758 1311 E8000000 		call	__cxa_end_catch
 2758      00
 2759              	.LEHE112:
 2760 1316 E90BFFFF 		jmp	.L140
 2760      FF
 2761              	.L148:
 2762 131b 4889C3   		movq	%rax, %rbx
 117:testHexIO.cpp **** 	bufDestroy(&data);
 2763              		.loc 4 117 0 is_stmt 1
 2764 131e E8000000 		call	__cxa_end_catch
 2764      00
 2765 1323 4889D8   		movq	%rbx, %rax
 2766 1326 4889C7   		movq	%rax, %rdi
 2767              	.LEHB113:
 2768 1329 E8000000 		call	_Unwind_Resume
 2768      00
 2769              	.LEHE113:
 2770              	.L147:
 2771 132e 4889C7   		movq	%rax, %rdi
 2772 1331 E8000000 		call	__cxa_begin_catch
 2772      00
 2773              	.LEHB114:
 2774 1336 E8000000 		call	_ZN8UnitTest11CurrentTest7DetailsEv
 2774      00
 2775 133b 488B08   		movq	(%rax), %rcx
 2776 133e 488D45C0 		leaq	-64(%rbp), %rax
 2777 1342 BA750000 		movl	$117, %edx
 2777      00
 2778 1347 4889CE   		movq	%rcx, %rsi
 2779 134a 4889C7   		movq	%rax, %rdi
 2780 134d E8000000 		call	_ZN8UnitTest11TestDetailsC1ERKS0_i
 2780      00
 117:testHexIO.cpp **** 	bufDestroy(&data);
 2781              		.loc 4 117 0 is_stmt 0 discriminator 10
 2782 1352 E8000000 		call	_ZN8UnitTest11CurrentTest7ResultsEv
 2782      00
 2783 1357 488B00   		movq	(%rax), %rax
 2784 135a 488D4DC0 		leaq	-64(%rbp), %rcx
 2785 135e BA000000 		movl	$.LC27, %edx
 2785      00
 2786 1363 4889CE   		movq	%rcx, %rsi
 2787 1366 4889C7   		movq	%rax, %rdi
 2788 1369 E8000000 		call	_ZN8UnitTest11TestResults13OnTestFailureERKNS_11TestDetailsEPKc
 2788      00
 2789              	.LEHE114:
 2790              	.LEHB115:
 117:testHexIO.cpp **** 	bufDestroy(&data);
 2791              		.loc 4 117 0 discriminator 14
 2792 136e E8000000 		call	__cxa_end_catch
 2792      00
 2793              	.LEHE115:
 2794 1373 E922FFFF 		jmp	.L143
 2794      FF
 2795              	.L149:
 2796              	.LBE21:
 2797              		.loc 4 119 0 is_stmt 1
 2798 1378 E8000000 		call	__stack_chk_fail
 2798      00
 2799              	.L144:
 2800 137d 488B5DF8 		movq	-8(%rbp), %rbx
 2801 1381 C9       		leave
 2802              		.cfi_def_cfa 7, 8
 2803 1382 C3       		ret
 2804              		.cfi_endproc
 2805              	.LFE1156:
 2806              		.section	.gcc_except_table
 2807              		.align 4
 2808              	.LLSDA1156:
 2809 0258 FF       		.byte	0xff
 2810 0259 03       		.byte	0x3
 2811 025a 41       		.uleb128 .LLSDATT1156-.LLSDATTD1156
 2812              	.LLSDATTD1156:
 2813 025b 01       		.byte	0x1
 2814 025c 39       		.uleb128 .LLSDACSE1156-.LLSDACSB1156
 2815              	.LLSDACSB1156:
 2816 025d 47       		.uleb128 .LEHB105-.LFB1156
 2817 025e 05       		.uleb128 .LEHE105-.LEHB105
 2818 025f 00       		.uleb128 0
 2819 0260 00       		.uleb128 0
 2820 0261 4F       		.uleb128 .LEHB106-.LFB1156
 2821 0262 3F       		.uleb128 .LEHE106-.LEHB106
 2822 0263 B902     		.uleb128 .L145-.LFB1156
 2823 0265 01       		.uleb128 0x1
 2824 0266 B701     		.uleb128 .LEHB107-.LFB1156
 2825 0268 05       		.uleb128 .LEHE107-.LEHB107
 2826 0269 00       		.uleb128 0
 2827 026a 00       		.uleb128 0
 2828 026b C301     		.uleb128 .LEHB108-.LFB1156
 2829 026d 3F       		.uleb128 .LEHE108-.LEHB108
 2830 026e 9603     		.uleb128 .L147-.LFB1156
 2831 0270 01       		.uleb128 0x1
 2832 0271 8902     		.uleb128 .LEHB109-.LFB1156
 2833 0273 05       		.uleb128 .LEHE109-.LEHB109
 2834 0274 00       		.uleb128 0
 2835 0275 00       		.uleb128 0
 2836 0276 B402     		.uleb128 .LEHB110-.LFB1156
 2837 0278 05       		.uleb128 .LEHE110-.LEHB110
 2838 0279 00       		.uleb128 0
 2839 027a 00       		.uleb128 0
 2840 027b C102     		.uleb128 .LEHB111-.LFB1156
 2841 027d 38       		.uleb128 .LEHE111-.LEHB111
 2842 027e A602     		.uleb128 .L146-.LFB1156
 2843 0280 00       		.uleb128 0
 2844 0281 F902     		.uleb128 .LEHB112-.LFB1156
 2845 0283 05       		.uleb128 .LEHE112-.LEHB112
 2846 0284 00       		.uleb128 0
 2847 0285 00       		.uleb128 0
 2848 0286 9103     		.uleb128 .LEHB113-.LFB1156
 2849 0288 05       		.uleb128 .LEHE113-.LEHB113
 2850 0289 00       		.uleb128 0
 2851 028a 00       		.uleb128 0
 2852 028b 9E03     		.uleb128 .LEHB114-.LFB1156
 2853 028d 38       		.uleb128 .LEHE114-.LEHB114
 2854 028e 8303     		.uleb128 .L148-.LFB1156
 2855 0290 00       		.uleb128 0
 2856 0291 D603     		.uleb128 .LEHB115-.LFB1156
 2857 0293 05       		.uleb128 .LEHE115-.LEHB115
 2858 0294 00       		.uleb128 0
 2859 0295 00       		.uleb128 0
 2860              	.LLSDACSE1156:
 2861 0296 01       		.byte	0x1
 2862 0297 00       		.byte	0
 2863              		.align 4
 2864 0298 00000000 		.long	0
 2865              	
 2866              	.LLSDATT1156:
 2867              		.text
 2869              		.section	.rodata
 2870              	.LC28:
 2871 0486 48657849 		.string	"HexIO_testJunkRecType"
 2871      4F5F7465 
 2871      73744A75 
 2871      6E6B5265 
 2871      63547970 
 2872              		.section	.text._ZN25TestHexIO_testJunkRecTypeC2Ev,"axG",@progbits,_ZN25TestHexIO_testJunkRecTypeC5
 2873              		.align 2
 2874              		.weak	_ZN25TestHexIO_testJunkRecTypeC2Ev
 2876              	_ZN25TestHexIO_testJunkRecTypeC2Ev:
 2877              	.LFB1158:
 120:testHexIO.cpp **** 
 121:testHexIO.cpp **** TEST(HexIO_testJunkRecType) {
 2878              		.loc 4 121 0
 2879              		.cfi_startproc
 2880 0000 55       		pushq	%rbp
 2881              		.cfi_def_cfa_offset 16
 2882              		.cfi_offset 6, -16
 2883 0001 4889E5   		movq	%rsp, %rbp
 2884              		.cfi_def_cfa_register 6
 2885 0004 4883EC10 		subq	$16, %rsp
 2886 0008 48897DF8 		movq	%rdi, -8(%rbp)
 2887              	.LBB22:
 2888              		.loc 4 121 0
 2889 000c E8000000 		call	_ZN13UnitTestSuite12GetSuiteNameEv
 2889      00
 2890 0011 4889C2   		movq	%rax, %rdx
 2891 0014 488B45F8 		movq	-8(%rbp), %rax
 2892 0018 41B87900 		movl	$121, %r8d
 2892      0000
 2893 001e B9000000 		movl	$.LC1, %ecx
 2893      00
 2894 0023 BE000000 		movl	$.LC28, %esi
 2894      00
 2895 0028 4889C7   		movq	%rax, %rdi
 2896 002b E8000000 		call	_ZN8UnitTest4TestC2EPKcS2_S2_i
 2896      00
 2897 0030 488B45F8 		movq	-8(%rbp), %rax
 2898 0034 48C70000 		movq	$_ZTV25TestHexIO_testJunkRecType+16, (%rax)
 2898      000000
 2899              	.LBE22:
 2900 003b C9       		leave
 2901              		.cfi_def_cfa 7, 8
 2902 003c C3       		ret
 2903              		.cfi_endproc
 2904              	.LFE1158:
 2906              		.weak	_ZN25TestHexIO_testJunkRecTypeC1Ev
 2907              		.set	_ZN25TestHexIO_testJunkRecTypeC1Ev,_ZN25TestHexIO_testJunkRecTypeC2Ev
 2908              		.globl	testHexIO_testJunkRecTypeInstance
 2909              		.bss
 2910 0179 00000000 		.align 32
 2910      000000
 2913              	testHexIO_testJunkRecTypeInstance:
 2914 0180 00000000 		.zero	56
 2914      00000000 
 2914      00000000 
 2914      00000000 
 2914      00000000 
 2915              		.globl	adderHexIO_testJunkRecType
 2918              	adderHexIO_testJunkRecType:
 2919 01b8 00       		.zero	1
 2920              		.section	.rodata
 2921              	.LC29:
 2922 049c 3A303430 		.string	":040BE1..75820022F7\n"
 2922      4245312E 
 2922      2E373538 
 2922      32303032 
 2922      3246370A 
 2923 04b1 00000000 		.align 8
 2923      000000
 2924              	.LC30:
 2925 04b8 556E6861 		.string	"Unhandled exception in CHECK_EQUAL(HEX_JUNK_REC_TYPE, status)"
 2925      6E646C65 
 2925      64206578 
 2925      63657074 
 2925      696F6E20 
 2926              		.text
 2927 1383 90       		.align 2
 2928              		.globl	_ZNK25TestHexIO_testJunkRecType7RunImplEv
 2930              	_ZNK25TestHexIO_testJunkRecType7RunImplEv:
 2931              	.LFB1160:
 2932              		.loc 4 121 0
 2933              		.cfi_startproc
 2934              		.cfi_personality 0x3,__gxx_personality_v0
 2935              		.cfi_lsda 0x3,.LLSDA1160
 2936 1384 55       		pushq	%rbp
 2937              		.cfi_def_cfa_offset 16
 2938              		.cfi_offset 6, -16
 2939 1385 4889E5   		movq	%rsp, %rbp
 2940              		.cfi_def_cfa_register 6
 2941 1388 53       		pushq	%rbx
 2942 1389 4881EC88 		subq	$136, %rsp
 2942      000000
 2943              		.cfi_offset 3, -24
 2944 1390 4889BD78 		movq	%rdi, -136(%rbp)
 2944      FFFFFF
 2945              		.loc 4 121 0
 2946 1397 64488B04 		movq	%fs:40, %rax
 2946      25280000 
 2946      00
 2947 13a0 488945E8 		movq	%rax, -24(%rbp)
 2948 13a4 31C0     		xorl	%eax, %eax
 2949              	.LBB23:
 122:testHexIO.cpp **** 	Buffer data;
 123:testHexIO.cpp **** 	BufferStatus status;
 124:testHexIO.cpp **** 	const char *line = ":040BE1..75820022F7\n";
 2950              		.loc 4 124 0
 2951 13a6 48C74598 		movq	$.LC29, -104(%rbp)
 2951      00000000 
 125:testHexIO.cpp **** 	uint8 recordType;
 126:testHexIO.cpp **** 	uint32 seg = 0x00000000;
 2952              		.loc 4 126 0
 2953 13ae C7459000 		movl	$0, -112(%rbp)
 2953      000000
 127:testHexIO.cpp **** 	status = bufInitialise(&data, 1024, 0x00, NULL);
 2954              		.loc 4 127 0
 2955 13b5 488D45A0 		leaq	-96(%rbp), %rax
 2956 13b9 B9000000 		movl	$0, %ecx
 2956      00
 2957 13be BA000000 		movl	$0, %edx
 2957      00
 2958 13c3 BE000400 		movl	$1024, %esi
 2958      00
 2959 13c8 4889C7   		movq	%rax, %rdi
 2960              	.LEHB116:
 2961 13cb E8000000 		call	bufInitialise
 2961      00
 2962              	.LEHE116:
 2963 13d0 89458C   		movl	%eax, -116(%rbp)
 2964              	.LEHB117:
 128:testHexIO.cpp **** 	CHECK_EQUAL(BUF_SUCCESS, status);
 2965              		.loc 4 128 0
 2966 13d3 E8000000 		call	_ZN8UnitTest11CurrentTest7DetailsEv
 2966      00
 2967 13d8 488B08   		movq	(%rax), %rcx
 2968 13db 488D45C0 		leaq	-64(%rbp), %rax
 2969 13df BA800000 		movl	$128, %edx
 2969      00
 2970 13e4 4889CE   		movq	%rcx, %rsi
 2971 13e7 4889C7   		movq	%rax, %rdi
 2972 13ea E8000000 		call	_ZN8UnitTest11TestDetailsC1ERKS0_i
 2972      00
 2973              		.loc 4 128 0 is_stmt 0 discriminator 2
 2974 13ef C7459400 		movl	$0, -108(%rbp)
 2974      000000
 2975 13f6 E8000000 		call	_ZN8UnitTest11CurrentTest7ResultsEv
 2975      00
 2976 13fb 488B00   		movq	(%rax), %rax
 2977 13fe 488D4DC0 		leaq	-64(%rbp), %rcx
 2978 1402 488D558C 		leaq	-116(%rbp), %rdx
 2979 1406 488D7594 		leaq	-108(%rbp), %rsi
 2980 140a 4889C7   		movq	%rax, %rdi
 2981 140d E8000000 		call	_ZN8UnitTest10CheckEqualI12BufferStatusS1_EEvRNS_11TestResultsERKT_RKT0_RKNS_11TestDetailsE
 2981      00
 2982              	.LEHE117:
 2983              	.L154:
 129:testHexIO.cpp **** 	status = bufProcessLine(line, 0, &data, NULL, &seg, &recordType, NULL);
 2984              		.loc 4 129 0 is_stmt 1
 2985 1412 4883EC08 		subq	$8, %rsp
 2986 1416 488D758B 		leaq	-117(%rbp), %rsi
 2987 141a 488D4D90 		leaq	-112(%rbp), %rcx
 2988 141e 488D55A0 		leaq	-96(%rbp), %rdx
 2989 1422 488B4598 		movq	-104(%rbp), %rax
 2990 1426 6A00     		pushq	$0
 2991 1428 4989F1   		movq	%rsi, %r9
 2992 142b 4989C8   		movq	%rcx, %r8
 2993 142e B9000000 		movl	$0, %ecx
 2993      00
 2994 1433 BE000000 		movl	$0, %esi
 2994      00
 2995 1438 4889C7   		movq	%rax, %rdi
 2996              	.LEHB118:
 2997 143b E8000000 		call	bufProcessLine
 2997      00
 2998              	.LEHE118:
 2999 1440 4883C410 		addq	$16, %rsp
 3000 1444 89458C   		movl	%eax, -116(%rbp)
 3001              	.LEHB119:
 130:testHexIO.cpp **** 	CHECK_EQUAL(HEX_JUNK_REC_TYPE, status);
 3002              		.loc 4 130 0
 3003 1447 E8000000 		call	_ZN8UnitTest11CurrentTest7DetailsEv
 3003      00
 3004 144c 488B08   		movq	(%rax), %rcx
 3005 144f 488D45C0 		leaq	-64(%rbp), %rax
 3006 1453 BA820000 		movl	$130, %edx
 3006      00
 3007 1458 4889CE   		movq	%rcx, %rsi
 3008 145b 4889C7   		movq	%rax, %rdi
 3009 145e E8000000 		call	_ZN8UnitTest11TestDetailsC1ERKS0_i
 3009      00
 3010              		.loc 4 130 0 is_stmt 0 discriminator 2
 3011 1463 C745940B 		movl	$11, -108(%rbp)
 3011      000000
 3012 146a E8000000 		call	_ZN8UnitTest11CurrentTest7ResultsEv
 3012      00
 3013 146f 488B00   		movq	(%rax), %rax
 3014 1472 488D4DC0 		leaq	-64(%rbp), %rcx
 3015 1476 488D558C 		leaq	-116(%rbp), %rdx
 3016 147a 488D7594 		leaq	-108(%rbp), %rsi
 3017 147e 4889C7   		movq	%rax, %rdi
 3018 1481 E8000000 		call	_ZN8UnitTest10CheckEqualI12BufferStatusS1_EEvRNS_11TestResultsERKT_RKT0_RKNS_11TestDetailsE
 3018      00
 3019              	.LEHE119:
 3020              	.L157:
 131:testHexIO.cpp **** 	bufDestroy(&data);
 3021              		.loc 4 131 0 is_stmt 1
 3022 1486 488D45A0 		leaq	-96(%rbp), %rax
 3023 148a 4889C7   		movq	%rax, %rdi
 3024              	.LEHB120:
 3025 148d E8000000 		call	bufDestroy
 3025      00
 3026              	.LEHE120:
 3027              	.LBE23:
 132:testHexIO.cpp **** }
 3028              		.loc 4 132 0
 3029 1492 488B45E8 		movq	-24(%rbp), %rax
 3030 1496 64483304 		xorq	%fs:40, %rax
 3030      25280000 
 3030      00
 3031 149f 0F84C400 		je	.L158
 3031      0000
 3032 14a5 E9BA0000 		jmp	.L163
 3032      00
 3033              	.L160:
 3034 14aa 4889C3   		movq	%rax, %rbx
 3035              	.LBB24:
 128:testHexIO.cpp **** 	status = bufProcessLine(line, 0, &data, NULL, &seg, &recordType, NULL);
 3036              		.loc 4 128 0
 3037 14ad E8000000 		call	__cxa_end_catch
 3037      00
 3038 14b2 4889D8   		movq	%rbx, %rax
 3039 14b5 4889C7   		movq	%rax, %rdi
 3040              	.LEHB121:
 3041 14b8 E8000000 		call	_Unwind_Resume
 3041      00
 3042              	.LEHE121:
 3043              	.L159:
 3044 14bd 4889C7   		movq	%rax, %rdi
 3045 14c0 E8000000 		call	__cxa_begin_catch
 3045      00
 3046              	.LEHB122:
 3047 14c5 E8000000 		call	_ZN8UnitTest11CurrentTest7DetailsEv
 3047      00
 3048 14ca 488B08   		movq	(%rax), %rcx
 3049 14cd 488D45C0 		leaq	-64(%rbp), %rax
 3050 14d1 BA800000 		movl	$128, %edx
 3050      00
 3051 14d6 4889CE   		movq	%rcx, %rsi
 3052 14d9 4889C7   		movq	%rax, %rdi
 3053 14dc E8000000 		call	_ZN8UnitTest11TestDetailsC1ERKS0_i
 3053      00
 128:testHexIO.cpp **** 	status = bufProcessLine(line, 0, &data, NULL, &seg, &recordType, NULL);
 3054              		.loc 4 128 0 is_stmt 0 discriminator 10
 3055 14e1 E8000000 		call	_ZN8UnitTest11CurrentTest7ResultsEv
 3055      00
 3056 14e6 488B00   		movq	(%rax), %rax
 3057 14e9 488D4DC0 		leaq	-64(%rbp), %rcx
 3058 14ed BA000000 		movl	$.LC4, %edx
 3058      00
 3059 14f2 4889CE   		movq	%rcx, %rsi
 3060 14f5 4889C7   		movq	%rax, %rdi
 3061 14f8 E8000000 		call	_ZN8UnitTest11TestResults13OnTestFailureERKNS_11TestDetailsEPKc
 3061      00
 3062              	.LEHE122:
 3063              	.LEHB123:
 128:testHexIO.cpp **** 	status = bufProcessLine(line, 0, &data, NULL, &seg, &recordType, NULL);
 3064              		.loc 4 128 0 discriminator 14
 3065 14fd E8000000 		call	__cxa_end_catch
 3065      00
 3066              	.LEHE123:
 3067 1502 E90BFFFF 		jmp	.L154
 3067      FF
 3068              	.L162:
 3069 1507 4889C3   		movq	%rax, %rbx
 130:testHexIO.cpp **** 	bufDestroy(&data);
 3070              		.loc 4 130 0 is_stmt 1
 3071 150a E8000000 		call	__cxa_end_catch
 3071      00
 3072 150f 4889D8   		movq	%rbx, %rax
 3073 1512 4889C7   		movq	%rax, %rdi
 3074              	.LEHB124:
 3075 1515 E8000000 		call	_Unwind_Resume
 3075      00
 3076              	.LEHE124:
 3077              	.L161:
 3078 151a 4889C7   		movq	%rax, %rdi
 3079 151d E8000000 		call	__cxa_begin_catch
 3079      00
 3080              	.LEHB125:
 3081 1522 E8000000 		call	_ZN8UnitTest11CurrentTest7DetailsEv
 3081      00
 3082 1527 488B08   		movq	(%rax), %rcx
 3083 152a 488D45C0 		leaq	-64(%rbp), %rax
 3084 152e BA820000 		movl	$130, %edx
 3084      00
 3085 1533 4889CE   		movq	%rcx, %rsi
 3086 1536 4889C7   		movq	%rax, %rdi
 3087 1539 E8000000 		call	_ZN8UnitTest11TestDetailsC1ERKS0_i
 3087      00
 130:testHexIO.cpp **** 	bufDestroy(&data);
 3088              		.loc 4 130 0 is_stmt 0 discriminator 10
 3089 153e E8000000 		call	_ZN8UnitTest11CurrentTest7ResultsEv
 3089      00
 3090 1543 488B00   		movq	(%rax), %rax
 3091 1546 488D4DC0 		leaq	-64(%rbp), %rcx
 3092 154a BA000000 		movl	$.LC30, %edx
 3092      00
 3093 154f 4889CE   		movq	%rcx, %rsi
 3094 1552 4889C7   		movq	%rax, %rdi
 3095 1555 E8000000 		call	_ZN8UnitTest11TestResults13OnTestFailureERKNS_11TestDetailsEPKc
 3095      00
 3096              	.LEHE125:
 3097              	.LEHB126:
 130:testHexIO.cpp **** 	bufDestroy(&data);
 3098              		.loc 4 130 0 discriminator 14
 3099 155a E8000000 		call	__cxa_end_catch
 3099      00
 3100              	.LEHE126:
 3101 155f E922FFFF 		jmp	.L157
 3101      FF
 3102              	.L163:
 3103              	.LBE24:
 3104              		.loc 4 132 0 is_stmt 1
 3105 1564 E8000000 		call	__stack_chk_fail
 3105      00
 3106              	.L158:
 3107 1569 488B5DF8 		movq	-8(%rbp), %rbx
 3108 156d C9       		leave
 3109              		.cfi_def_cfa 7, 8
 3110 156e C3       		ret
 3111              		.cfi_endproc
 3112              	.LFE1160:
 3113              		.section	.gcc_except_table
 3114              		.align 4
 3115              	.LLSDA1160:
 3116 029c FF       		.byte	0xff
 3117 029d 03       		.byte	0x3
 3118 029e 41       		.uleb128 .LLSDATT1160-.LLSDATTD1160
 3119              	.LLSDATTD1160:
 3120 029f 01       		.byte	0x1
 3121 02a0 39       		.uleb128 .LLSDACSE1160-.LLSDACSB1160
 3122              	.LLSDACSB1160:
 3123 02a1 47       		.uleb128 .LEHB116-.LFB1160
 3124 02a2 05       		.uleb128 .LEHE116-.LEHB116
 3125 02a3 00       		.uleb128 0
 3126 02a4 00       		.uleb128 0
 3127 02a5 4F       		.uleb128 .LEHB117-.LFB1160
 3128 02a6 3F       		.uleb128 .LEHE117-.LEHB117
 3129 02a7 B902     		.uleb128 .L159-.LFB1160
 3130 02a9 01       		.uleb128 0x1
 3131 02aa B701     		.uleb128 .LEHB118-.LFB1160
 3132 02ac 05       		.uleb128 .LEHE118-.LEHB118
 3133 02ad 00       		.uleb128 0
 3134 02ae 00       		.uleb128 0
 3135 02af C301     		.uleb128 .LEHB119-.LFB1160
 3136 02b1 3F       		.uleb128 .LEHE119-.LEHB119
 3137 02b2 9603     		.uleb128 .L161-.LFB1160
 3138 02b4 01       		.uleb128 0x1
 3139 02b5 8902     		.uleb128 .LEHB120-.LFB1160
 3140 02b7 05       		.uleb128 .LEHE120-.LEHB120
 3141 02b8 00       		.uleb128 0
 3142 02b9 00       		.uleb128 0
 3143 02ba B402     		.uleb128 .LEHB121-.LFB1160
 3144 02bc 05       		.uleb128 .LEHE121-.LEHB121
 3145 02bd 00       		.uleb128 0
 3146 02be 00       		.uleb128 0
 3147 02bf C102     		.uleb128 .LEHB122-.LFB1160
 3148 02c1 38       		.uleb128 .LEHE122-.LEHB122
 3149 02c2 A602     		.uleb128 .L160-.LFB1160
 3150 02c4 00       		.uleb128 0
 3151 02c5 F902     		.uleb128 .LEHB123-.LFB1160
 3152 02c7 05       		.uleb128 .LEHE123-.LEHB123
 3153 02c8 00       		.uleb128 0
 3154 02c9 00       		.uleb128 0
 3155 02ca 9103     		.uleb128 .LEHB124-.LFB1160
 3156 02cc 05       		.uleb128 .LEHE124-.LEHB124
 3157 02cd 00       		.uleb128 0
 3158 02ce 00       		.uleb128 0
 3159 02cf 9E03     		.uleb128 .LEHB125-.LFB1160
 3160 02d1 38       		.uleb128 .LEHE125-.LEHB125
 3161 02d2 8303     		.uleb128 .L162-.LFB1160
 3162 02d4 00       		.uleb128 0
 3163 02d5 D603     		.uleb128 .LEHB126-.LFB1160
 3164 02d7 05       		.uleb128 .LEHE126-.LEHB126
 3165 02d8 00       		.uleb128 0
 3166 02d9 00       		.uleb128 0
 3167              	.LLSDACSE1160:
 3168 02da 01       		.byte	0x1
 3169 02db 00       		.byte	0
 3170              		.align 4
 3171 02dc 00000000 		.long	0
 3172              	
 3173              	.LLSDATT1160:
 3174              		.text
 3176              		.section	.rodata
 3177              	.LC31:
 3178 04f6 48657849 		.string	"HexIO_testJunkDataByte"
 3178      4F5F7465 
 3178      73744A75 
 3178      6E6B4461 
 3178      74614279 
 3179              		.section	.text._ZN26TestHexIO_testJunkDataByteC2Ev,"axG",@progbits,_ZN26TestHexIO_testJunkDataByte
 3180              		.align 2
 3181              		.weak	_ZN26TestHexIO_testJunkDataByteC2Ev
 3183              	_ZN26TestHexIO_testJunkDataByteC2Ev:
 3184              	.LFB1162:
 133:testHexIO.cpp **** 
 134:testHexIO.cpp **** TEST(HexIO_testJunkDataByte) {
 3185              		.loc 4 134 0
 3186              		.cfi_startproc
 3187 0000 55       		pushq	%rbp
 3188              		.cfi_def_cfa_offset 16
 3189              		.cfi_offset 6, -16
 3190 0001 4889E5   		movq	%rsp, %rbp
 3191              		.cfi_def_cfa_register 6
 3192 0004 4883EC10 		subq	$16, %rsp
 3193 0008 48897DF8 		movq	%rdi, -8(%rbp)
 3194              	.LBB25:
 3195              		.loc 4 134 0
 3196 000c E8000000 		call	_ZN13UnitTestSuite12GetSuiteNameEv
 3196      00
 3197 0011 4889C2   		movq	%rax, %rdx
 3198 0014 488B45F8 		movq	-8(%rbp), %rax
 3199 0018 41B88600 		movl	$134, %r8d
 3199      0000
 3200 001e B9000000 		movl	$.LC1, %ecx
 3200      00
 3201 0023 BE000000 		movl	$.LC31, %esi
 3201      00
 3202 0028 4889C7   		movq	%rax, %rdi
 3203 002b E8000000 		call	_ZN8UnitTest4TestC2EPKcS2_S2_i
 3203      00
 3204 0030 488B45F8 		movq	-8(%rbp), %rax
 3205 0034 48C70000 		movq	$_ZTV26TestHexIO_testJunkDataByte+16, (%rax)
 3205      000000
 3206              	.LBE25:
 3207 003b C9       		leave
 3208              		.cfi_def_cfa 7, 8
 3209 003c C3       		ret
 3210              		.cfi_endproc
 3211              	.LFE1162:
 3213              		.weak	_ZN26TestHexIO_testJunkDataByteC1Ev
 3214              		.set	_ZN26TestHexIO_testJunkDataByteC1Ev,_ZN26TestHexIO_testJunkDataByteC2Ev
 3215              		.globl	testHexIO_testJunkDataByteInstance
 3216              		.bss
 3217 01b9 00000000 		.align 32
 3217      000000
 3220              	testHexIO_testJunkDataByteInstance:
 3221 01c0 00000000 		.zero	56
 3221      00000000 
 3221      00000000 
 3221      00000000 
 3221      00000000 
 3222              		.globl	adderHexIO_testJunkDataByte
 3225              	adderHexIO_testJunkDataByte:
 3226 01f8 00       		.zero	1
 3227              		.section	.rodata
 3228              	.LC32:
 3229 050d 3A303430 		.string	":040BE100..820022F7\n"
 3229      42453130 
 3229      302E2E38 
 3229      32303032 
 3229      3246370A 
 3230 0522 00000000 		.align 8
 3230      0000
 3231              	.LC33:
 3232 0528 556E6861 		.string	"Unhandled exception in CHECK_EQUAL(HEX_JUNK_DATA_BYTE, status)"
 3232      6E646C65 
 3232      64206578 
 3232      63657074 
 3232      696F6E20 
 3233              		.text
 3234 156f 90       		.align 2
 3235              		.globl	_ZNK26TestHexIO_testJunkDataByte7RunImplEv
 3237              	_ZNK26TestHexIO_testJunkDataByte7RunImplEv:
 3238              	.LFB1164:
 3239              		.loc 4 134 0
 3240              		.cfi_startproc
 3241              		.cfi_personality 0x3,__gxx_personality_v0
 3242              		.cfi_lsda 0x3,.LLSDA1164
 3243 1570 55       		pushq	%rbp
 3244              		.cfi_def_cfa_offset 16
 3245              		.cfi_offset 6, -16
 3246 1571 4889E5   		movq	%rsp, %rbp
 3247              		.cfi_def_cfa_register 6
 3248 1574 53       		pushq	%rbx
 3249 1575 4881EC88 		subq	$136, %rsp
 3249      000000
 3250              		.cfi_offset 3, -24
 3251 157c 4889BD78 		movq	%rdi, -136(%rbp)
 3251      FFFFFF
 3252              		.loc 4 134 0
 3253 1583 64488B04 		movq	%fs:40, %rax
 3253      25280000 
 3253      00
 3254 158c 488945E8 		movq	%rax, -24(%rbp)
 3255 1590 31C0     		xorl	%eax, %eax
 3256              	.LBB26:
 135:testHexIO.cpp **** 	Buffer data;
 136:testHexIO.cpp **** 	BufferStatus status;
 137:testHexIO.cpp **** 	const char *line = ":040BE100..820022F7\n";
 3257              		.loc 4 137 0
 3258 1592 48C74598 		movq	$.LC32, -104(%rbp)
 3258      00000000 
 138:testHexIO.cpp **** 	uint8 recordType;
 139:testHexIO.cpp **** 	uint32 seg = 0x00000000;
 3259              		.loc 4 139 0
 3260 159a C7459000 		movl	$0, -112(%rbp)
 3260      000000
 140:testHexIO.cpp **** 	status = bufInitialise(&data, 1024, 0x00, NULL);
 3261              		.loc 4 140 0
 3262 15a1 488D45A0 		leaq	-96(%rbp), %rax
 3263 15a5 B9000000 		movl	$0, %ecx
 3263      00
 3264 15aa BA000000 		movl	$0, %edx
 3264      00
 3265 15af BE000400 		movl	$1024, %esi
 3265      00
 3266 15b4 4889C7   		movq	%rax, %rdi
 3267              	.LEHB127:
 3268 15b7 E8000000 		call	bufInitialise
 3268      00
 3269              	.LEHE127:
 3270 15bc 89458C   		movl	%eax, -116(%rbp)
 3271              	.LEHB128:
 141:testHexIO.cpp **** 	CHECK_EQUAL(BUF_SUCCESS, status);
 3272              		.loc 4 141 0
 3273 15bf E8000000 		call	_ZN8UnitTest11CurrentTest7DetailsEv
 3273      00
 3274 15c4 488B08   		movq	(%rax), %rcx
 3275 15c7 488D45C0 		leaq	-64(%rbp), %rax
 3276 15cb BA8D0000 		movl	$141, %edx
 3276      00
 3277 15d0 4889CE   		movq	%rcx, %rsi
 3278 15d3 4889C7   		movq	%rax, %rdi
 3279 15d6 E8000000 		call	_ZN8UnitTest11TestDetailsC1ERKS0_i
 3279      00
 3280              		.loc 4 141 0 is_stmt 0 discriminator 2
 3281 15db C7459400 		movl	$0, -108(%rbp)
 3281      000000
 3282 15e2 E8000000 		call	_ZN8UnitTest11CurrentTest7ResultsEv
 3282      00
 3283 15e7 488B00   		movq	(%rax), %rax
 3284 15ea 488D4DC0 		leaq	-64(%rbp), %rcx
 3285 15ee 488D558C 		leaq	-116(%rbp), %rdx
 3286 15f2 488D7594 		leaq	-108(%rbp), %rsi
 3287 15f6 4889C7   		movq	%rax, %rdi
 3288 15f9 E8000000 		call	_ZN8UnitTest10CheckEqualI12BufferStatusS1_EEvRNS_11TestResultsERKT_RKT0_RKNS_11TestDetailsE
 3288      00
 3289              	.LEHE128:
 3290              	.L168:
 142:testHexIO.cpp **** 	status = bufProcessLine(line, 0, &data, NULL, &seg, &recordType, NULL);
 3291              		.loc 4 142 0 is_stmt 1
 3292 15fe 4883EC08 		subq	$8, %rsp
 3293 1602 488D758B 		leaq	-117(%rbp), %rsi
 3294 1606 488D4D90 		leaq	-112(%rbp), %rcx
 3295 160a 488D55A0 		leaq	-96(%rbp), %rdx
 3296 160e 488B4598 		movq	-104(%rbp), %rax
 3297 1612 6A00     		pushq	$0
 3298 1614 4989F1   		movq	%rsi, %r9
 3299 1617 4989C8   		movq	%rcx, %r8
 3300 161a B9000000 		movl	$0, %ecx
 3300      00
 3301 161f BE000000 		movl	$0, %esi
 3301      00
 3302 1624 4889C7   		movq	%rax, %rdi
 3303              	.LEHB129:
 3304 1627 E8000000 		call	bufProcessLine
 3304      00
 3305              	.LEHE129:
 3306 162c 4883C410 		addq	$16, %rsp
 3307 1630 89458C   		movl	%eax, -116(%rbp)
 3308              	.LEHB130:
 143:testHexIO.cpp **** 	CHECK_EQUAL(HEX_JUNK_DATA_BYTE, status);
 3309              		.loc 4 143 0
 3310 1633 E8000000 		call	_ZN8UnitTest11CurrentTest7DetailsEv
 3310      00
 3311 1638 488B08   		movq	(%rax), %rcx
 3312 163b 488D45C0 		leaq	-64(%rbp), %rax
 3313 163f BA8F0000 		movl	$143, %edx
 3313      00
 3314 1644 4889CE   		movq	%rcx, %rsi
 3315 1647 4889C7   		movq	%rax, %rdi
 3316 164a E8000000 		call	_ZN8UnitTest11TestDetailsC1ERKS0_i
 3316      00
 3317              		.loc 4 143 0 is_stmt 0 discriminator 2
 3318 164f C745940D 		movl	$13, -108(%rbp)
 3318      000000
 3319 1656 E8000000 		call	_ZN8UnitTest11CurrentTest7ResultsEv
 3319      00
 3320 165b 488B00   		movq	(%rax), %rax
 3321 165e 488D4DC0 		leaq	-64(%rbp), %rcx
 3322 1662 488D558C 		leaq	-116(%rbp), %rdx
 3323 1666 488D7594 		leaq	-108(%rbp), %rsi
 3324 166a 4889C7   		movq	%rax, %rdi
 3325 166d E8000000 		call	_ZN8UnitTest10CheckEqualI12BufferStatusS1_EEvRNS_11TestResultsERKT_RKT0_RKNS_11TestDetailsE
 3325      00
 3326              	.LEHE130:
 3327              	.L171:
 144:testHexIO.cpp **** 	bufDestroy(&data);
 3328              		.loc 4 144 0 is_stmt 1
 3329 1672 488D45A0 		leaq	-96(%rbp), %rax
 3330 1676 4889C7   		movq	%rax, %rdi
 3331              	.LEHB131:
 3332 1679 E8000000 		call	bufDestroy
 3332      00
 3333              	.LEHE131:
 3334              	.LBE26:
 145:testHexIO.cpp **** }
 3335              		.loc 4 145 0
 3336 167e 488B45E8 		movq	-24(%rbp), %rax
 3337 1682 64483304 		xorq	%fs:40, %rax
 3337      25280000 
 3337      00
 3338 168b 0F84C400 		je	.L172
 3338      0000
 3339 1691 E9BA0000 		jmp	.L177
 3339      00
 3340              	.L174:
 3341 1696 4889C3   		movq	%rax, %rbx
 3342              	.LBB27:
 141:testHexIO.cpp **** 	status = bufProcessLine(line, 0, &data, NULL, &seg, &recordType, NULL);
 3343              		.loc 4 141 0
 3344 1699 E8000000 		call	__cxa_end_catch
 3344      00
 3345 169e 4889D8   		movq	%rbx, %rax
 3346 16a1 4889C7   		movq	%rax, %rdi
 3347              	.LEHB132:
 3348 16a4 E8000000 		call	_Unwind_Resume
 3348      00
 3349              	.LEHE132:
 3350              	.L173:
 3351 16a9 4889C7   		movq	%rax, %rdi
 3352 16ac E8000000 		call	__cxa_begin_catch
 3352      00
 3353              	.LEHB133:
 3354 16b1 E8000000 		call	_ZN8UnitTest11CurrentTest7DetailsEv
 3354      00
 3355 16b6 488B08   		movq	(%rax), %rcx
 3356 16b9 488D45C0 		leaq	-64(%rbp), %rax
 3357 16bd BA8D0000 		movl	$141, %edx
 3357      00
 3358 16c2 4889CE   		movq	%rcx, %rsi
 3359 16c5 4889C7   		movq	%rax, %rdi
 3360 16c8 E8000000 		call	_ZN8UnitTest11TestDetailsC1ERKS0_i
 3360      00
 141:testHexIO.cpp **** 	status = bufProcessLine(line, 0, &data, NULL, &seg, &recordType, NULL);
 3361              		.loc 4 141 0 is_stmt 0 discriminator 10
 3362 16cd E8000000 		call	_ZN8UnitTest11CurrentTest7ResultsEv
 3362      00
 3363 16d2 488B00   		movq	(%rax), %rax
 3364 16d5 488D4DC0 		leaq	-64(%rbp), %rcx
 3365 16d9 BA000000 		movl	$.LC4, %edx
 3365      00
 3366 16de 4889CE   		movq	%rcx, %rsi
 3367 16e1 4889C7   		movq	%rax, %rdi
 3368 16e4 E8000000 		call	_ZN8UnitTest11TestResults13OnTestFailureERKNS_11TestDetailsEPKc
 3368      00
 3369              	.LEHE133:
 3370              	.LEHB134:
 141:testHexIO.cpp **** 	status = bufProcessLine(line, 0, &data, NULL, &seg, &recordType, NULL);
 3371              		.loc 4 141 0 discriminator 14
 3372 16e9 E8000000 		call	__cxa_end_catch
 3372      00
 3373              	.LEHE134:
 3374 16ee E90BFFFF 		jmp	.L168
 3374      FF
 3375              	.L176:
 3376 16f3 4889C3   		movq	%rax, %rbx
 143:testHexIO.cpp **** 	bufDestroy(&data);
 3377              		.loc 4 143 0 is_stmt 1
 3378 16f6 E8000000 		call	__cxa_end_catch
 3378      00
 3379 16fb 4889D8   		movq	%rbx, %rax
 3380 16fe 4889C7   		movq	%rax, %rdi
 3381              	.LEHB135:
 3382 1701 E8000000 		call	_Unwind_Resume
 3382      00
 3383              	.LEHE135:
 3384              	.L175:
 3385 1706 4889C7   		movq	%rax, %rdi
 3386 1709 E8000000 		call	__cxa_begin_catch
 3386      00
 3387              	.LEHB136:
 3388 170e E8000000 		call	_ZN8UnitTest11CurrentTest7DetailsEv
 3388      00
 3389 1713 488B08   		movq	(%rax), %rcx
 3390 1716 488D45C0 		leaq	-64(%rbp), %rax
 3391 171a BA8F0000 		movl	$143, %edx
 3391      00
 3392 171f 4889CE   		movq	%rcx, %rsi
 3393 1722 4889C7   		movq	%rax, %rdi
 3394 1725 E8000000 		call	_ZN8UnitTest11TestDetailsC1ERKS0_i
 3394      00
 143:testHexIO.cpp **** 	bufDestroy(&data);
 3395              		.loc 4 143 0 is_stmt 0 discriminator 10
 3396 172a E8000000 		call	_ZN8UnitTest11CurrentTest7ResultsEv
 3396      00
 3397 172f 488B00   		movq	(%rax), %rax
 3398 1732 488D4DC0 		leaq	-64(%rbp), %rcx
 3399 1736 BA000000 		movl	$.LC33, %edx
 3399      00
 3400 173b 4889CE   		movq	%rcx, %rsi
 3401 173e 4889C7   		movq	%rax, %rdi
 3402 1741 E8000000 		call	_ZN8UnitTest11TestResults13OnTestFailureERKNS_11TestDetailsEPKc
 3402      00
 3403              	.LEHE136:
 3404              	.LEHB137:
 143:testHexIO.cpp **** 	bufDestroy(&data);
 3405              		.loc 4 143 0 discriminator 14
 3406 1746 E8000000 		call	__cxa_end_catch
 3406      00
 3407              	.LEHE137:
 3408 174b E922FFFF 		jmp	.L171
 3408      FF
 3409              	.L177:
 3410              	.LBE27:
 3411              		.loc 4 145 0 is_stmt 1
 3412 1750 E8000000 		call	__stack_chk_fail
 3412      00
 3413              	.L172:
 3414 1755 488B5DF8 		movq	-8(%rbp), %rbx
 3415 1759 C9       		leave
 3416              		.cfi_def_cfa 7, 8
 3417 175a C3       		ret
 3418              		.cfi_endproc
 3419              	.LFE1164:
 3420              		.section	.gcc_except_table
 3421              		.align 4
 3422              	.LLSDA1164:
 3423 02e0 FF       		.byte	0xff
 3424 02e1 03       		.byte	0x3
 3425 02e2 41       		.uleb128 .LLSDATT1164-.LLSDATTD1164
 3426              	.LLSDATTD1164:
 3427 02e3 01       		.byte	0x1
 3428 02e4 39       		.uleb128 .LLSDACSE1164-.LLSDACSB1164
 3429              	.LLSDACSB1164:
 3430 02e5 47       		.uleb128 .LEHB127-.LFB1164
 3431 02e6 05       		.uleb128 .LEHE127-.LEHB127
 3432 02e7 00       		.uleb128 0
 3433 02e8 00       		.uleb128 0
 3434 02e9 4F       		.uleb128 .LEHB128-.LFB1164
 3435 02ea 3F       		.uleb128 .LEHE128-.LEHB128
 3436 02eb B902     		.uleb128 .L173-.LFB1164
 3437 02ed 01       		.uleb128 0x1
 3438 02ee B701     		.uleb128 .LEHB129-.LFB1164
 3439 02f0 05       		.uleb128 .LEHE129-.LEHB129
 3440 02f1 00       		.uleb128 0
 3441 02f2 00       		.uleb128 0
 3442 02f3 C301     		.uleb128 .LEHB130-.LFB1164
 3443 02f5 3F       		.uleb128 .LEHE130-.LEHB130
 3444 02f6 9603     		.uleb128 .L175-.LFB1164
 3445 02f8 01       		.uleb128 0x1
 3446 02f9 8902     		.uleb128 .LEHB131-.LFB1164
 3447 02fb 05       		.uleb128 .LEHE131-.LEHB131
 3448 02fc 00       		.uleb128 0
 3449 02fd 00       		.uleb128 0
 3450 02fe B402     		.uleb128 .LEHB132-.LFB1164
 3451 0300 05       		.uleb128 .LEHE132-.LEHB132
 3452 0301 00       		.uleb128 0
 3453 0302 00       		.uleb128 0
 3454 0303 C102     		.uleb128 .LEHB133-.LFB1164
 3455 0305 38       		.uleb128 .LEHE133-.LEHB133
 3456 0306 A602     		.uleb128 .L174-.LFB1164
 3457 0308 00       		.uleb128 0
 3458 0309 F902     		.uleb128 .LEHB134-.LFB1164
 3459 030b 05       		.uleb128 .LEHE134-.LEHB134
 3460 030c 00       		.uleb128 0
 3461 030d 00       		.uleb128 0
 3462 030e 9103     		.uleb128 .LEHB135-.LFB1164
 3463 0310 05       		.uleb128 .LEHE135-.LEHB135
 3464 0311 00       		.uleb128 0
 3465 0312 00       		.uleb128 0
 3466 0313 9E03     		.uleb128 .LEHB136-.LFB1164
 3467 0315 38       		.uleb128 .LEHE136-.LEHB136
 3468 0316 8303     		.uleb128 .L176-.LFB1164
 3469 0318 00       		.uleb128 0
 3470 0319 D603     		.uleb128 .LEHB137-.LFB1164
 3471 031b 05       		.uleb128 .LEHE137-.LEHB137
 3472 031c 00       		.uleb128 0
 3473 031d 00       		.uleb128 0
 3474              	.LLSDACSE1164:
 3475 031e 01       		.byte	0x1
 3476 031f 00       		.byte	0
 3477              		.align 4
 3478 0320 00000000 		.long	0
 3479              	
 3480              	.LLSDATT1164:
 3481              		.text
 3483              		.section	.rodata
 3484              	.LC34:
 3485 0567 48657849 		.string	"HexIO_testJunkChecksum"
 3485      4F5F7465 
 3485      73744A75 
 3485      6E6B4368 
 3485      65636B73 
 3486              		.section	.text._ZN26TestHexIO_testJunkChecksumC2Ev,"axG",@progbits,_ZN26TestHexIO_testJunkChecksum
 3487              		.align 2
 3488              		.weak	_ZN26TestHexIO_testJunkChecksumC2Ev
 3490              	_ZN26TestHexIO_testJunkChecksumC2Ev:
 3491              	.LFB1166:
 146:testHexIO.cpp **** 
 147:testHexIO.cpp **** TEST(HexIO_testJunkChecksum) {
 3492              		.loc 4 147 0
 3493              		.cfi_startproc
 3494 0000 55       		pushq	%rbp
 3495              		.cfi_def_cfa_offset 16
 3496              		.cfi_offset 6, -16
 3497 0001 4889E5   		movq	%rsp, %rbp
 3498              		.cfi_def_cfa_register 6
 3499 0004 4883EC10 		subq	$16, %rsp
 3500 0008 48897DF8 		movq	%rdi, -8(%rbp)
 3501              	.LBB28:
 3502              		.loc 4 147 0
 3503 000c E8000000 		call	_ZN13UnitTestSuite12GetSuiteNameEv
 3503      00
 3504 0011 4889C2   		movq	%rax, %rdx
 3505 0014 488B45F8 		movq	-8(%rbp), %rax
 3506 0018 41B89300 		movl	$147, %r8d
 3506      0000
 3507 001e B9000000 		movl	$.LC1, %ecx
 3507      00
 3508 0023 BE000000 		movl	$.LC34, %esi
 3508      00
 3509 0028 4889C7   		movq	%rax, %rdi
 3510 002b E8000000 		call	_ZN8UnitTest4TestC2EPKcS2_S2_i
 3510      00
 3511 0030 488B45F8 		movq	-8(%rbp), %rax
 3512 0034 48C70000 		movq	$_ZTV26TestHexIO_testJunkChecksum+16, (%rax)
 3512      000000
 3513              	.LBE28:
 3514 003b C9       		leave
 3515              		.cfi_def_cfa 7, 8
 3516 003c C3       		ret
 3517              		.cfi_endproc
 3518              	.LFE1166:
 3520              		.weak	_ZN26TestHexIO_testJunkChecksumC1Ev
 3521              		.set	_ZN26TestHexIO_testJunkChecksumC1Ev,_ZN26TestHexIO_testJunkChecksumC2Ev
 3522              		.globl	testHexIO_testJunkChecksumInstance
 3523              		.bss
 3524 01f9 00000000 		.align 32
 3524      000000
 3527              	testHexIO_testJunkChecksumInstance:
 3528 0200 00000000 		.zero	56
 3528      00000000 
 3528      00000000 
 3528      00000000 
 3528      00000000 
 3529              		.globl	adderHexIO_testJunkChecksum
 3532              	adderHexIO_testJunkChecksum:
 3533 0238 00       		.zero	1
 3534              		.section	.rodata
 3535              	.LC35:
 3536 057e 3A303430 		.string	":040BE10075820022..\n"
 3536      42453130 
 3536      30373538 
 3536      32303032 
 3536      322E2E0A 
 3537 0593 00000000 		.align 8
 3537      00
 3538              	.LC36:
 3539 0598 556E6861 		.string	"Unhandled exception in CHECK_EQUAL(HEX_JUNK_CHECKSUM, status)"
 3539      6E646C65 
 3539      64206578 
 3539      63657074 
 3539      696F6E20 
 3540              		.text
 3541 175b 90       		.align 2
 3542              		.globl	_ZNK26TestHexIO_testJunkChecksum7RunImplEv
 3544              	_ZNK26TestHexIO_testJunkChecksum7RunImplEv:
 3545              	.LFB1168:
 3546              		.loc 4 147 0
 3547              		.cfi_startproc
 3548              		.cfi_personality 0x3,__gxx_personality_v0
 3549              		.cfi_lsda 0x3,.LLSDA1168
 3550 175c 55       		pushq	%rbp
 3551              		.cfi_def_cfa_offset 16
 3552              		.cfi_offset 6, -16
 3553 175d 4889E5   		movq	%rsp, %rbp
 3554              		.cfi_def_cfa_register 6
 3555 1760 53       		pushq	%rbx
 3556 1761 4881EC88 		subq	$136, %rsp
 3556      000000
 3557              		.cfi_offset 3, -24
 3558 1768 4889BD78 		movq	%rdi, -136(%rbp)
 3558      FFFFFF
 3559              		.loc 4 147 0
 3560 176f 64488B04 		movq	%fs:40, %rax
 3560      25280000 
 3560      00
 3561 1778 488945E8 		movq	%rax, -24(%rbp)
 3562 177c 31C0     		xorl	%eax, %eax
 3563              	.LBB29:
 148:testHexIO.cpp **** 	Buffer data;
 149:testHexIO.cpp **** 	BufferStatus status;
 150:testHexIO.cpp **** 	const char *line = ":040BE10075820022..\n";
 3564              		.loc 4 150 0
 3565 177e 48C74598 		movq	$.LC35, -104(%rbp)
 3565      00000000 
 151:testHexIO.cpp **** 	uint8 recordType;
 152:testHexIO.cpp **** 	uint32 seg = 0x00000000;
 3566              		.loc 4 152 0
 3567 1786 C7459000 		movl	$0, -112(%rbp)
 3567      000000
 153:testHexIO.cpp **** 	status = bufInitialise(&data, 1024, 0x00, NULL);
 3568              		.loc 4 153 0
 3569 178d 488D45A0 		leaq	-96(%rbp), %rax
 3570 1791 B9000000 		movl	$0, %ecx
 3570      00
 3571 1796 BA000000 		movl	$0, %edx
 3571      00
 3572 179b BE000400 		movl	$1024, %esi
 3572      00
 3573 17a0 4889C7   		movq	%rax, %rdi
 3574              	.LEHB138:
 3575 17a3 E8000000 		call	bufInitialise
 3575      00
 3576              	.LEHE138:
 3577 17a8 89458C   		movl	%eax, -116(%rbp)
 3578              	.LEHB139:
 154:testHexIO.cpp **** 	CHECK_EQUAL(BUF_SUCCESS, status);
 3579              		.loc 4 154 0
 3580 17ab E8000000 		call	_ZN8UnitTest11CurrentTest7DetailsEv
 3580      00
 3581 17b0 488B08   		movq	(%rax), %rcx
 3582 17b3 488D45C0 		leaq	-64(%rbp), %rax
 3583 17b7 BA9A0000 		movl	$154, %edx
 3583      00
 3584 17bc 4889CE   		movq	%rcx, %rsi
 3585 17bf 4889C7   		movq	%rax, %rdi
 3586 17c2 E8000000 		call	_ZN8UnitTest11TestDetailsC1ERKS0_i
 3586      00
 3587              		.loc 4 154 0 is_stmt 0 discriminator 2
 3588 17c7 C7459400 		movl	$0, -108(%rbp)
 3588      000000
 3589 17ce E8000000 		call	_ZN8UnitTest11CurrentTest7ResultsEv
 3589      00
 3590 17d3 488B00   		movq	(%rax), %rax
 3591 17d6 488D4DC0 		leaq	-64(%rbp), %rcx
 3592 17da 488D558C 		leaq	-116(%rbp), %rdx
 3593 17de 488D7594 		leaq	-108(%rbp), %rsi
 3594 17e2 4889C7   		movq	%rax, %rdi
 3595 17e5 E8000000 		call	_ZN8UnitTest10CheckEqualI12BufferStatusS1_EEvRNS_11TestResultsERKT_RKT0_RKNS_11TestDetailsE
 3595      00
 3596              	.LEHE139:
 3597              	.L182:
 155:testHexIO.cpp **** 	status = bufProcessLine(line, 0, &data, NULL, &seg, &recordType, NULL);
 3598              		.loc 4 155 0 is_stmt 1
 3599 17ea 4883EC08 		subq	$8, %rsp
 3600 17ee 488D758B 		leaq	-117(%rbp), %rsi
 3601 17f2 488D4D90 		leaq	-112(%rbp), %rcx
 3602 17f6 488D55A0 		leaq	-96(%rbp), %rdx
 3603 17fa 488B4598 		movq	-104(%rbp), %rax
 3604 17fe 6A00     		pushq	$0
 3605 1800 4989F1   		movq	%rsi, %r9
 3606 1803 4989C8   		movq	%rcx, %r8
 3607 1806 B9000000 		movl	$0, %ecx
 3607      00
 3608 180b BE000000 		movl	$0, %esi
 3608      00
 3609 1810 4889C7   		movq	%rax, %rdi
 3610              	.LEHB140:
 3611 1813 E8000000 		call	bufProcessLine
 3611      00
 3612              	.LEHE140:
 3613 1818 4883C410 		addq	$16, %rsp
 3614 181c 89458C   		movl	%eax, -116(%rbp)
 3615              	.LEHB141:
 156:testHexIO.cpp **** 	CHECK_EQUAL(HEX_JUNK_CHECKSUM, status);
 3616              		.loc 4 156 0
 3617 181f E8000000 		call	_ZN8UnitTest11CurrentTest7DetailsEv
 3617      00
 3618 1824 488B08   		movq	(%rax), %rcx
 3619 1827 488D45C0 		leaq	-64(%rbp), %rax
 3620 182b BA9C0000 		movl	$156, %edx
 3620      00
 3621 1830 4889CE   		movq	%rcx, %rsi
 3622 1833 4889C7   		movq	%rax, %rdi
 3623 1836 E8000000 		call	_ZN8UnitTest11TestDetailsC1ERKS0_i
 3623      00
 3624              		.loc 4 156 0 is_stmt 0 discriminator 2
 3625 183b C745940E 		movl	$14, -108(%rbp)
 3625      000000
 3626 1842 E8000000 		call	_ZN8UnitTest11CurrentTest7ResultsEv
 3626      00
 3627 1847 488B00   		movq	(%rax), %rax
 3628 184a 488D4DC0 		leaq	-64(%rbp), %rcx
 3629 184e 488D558C 		leaq	-116(%rbp), %rdx
 3630 1852 488D7594 		leaq	-108(%rbp), %rsi
 3631 1856 4889C7   		movq	%rax, %rdi
 3632 1859 E8000000 		call	_ZN8UnitTest10CheckEqualI12BufferStatusS1_EEvRNS_11TestResultsERKT_RKT0_RKNS_11TestDetailsE
 3632      00
 3633              	.LEHE141:
 3634              	.L185:
 157:testHexIO.cpp **** 	bufDestroy(&data);
 3635              		.loc 4 157 0 is_stmt 1
 3636 185e 488D45A0 		leaq	-96(%rbp), %rax
 3637 1862 4889C7   		movq	%rax, %rdi
 3638              	.LEHB142:
 3639 1865 E8000000 		call	bufDestroy
 3639      00
 3640              	.LEHE142:
 3641              	.LBE29:
 158:testHexIO.cpp **** }
 3642              		.loc 4 158 0
 3643 186a 488B45E8 		movq	-24(%rbp), %rax
 3644 186e 64483304 		xorq	%fs:40, %rax
 3644      25280000 
 3644      00
 3645 1877 0F84C400 		je	.L186
 3645      0000
 3646 187d E9BA0000 		jmp	.L191
 3646      00
 3647              	.L188:
 3648 1882 4889C3   		movq	%rax, %rbx
 3649              	.LBB30:
 154:testHexIO.cpp **** 	status = bufProcessLine(line, 0, &data, NULL, &seg, &recordType, NULL);
 3650              		.loc 4 154 0
 3651 1885 E8000000 		call	__cxa_end_catch
 3651      00
 3652 188a 4889D8   		movq	%rbx, %rax
 3653 188d 4889C7   		movq	%rax, %rdi
 3654              	.LEHB143:
 3655 1890 E8000000 		call	_Unwind_Resume
 3655      00
 3656              	.LEHE143:
 3657              	.L187:
 3658 1895 4889C7   		movq	%rax, %rdi
 3659 1898 E8000000 		call	__cxa_begin_catch
 3659      00
 3660              	.LEHB144:
 3661 189d E8000000 		call	_ZN8UnitTest11CurrentTest7DetailsEv
 3661      00
 3662 18a2 488B08   		movq	(%rax), %rcx
 3663 18a5 488D45C0 		leaq	-64(%rbp), %rax
 3664 18a9 BA9A0000 		movl	$154, %edx
 3664      00
 3665 18ae 4889CE   		movq	%rcx, %rsi
 3666 18b1 4889C7   		movq	%rax, %rdi
 3667 18b4 E8000000 		call	_ZN8UnitTest11TestDetailsC1ERKS0_i
 3667      00
 154:testHexIO.cpp **** 	status = bufProcessLine(line, 0, &data, NULL, &seg, &recordType, NULL);
 3668              		.loc 4 154 0 is_stmt 0 discriminator 10
 3669 18b9 E8000000 		call	_ZN8UnitTest11CurrentTest7ResultsEv
 3669      00
 3670 18be 488B00   		movq	(%rax), %rax
 3671 18c1 488D4DC0 		leaq	-64(%rbp), %rcx
 3672 18c5 BA000000 		movl	$.LC4, %edx
 3672      00
 3673 18ca 4889CE   		movq	%rcx, %rsi
 3674 18cd 4889C7   		movq	%rax, %rdi
 3675 18d0 E8000000 		call	_ZN8UnitTest11TestResults13OnTestFailureERKNS_11TestDetailsEPKc
 3675      00
 3676              	.LEHE144:
 3677              	.LEHB145:
 154:testHexIO.cpp **** 	status = bufProcessLine(line, 0, &data, NULL, &seg, &recordType, NULL);
 3678              		.loc 4 154 0 discriminator 14
 3679 18d5 E8000000 		call	__cxa_end_catch
 3679      00
 3680              	.LEHE145:
 3681 18da E90BFFFF 		jmp	.L182
 3681      FF
 3682              	.L190:
 3683 18df 4889C3   		movq	%rax, %rbx
 156:testHexIO.cpp **** 	bufDestroy(&data);
 3684              		.loc 4 156 0 is_stmt 1
 3685 18e2 E8000000 		call	__cxa_end_catch
 3685      00
 3686 18e7 4889D8   		movq	%rbx, %rax
 3687 18ea 4889C7   		movq	%rax, %rdi
 3688              	.LEHB146:
 3689 18ed E8000000 		call	_Unwind_Resume
 3689      00
 3690              	.LEHE146:
 3691              	.L189:
 3692 18f2 4889C7   		movq	%rax, %rdi
 3693 18f5 E8000000 		call	__cxa_begin_catch
 3693      00
 3694              	.LEHB147:
 3695 18fa E8000000 		call	_ZN8UnitTest11CurrentTest7DetailsEv
 3695      00
 3696 18ff 488B08   		movq	(%rax), %rcx
 3697 1902 488D45C0 		leaq	-64(%rbp), %rax
 3698 1906 BA9C0000 		movl	$156, %edx
 3698      00
 3699 190b 4889CE   		movq	%rcx, %rsi
 3700 190e 4889C7   		movq	%rax, %rdi
 3701 1911 E8000000 		call	_ZN8UnitTest11TestDetailsC1ERKS0_i
 3701      00
 156:testHexIO.cpp **** 	bufDestroy(&data);
 3702              		.loc 4 156 0 is_stmt 0 discriminator 10
 3703 1916 E8000000 		call	_ZN8UnitTest11CurrentTest7ResultsEv
 3703      00
 3704 191b 488B00   		movq	(%rax), %rax
 3705 191e 488D4DC0 		leaq	-64(%rbp), %rcx
 3706 1922 BA000000 		movl	$.LC36, %edx
 3706      00
 3707 1927 4889CE   		movq	%rcx, %rsi
 3708 192a 4889C7   		movq	%rax, %rdi
 3709 192d E8000000 		call	_ZN8UnitTest11TestResults13OnTestFailureERKNS_11TestDetailsEPKc
 3709      00
 3710              	.LEHE147:
 3711              	.LEHB148:
 156:testHexIO.cpp **** 	bufDestroy(&data);
 3712              		.loc 4 156 0 discriminator 14
 3713 1932 E8000000 		call	__cxa_end_catch
 3713      00
 3714              	.LEHE148:
 3715 1937 E922FFFF 		jmp	.L185
 3715      FF
 3716              	.L191:
 3717              	.LBE30:
 3718              		.loc 4 158 0 is_stmt 1
 3719 193c E8000000 		call	__stack_chk_fail
 3719      00
 3720              	.L186:
 3721 1941 488B5DF8 		movq	-8(%rbp), %rbx
 3722 1945 C9       		leave
 3723              		.cfi_def_cfa 7, 8
 3724 1946 C3       		ret
 3725              		.cfi_endproc
 3726              	.LFE1168:
 3727              		.section	.gcc_except_table
 3728              		.align 4
 3729              	.LLSDA1168:
 3730 0324 FF       		.byte	0xff
 3731 0325 03       		.byte	0x3
 3732 0326 41       		.uleb128 .LLSDATT1168-.LLSDATTD1168
 3733              	.LLSDATTD1168:
 3734 0327 01       		.byte	0x1
 3735 0328 39       		.uleb128 .LLSDACSE1168-.LLSDACSB1168
 3736              	.LLSDACSB1168:
 3737 0329 47       		.uleb128 .LEHB138-.LFB1168
 3738 032a 05       		.uleb128 .LEHE138-.LEHB138
 3739 032b 00       		.uleb128 0
 3740 032c 00       		.uleb128 0
 3741 032d 4F       		.uleb128 .LEHB139-.LFB1168
 3742 032e 3F       		.uleb128 .LEHE139-.LEHB139
 3743 032f B902     		.uleb128 .L187-.LFB1168
 3744 0331 01       		.uleb128 0x1
 3745 0332 B701     		.uleb128 .LEHB140-.LFB1168
 3746 0334 05       		.uleb128 .LEHE140-.LEHB140
 3747 0335 00       		.uleb128 0
 3748 0336 00       		.uleb128 0
 3749 0337 C301     		.uleb128 .LEHB141-.LFB1168
 3750 0339 3F       		.uleb128 .LEHE141-.LEHB141
 3751 033a 9603     		.uleb128 .L189-.LFB1168
 3752 033c 01       		.uleb128 0x1
 3753 033d 8902     		.uleb128 .LEHB142-.LFB1168
 3754 033f 05       		.uleb128 .LEHE142-.LEHB142
 3755 0340 00       		.uleb128 0
 3756 0341 00       		.uleb128 0
 3757 0342 B402     		.uleb128 .LEHB143-.LFB1168
 3758 0344 05       		.uleb128 .LEHE143-.LEHB143
 3759 0345 00       		.uleb128 0
 3760 0346 00       		.uleb128 0
 3761 0347 C102     		.uleb128 .LEHB144-.LFB1168
 3762 0349 38       		.uleb128 .LEHE144-.LEHB144
 3763 034a A602     		.uleb128 .L188-.LFB1168
 3764 034c 00       		.uleb128 0
 3765 034d F902     		.uleb128 .LEHB145-.LFB1168
 3766 034f 05       		.uleb128 .LEHE145-.LEHB145
 3767 0350 00       		.uleb128 0
 3768 0351 00       		.uleb128 0
 3769 0352 9103     		.uleb128 .LEHB146-.LFB1168
 3770 0354 05       		.uleb128 .LEHE146-.LEHB146
 3771 0355 00       		.uleb128 0
 3772 0356 00       		.uleb128 0
 3773 0357 9E03     		.uleb128 .LEHB147-.LFB1168
 3774 0359 38       		.uleb128 .LEHE147-.LEHB147
 3775 035a 8303     		.uleb128 .L190-.LFB1168
 3776 035c 00       		.uleb128 0
 3777 035d D603     		.uleb128 .LEHB148-.LFB1168
 3778 035f 05       		.uleb128 .LEHE148-.LEHB148
 3779 0360 00       		.uleb128 0
 3780 0361 00       		.uleb128 0
 3781              	.LLSDACSE1168:
 3782 0362 01       		.byte	0x1
 3783 0363 00       		.byte	0
 3784              		.align 4
 3785 0364 00000000 		.long	0
 3786              	
 3787              	.LLSDATT1168:
 3788              		.text
 3790              		.section	.rodata
 3791              	.LC37:
 3792 05d6 48657849 		.string	"HexIO_testBadChecksum"
 3792      4F5F7465 
 3792      73744261 
 3792      64436865 
 3792      636B7375 
 3793              		.section	.text._ZN25TestHexIO_testBadChecksumC2Ev,"axG",@progbits,_ZN25TestHexIO_testBadChecksumC5
 3794              		.align 2
 3795              		.weak	_ZN25TestHexIO_testBadChecksumC2Ev
 3797              	_ZN25TestHexIO_testBadChecksumC2Ev:
 3798              	.LFB1170:
 159:testHexIO.cpp **** 
 160:testHexIO.cpp **** TEST(HexIO_testBadChecksum) {
 3799              		.loc 4 160 0
 3800              		.cfi_startproc
 3801 0000 55       		pushq	%rbp
 3802              		.cfi_def_cfa_offset 16
 3803              		.cfi_offset 6, -16
 3804 0001 4889E5   		movq	%rsp, %rbp
 3805              		.cfi_def_cfa_register 6
 3806 0004 4883EC10 		subq	$16, %rsp
 3807 0008 48897DF8 		movq	%rdi, -8(%rbp)
 3808              	.LBB31:
 3809              		.loc 4 160 0
 3810 000c E8000000 		call	_ZN13UnitTestSuite12GetSuiteNameEv
 3810      00
 3811 0011 4889C2   		movq	%rax, %rdx
 3812 0014 488B45F8 		movq	-8(%rbp), %rax
 3813 0018 41B8A000 		movl	$160, %r8d
 3813      0000
 3814 001e B9000000 		movl	$.LC1, %ecx
 3814      00
 3815 0023 BE000000 		movl	$.LC37, %esi
 3815      00
 3816 0028 4889C7   		movq	%rax, %rdi
 3817 002b E8000000 		call	_ZN8UnitTest4TestC2EPKcS2_S2_i
 3817      00
 3818 0030 488B45F8 		movq	-8(%rbp), %rax
 3819 0034 48C70000 		movq	$_ZTV25TestHexIO_testBadChecksum+16, (%rax)
 3819      000000
 3820              	.LBE31:
 3821 003b C9       		leave
 3822              		.cfi_def_cfa 7, 8
 3823 003c C3       		ret
 3824              		.cfi_endproc
 3825              	.LFE1170:
 3827              		.weak	_ZN25TestHexIO_testBadChecksumC1Ev
 3828              		.set	_ZN25TestHexIO_testBadChecksumC1Ev,_ZN25TestHexIO_testBadChecksumC2Ev
 3829              		.globl	testHexIO_testBadChecksumInstance
 3830              		.bss
 3831 0239 00000000 		.align 32
 3831      000000
 3834              	testHexIO_testBadChecksumInstance:
 3835 0240 00000000 		.zero	56
 3835      00000000 
 3835      00000000 
 3835      00000000 
 3835      00000000 
 3836              		.globl	adderHexIO_testBadChecksum
 3839              	adderHexIO_testBadChecksum:
 3840 0278 00       		.zero	1
 3841              		.section	.rodata
 3842              	.LC38:
 3843 05ec 3A303430 		.string	":040BE10075820022F8\n"
 3843      42453130 
 3843      30373538 
 3843      32303032 
 3843      3246380A 
 3844 0601 00000000 		.align 8
 3844      000000
 3845              	.LC39:
 3846 0608 556E6861 		.string	"Unhandled exception in CHECK_EQUAL(HEX_BAD_CHECKSUM, status)"
 3846      6E646C65 
 3846      64206578 
 3846      63657074 
 3846      696F6E20 
 3847              		.text
 3848 1947 90       		.align 2
 3849              		.globl	_ZNK25TestHexIO_testBadChecksum7RunImplEv
 3851              	_ZNK25TestHexIO_testBadChecksum7RunImplEv:
 3852              	.LFB1172:
 3853              		.loc 4 160 0
 3854              		.cfi_startproc
 3855              		.cfi_personality 0x3,__gxx_personality_v0
 3856              		.cfi_lsda 0x3,.LLSDA1172
 3857 1948 55       		pushq	%rbp
 3858              		.cfi_def_cfa_offset 16
 3859              		.cfi_offset 6, -16
 3860 1949 4889E5   		movq	%rsp, %rbp
 3861              		.cfi_def_cfa_register 6
 3862 194c 53       		pushq	%rbx
 3863 194d 4881EC88 		subq	$136, %rsp
 3863      000000
 3864              		.cfi_offset 3, -24
 3865 1954 4889BD78 		movq	%rdi, -136(%rbp)
 3865      FFFFFF
 3866              		.loc 4 160 0
 3867 195b 64488B04 		movq	%fs:40, %rax
 3867      25280000 
 3867      00
 3868 1964 488945E8 		movq	%rax, -24(%rbp)
 3869 1968 31C0     		xorl	%eax, %eax
 3870              	.LBB32:
 161:testHexIO.cpp **** 	Buffer data;
 162:testHexIO.cpp **** 	BufferStatus status;
 163:testHexIO.cpp **** 	const char *line = ":040BE10075820022F8\n";
 3871              		.loc 4 163 0
 3872 196a 48C74598 		movq	$.LC38, -104(%rbp)
 3872      00000000 
 164:testHexIO.cpp **** 	uint8 recordType;
 165:testHexIO.cpp **** 	uint32 seg = 0x00000000;
 3873              		.loc 4 165 0
 3874 1972 C7459000 		movl	$0, -112(%rbp)
 3874      000000
 166:testHexIO.cpp **** 	status = bufInitialise(&data, 1024, 0x00, NULL);
 3875              		.loc 4 166 0
 3876 1979 488D45A0 		leaq	-96(%rbp), %rax
 3877 197d B9000000 		movl	$0, %ecx
 3877      00
 3878 1982 BA000000 		movl	$0, %edx
 3878      00
 3879 1987 BE000400 		movl	$1024, %esi
 3879      00
 3880 198c 4889C7   		movq	%rax, %rdi
 3881              	.LEHB149:
 3882 198f E8000000 		call	bufInitialise
 3882      00
 3883              	.LEHE149:
 3884 1994 89458C   		movl	%eax, -116(%rbp)
 3885              	.LEHB150:
 167:testHexIO.cpp **** 	CHECK_EQUAL(BUF_SUCCESS, status);
 3886              		.loc 4 167 0
 3887 1997 E8000000 		call	_ZN8UnitTest11CurrentTest7DetailsEv
 3887      00
 3888 199c 488B08   		movq	(%rax), %rcx
 3889 199f 488D45C0 		leaq	-64(%rbp), %rax
 3890 19a3 BAA70000 		movl	$167, %edx
 3890      00
 3891 19a8 4889CE   		movq	%rcx, %rsi
 3892 19ab 4889C7   		movq	%rax, %rdi
 3893 19ae E8000000 		call	_ZN8UnitTest11TestDetailsC1ERKS0_i
 3893      00
 3894              		.loc 4 167 0 is_stmt 0 discriminator 2
 3895 19b3 C7459400 		movl	$0, -108(%rbp)
 3895      000000
 3896 19ba E8000000 		call	_ZN8UnitTest11CurrentTest7ResultsEv
 3896      00
 3897 19bf 488B00   		movq	(%rax), %rax
 3898 19c2 488D4DC0 		leaq	-64(%rbp), %rcx
 3899 19c6 488D558C 		leaq	-116(%rbp), %rdx
 3900 19ca 488D7594 		leaq	-108(%rbp), %rsi
 3901 19ce 4889C7   		movq	%rax, %rdi
 3902 19d1 E8000000 		call	_ZN8UnitTest10CheckEqualI12BufferStatusS1_EEvRNS_11TestResultsERKT_RKT0_RKNS_11TestDetailsE
 3902      00
 3903              	.LEHE150:
 3904              	.L196:
 168:testHexIO.cpp **** 	status = bufProcessLine(line, 0, &data, NULL, &seg, &recordType, NULL);
 3905              		.loc 4 168 0 is_stmt 1
 3906 19d6 4883EC08 		subq	$8, %rsp
 3907 19da 488D758B 		leaq	-117(%rbp), %rsi
 3908 19de 488D4D90 		leaq	-112(%rbp), %rcx
 3909 19e2 488D55A0 		leaq	-96(%rbp), %rdx
 3910 19e6 488B4598 		movq	-104(%rbp), %rax
 3911 19ea 6A00     		pushq	$0
 3912 19ec 4989F1   		movq	%rsi, %r9
 3913 19ef 4989C8   		movq	%rcx, %r8
 3914 19f2 B9000000 		movl	$0, %ecx
 3914      00
 3915 19f7 BE000000 		movl	$0, %esi
 3915      00
 3916 19fc 4889C7   		movq	%rax, %rdi
 3917              	.LEHB151:
 3918 19ff E8000000 		call	bufProcessLine
 3918      00
 3919              	.LEHE151:
 3920 1a04 4883C410 		addq	$16, %rsp
 3921 1a08 89458C   		movl	%eax, -116(%rbp)
 3922              	.LEHB152:
 169:testHexIO.cpp **** 	CHECK_EQUAL(HEX_BAD_CHECKSUM, status);
 3923              		.loc 4 169 0
 3924 1a0b E8000000 		call	_ZN8UnitTest11CurrentTest7DetailsEv
 3924      00
 3925 1a10 488B08   		movq	(%rax), %rcx
 3926 1a13 488D45C0 		leaq	-64(%rbp), %rax
 3927 1a17 BAA90000 		movl	$169, %edx
 3927      00
 3928 1a1c 4889CE   		movq	%rcx, %rsi
 3929 1a1f 4889C7   		movq	%rax, %rdi
 3930 1a22 E8000000 		call	_ZN8UnitTest11TestDetailsC1ERKS0_i
 3930      00
 3931              		.loc 4 169 0 is_stmt 0 discriminator 2
 3932 1a27 C745940F 		movl	$15, -108(%rbp)
 3932      000000
 3933 1a2e E8000000 		call	_ZN8UnitTest11CurrentTest7ResultsEv
 3933      00
 3934 1a33 488B00   		movq	(%rax), %rax
 3935 1a36 488D4DC0 		leaq	-64(%rbp), %rcx
 3936 1a3a 488D558C 		leaq	-116(%rbp), %rdx
 3937 1a3e 488D7594 		leaq	-108(%rbp), %rsi
 3938 1a42 4889C7   		movq	%rax, %rdi
 3939 1a45 E8000000 		call	_ZN8UnitTest10CheckEqualI12BufferStatusS1_EEvRNS_11TestResultsERKT_RKT0_RKNS_11TestDetailsE
 3939      00
 3940              	.LEHE152:
 3941              	.L199:
 170:testHexIO.cpp **** 	bufDestroy(&data);
 3942              		.loc 4 170 0 is_stmt 1
 3943 1a4a 488D45A0 		leaq	-96(%rbp), %rax
 3944 1a4e 4889C7   		movq	%rax, %rdi
 3945              	.LEHB153:
 3946 1a51 E8000000 		call	bufDestroy
 3946      00
 3947              	.LEHE153:
 3948              	.LBE32:
 171:testHexIO.cpp **** }
 3949              		.loc 4 171 0
 3950 1a56 488B45E8 		movq	-24(%rbp), %rax
 3951 1a5a 64483304 		xorq	%fs:40, %rax
 3951      25280000 
 3951      00
 3952 1a63 0F84C400 		je	.L200
 3952      0000
 3953 1a69 E9BA0000 		jmp	.L205
 3953      00
 3954              	.L202:
 3955 1a6e 4889C3   		movq	%rax, %rbx
 3956              	.LBB33:
 167:testHexIO.cpp **** 	status = bufProcessLine(line, 0, &data, NULL, &seg, &recordType, NULL);
 3957              		.loc 4 167 0
 3958 1a71 E8000000 		call	__cxa_end_catch
 3958      00
 3959 1a76 4889D8   		movq	%rbx, %rax
 3960 1a79 4889C7   		movq	%rax, %rdi
 3961              	.LEHB154:
 3962 1a7c E8000000 		call	_Unwind_Resume
 3962      00
 3963              	.LEHE154:
 3964              	.L201:
 3965 1a81 4889C7   		movq	%rax, %rdi
 3966 1a84 E8000000 		call	__cxa_begin_catch
 3966      00
 3967              	.LEHB155:
 3968 1a89 E8000000 		call	_ZN8UnitTest11CurrentTest7DetailsEv
 3968      00
 3969 1a8e 488B08   		movq	(%rax), %rcx
 3970 1a91 488D45C0 		leaq	-64(%rbp), %rax
 3971 1a95 BAA70000 		movl	$167, %edx
 3971      00
 3972 1a9a 4889CE   		movq	%rcx, %rsi
 3973 1a9d 4889C7   		movq	%rax, %rdi
 3974 1aa0 E8000000 		call	_ZN8UnitTest11TestDetailsC1ERKS0_i
 3974      00
 167:testHexIO.cpp **** 	status = bufProcessLine(line, 0, &data, NULL, &seg, &recordType, NULL);
 3975              		.loc 4 167 0 is_stmt 0 discriminator 10
 3976 1aa5 E8000000 		call	_ZN8UnitTest11CurrentTest7ResultsEv
 3976      00
 3977 1aaa 488B00   		movq	(%rax), %rax
 3978 1aad 488D4DC0 		leaq	-64(%rbp), %rcx
 3979 1ab1 BA000000 		movl	$.LC4, %edx
 3979      00
 3980 1ab6 4889CE   		movq	%rcx, %rsi
 3981 1ab9 4889C7   		movq	%rax, %rdi
 3982 1abc E8000000 		call	_ZN8UnitTest11TestResults13OnTestFailureERKNS_11TestDetailsEPKc
 3982      00
 3983              	.LEHE155:
 3984              	.LEHB156:
 167:testHexIO.cpp **** 	status = bufProcessLine(line, 0, &data, NULL, &seg, &recordType, NULL);
 3985              		.loc 4 167 0 discriminator 14
 3986 1ac1 E8000000 		call	__cxa_end_catch
 3986      00
 3987              	.LEHE156:
 3988 1ac6 E90BFFFF 		jmp	.L196
 3988      FF
 3989              	.L204:
 3990 1acb 4889C3   		movq	%rax, %rbx
 169:testHexIO.cpp **** 	bufDestroy(&data);
 3991              		.loc 4 169 0 is_stmt 1
 3992 1ace E8000000 		call	__cxa_end_catch
 3992      00
 3993 1ad3 4889D8   		movq	%rbx, %rax
 3994 1ad6 4889C7   		movq	%rax, %rdi
 3995              	.LEHB157:
 3996 1ad9 E8000000 		call	_Unwind_Resume
 3996      00
 3997              	.LEHE157:
 3998              	.L203:
 3999 1ade 4889C7   		movq	%rax, %rdi
 4000 1ae1 E8000000 		call	__cxa_begin_catch
 4000      00
 4001              	.LEHB158:
 4002 1ae6 E8000000 		call	_ZN8UnitTest11CurrentTest7DetailsEv
 4002      00
 4003 1aeb 488B08   		movq	(%rax), %rcx
 4004 1aee 488D45C0 		leaq	-64(%rbp), %rax
 4005 1af2 BAA90000 		movl	$169, %edx
 4005      00
 4006 1af7 4889CE   		movq	%rcx, %rsi
 4007 1afa 4889C7   		movq	%rax, %rdi
 4008 1afd E8000000 		call	_ZN8UnitTest11TestDetailsC1ERKS0_i
 4008      00
 169:testHexIO.cpp **** 	bufDestroy(&data);
 4009              		.loc 4 169 0 is_stmt 0 discriminator 10
 4010 1b02 E8000000 		call	_ZN8UnitTest11CurrentTest7ResultsEv
 4010      00
 4011 1b07 488B00   		movq	(%rax), %rax
 4012 1b0a 488D4DC0 		leaq	-64(%rbp), %rcx
 4013 1b0e BA000000 		movl	$.LC39, %edx
 4013      00
 4014 1b13 4889CE   		movq	%rcx, %rsi
 4015 1b16 4889C7   		movq	%rax, %rdi
 4016 1b19 E8000000 		call	_ZN8UnitTest11TestResults13OnTestFailureERKNS_11TestDetailsEPKc
 4016      00
 4017              	.LEHE158:
 4018              	.LEHB159:
 169:testHexIO.cpp **** 	bufDestroy(&data);
 4019              		.loc 4 169 0 discriminator 14
 4020 1b1e E8000000 		call	__cxa_end_catch
 4020      00
 4021              	.LEHE159:
 4022 1b23 E922FFFF 		jmp	.L199
 4022      FF
 4023              	.L205:
 4024              	.LBE33:
 4025              		.loc 4 171 0 is_stmt 1
 4026 1b28 E8000000 		call	__stack_chk_fail
 4026      00
 4027              	.L200:
 4028 1b2d 488B5DF8 		movq	-8(%rbp), %rbx
 4029 1b31 C9       		leave
 4030              		.cfi_def_cfa 7, 8
 4031 1b32 C3       		ret
 4032              		.cfi_endproc
 4033              	.LFE1172:
 4034              		.section	.gcc_except_table
 4035              		.align 4
 4036              	.LLSDA1172:
 4037 0368 FF       		.byte	0xff
 4038 0369 03       		.byte	0x3
 4039 036a 41       		.uleb128 .LLSDATT1172-.LLSDATTD1172
 4040              	.LLSDATTD1172:
 4041 036b 01       		.byte	0x1
 4042 036c 39       		.uleb128 .LLSDACSE1172-.LLSDACSB1172
 4043              	.LLSDACSB1172:
 4044 036d 47       		.uleb128 .LEHB149-.LFB1172
 4045 036e 05       		.uleb128 .LEHE149-.LEHB149
 4046 036f 00       		.uleb128 0
 4047 0370 00       		.uleb128 0
 4048 0371 4F       		.uleb128 .LEHB150-.LFB1172
 4049 0372 3F       		.uleb128 .LEHE150-.LEHB150
 4050 0373 B902     		.uleb128 .L201-.LFB1172
 4051 0375 01       		.uleb128 0x1
 4052 0376 B701     		.uleb128 .LEHB151-.LFB1172
 4053 0378 05       		.uleb128 .LEHE151-.LEHB151
 4054 0379 00       		.uleb128 0
 4055 037a 00       		.uleb128 0
 4056 037b C301     		.uleb128 .LEHB152-.LFB1172
 4057 037d 3F       		.uleb128 .LEHE152-.LEHB152
 4058 037e 9603     		.uleb128 .L203-.LFB1172
 4059 0380 01       		.uleb128 0x1
 4060 0381 8902     		.uleb128 .LEHB153-.LFB1172
 4061 0383 05       		.uleb128 .LEHE153-.LEHB153
 4062 0384 00       		.uleb128 0
 4063 0385 00       		.uleb128 0
 4064 0386 B402     		.uleb128 .LEHB154-.LFB1172
 4065 0388 05       		.uleb128 .LEHE154-.LEHB154
 4066 0389 00       		.uleb128 0
 4067 038a 00       		.uleb128 0
 4068 038b C102     		.uleb128 .LEHB155-.LFB1172
 4069 038d 38       		.uleb128 .LEHE155-.LEHB155
 4070 038e A602     		.uleb128 .L202-.LFB1172
 4071 0390 00       		.uleb128 0
 4072 0391 F902     		.uleb128 .LEHB156-.LFB1172
 4073 0393 05       		.uleb128 .LEHE156-.LEHB156
 4074 0394 00       		.uleb128 0
 4075 0395 00       		.uleb128 0
 4076 0396 9103     		.uleb128 .LEHB157-.LFB1172
 4077 0398 05       		.uleb128 .LEHE157-.LEHB157
 4078 0399 00       		.uleb128 0
 4079 039a 00       		.uleb128 0
 4080 039b 9E03     		.uleb128 .LEHB158-.LFB1172
 4081 039d 38       		.uleb128 .LEHE158-.LEHB158
 4082 039e 8303     		.uleb128 .L204-.LFB1172
 4083 03a0 00       		.uleb128 0
 4084 03a1 D603     		.uleb128 .LEHB159-.LFB1172
 4085 03a3 05       		.uleb128 .LEHE159-.LEHB159
 4086 03a4 00       		.uleb128 0
 4087 03a5 00       		.uleb128 0
 4088              	.LLSDACSE1172:
 4089 03a6 01       		.byte	0x1
 4090 03a7 00       		.byte	0
 4091              		.align 4
 4092 03a8 00000000 		.long	0
 4093              	
 4094              	.LLSDATT1172:
 4095              		.text
 4097              		.section	.rodata
 4098              	.LC40:
 4099 0645 48657849 		.string	"HexIO_testCorruptLine"
 4099      4F5F7465 
 4099      7374436F 
 4099      72727570 
 4099      744C696E 
 4100              		.section	.text._ZN25TestHexIO_testCorruptLineC2Ev,"axG",@progbits,_ZN25TestHexIO_testCorruptLineC5
 4101              		.align 2
 4102              		.weak	_ZN25TestHexIO_testCorruptLineC2Ev
 4104              	_ZN25TestHexIO_testCorruptLineC2Ev:
 4105              	.LFB1174:
 172:testHexIO.cpp **** 
 173:testHexIO.cpp **** TEST(HexIO_testCorruptLine) {
 4106              		.loc 4 173 0
 4107              		.cfi_startproc
 4108 0000 55       		pushq	%rbp
 4109              		.cfi_def_cfa_offset 16
 4110              		.cfi_offset 6, -16
 4111 0001 4889E5   		movq	%rsp, %rbp
 4112              		.cfi_def_cfa_register 6
 4113 0004 4883EC10 		subq	$16, %rsp
 4114 0008 48897DF8 		movq	%rdi, -8(%rbp)
 4115              	.LBB34:
 4116              		.loc 4 173 0
 4117 000c E8000000 		call	_ZN13UnitTestSuite12GetSuiteNameEv
 4117      00
 4118 0011 4889C2   		movq	%rax, %rdx
 4119 0014 488B45F8 		movq	-8(%rbp), %rax
 4120 0018 41B8AD00 		movl	$173, %r8d
 4120      0000
 4121 001e B9000000 		movl	$.LC1, %ecx
 4121      00
 4122 0023 BE000000 		movl	$.LC40, %esi
 4122      00
 4123 0028 4889C7   		movq	%rax, %rdi
 4124 002b E8000000 		call	_ZN8UnitTest4TestC2EPKcS2_S2_i
 4124      00
 4125 0030 488B45F8 		movq	-8(%rbp), %rax
 4126 0034 48C70000 		movq	$_ZTV25TestHexIO_testCorruptLine+16, (%rax)
 4126      000000
 4127              	.LBE34:
 4128 003b C9       		leave
 4129              		.cfi_def_cfa 7, 8
 4130 003c C3       		ret
 4131              		.cfi_endproc
 4132              	.LFE1174:
 4134              		.weak	_ZN25TestHexIO_testCorruptLineC1Ev
 4135              		.set	_ZN25TestHexIO_testCorruptLineC1Ev,_ZN25TestHexIO_testCorruptLineC2Ev
 4136              		.globl	testHexIO_testCorruptLineInstance
 4137              		.bss
 4138 0279 00000000 		.align 32
 4138      000000
 4141              	testHexIO_testCorruptLineInstance:
 4142 0280 00000000 		.zero	56
 4142      00000000 
 4142      00000000 
 4142      00000000 
 4142      00000000 
 4143              		.globl	adderHexIO_testCorruptLine
 4146              	adderHexIO_testCorruptLine:
 4147 02b8 00       		.zero	1
 4148              		.section	.rodata
 4149              	.LC41:
 4150 065b 3A303430 		.string	":040BE10075820022F7 \n"
 4150      42453130 
 4150      30373538 
 4150      32303032 
 4150      32463720 
 4151 0671 00000000 		.align 8
 4151      000000
 4152              	.LC42:
 4153 0678 556E6861 		.string	"Unhandled exception in CHECK_EQUAL(HEX_CORRUPT_LINE, status)"
 4153      6E646C65 
 4153      64206578 
 4153      63657074 
 4153      696F6E20 
 4154              		.text
 4155 1b33 90       		.align 2
 4156              		.globl	_ZNK25TestHexIO_testCorruptLine7RunImplEv
 4158              	_ZNK25TestHexIO_testCorruptLine7RunImplEv:
 4159              	.LFB1176:
 4160              		.loc 4 173 0
 4161              		.cfi_startproc
 4162              		.cfi_personality 0x3,__gxx_personality_v0
 4163              		.cfi_lsda 0x3,.LLSDA1176
 4164 1b34 55       		pushq	%rbp
 4165              		.cfi_def_cfa_offset 16
 4166              		.cfi_offset 6, -16
 4167 1b35 4889E5   		movq	%rsp, %rbp
 4168              		.cfi_def_cfa_register 6
 4169 1b38 53       		pushq	%rbx
 4170 1b39 4881EC88 		subq	$136, %rsp
 4170      000000
 4171              		.cfi_offset 3, -24
 4172 1b40 4889BD78 		movq	%rdi, -136(%rbp)
 4172      FFFFFF
 4173              		.loc 4 173 0
 4174 1b47 64488B04 		movq	%fs:40, %rax
 4174      25280000 
 4174      00
 4175 1b50 488945E8 		movq	%rax, -24(%rbp)
 4176 1b54 31C0     		xorl	%eax, %eax
 4177              	.LBB35:
 174:testHexIO.cpp **** 	Buffer data;
 175:testHexIO.cpp **** 	BufferStatus status;
 176:testHexIO.cpp **** 	const char *line = ":040BE10075820022F7 \n";
 4178              		.loc 4 176 0
 4179 1b56 48C74598 		movq	$.LC41, -104(%rbp)
 4179      00000000 
 177:testHexIO.cpp **** 	uint8 recordType;
 178:testHexIO.cpp **** 	uint32 seg = 0x00000000;
 4180              		.loc 4 178 0
 4181 1b5e C7459000 		movl	$0, -112(%rbp)
 4181      000000
 179:testHexIO.cpp **** 	status = bufInitialise(&data, 1024, 0x00, NULL);
 4182              		.loc 4 179 0
 4183 1b65 488D45A0 		leaq	-96(%rbp), %rax
 4184 1b69 B9000000 		movl	$0, %ecx
 4184      00
 4185 1b6e BA000000 		movl	$0, %edx
 4185      00
 4186 1b73 BE000400 		movl	$1024, %esi
 4186      00
 4187 1b78 4889C7   		movq	%rax, %rdi
 4188              	.LEHB160:
 4189 1b7b E8000000 		call	bufInitialise
 4189      00
 4190              	.LEHE160:
 4191 1b80 89458C   		movl	%eax, -116(%rbp)
 4192              	.LEHB161:
 180:testHexIO.cpp **** 	CHECK_EQUAL(BUF_SUCCESS, status);
 4193              		.loc 4 180 0
 4194 1b83 E8000000 		call	_ZN8UnitTest11CurrentTest7DetailsEv
 4194      00
 4195 1b88 488B08   		movq	(%rax), %rcx
 4196 1b8b 488D45C0 		leaq	-64(%rbp), %rax
 4197 1b8f BAB40000 		movl	$180, %edx
 4197      00
 4198 1b94 4889CE   		movq	%rcx, %rsi
 4199 1b97 4889C7   		movq	%rax, %rdi
 4200 1b9a E8000000 		call	_ZN8UnitTest11TestDetailsC1ERKS0_i
 4200      00
 4201              		.loc 4 180 0 is_stmt 0 discriminator 2
 4202 1b9f C7459400 		movl	$0, -108(%rbp)
 4202      000000
 4203 1ba6 E8000000 		call	_ZN8UnitTest11CurrentTest7ResultsEv
 4203      00
 4204 1bab 488B00   		movq	(%rax), %rax
 4205 1bae 488D4DC0 		leaq	-64(%rbp), %rcx
 4206 1bb2 488D558C 		leaq	-116(%rbp), %rdx
 4207 1bb6 488D7594 		leaq	-108(%rbp), %rsi
 4208 1bba 4889C7   		movq	%rax, %rdi
 4209 1bbd E8000000 		call	_ZN8UnitTest10CheckEqualI12BufferStatusS1_EEvRNS_11TestResultsERKT_RKT0_RKNS_11TestDetailsE
 4209      00
 4210              	.LEHE161:
 4211              	.L210:
 181:testHexIO.cpp **** 	status = bufProcessLine(line, 0, &data, NULL, &seg, &recordType, NULL);
 4212              		.loc 4 181 0 is_stmt 1
 4213 1bc2 4883EC08 		subq	$8, %rsp
 4214 1bc6 488D758B 		leaq	-117(%rbp), %rsi
 4215 1bca 488D4D90 		leaq	-112(%rbp), %rcx
 4216 1bce 488D55A0 		leaq	-96(%rbp), %rdx
 4217 1bd2 488B4598 		movq	-104(%rbp), %rax
 4218 1bd6 6A00     		pushq	$0
 4219 1bd8 4989F1   		movq	%rsi, %r9
 4220 1bdb 4989C8   		movq	%rcx, %r8
 4221 1bde B9000000 		movl	$0, %ecx
 4221      00
 4222 1be3 BE000000 		movl	$0, %esi
 4222      00
 4223 1be8 4889C7   		movq	%rax, %rdi
 4224              	.LEHB162:
 4225 1beb E8000000 		call	bufProcessLine
 4225      00
 4226              	.LEHE162:
 4227 1bf0 4883C410 		addq	$16, %rsp
 4228 1bf4 89458C   		movl	%eax, -116(%rbp)
 4229              	.LEHB163:
 182:testHexIO.cpp **** 	CHECK_EQUAL(HEX_CORRUPT_LINE, status);
 4230              		.loc 4 182 0
 4231 1bf7 E8000000 		call	_ZN8UnitTest11CurrentTest7DetailsEv
 4231      00
 4232 1bfc 488B08   		movq	(%rax), %rcx
 4233 1bff 488D45C0 		leaq	-64(%rbp), %rax
 4234 1c03 BAB60000 		movl	$182, %edx
 4234      00
 4235 1c08 4889CE   		movq	%rcx, %rsi
 4236 1c0b 4889C7   		movq	%rax, %rdi
 4237 1c0e E8000000 		call	_ZN8UnitTest11TestDetailsC1ERKS0_i
 4237      00
 4238              		.loc 4 182 0 is_stmt 0 discriminator 2
 4239 1c13 C7459410 		movl	$16, -108(%rbp)
 4239      000000
 4240 1c1a E8000000 		call	_ZN8UnitTest11CurrentTest7ResultsEv
 4240      00
 4241 1c1f 488B00   		movq	(%rax), %rax
 4242 1c22 488D4DC0 		leaq	-64(%rbp), %rcx
 4243 1c26 488D558C 		leaq	-116(%rbp), %rdx
 4244 1c2a 488D7594 		leaq	-108(%rbp), %rsi
 4245 1c2e 4889C7   		movq	%rax, %rdi
 4246 1c31 E8000000 		call	_ZN8UnitTest10CheckEqualI12BufferStatusS1_EEvRNS_11TestResultsERKT_RKT0_RKNS_11TestDetailsE
 4246      00
 4247              	.LEHE163:
 4248              	.L213:
 183:testHexIO.cpp **** 	bufDestroy(&data);
 4249              		.loc 4 183 0 is_stmt 1
 4250 1c36 488D45A0 		leaq	-96(%rbp), %rax
 4251 1c3a 4889C7   		movq	%rax, %rdi
 4252              	.LEHB164:
 4253 1c3d E8000000 		call	bufDestroy
 4253      00
 4254              	.LEHE164:
 4255              	.LBE35:
 184:testHexIO.cpp **** }
 4256              		.loc 4 184 0
 4257 1c42 488B45E8 		movq	-24(%rbp), %rax
 4258 1c46 64483304 		xorq	%fs:40, %rax
 4258      25280000 
 4258      00
 4259 1c4f 0F84C400 		je	.L214
 4259      0000
 4260 1c55 E9BA0000 		jmp	.L219
 4260      00
 4261              	.L216:
 4262 1c5a 4889C3   		movq	%rax, %rbx
 4263              	.LBB36:
 180:testHexIO.cpp **** 	status = bufProcessLine(line, 0, &data, NULL, &seg, &recordType, NULL);
 4264              		.loc 4 180 0
 4265 1c5d E8000000 		call	__cxa_end_catch
 4265      00
 4266 1c62 4889D8   		movq	%rbx, %rax
 4267 1c65 4889C7   		movq	%rax, %rdi
 4268              	.LEHB165:
 4269 1c68 E8000000 		call	_Unwind_Resume
 4269      00
 4270              	.LEHE165:
 4271              	.L215:
 4272 1c6d 4889C7   		movq	%rax, %rdi
 4273 1c70 E8000000 		call	__cxa_begin_catch
 4273      00
 4274              	.LEHB166:
 4275 1c75 E8000000 		call	_ZN8UnitTest11CurrentTest7DetailsEv
 4275      00
 4276 1c7a 488B08   		movq	(%rax), %rcx
 4277 1c7d 488D45C0 		leaq	-64(%rbp), %rax
 4278 1c81 BAB40000 		movl	$180, %edx
 4278      00
 4279 1c86 4889CE   		movq	%rcx, %rsi
 4280 1c89 4889C7   		movq	%rax, %rdi
 4281 1c8c E8000000 		call	_ZN8UnitTest11TestDetailsC1ERKS0_i
 4281      00
 180:testHexIO.cpp **** 	status = bufProcessLine(line, 0, &data, NULL, &seg, &recordType, NULL);
 4282              		.loc 4 180 0 is_stmt 0 discriminator 10
 4283 1c91 E8000000 		call	_ZN8UnitTest11CurrentTest7ResultsEv
 4283      00
 4284 1c96 488B00   		movq	(%rax), %rax
 4285 1c99 488D4DC0 		leaq	-64(%rbp), %rcx
 4286 1c9d BA000000 		movl	$.LC4, %edx
 4286      00
 4287 1ca2 4889CE   		movq	%rcx, %rsi
 4288 1ca5 4889C7   		movq	%rax, %rdi
 4289 1ca8 E8000000 		call	_ZN8UnitTest11TestResults13OnTestFailureERKNS_11TestDetailsEPKc
 4289      00
 4290              	.LEHE166:
 4291              	.LEHB167:
 180:testHexIO.cpp **** 	status = bufProcessLine(line, 0, &data, NULL, &seg, &recordType, NULL);
 4292              		.loc 4 180 0 discriminator 14
 4293 1cad E8000000 		call	__cxa_end_catch
 4293      00
 4294              	.LEHE167:
 4295 1cb2 E90BFFFF 		jmp	.L210
 4295      FF
 4296              	.L218:
 4297 1cb7 4889C3   		movq	%rax, %rbx
 182:testHexIO.cpp **** 	bufDestroy(&data);
 4298              		.loc 4 182 0 is_stmt 1
 4299 1cba E8000000 		call	__cxa_end_catch
 4299      00
 4300 1cbf 4889D8   		movq	%rbx, %rax
 4301 1cc2 4889C7   		movq	%rax, %rdi
 4302              	.LEHB168:
 4303 1cc5 E8000000 		call	_Unwind_Resume
 4303      00
 4304              	.LEHE168:
 4305              	.L217:
 4306 1cca 4889C7   		movq	%rax, %rdi
 4307 1ccd E8000000 		call	__cxa_begin_catch
 4307      00
 4308              	.LEHB169:
 4309 1cd2 E8000000 		call	_ZN8UnitTest11CurrentTest7DetailsEv
 4309      00
 4310 1cd7 488B08   		movq	(%rax), %rcx
 4311 1cda 488D45C0 		leaq	-64(%rbp), %rax
 4312 1cde BAB60000 		movl	$182, %edx
 4312      00
 4313 1ce3 4889CE   		movq	%rcx, %rsi
 4314 1ce6 4889C7   		movq	%rax, %rdi
 4315 1ce9 E8000000 		call	_ZN8UnitTest11TestDetailsC1ERKS0_i
 4315      00
 182:testHexIO.cpp **** 	bufDestroy(&data);
 4316              		.loc 4 182 0 is_stmt 0 discriminator 10
 4317 1cee E8000000 		call	_ZN8UnitTest11CurrentTest7ResultsEv
 4317      00
 4318 1cf3 488B00   		movq	(%rax), %rax
 4319 1cf6 488D4DC0 		leaq	-64(%rbp), %rcx
 4320 1cfa BA000000 		movl	$.LC42, %edx
 4320      00
 4321 1cff 4889CE   		movq	%rcx, %rsi
 4322 1d02 4889C7   		movq	%rax, %rdi
 4323 1d05 E8000000 		call	_ZN8UnitTest11TestResults13OnTestFailureERKNS_11TestDetailsEPKc
 4323      00
 4324              	.LEHE169:
 4325              	.LEHB170:
 182:testHexIO.cpp **** 	bufDestroy(&data);
 4326              		.loc 4 182 0 discriminator 14
 4327 1d0a E8000000 		call	__cxa_end_catch
 4327      00
 4328              	.LEHE170:
 4329 1d0f E922FFFF 		jmp	.L213
 4329      FF
 4330              	.L219:
 4331              	.LBE36:
 4332              		.loc 4 184 0 is_stmt 1
 4333 1d14 E8000000 		call	__stack_chk_fail
 4333      00
 4334              	.L214:
 4335 1d19 488B5DF8 		movq	-8(%rbp), %rbx
 4336 1d1d C9       		leave
 4337              		.cfi_def_cfa 7, 8
 4338 1d1e C3       		ret
 4339              		.cfi_endproc
 4340              	.LFE1176:
 4341              		.section	.gcc_except_table
 4342              		.align 4
 4343              	.LLSDA1176:
 4344 03ac FF       		.byte	0xff
 4345 03ad 03       		.byte	0x3
 4346 03ae 41       		.uleb128 .LLSDATT1176-.LLSDATTD1176
 4347              	.LLSDATTD1176:
 4348 03af 01       		.byte	0x1
 4349 03b0 39       		.uleb128 .LLSDACSE1176-.LLSDACSB1176
 4350              	.LLSDACSB1176:
 4351 03b1 47       		.uleb128 .LEHB160-.LFB1176
 4352 03b2 05       		.uleb128 .LEHE160-.LEHB160
 4353 03b3 00       		.uleb128 0
 4354 03b4 00       		.uleb128 0
 4355 03b5 4F       		.uleb128 .LEHB161-.LFB1176
 4356 03b6 3F       		.uleb128 .LEHE161-.LEHB161
 4357 03b7 B902     		.uleb128 .L215-.LFB1176
 4358 03b9 01       		.uleb128 0x1
 4359 03ba B701     		.uleb128 .LEHB162-.LFB1176
 4360 03bc 05       		.uleb128 .LEHE162-.LEHB162
 4361 03bd 00       		.uleb128 0
 4362 03be 00       		.uleb128 0
 4363 03bf C301     		.uleb128 .LEHB163-.LFB1176
 4364 03c1 3F       		.uleb128 .LEHE163-.LEHB163
 4365 03c2 9603     		.uleb128 .L217-.LFB1176
 4366 03c4 01       		.uleb128 0x1
 4367 03c5 8902     		.uleb128 .LEHB164-.LFB1176
 4368 03c7 05       		.uleb128 .LEHE164-.LEHB164
 4369 03c8 00       		.uleb128 0
 4370 03c9 00       		.uleb128 0
 4371 03ca B402     		.uleb128 .LEHB165-.LFB1176
 4372 03cc 05       		.uleb128 .LEHE165-.LEHB165
 4373 03cd 00       		.uleb128 0
 4374 03ce 00       		.uleb128 0
 4375 03cf C102     		.uleb128 .LEHB166-.LFB1176
 4376 03d1 38       		.uleb128 .LEHE166-.LEHB166
 4377 03d2 A602     		.uleb128 .L216-.LFB1176
 4378 03d4 00       		.uleb128 0
 4379 03d5 F902     		.uleb128 .LEHB167-.LFB1176
 4380 03d7 05       		.uleb128 .LEHE167-.LEHB167
 4381 03d8 00       		.uleb128 0
 4382 03d9 00       		.uleb128 0
 4383 03da 9103     		.uleb128 .LEHB168-.LFB1176
 4384 03dc 05       		.uleb128 .LEHE168-.LEHB168
 4385 03dd 00       		.uleb128 0
 4386 03de 00       		.uleb128 0
 4387 03df 9E03     		.uleb128 .LEHB169-.LFB1176
 4388 03e1 38       		.uleb128 .LEHE169-.LEHB169
 4389 03e2 8303     		.uleb128 .L218-.LFB1176
 4390 03e4 00       		.uleb128 0
 4391 03e5 D603     		.uleb128 .LEHB170-.LFB1176
 4392 03e7 05       		.uleb128 .LEHE170-.LEHB170
 4393 03e8 00       		.uleb128 0
 4394 03e9 00       		.uleb128 0
 4395              	.LLSDACSE1176:
 4396 03ea 01       		.byte	0x1
 4397 03eb 00       		.byte	0
 4398              		.align 4
 4399 03ec 00000000 		.long	0
 4400              	
 4401              	.LLSDATT1176:
 4402              		.text
 4404              		.section	.rodata
 4405              	.LC43:
 4406 06b5 746D7046 		.string	"tmpFile.hex"
 4406      696C652E 
 4406      68657800 
 4407              	.LC44:
 4408 06c1 66696C65 		.string	"file.is_open()"
 4408      2E69735F 
 4408      6F70656E 
 4408      282900
 4409              		.align 8
 4410              	.LC45:
 4411 06d0 556E6861 		.string	"Unhandled exception in CHECK(file.is_open())"
 4411      6E646C65 
 4411      64206578 
 4411      63657074 
 4411      696F6E20 
 4412 06fd 000000   		.align 8
 4413              	.LC46:
 4414 0700 556E6861 		.string	"Unhandled exception in CHECK_EQUAL(expected.size(), (unsigned int)length)"
 4414      6E646C65 
 4414      64206578 
 4414      63657074 
 4414      696F6E20 
 4415 074a 00000000 		.align 8
 4415      0000
 4416              	.LC47:
 4417 0750 556E6861 		.string	"Unhandled exception in CHECK_ARRAY_EQUAL(expected.c_str(), (const char *)fileData)"
 4417      6E646C65 
 4417      64206578 
 4417      63657074 
 4417      696F6E20 
 4418 07a3 00000000 		.align 8
 4418      00
 4419              	.LC48:
 4420 07a8 556E6861 		.string	"Unhandled exception in CHECK_EQUAL(data.length, readbackData.length)"
 4420      6E646C65 
 4420      64206578 
 4420      63657074 
 4420      696F6E20 
 4421 07ed 000000   		.align 8
 4422              	.LC49:
 4423 07f0 556E6861 		.string	"Unhandled exception in CHECK_ARRAY_EQUAL(data.data, readbackData.data)"
 4423      6E646C65 
 4423      64206578 
 4423      63657074 
 4423      696F6E20 
 4424 0837 00       		.align 8
 4425              	.LC50:
 4426 0838 556E6861 		.string	"Unhandled exception in CHECK_EQUAL(mask.length, readbackMask.length)"
 4426      6E646C65 
 4426      64206578 
 4426      63657074 
 4426      696F6E20 
 4427 087d 000000   		.align 8
 4428              	.LC51:
 4429 0880 556E6861 		.string	"Unhandled exception in CHECK_ARRAY_EQUAL(mask.data, readbackMask.data)"
 4429      6E646C65 
 4429      64206578 
 4429      63657074 
 4429      696F6E20 
 4430              		.text
 4431              		.globl	_Z13testRoundTripPKcz
 4433              	_Z13testRoundTripPKcz:
 4434              	.LFB1177:
 185:testHexIO.cpp **** 
 186:testHexIO.cpp **** void testRoundTrip(const char *firstLine, ...) {
 4435              		.loc 4 186 0
 4436              		.cfi_startproc
 4437              		.cfi_personality 0x3,__gxx_personality_v0
 4438              		.cfi_lsda 0x3,.LLSDA1177
 4439 1d1f 55       		pushq	%rbp
 4440              		.cfi_def_cfa_offset 16
 4441              		.cfi_offset 6, -16
 4442 1d20 4889E5   		movq	%rsp, %rbp
 4443              		.cfi_def_cfa_register 6
 4444 1d23 53       		pushq	%rbx
 4445 1d24 4881ECC8 		subq	$968, %rsp
 4445      030000
 4446              		.cfi_offset 3, -24
 4447 1d2b 4889B548 		movq	%rsi, -184(%rbp)
 4447      FFFFFF
 4448 1d32 48899550 		movq	%rdx, -176(%rbp)
 4448      FFFFFF
 4449 1d39 48898D58 		movq	%rcx, -168(%rbp)
 4449      FFFFFF
 4450 1d40 4C898560 		movq	%r8, -160(%rbp)
 4450      FFFFFF
 4451 1d47 4C898D68 		movq	%r9, -152(%rbp)
 4451      FFFFFF
 4452 1d4e 84C0     		testb	%al, %al
 4453 1d50 7423     		je	.L221
 4454 1d52 0F298570 		movaps	%xmm0, -144(%rbp)
 4454      FFFFFF
 4455 1d59 0F294D80 		movaps	%xmm1, -128(%rbp)
 4456 1d5d 0F295590 		movaps	%xmm2, -112(%rbp)
 4457 1d61 0F295DA0 		movaps	%xmm3, -96(%rbp)
 4458 1d65 0F2965B0 		movaps	%xmm4, -80(%rbp)
 4459 1d69 0F296DC0 		movaps	%xmm5, -64(%rbp)
 4460 1d6d 0F2975D0 		movaps	%xmm6, -48(%rbp)
 4461 1d71 0F297DE0 		movaps	%xmm7, -32(%rbp)
 4462              	.L221:
 4463 1d75 4889BD38 		movq	%rdi, -968(%rbp)
 4463      FCFFFF
 4464              		.loc 4 186 0
 4465 1d7c 64488B04 		movq	%fs:40, %rax
 4465      25280000 
 4465      00
 4466 1d85 48898538 		movq	%rax, -200(%rbp)
 4466      FFFFFF
 4467 1d8c 31C0     		xorl	%eax, %eax
 4468              	.LBB37:
 187:testHexIO.cpp **** 	const char *const FILENAME = "tmpFile.hex";
 4469              		.loc 4 187 0
 4470 1d8e 48C78560 		movq	$.LC43, -928(%rbp)
 4470      FCFFFF00 
 4470      000000
 188:testHexIO.cpp **** 	Buffer data, mask, readbackData, readbackMask;
 189:testHexIO.cpp **** 	BufferStatus status;
 190:testHexIO.cpp **** 	va_list vl;
 191:testHexIO.cpp **** 	const char *line;
 192:testHexIO.cpp **** 	string expected;
 4471              		.loc 4 192 0
 4472 1d99 488D8550 		leaq	-944(%rbp), %rax
 4472      FCFFFF
 4473 1da0 4889C7   		movq	%rax, %rdi
 4474              	.LEHB171:
 4475 1da3 E8000000 		call	_ZNSsC1Ev
 4475      00
 4476              	.LEHE171:
 193:testHexIO.cpp **** 	uint8 recordType;
 194:testHexIO.cpp **** 	uint32 seg = 0x00000000;
 4477              		.loc 4 194 0
 4478 1da8 C78548FC 		movl	$0, -952(%rbp)
 4478      FFFF0000 
 4478      0000
 195:testHexIO.cpp **** 	status = bufInitialise(&data, 1024, 0x00, NULL);
 4479              		.loc 4 195 0
 4480 1db2 488D8580 		leaq	-896(%rbp), %rax
 4480      FCFFFF
 4481 1db9 B9000000 		movl	$0, %ecx
 4481      00
 4482 1dbe BA000000 		movl	$0, %edx
 4482      00
 4483 1dc3 BE000400 		movl	$1024, %esi
 4483      00
 4484 1dc8 4889C7   		movq	%rax, %rdi
 4485              	.LEHB172:
 4486 1dcb E8000000 		call	bufInitialise
 4486      00
 4487              	.LEHE172:
 4488 1dd0 898544FC 		movl	%eax, -956(%rbp)
 4488      FFFF
 4489              	.LEHB173:
 196:testHexIO.cpp **** 	CHECK_EQUAL(BUF_SUCCESS, status);
 4490              		.loc 4 196 0
 4491 1dd6 E8000000 		call	_ZN8UnitTest11CurrentTest7DetailsEv
 4491      00
 4492              		.loc 4 196 0 is_stmt 0 discriminator 1
 4493 1ddb 488B08   		movq	(%rax), %rcx
 4494 1dde 488D8510 		leaq	-752(%rbp), %rax
 4494      FDFFFF
 4495 1de5 BAC40000 		movl	$196, %edx
 4495      00
 4496 1dea 4889CE   		movq	%rcx, %rsi
 4497 1ded 4889C7   		movq	%rax, %rdi
 4498 1df0 E8000000 		call	_ZN8UnitTest11TestDetailsC1ERKS0_i
 4498      00
 4499              		.loc 4 196 0 discriminator 2
 4500 1df5 C785E0FC 		movl	$0, -800(%rbp)
 4500      FFFF0000 
 4500      0000
 4501 1dff E8000000 		call	_ZN8UnitTest11CurrentTest7ResultsEv
 4501      00
 4502 1e04 488B00   		movq	(%rax), %rax
 4503 1e07 488D8D10 		leaq	-752(%rbp), %rcx
 4503      FDFFFF
 4504 1e0e 488D9544 		leaq	-956(%rbp), %rdx
 4504      FCFFFF
 4505 1e15 488DB5E0 		leaq	-800(%rbp), %rsi
 4505      FCFFFF
 4506 1e1c 4889C7   		movq	%rax, %rdi
 4507 1e1f E8000000 		call	_ZN8UnitTest10CheckEqualI12BufferStatusS1_EEvRNS_11TestResultsERKT_RKT0_RKNS_11TestDetailsE
 4507      00
 4508              	.LEHE173:
 4509              	.L229:
 197:testHexIO.cpp **** 	status = bufInitialise(&mask, 1024, 0x00, NULL);
 4510              		.loc 4 197 0 is_stmt 1
 4511 1e24 488D85A0 		leaq	-864(%rbp), %rax
 4511      FCFFFF
 4512 1e2b B9000000 		movl	$0, %ecx
 4512      00
 4513 1e30 BA000000 		movl	$0, %edx
 4513      00
 4514 1e35 BE000400 		movl	$1024, %esi
 4514      00
 4515 1e3a 4889C7   		movq	%rax, %rdi
 4516              	.LEHB174:
 4517 1e3d E8000000 		call	bufInitialise
 4517      00
 4518              	.LEHE174:
 4519 1e42 898544FC 		movl	%eax, -956(%rbp)
 4519      FFFF
 4520              	.LEHB175:
 198:testHexIO.cpp **** 	CHECK_EQUAL(BUF_SUCCESS, status);
 4521              		.loc 4 198 0
 4522 1e48 E8000000 		call	_ZN8UnitTest11CurrentTest7DetailsEv
 4522      00
 4523              		.loc 4 198 0 is_stmt 0 discriminator 1
 4524 1e4d 488B08   		movq	(%rax), %rcx
 4525 1e50 488D8510 		leaq	-752(%rbp), %rax
 4525      FDFFFF
 4526 1e57 BAC60000 		movl	$198, %edx
 4526      00
 4527 1e5c 4889CE   		movq	%rcx, %rsi
 4528 1e5f 4889C7   		movq	%rax, %rdi
 4529 1e62 E8000000 		call	_ZN8UnitTest11TestDetailsC1ERKS0_i
 4529      00
 4530              		.loc 4 198 0 discriminator 2
 4531 1e67 C785E0FC 		movl	$0, -800(%rbp)
 4531      FFFF0000 
 4531      0000
 4532 1e71 E8000000 		call	_ZN8UnitTest11CurrentTest7ResultsEv
 4532      00
 4533 1e76 488B00   		movq	(%rax), %rax
 4534 1e79 488D8D10 		leaq	-752(%rbp), %rcx
 4534      FDFFFF
 4535 1e80 488D9544 		leaq	-956(%rbp), %rdx
 4535      FCFFFF
 4536 1e87 488DB5E0 		leaq	-800(%rbp), %rsi
 4536      FCFFFF
 4537 1e8e 4889C7   		movq	%rax, %rdi
 4538 1e91 E8000000 		call	_ZN8UnitTest10CheckEqualI12BufferStatusS1_EEvRNS_11TestResultsERKT_RKT0_RKNS_11TestDetailsE
 4538      00
 4539              	.LEHE175:
 4540              	.L232:
 199:testHexIO.cpp **** 	va_start(vl, firstLine);
 4541              		.loc 4 199 0 is_stmt 1
 4542 1e96 C785F8FC 		movl	$8, -776(%rbp)
 4542      FFFF0800 
 4542      0000
 4543 1ea0 C785FCFC 		movl	$48, -772(%rbp)
 4543      FFFF3000 
 4543      0000
 4544 1eaa 488D4510 		leaq	16(%rbp), %rax
 4545 1eae 48898500 		movq	%rax, -768(%rbp)
 4545      FDFFFF
 4546 1eb5 488D8540 		leaq	-192(%rbp), %rax
 4546      FFFFFF
 4547 1ebc 48898508 		movq	%rax, -760(%rbp)
 4547      FDFFFF
 200:testHexIO.cpp **** 	line = firstLine;
 4548              		.loc 4 200 0
 4549 1ec3 488B8538 		movq	-968(%rbp), %rax
 4549      FCFFFF
 4550 1eca 48898558 		movq	%rax, -936(%rbp)
 4550      FCFFFF
 4551              	.L224:
 201:testHexIO.cpp **** 	do {
 202:testHexIO.cpp **** 		status = bufProcessLine(line, 0, &data, &mask, &seg, &recordType, NULL);
 4552              		.loc 4 202 0
 4553 1ed1 4883EC08 		subq	$8, %rsp
 4554 1ed5 488DBD43 		leaq	-957(%rbp), %rdi
 4554      FCFFFF
 4555 1edc 488DB548 		leaq	-952(%rbp), %rsi
 4555      FCFFFF
 4556 1ee3 488D8DA0 		leaq	-864(%rbp), %rcx
 4556      FCFFFF
 4557 1eea 488D9580 		leaq	-896(%rbp), %rdx
 4557      FCFFFF
 4558 1ef1 488B8558 		movq	-936(%rbp), %rax
 4558      FCFFFF
 4559 1ef8 6A00     		pushq	$0
 4560 1efa 4989F9   		movq	%rdi, %r9
 4561 1efd 4989F0   		movq	%rsi, %r8
 4562 1f00 BE000000 		movl	$0, %esi
 4562      00
 4563 1f05 4889C7   		movq	%rax, %rdi
 4564              	.LEHB176:
 4565              		.cfi_escape 0x2e,0x10
 4566 1f08 E8000000 		call	bufProcessLine
 4566      00
 4567              	.LEHE176:
 4568 1f0d 4883C410 		addq	$16, %rsp
 4569 1f11 898544FC 		movl	%eax, -956(%rbp)
 4569      FFFF
 4570              	.LEHB177:
 4571              		.cfi_escape 0x2e,0
 203:testHexIO.cpp **** 		CHECK_EQUAL(BUF_SUCCESS, status);
 4572              		.loc 4 203 0
 4573 1f17 E8000000 		call	_ZN8UnitTest11CurrentTest7DetailsEv
 4573      00
 4574              		.loc 4 203 0 is_stmt 0 discriminator 1
 4575 1f1c 488B08   		movq	(%rax), %rcx
 4576 1f1f 488D8510 		leaq	-752(%rbp), %rax
 4576      FDFFFF
 4577 1f26 BACB0000 		movl	$203, %edx
 4577      00
 4578 1f2b 4889CE   		movq	%rcx, %rsi
 4579 1f2e 4889C7   		movq	%rax, %rdi
 4580 1f31 E8000000 		call	_ZN8UnitTest11TestDetailsC1ERKS0_i
 4580      00
 4581              		.loc 4 203 0 discriminator 2
 4582 1f36 C785E0FC 		movl	$0, -800(%rbp)
 4582      FFFF0000 
 4582      0000
 4583 1f40 E8000000 		call	_ZN8UnitTest11CurrentTest7ResultsEv
 4583      00
 4584 1f45 488B00   		movq	(%rax), %rax
 4585 1f48 488D8D10 		leaq	-752(%rbp), %rcx
 4585      FDFFFF
 4586 1f4f 488D9544 		leaq	-956(%rbp), %rdx
 4586      FCFFFF
 4587 1f56 488DB5E0 		leaq	-800(%rbp), %rsi
 4587      FCFFFF
 4588 1f5d 4889C7   		movq	%rax, %rdi
 4589 1f60 E8000000 		call	_ZN8UnitTest10CheckEqualI12BufferStatusS1_EEvRNS_11TestResultsERKT_RKT0_RKNS_11TestDetailsE
 4589      00
 4590              	.LEHE177:
 4591              	.L235:
 204:testHexIO.cpp **** 		expected += line;
 4592              		.loc 4 204 0 is_stmt 1
 4593 1f65 488B9558 		movq	-936(%rbp), %rdx
 4593      FCFFFF
 4594 1f6c 488D8550 		leaq	-944(%rbp), %rax
 4594      FCFFFF
 4595 1f73 4889D6   		movq	%rdx, %rsi
 4596 1f76 4889C7   		movq	%rax, %rdi
 4597              	.LEHB178:
 4598 1f79 E8000000 		call	_ZNSspLEPKc
 4598      00
 205:testHexIO.cpp **** 		expected += '\n';
 4599              		.loc 4 205 0
 4600 1f7e 488D8550 		leaq	-944(%rbp), %rax
 4600      FCFFFF
 4601 1f85 BE0A0000 		movl	$10, %esi
 4601      00
 4602 1f8a 4889C7   		movq	%rax, %rdi
 4603 1f8d E8000000 		call	_ZNSspLEc
 4603      00
 206:testHexIO.cpp **** 		line = va_arg(vl, const char *);
 4604              		.loc 4 206 0
 4605 1f92 8B85F8FC 		movl	-776(%rbp), %eax
 4605      FFFF
 4606 1f98 83F830   		cmpl	$48, %eax
 4607 1f9b 7323     		jnb	.L222
 4608              		.loc 4 206 0 is_stmt 0 discriminator 2
 4609 1f9d 488B8508 		movq	-760(%rbp), %rax
 4609      FDFFFF
 4610 1fa4 8B95F8FC 		movl	-776(%rbp), %edx
 4610      FFFF
 4611 1faa 89D2     		movl	%edx, %edx
 4612 1fac 4801D0   		addq	%rdx, %rax
 4613 1faf 8B95F8FC 		movl	-776(%rbp), %edx
 4613      FFFF
 4614 1fb5 83C208   		addl	$8, %edx
 4615 1fb8 8995F8FC 		movl	%edx, -776(%rbp)
 4615      FFFF
 4616 1fbe EB12     		jmp	.L223
 4617              	.L222:
 4618              		.loc 4 206 0 discriminator 1
 4619 1fc0 488B8500 		movq	-768(%rbp), %rax
 4619      FDFFFF
 4620 1fc7 488D5008 		leaq	8(%rax), %rdx
 4621 1fcb 48899500 		movq	%rdx, -768(%rbp)
 4621      FDFFFF
 4622              	.L223:
 4623              		.loc 4 206 0 discriminator 4
 4624 1fd2 488B00   		movq	(%rax), %rax
 4625 1fd5 48898558 		movq	%rax, -936(%rbp)
 4625      FCFFFF
 201:testHexIO.cpp **** 		status = bufProcessLine(line, 0, &data, &mask, &seg, &recordType, NULL);
 4626              		.loc 4 201 0 is_stmt 1 discriminator 4
 4627 1fdc 4883BD58 		cmpq	$0, -936(%rbp)
 4627      FCFFFF00 
 4628 1fe4 0F85E7FE 		jne	.L224
 4628      FFFF
 207:testHexIO.cpp **** 	} while ( line );
 208:testHexIO.cpp **** 	expected += ":00000001FF\n";
 4629              		.loc 4 208 0
 4630 1fea 488D8550 		leaq	-944(%rbp), %rax
 4630      FCFFFF
 4631 1ff1 BE000000 		movl	$.LC12, %esi
 4631      00
 4632 1ff6 4889C7   		movq	%rax, %rdi
 4633 1ff9 E8000000 		call	_ZNSspLEPKc
 4633      00
 209:testHexIO.cpp **** 	va_end(vl);
 210:testHexIO.cpp **** 	status = bufWriteToIntelHexFile(&data, &mask, FILENAME, 16, false, NULL);
 4634              		.loc 4 210 0
 4635 1ffe 488DB5A0 		leaq	-864(%rbp), %rsi
 4635      FCFFFF
 4636 2005 488D8580 		leaq	-896(%rbp), %rax
 4636      FCFFFF
 4637 200c 41B90000 		movl	$0, %r9d
 4637      0000
 4638 2012 41B80000 		movl	$0, %r8d
 4638      0000
 4639 2018 B9100000 		movl	$16, %ecx
 4639      00
 4640 201d BA000000 		movl	$.LC43, %edx
 4640      00
 4641 2022 4889C7   		movq	%rax, %rdi
 4642 2025 E8000000 		call	bufWriteToIntelHexFile
 4642      00
 4643              	.LEHE178:
 4644 202a 898544FC 		movl	%eax, -956(%rbp)
 4644      FFFF
 4645              	.LEHB179:
 211:testHexIO.cpp **** 	CHECK_EQUAL(BUF_SUCCESS, status);
 4646              		.loc 4 211 0
 4647 2030 E8000000 		call	_ZN8UnitTest11CurrentTest7DetailsEv
 4647      00
 4648              		.loc 4 211 0 is_stmt 0 discriminator 1
 4649 2035 488B08   		movq	(%rax), %rcx
 4650 2038 488D8510 		leaq	-752(%rbp), %rax
 4650      FDFFFF
 4651 203f BAD30000 		movl	$211, %edx
 4651      00
 4652 2044 4889CE   		movq	%rcx, %rsi
 4653 2047 4889C7   		movq	%rax, %rdi
 4654 204a E8000000 		call	_ZN8UnitTest11TestDetailsC1ERKS0_i
 4654      00
 4655              		.loc 4 211 0 discriminator 2
 4656 204f C785E0FC 		movl	$0, -800(%rbp)
 4656      FFFF0000 
 4656      0000
 4657 2059 E8000000 		call	_ZN8UnitTest11CurrentTest7ResultsEv
 4657      00
 4658 205e 488B00   		movq	(%rax), %rax
 4659 2061 488D8D10 		leaq	-752(%rbp), %rcx
 4659      FDFFFF
 4660 2068 488D9544 		leaq	-956(%rbp), %rdx
 4660      FCFFFF
 4661 206f 488DB5E0 		leaq	-800(%rbp), %rsi
 4661      FCFFFF
 4662 2076 4889C7   		movq	%rax, %rdi
 4663 2079 E8000000 		call	_ZN8UnitTest10CheckEqualI12BufferStatusS1_EEvRNS_11TestResultsERKT_RKT0_RKNS_11TestDetailsE
 4663      00
 4664              	.LEHE179:
 4665              	.L238:
 212:testHexIO.cpp **** 
 213:testHexIO.cpp **** 	ifstream file;
 4666              		.loc 4 213 0 is_stmt 1
 4667 207e 488D8530 		leaq	-720(%rbp), %rax
 4667      FDFFFF
 4668 2085 4889C7   		movq	%rax, %rdi
 4669              	.LEHB180:
 4670 2088 E8000000 		call	_ZNSt14basic_ifstreamIcSt11char_traitsIcEEC1Ev
 4670      00
 4671              	.LEHE180:
 214:testHexIO.cpp **** 	ifstream::pos_type length;
 4672              		.loc 4 214 0
 4673 208d 488D8570 		leaq	-912(%rbp), %rax
 4673      FCFFFF
 4674 2094 4889C7   		movq	%rax, %rdi
 4675 2097 E8000000 		call	_ZNSt4fposI11__mbstate_tEC1Ev
 4675      00
 215:testHexIO.cpp **** 	file.open(FILENAME, ios::in|ios::ate);
 4676              		.loc 4 215 0
 4677 209c BE020000 		movl	$2, %esi
 4677      00
 4678 20a1 BF080000 		movl	$8, %edi
 4678      00
 4679 20a6 E8000000 		call	_ZStorSt13_Ios_OpenmodeS_
 4679      00
 4680 20ab 89C2     		movl	%eax, %edx
 4681 20ad 488D8530 		leaq	-720(%rbp), %rax
 4681      FDFFFF
 4682 20b4 BE000000 		movl	$.LC43, %esi
 4682      00
 4683 20b9 4889C7   		movq	%rax, %rdi
 4684              	.LEHB181:
 4685 20bc E8000000 		call	_ZNSt14basic_ifstreamIcSt11char_traitsIcEE4openEPKcSt13_Ios_Openmode
 4685      00
 4686              	.LEHE181:
 216:testHexIO.cpp **** 	CHECK(file.is_open());
 4687              		.loc 4 216 0
 4688 20c1 488D8530 		leaq	-720(%rbp), %rax
 4688      FDFFFF
 4689 20c8 4889C7   		movq	%rax, %rdi
 4690              	.LEHB182:
 4691 20cb E8000000 		call	_ZNSt14basic_ifstreamIcSt11char_traitsIcEE7is_openEv
 4691      00
 4692 20d0 0FB6C0   		movzbl	%al, %eax
 4693 20d3 89C7     		movl	%eax, %edi
 4694 20d5 E8000000 		call	_ZN8UnitTest5CheckIbEEbT_
 4694      00
 4695 20da 83F001   		xorl	$1, %eax
 4696 20dd 84C0     		testb	%al, %al
 4697 20df 743E     		je	.L225
 4698              		.loc 4 216 0 is_stmt 0 discriminator 2
 4699 20e1 E8000000 		call	_ZN8UnitTest11CurrentTest7DetailsEv
 4699      00
 4700 20e6 488B08   		movq	(%rax), %rcx
 4701 20e9 488D8510 		leaq	-752(%rbp), %rax
 4701      FDFFFF
 4702 20f0 BAD80000 		movl	$216, %edx
 4702      00
 4703 20f5 4889CE   		movq	%rcx, %rsi
 4704 20f8 4889C7   		movq	%rax, %rdi
 4705 20fb E8000000 		call	_ZN8UnitTest11TestDetailsC1ERKS0_i
 4705      00
 4706              		.loc 4 216 0 discriminator 4
 4707 2100 E8000000 		call	_ZN8UnitTest11CurrentTest7ResultsEv
 4707      00
 4708 2105 488B00   		movq	(%rax), %rax
 4709 2108 488D8D10 		leaq	-752(%rbp), %rcx
 4709      FDFFFF
 4710 210f BA000000 		movl	$.LC44, %edx
 4710      00
 4711 2114 4889CE   		movq	%rcx, %rsi
 4712 2117 4889C7   		movq	%rax, %rdi
 4713 211a E8000000 		call	_ZN8UnitTest11TestResults13OnTestFailureERKNS_11TestDetailsEPKc
 4713      00
 4714              	.LEHE182:
 4715              	.L225:
 217:testHexIO.cpp **** 	length = file.tellg();
 4716              		.loc 4 217 0 is_stmt 1
 4717 211f 488D8530 		leaq	-720(%rbp), %rax
 4717      FDFFFF
 4718 2126 4889C7   		movq	%rax, %rdi
 4719              	.LEHB183:
 4720 2129 E8000000 		call	_ZNSi5tellgEv
 4720      00
 4721              	.LEHE183:
 4722 212e 48898570 		movq	%rax, -912(%rbp)
 4722      FCFFFF
 4723 2135 48899578 		movq	%rdx, -904(%rbp)
 4723      FCFFFF
 4724              	.LEHB184:
 218:testHexIO.cpp **** 	CHECK_EQUAL(expected.size(), (unsigned int)length);
 4725              		.loc 4 218 0
 4726 213c E8000000 		call	_ZN8UnitTest11CurrentTest7DetailsEv
 4726      00
 4727 2141 488B08   		movq	(%rax), %rcx
 4728 2144 488D8510 		leaq	-752(%rbp), %rax
 4728      FDFFFF
 4729 214b BADA0000 		movl	$218, %edx
 4729      00
 4730 2150 4889CE   		movq	%rcx, %rsi
 4731 2153 4889C7   		movq	%rax, %rdi
 4732 2156 E8000000 		call	_ZN8UnitTest11TestDetailsC1ERKS0_i
 4732      00
 4733              		.loc 4 218 0 is_stmt 0 discriminator 2
 4734 215b 488D8570 		leaq	-912(%rbp), %rax
 4734      FCFFFF
 4735 2162 4889C7   		movq	%rax, %rdi
 4736 2165 E8000000 		call	_ZNKSt4fposI11__mbstate_tEcvlEv
 4736      00
 4737 216a 8985C0FC 		movl	%eax, -832(%rbp)
 4737      FFFF
 4738 2170 488D8550 		leaq	-944(%rbp), %rax
 4738      FCFFFF
 4739 2177 4889C7   		movq	%rax, %rdi
 4740 217a E8000000 		call	_ZNKSs4sizeEv
 4740      00
 4741 217f 488985E0 		movq	%rax, -800(%rbp)
 4741      FCFFFF
 4742 2186 E8000000 		call	_ZN8UnitTest11CurrentTest7ResultsEv
 4742      00
 4743              		.loc 4 218 0 discriminator 4
 4744 218b 488B00   		movq	(%rax), %rax
 4745 218e 488D8D10 		leaq	-752(%rbp), %rcx
 4745      FDFFFF
 4746 2195 488D95C0 		leaq	-832(%rbp), %rdx
 4746      FCFFFF
 4747 219c 488DB5E0 		leaq	-800(%rbp), %rsi
 4747      FCFFFF
 4748 21a3 4889C7   		movq	%rax, %rdi
 4749 21a6 E8000000 		call	_ZN8UnitTest10CheckEqualImjEEvRNS_11TestResultsERKT_RKT0_RKNS_11TestDetailsE
 4749      00
 4750              	.LEHE184:
 4751              	.L244:
 219:testHexIO.cpp **** 	char *fileData = new char[(unsigned int)length];
 4752              		.loc 4 219 0 is_stmt 1
 4753 21ab 488D8570 		leaq	-912(%rbp), %rax
 4753      FCFFFF
 4754 21b2 4889C7   		movq	%rax, %rdi
 4755 21b5 E8000000 		call	_ZNKSt4fposI11__mbstate_tEcvlEv
 4755      00
 4756 21ba 89C0     		movl	%eax, %eax
 4757 21bc 4889C7   		movq	%rax, %rdi
 4758              	.LEHB185:
 4759 21bf E8000000 		call	_Znam
 4759      00
 4760 21c4 48898568 		movq	%rax, -920(%rbp)
 4760      FCFFFF
 220:testHexIO.cpp **** 	file.seekg(0, ios::beg);
 4761              		.loc 4 220 0
 4762 21cb 488D8530 		leaq	-720(%rbp), %rax
 4762      FDFFFF
 4763 21d2 BA000000 		movl	$0, %edx
 4763      00
 4764 21d7 BE000000 		movl	$0, %esi
 4764      00
 4765 21dc 4889C7   		movq	%rax, %rdi
 4766 21df E8000000 		call	_ZNSi5seekgElSt12_Ios_Seekdir
 4766      00
 221:testHexIO.cpp **** 	file.read(fileData, length);
 4767              		.loc 4 221 0
 4768 21e4 488D8570 		leaq	-912(%rbp), %rax
 4768      FCFFFF
 4769 21eb 4889C7   		movq	%rax, %rdi
 4770 21ee E8000000 		call	_ZNKSt4fposI11__mbstate_tEcvlEv
 4770      00
 4771 21f3 4889C2   		movq	%rax, %rdx
 4772 21f6 488B8D68 		movq	-920(%rbp), %rcx
 4772      FCFFFF
 4773 21fd 488D8530 		leaq	-720(%rbp), %rax
 4773      FDFFFF
 4774 2204 4889CE   		movq	%rcx, %rsi
 4775 2207 4889C7   		movq	%rax, %rdi
 4776 220a E8000000 		call	_ZNSi4readEPcl
 4776      00
 222:testHexIO.cpp **** 	file.close();
 4777              		.loc 4 222 0
 4778 220f 488D8530 		leaq	-720(%rbp), %rax
 4778      FDFFFF
 4779 2216 4889C7   		movq	%rax, %rdi
 4780 2219 E8000000 		call	_ZNSt14basic_ifstreamIcSt11char_traitsIcEE5closeEv
 4780      00
 4781              	.LEHE185:
 4782              	.LEHB186:
 223:testHexIO.cpp **** 	CHECK_ARRAY_EQUAL(expected.c_str(), (const char *)fileData, (int)length);
 4783              		.loc 4 223 0
 4784 221e E8000000 		call	_ZN8UnitTest11CurrentTest7DetailsEv
 4784      00
 4785 2223 488B08   		movq	(%rax), %rcx
 4786 2226 488D8510 		leaq	-752(%rbp), %rax
 4786      FDFFFF
 4787 222d BADF0000 		movl	$223, %edx
 4787      00
 4788 2232 4889CE   		movq	%rcx, %rsi
 4789 2235 4889C7   		movq	%rax, %rdi
 4790 2238 E8000000 		call	_ZN8UnitTest11TestDetailsC1ERKS0_i
 4790      00
 4791              		.loc 4 223 0 is_stmt 0 discriminator 2
 4792 223d 488D8570 		leaq	-912(%rbp), %rax
 4792      FCFFFF
 4793 2244 4889C7   		movq	%rax, %rdi
 4794 2247 E8000000 		call	_ZNKSt4fposI11__mbstate_tEcvlEv
 4794      00
 4795 224c 89C3     		movl	%eax, %ebx
 4796 224e 488B8568 		movq	-920(%rbp), %rax
 4796      FCFFFF
 4797 2255 488985E0 		movq	%rax, -800(%rbp)
 4797      FCFFFF
 4798 225c 488D8550 		leaq	-944(%rbp), %rax
 4798      FCFFFF
 4799 2263 4889C7   		movq	%rax, %rdi
 4800 2266 E8000000 		call	_ZNKSs5c_strEv
 4800      00
 4801 226b 488985C0 		movq	%rax, -832(%rbp)
 4801      FCFFFF
 4802 2272 E8000000 		call	_ZN8UnitTest11CurrentTest7ResultsEv
 4802      00
 4803              		.loc 4 223 0 discriminator 4
 4804 2277 488B00   		movq	(%rax), %rax
 4805 227a 488D8D10 		leaq	-752(%rbp), %rcx
 4805      FDFFFF
 4806 2281 488D95E0 		leaq	-800(%rbp), %rdx
 4806      FCFFFF
 4807 2288 488DB5C0 		leaq	-832(%rbp), %rsi
 4807      FCFFFF
 4808 228f 4989C8   		movq	%rcx, %r8
 4809 2292 89D9     		movl	%ebx, %ecx
 4810 2294 4889C7   		movq	%rax, %rdi
 4811 2297 E8000000 		call	_ZN8UnitTest15CheckArrayEqualIPKcS2_EEvRNS_11TestResultsERKT_RKT0_iRKNS_11TestDetailsE
 4811      00
 4812              	.LEHE186:
 4813              	.L247:
 224:testHexIO.cpp **** 
 225:testHexIO.cpp **** 	status = bufInitialise(&readbackData, 1024, 0x00, NULL);
 4814              		.loc 4 225 0 is_stmt 1
 4815 229c 488D85C0 		leaq	-832(%rbp), %rax
 4815      FCFFFF
 4816 22a3 B9000000 		movl	$0, %ecx
 4816      00
 4817 22a8 BA000000 		movl	$0, %edx
 4817      00
 4818 22ad BE000400 		movl	$1024, %esi
 4818      00
 4819 22b2 4889C7   		movq	%rax, %rdi
 4820              	.LEHB187:
 4821 22b5 E8000000 		call	bufInitialise
 4821      00
 4822              	.LEHE187:
 4823 22ba 898544FC 		movl	%eax, -956(%rbp)
 4823      FFFF
 4824              	.LEHB188:
 226:testHexIO.cpp **** 	CHECK_EQUAL(BUF_SUCCESS, status);
 4825              		.loc 4 226 0
 4826 22c0 E8000000 		call	_ZN8UnitTest11CurrentTest7DetailsEv
 4826      00
 4827              		.loc 4 226 0 is_stmt 0 discriminator 1
 4828 22c5 488B08   		movq	(%rax), %rcx
 4829 22c8 488D8510 		leaq	-752(%rbp), %rax
 4829      FDFFFF
 4830 22cf BAE20000 		movl	$226, %edx
 4830      00
 4831 22d4 4889CE   		movq	%rcx, %rsi
 4832 22d7 4889C7   		movq	%rax, %rdi
 4833 22da E8000000 		call	_ZN8UnitTest11TestDetailsC1ERKS0_i
 4833      00
 4834              		.loc 4 226 0 discriminator 2
 4835 22df C785E0FC 		movl	$0, -800(%rbp)
 4835      FFFF0000 
 4835      0000
 4836 22e9 E8000000 		call	_ZN8UnitTest11CurrentTest7ResultsEv
 4836      00
 4837 22ee 488B00   		movq	(%rax), %rax
 4838 22f1 488D8D10 		leaq	-752(%rbp), %rcx
 4838      FDFFFF
 4839 22f8 488D9544 		leaq	-956(%rbp), %rdx
 4839      FCFFFF
 4840 22ff 488DB5E0 		leaq	-800(%rbp), %rsi
 4840      FCFFFF
 4841 2306 4889C7   		movq	%rax, %rdi
 4842 2309 E8000000 		call	_ZN8UnitTest10CheckEqualI12BufferStatusS1_EEvRNS_11TestResultsERKT_RKT0_RKNS_11TestDetailsE
 4842      00
 4843              	.LEHE188:
 4844              	.L250:
 227:testHexIO.cpp **** 	status = bufInitialise(&readbackMask, 1024, 0x00, NULL);
 4845              		.loc 4 227 0 is_stmt 1
 4846 230e 488D85E0 		leaq	-800(%rbp), %rax
 4846      FCFFFF
 4847 2315 B9000000 		movl	$0, %ecx
 4847      00
 4848 231a BA000000 		movl	$0, %edx
 4848      00
 4849 231f BE000400 		movl	$1024, %esi
 4849      00
 4850 2324 4889C7   		movq	%rax, %rdi
 4851              	.LEHB189:
 4852 2327 E8000000 		call	bufInitialise
 4852      00
 4853              	.LEHE189:
 4854 232c 898544FC 		movl	%eax, -956(%rbp)
 4854      FFFF
 4855              	.LEHB190:
 228:testHexIO.cpp **** 	CHECK_EQUAL(BUF_SUCCESS, status);
 4856              		.loc 4 228 0
 4857 2332 E8000000 		call	_ZN8UnitTest11CurrentTest7DetailsEv
 4857      00
 4858              		.loc 4 228 0 is_stmt 0 discriminator 1
 4859 2337 488B08   		movq	(%rax), %rcx
 4860 233a 488D8510 		leaq	-752(%rbp), %rax
 4860      FDFFFF
 4861 2341 BAE40000 		movl	$228, %edx
 4861      00
 4862 2346 4889CE   		movq	%rcx, %rsi
 4863 2349 4889C7   		movq	%rax, %rdi
 4864 234c E8000000 		call	_ZN8UnitTest11TestDetailsC1ERKS0_i
 4864      00
 4865              		.loc 4 228 0 discriminator 2
 4866 2351 C7854CFC 		movl	$0, -948(%rbp)
 4866      FFFF0000 
 4866      0000
 4867 235b E8000000 		call	_ZN8UnitTest11CurrentTest7ResultsEv
 4867      00
 4868 2360 488B00   		movq	(%rax), %rax
 4869 2363 488D8D10 		leaq	-752(%rbp), %rcx
 4869      FDFFFF
 4870 236a 488D9544 		leaq	-956(%rbp), %rdx
 4870      FCFFFF
 4871 2371 488DB54C 		leaq	-948(%rbp), %rsi
 4871      FCFFFF
 4872 2378 4889C7   		movq	%rax, %rdi
 4873 237b E8000000 		call	_ZN8UnitTest10CheckEqualI12BufferStatusS1_EEvRNS_11TestResultsERKT_RKT0_RKNS_11TestDetailsE
 4873      00
 4874              	.LEHE190:
 4875              	.L253:
 229:testHexIO.cpp **** 	status = bufReadFromIntelHexFile(&readbackData, &readbackMask, FILENAME, NULL);
 4876              		.loc 4 229 0 is_stmt 1
 4877 2380 488DB5E0 		leaq	-800(%rbp), %rsi
 4877      FCFFFF
 4878 2387 488D85C0 		leaq	-832(%rbp), %rax
 4878      FCFFFF
 4879 238e B9000000 		movl	$0, %ecx
 4879      00
 4880 2393 BA000000 		movl	$.LC43, %edx
 4880      00
 4881 2398 4889C7   		movq	%rax, %rdi
 4882              	.LEHB191:
 4883 239b E8000000 		call	bufReadFromIntelHexFile
 4883      00
 4884              	.LEHE191:
 4885 23a0 898544FC 		movl	%eax, -956(%rbp)
 4885      FFFF
 4886              	.LEHB192:
 230:testHexIO.cpp **** 	CHECK_EQUAL(BUF_SUCCESS, status);
 4887              		.loc 4 230 0
 4888 23a6 E8000000 		call	_ZN8UnitTest11CurrentTest7DetailsEv
 4888      00
 4889              		.loc 4 230 0 is_stmt 0 discriminator 1
 4890 23ab 488B08   		movq	(%rax), %rcx
 4891 23ae 488D8510 		leaq	-752(%rbp), %rax
 4891      FDFFFF
 4892 23b5 BAE60000 		movl	$230, %edx
 4892      00
 4893 23ba 4889CE   		movq	%rcx, %rsi
 4894 23bd 4889C7   		movq	%rax, %rdi
 4895 23c0 E8000000 		call	_ZN8UnitTest11TestDetailsC1ERKS0_i
 4895      00
 4896              		.loc 4 230 0 discriminator 2
 4897 23c5 C7854CFC 		movl	$0, -948(%rbp)
 4897      FFFF0000 
 4897      0000
 4898 23cf E8000000 		call	_ZN8UnitTest11CurrentTest7ResultsEv
 4898      00
 4899 23d4 488B00   		movq	(%rax), %rax
 4900 23d7 488D8D10 		leaq	-752(%rbp), %rcx
 4900      FDFFFF
 4901 23de 488D9544 		leaq	-956(%rbp), %rdx
 4901      FCFFFF
 4902 23e5 488DB54C 		leaq	-948(%rbp), %rsi
 4902      FCFFFF
 4903 23ec 4889C7   		movq	%rax, %rdi
 4904 23ef E8000000 		call	_ZN8UnitTest10CheckEqualI12BufferStatusS1_EEvRNS_11TestResultsERKT_RKT0_RKNS_11TestDetailsE
 4904      00
 4905              	.LEHE192:
 4906              	.L256:
 4907              	.LEHB193:
 231:testHexIO.cpp **** 	CHECK_EQUAL(data.length, readbackData.length);
 4908              		.loc 4 231 0 is_stmt 1
 4909 23f4 E8000000 		call	_ZN8UnitTest11CurrentTest7DetailsEv
 4909      00
 4910 23f9 488B08   		movq	(%rax), %rcx
 4911 23fc 488D8510 		leaq	-752(%rbp), %rax
 4911      FDFFFF
 4912 2403 BAE70000 		movl	$231, %edx
 4912      00
 4913 2408 4889CE   		movq	%rcx, %rsi
 4914 240b 4889C7   		movq	%rax, %rdi
 4915 240e E8000000 		call	_ZN8UnitTest11TestDetailsC1ERKS0_i
 4915      00
 4916              		.loc 4 231 0 is_stmt 0 discriminator 2
 4917 2413 E8000000 		call	_ZN8UnitTest11CurrentTest7ResultsEv
 4917      00
 4918 2418 488B00   		movq	(%rax), %rax
 4919 241b 488D9510 		leaq	-752(%rbp), %rdx
 4919      FDFFFF
 4920 2422 488D8DC0 		leaq	-832(%rbp), %rcx
 4920      FCFFFF
 4921 2429 488D7908 		leaq	8(%rcx), %rdi
 4922 242d 488D8D80 		leaq	-896(%rbp), %rcx
 4922      FCFFFF
 4923 2434 488D7108 		leaq	8(%rcx), %rsi
 4924 2438 4889D1   		movq	%rdx, %rcx
 4925 243b 4889FA   		movq	%rdi, %rdx
 4926 243e 4889C7   		movq	%rax, %rdi
 4927 2441 E8000000 		call	_ZN8UnitTest10CheckEqualIjjEEvRNS_11TestResultsERKT_RKT0_RKNS_11TestDetailsE
 4927      00
 4928              	.LEHE193:
 4929              	.L259:
 4930              	.LEHB194:
 232:testHexIO.cpp **** 	CHECK_ARRAY_EQUAL(data.data, readbackData.data, data.length);
 4931              		.loc 4 232 0 is_stmt 1
 4932 2446 E8000000 		call	_ZN8UnitTest11CurrentTest7DetailsEv
 4932      00
 4933 244b 488B08   		movq	(%rax), %rcx
 4934 244e 488D8510 		leaq	-752(%rbp), %rax
 4934      FDFFFF
 4935 2455 BAE80000 		movl	$232, %edx
 4935      00
 4936 245a 4889CE   		movq	%rcx, %rsi
 4937 245d 4889C7   		movq	%rax, %rdi
 4938 2460 E8000000 		call	_ZN8UnitTest11TestDetailsC1ERKS0_i
 4938      00
 4939              		.loc 4 232 0 is_stmt 0 discriminator 2
 4940 2465 8B8588FC 		movl	-888(%rbp), %eax
 4940      FFFF
 4941 246b 89C3     		movl	%eax, %ebx
 4942 246d E8000000 		call	_ZN8UnitTest11CurrentTest7ResultsEv
 4942      00
 4943 2472 488B00   		movq	(%rax), %rax
 4944 2475 488D8D10 		leaq	-752(%rbp), %rcx
 4944      FDFFFF
 4945 247c 488D95C0 		leaq	-832(%rbp), %rdx
 4945      FCFFFF
 4946 2483 488DB580 		leaq	-896(%rbp), %rsi
 4946      FCFFFF
 4947 248a 4989C8   		movq	%rcx, %r8
 4948 248d 89D9     		movl	%ebx, %ecx
 4949 248f 4889C7   		movq	%rax, %rdi
 4950 2492 E8000000 		call	_ZN8UnitTest15CheckArrayEqualIPhS1_EEvRNS_11TestResultsERKT_RKT0_iRKNS_11TestDetailsE
 4950      00
 4951              	.LEHE194:
 4952              	.L262:
 4953              	.LEHB195:
 233:testHexIO.cpp **** 	CHECK_EQUAL(mask.length, readbackMask.length);
 4954              		.loc 4 233 0 is_stmt 1
 4955 2497 E8000000 		call	_ZN8UnitTest11CurrentTest7DetailsEv
 4955      00
 4956 249c 488B08   		movq	(%rax), %rcx
 4957 249f 488D8510 		leaq	-752(%rbp), %rax
 4957      FDFFFF
 4958 24a6 BAE90000 		movl	$233, %edx
 4958      00
 4959 24ab 4889CE   		movq	%rcx, %rsi
 4960 24ae 4889C7   		movq	%rax, %rdi
 4961 24b1 E8000000 		call	_ZN8UnitTest11TestDetailsC1ERKS0_i
 4961      00
 4962              		.loc 4 233 0 is_stmt 0 discriminator 2
 4963 24b6 E8000000 		call	_ZN8UnitTest11CurrentTest7ResultsEv
 4963      00
 4964 24bb 488B00   		movq	(%rax), %rax
 4965 24be 488D9510 		leaq	-752(%rbp), %rdx
 4965      FDFFFF
 4966 24c5 488D8DE0 		leaq	-800(%rbp), %rcx
 4966      FCFFFF
 4967 24cc 488D7908 		leaq	8(%rcx), %rdi
 4968 24d0 488D8DA0 		leaq	-864(%rbp), %rcx
 4968      FCFFFF
 4969 24d7 488D7108 		leaq	8(%rcx), %rsi
 4970 24db 4889D1   		movq	%rdx, %rcx
 4971 24de 4889FA   		movq	%rdi, %rdx
 4972 24e1 4889C7   		movq	%rax, %rdi
 4973 24e4 E8000000 		call	_ZN8UnitTest10CheckEqualIjjEEvRNS_11TestResultsERKT_RKT0_RKNS_11TestDetailsE
 4973      00
 4974              	.LEHE195:
 4975              	.L265:
 4976              	.LEHB196:
 234:testHexIO.cpp **** 	CHECK_ARRAY_EQUAL(mask.data, readbackMask.data, mask.length);
 4977              		.loc 4 234 0 is_stmt 1
 4978 24e9 E8000000 		call	_ZN8UnitTest11CurrentTest7DetailsEv
 4978      00
 4979 24ee 488B08   		movq	(%rax), %rcx
 4980 24f1 488D8510 		leaq	-752(%rbp), %rax
 4980      FDFFFF
 4981 24f8 BAEA0000 		movl	$234, %edx
 4981      00
 4982 24fd 4889CE   		movq	%rcx, %rsi
 4983 2500 4889C7   		movq	%rax, %rdi
 4984 2503 E8000000 		call	_ZN8UnitTest11TestDetailsC1ERKS0_i
 4984      00
 4985              		.loc 4 234 0 is_stmt 0 discriminator 2
 4986 2508 8B85A8FC 		movl	-856(%rbp), %eax
 4986      FFFF
 4987 250e 89C3     		movl	%eax, %ebx
 4988 2510 E8000000 		call	_ZN8UnitTest11CurrentTest7ResultsEv
 4988      00
 4989 2515 488B00   		movq	(%rax), %rax
 4990 2518 488D8D10 		leaq	-752(%rbp), %rcx
 4990      FDFFFF
 4991 251f 488D95E0 		leaq	-800(%rbp), %rdx
 4991      FCFFFF
 4992 2526 488DB5A0 		leaq	-864(%rbp), %rsi
 4992      FCFFFF
 4993 252d 4989C8   		movq	%rcx, %r8
 4994 2530 89D9     		movl	%ebx, %ecx
 4995 2532 4889C7   		movq	%rax, %rdi
 4996 2535 E8000000 		call	_ZN8UnitTest15CheckArrayEqualIPhS1_EEvRNS_11TestResultsERKT_RKT0_iRKNS_11TestDetailsE
 4996      00
 4997              	.LEHE196:
 4998              	.L268:
 235:testHexIO.cpp **** 	
 236:testHexIO.cpp **** 	bufDestroy(&readbackMask);
 4999              		.loc 4 236 0 is_stmt 1
 5000 253a 488D85E0 		leaq	-800(%rbp), %rax
 5000      FCFFFF
 5001 2541 4889C7   		movq	%rax, %rdi
 5002              	.LEHB197:
 5003 2544 E8000000 		call	bufDestroy
 5003      00
 237:testHexIO.cpp **** 	bufDestroy(&readbackData);
 5004              		.loc 4 237 0
 5005 2549 488D85C0 		leaq	-832(%rbp), %rax
 5005      FCFFFF
 5006 2550 4889C7   		movq	%rax, %rdi
 5007 2553 E8000000 		call	bufDestroy
 5007      00
 238:testHexIO.cpp **** 	bufDestroy(&mask);
 5008              		.loc 4 238 0
 5009 2558 488D85A0 		leaq	-864(%rbp), %rax
 5009      FCFFFF
 5010 255f 4889C7   		movq	%rax, %rdi
 5011 2562 E8000000 		call	bufDestroy
 5011      00
 239:testHexIO.cpp **** 	bufDestroy(&data);
 5012              		.loc 4 239 0
 5013 2567 488D8580 		leaq	-896(%rbp), %rax
 5013      FCFFFF
 5014 256e 4889C7   		movq	%rax, %rdi
 5015 2571 E8000000 		call	bufDestroy
 5015      00
 5016              	.LEHE197:
 213:testHexIO.cpp **** 	ifstream::pos_type length;
 5017              		.loc 4 213 0
 5018 2576 488D8530 		leaq	-720(%rbp), %rax
 5018      FDFFFF
 5019 257d 4889C7   		movq	%rax, %rdi
 5020              	.LEHB198:
 5021 2580 E8000000 		call	_ZNSt14basic_ifstreamIcSt11char_traitsIcEED1Ev
 5021      00
 5022              	.LEHE198:
 5023              		.loc 4 239 0
 5024 2585 488D8550 		leaq	-944(%rbp), %rax
 5024      FCFFFF
 5025 258c 4889C7   		movq	%rax, %rdi
 5026              	.LEHB199:
 5027 258f E8000000 		call	_ZNSsD1Ev
 5027      00
 5028              	.LEHE199:
 5029              	.LBE37:
 240:testHexIO.cpp **** }
 5030              		.loc 4 240 0
 5031 2594 488B8538 		movq	-200(%rbp), %rax
 5031      FFFFFF
 5032 259b 64483304 		xorq	%fs:40, %rax
 5032      25280000 
 5032      00
 5033 25a4 0F844E05 		je	.L269
 5033      0000
 5034 25aa E9440500 		jmp	.L300
 5034      00
 5035              	.L272:
 5036 25af 4889C3   		movq	%rax, %rbx
 5037              	.LBB38:
 196:testHexIO.cpp **** 	status = bufInitialise(&mask, 1024, 0x00, NULL);
 5038              		.loc 4 196 0
 5039 25b2 E8000000 		call	__cxa_end_catch
 5039      00
 5040 25b7 E91D0500 		jmp	.L227
 5040      00
 5041              	.L271:
 5042 25bc 4889C7   		movq	%rax, %rdi
 5043 25bf E8000000 		call	__cxa_begin_catch
 5043      00
 5044              	.LEHB200:
 5045 25c4 E8000000 		call	_ZN8UnitTest11CurrentTest7DetailsEv
 5045      00
 5046 25c9 488B08   		movq	(%rax), %rcx
 5047 25cc 488D8510 		leaq	-752(%rbp), %rax
 5047      FDFFFF
 5048 25d3 BAC40000 		movl	$196, %edx
 5048      00
 5049 25d8 4889CE   		movq	%rcx, %rsi
 5050 25db 4889C7   		movq	%rax, %rdi
 5051 25de E8000000 		call	_ZN8UnitTest11TestDetailsC1ERKS0_i
 5051      00
 196:testHexIO.cpp **** 	status = bufInitialise(&mask, 1024, 0x00, NULL);
 5052              		.loc 4 196 0 is_stmt 0 discriminator 10
 5053 25e3 E8000000 		call	_ZN8UnitTest11CurrentTest7ResultsEv
 5053      00
 5054 25e8 488B00   		movq	(%rax), %rax
 5055 25eb 488D8D10 		leaq	-752(%rbp), %rcx
 5055      FDFFFF
 5056 25f2 BA000000 		movl	$.LC4, %edx
 5056      00
 5057 25f7 4889CE   		movq	%rcx, %rsi
 5058 25fa 4889C7   		movq	%rax, %rdi
 5059 25fd E8000000 		call	_ZN8UnitTest11TestResults13OnTestFailureERKNS_11TestDetailsEPKc
 5059      00
 5060              	.LEHE200:
 5061              	.LEHB201:
 196:testHexIO.cpp **** 	status = bufInitialise(&mask, 1024, 0x00, NULL);
 5062              		.loc 4 196 0 discriminator 14
 5063 2602 E8000000 		call	__cxa_end_catch
 5063      00
 5064              	.LEHE201:
 196:testHexIO.cpp **** 	status = bufInitialise(&mask, 1024, 0x00, NULL);
 5065              		.loc 4 196 0
 5066 2607 E918F8FF 		jmp	.L229
 5066      FF
 5067              	.L274:
 5068 260c 4889C3   		movq	%rax, %rbx
 198:testHexIO.cpp **** 	va_start(vl, firstLine);
 5069              		.loc 4 198 0 is_stmt 1
 5070 260f E8000000 		call	__cxa_end_catch
 5070      00
 5071 2614 E9C00400 		jmp	.L227
 5071      00
 5072              	.L273:
 5073 2619 4889C7   		movq	%rax, %rdi
 5074 261c E8000000 		call	__cxa_begin_catch
 5074      00
 5075              	.LEHB202:
 5076 2621 E8000000 		call	_ZN8UnitTest11CurrentTest7DetailsEv
 5076      00
 5077 2626 488B08   		movq	(%rax), %rcx
 5078 2629 488D8510 		leaq	-752(%rbp), %rax
 5078      FDFFFF
 5079 2630 BAC60000 		movl	$198, %edx
 5079      00
 5080 2635 4889CE   		movq	%rcx, %rsi
 5081 2638 4889C7   		movq	%rax, %rdi
 5082 263b E8000000 		call	_ZN8UnitTest11TestDetailsC1ERKS0_i
 5082      00
 198:testHexIO.cpp **** 	va_start(vl, firstLine);
 5083              		.loc 4 198 0 is_stmt 0 discriminator 10
 5084 2640 E8000000 		call	_ZN8UnitTest11CurrentTest7ResultsEv
 5084      00
 5085 2645 488B00   		movq	(%rax), %rax
 5086 2648 488D8D10 		leaq	-752(%rbp), %rcx
 5086      FDFFFF
 5087 264f BA000000 		movl	$.LC4, %edx
 5087      00
 5088 2654 4889CE   		movq	%rcx, %rsi
 5089 2657 4889C7   		movq	%rax, %rdi
 5090 265a E8000000 		call	_ZN8UnitTest11TestResults13OnTestFailureERKNS_11TestDetailsEPKc
 5090      00
 5091              	.LEHE202:
 5092              	.LEHB203:
 198:testHexIO.cpp **** 	va_start(vl, firstLine);
 5093              		.loc 4 198 0 discriminator 14
 5094 265f E8000000 		call	__cxa_end_catch
 5094      00
 5095              	.LEHE203:
 198:testHexIO.cpp **** 	va_start(vl, firstLine);
 5096              		.loc 4 198 0
 5097 2664 E92DF8FF 		jmp	.L232
 5097      FF
 5098              	.L276:
 5099 2669 4889C3   		movq	%rax, %rbx
 203:testHexIO.cpp **** 		expected += line;
 5100              		.loc 4 203 0 is_stmt 1
 5101 266c E8000000 		call	__cxa_end_catch
 5101      00
 5102 2671 E9630400 		jmp	.L227
 5102      00
 5103              	.L275:
 5104 2676 4889C7   		movq	%rax, %rdi
 5105 2679 E8000000 		call	__cxa_begin_catch
 5105      00
 5106              	.LEHB204:
 5107 267e E8000000 		call	_ZN8UnitTest11CurrentTest7DetailsEv
 5107      00
 5108 2683 488B08   		movq	(%rax), %rcx
 5109 2686 488D8510 		leaq	-752(%rbp), %rax
 5109      FDFFFF
 5110 268d BACB0000 		movl	$203, %edx
 5110      00
 5111 2692 4889CE   		movq	%rcx, %rsi
 5112 2695 4889C7   		movq	%rax, %rdi
 5113 2698 E8000000 		call	_ZN8UnitTest11TestDetailsC1ERKS0_i
 5113      00
 203:testHexIO.cpp **** 		expected += line;
 5114              		.loc 4 203 0 is_stmt 0 discriminator 10
 5115 269d E8000000 		call	_ZN8UnitTest11CurrentTest7ResultsEv
 5115      00
 5116 26a2 488B00   		movq	(%rax), %rax
 5117 26a5 488D8D10 		leaq	-752(%rbp), %rcx
 5117      FDFFFF
 5118 26ac BA000000 		movl	$.LC4, %edx
 5118      00
 5119 26b1 4889CE   		movq	%rcx, %rsi
 5120 26b4 4889C7   		movq	%rax, %rdi
 5121 26b7 E8000000 		call	_ZN8UnitTest11TestResults13OnTestFailureERKNS_11TestDetailsEPKc
 5121      00
 5122              	.LEHE204:
 5123              	.LEHB205:
 203:testHexIO.cpp **** 		expected += line;
 5124              		.loc 4 203 0 discriminator 14
 5125 26bc E8000000 		call	__cxa_end_catch
 5125      00
 5126              	.LEHE205:
 203:testHexIO.cpp **** 		expected += line;
 5127              		.loc 4 203 0
 5128 26c1 E99FF8FF 		jmp	.L235
 5128      FF
 5129              	.L278:
 5130 26c6 4889C3   		movq	%rax, %rbx
 211:testHexIO.cpp **** 
 5131              		.loc 4 211 0 is_stmt 1
 5132 26c9 E8000000 		call	__cxa_end_catch
 5132      00
 5133 26ce E9060400 		jmp	.L227
 5133      00
 5134              	.L277:
 5135 26d3 4889C7   		movq	%rax, %rdi
 5136 26d6 E8000000 		call	__cxa_begin_catch
 5136      00
 5137              	.LEHB206:
 5138 26db E8000000 		call	_ZN8UnitTest11CurrentTest7DetailsEv
 5138      00
 5139 26e0 488B08   		movq	(%rax), %rcx
 5140 26e3 488D8510 		leaq	-752(%rbp), %rax
 5140      FDFFFF
 5141 26ea BAD30000 		movl	$211, %edx
 5141      00
 5142 26ef 4889CE   		movq	%rcx, %rsi
 5143 26f2 4889C7   		movq	%rax, %rdi
 5144 26f5 E8000000 		call	_ZN8UnitTest11TestDetailsC1ERKS0_i
 5144      00
 211:testHexIO.cpp **** 
 5145              		.loc 4 211 0 is_stmt 0 discriminator 10
 5146 26fa E8000000 		call	_ZN8UnitTest11CurrentTest7ResultsEv
 5146      00
 5147 26ff 488B00   		movq	(%rax), %rax
 5148 2702 488D8D10 		leaq	-752(%rbp), %rcx
 5148      FDFFFF
 5149 2709 BA000000 		movl	$.LC4, %edx
 5149      00
 5150 270e 4889CE   		movq	%rcx, %rsi
 5151 2711 4889C7   		movq	%rax, %rdi
 5152 2714 E8000000 		call	_ZN8UnitTest11TestResults13OnTestFailureERKNS_11TestDetailsEPKc
 5152      00
 5153              	.LEHE206:
 5154              	.LEHB207:
 211:testHexIO.cpp **** 
 5155              		.loc 4 211 0 discriminator 14
 5156 2719 E8000000 		call	__cxa_end_catch
 5156      00
 5157              	.LEHE207:
 211:testHexIO.cpp **** 
 5158              		.loc 4 211 0
 5159 271e E95BF9FF 		jmp	.L238
 5159      FF
 5160              	.L281:
 5161 2723 4889C3   		movq	%rax, %rbx
 216:testHexIO.cpp **** 	length = file.tellg();
 5162              		.loc 4 216 0 is_stmt 1
 5163 2726 E8000000 		call	__cxa_end_catch
 5163      00
 5164 272b E9950300 		jmp	.L240
 5164      00
 5165              	.L280:
 5166 2730 4889C7   		movq	%rax, %rdi
 5167 2733 E8000000 		call	__cxa_begin_catch
 5167      00
 5168              	.LEHB208:
 5169 2738 E8000000 		call	_ZN8UnitTest11CurrentTest7DetailsEv
 5169      00
 5170 273d 488B08   		movq	(%rax), %rcx
 5171 2740 488D8510 		leaq	-752(%rbp), %rax
 5171      FDFFFF
 5172 2747 BAD80000 		movl	$216, %edx
 5172      00
 5173 274c 4889CE   		movq	%rcx, %rsi
 5174 274f 4889C7   		movq	%rax, %rdi
 5175 2752 E8000000 		call	_ZN8UnitTest11TestDetailsC1ERKS0_i
 5175      00
 216:testHexIO.cpp **** 	length = file.tellg();
 5176              		.loc 4 216 0 is_stmt 0 discriminator 12
 5177 2757 E8000000 		call	_ZN8UnitTest11CurrentTest7ResultsEv
 5177      00
 5178 275c 488B00   		movq	(%rax), %rax
 5179 275f 488D8D10 		leaq	-752(%rbp), %rcx
 5179      FDFFFF
 5180 2766 BA000000 		movl	$.LC45, %edx
 5180      00
 5181 276b 4889CE   		movq	%rcx, %rsi
 5182 276e 4889C7   		movq	%rax, %rdi
 5183 2771 E8000000 		call	_ZN8UnitTest11TestResults13OnTestFailureERKNS_11TestDetailsEPKc
 5183      00
 5184              	.LEHE208:
 5185              	.LEHB209:
 216:testHexIO.cpp **** 	length = file.tellg();
 5186              		.loc 4 216 0 discriminator 16
 5187 2776 E8000000 		call	__cxa_end_catch
 5187      00
 5188              	.LEHE209:
 216:testHexIO.cpp **** 	length = file.tellg();
 5189              		.loc 4 216 0
 5190 277b E99FF9FF 		jmp	.L225
 5190      FF
 5191              	.L283:
 5192 2780 4889C3   		movq	%rax, %rbx
 218:testHexIO.cpp **** 	char *fileData = new char[(unsigned int)length];
 5193              		.loc 4 218 0 is_stmt 1
 5194 2783 E8000000 		call	__cxa_end_catch
 5194      00
 5195 2788 E9380300 		jmp	.L240
 5195      00
 5196              	.L282:
 5197 278d 4889C7   		movq	%rax, %rdi
 5198 2790 E8000000 		call	__cxa_begin_catch
 5198      00
 5199              	.LEHB210:
 5200 2795 E8000000 		call	_ZN8UnitTest11CurrentTest7DetailsEv
 5200      00
 5201 279a 488B08   		movq	(%rax), %rcx
 5202 279d 488D8510 		leaq	-752(%rbp), %rax
 5202      FDFFFF
 5203 27a4 BADA0000 		movl	$218, %edx
 5203      00
 5204 27a9 4889CE   		movq	%rcx, %rsi
 5205 27ac 4889C7   		movq	%rax, %rdi
 5206 27af E8000000 		call	_ZN8UnitTest11TestDetailsC1ERKS0_i
 5206      00
 218:testHexIO.cpp **** 	char *fileData = new char[(unsigned int)length];
 5207              		.loc 4 218 0 is_stmt 0 discriminator 12
 5208 27b4 E8000000 		call	_ZN8UnitTest11CurrentTest7ResultsEv
 5208      00
 5209 27b9 488B00   		movq	(%rax), %rax
 5210 27bc 488D8D10 		leaq	-752(%rbp), %rcx
 5210      FDFFFF
 5211 27c3 BA000000 		movl	$.LC46, %edx
 5211      00
 5212 27c8 4889CE   		movq	%rcx, %rsi
 5213 27cb 4889C7   		movq	%rax, %rdi
 5214 27ce E8000000 		call	_ZN8UnitTest11TestResults13OnTestFailureERKNS_11TestDetailsEPKc
 5214      00
 5215              	.LEHE210:
 5216              	.LEHB211:
 218:testHexIO.cpp **** 	char *fileData = new char[(unsigned int)length];
 5217              		.loc 4 218 0 discriminator 16
 5218 27d3 E8000000 		call	__cxa_end_catch
 5218      00
 5219              	.LEHE211:
 218:testHexIO.cpp **** 	char *fileData = new char[(unsigned int)length];
 5220              		.loc 4 218 0
 5221 27d8 E9CEF9FF 		jmp	.L244
 5221      FF
 5222              	.L285:
 5223 27dd 4889C3   		movq	%rax, %rbx
 223:testHexIO.cpp **** 
 5224              		.loc 4 223 0 is_stmt 1
 5225 27e0 E8000000 		call	__cxa_end_catch
 5225      00
 5226 27e5 E9DB0200 		jmp	.L240
 5226      00
 5227              	.L284:
 5228 27ea 4889C7   		movq	%rax, %rdi
 5229 27ed E8000000 		call	__cxa_begin_catch
 5229      00
 5230              	.LEHB212:
 5231 27f2 E8000000 		call	_ZN8UnitTest11CurrentTest7DetailsEv
 5231      00
 5232 27f7 488B08   		movq	(%rax), %rcx
 5233 27fa 488D8510 		leaq	-752(%rbp), %rax
 5233      FDFFFF
 5234 2801 BADF0000 		movl	$223, %edx
 5234      00
 5235 2806 4889CE   		movq	%rcx, %rsi
 5236 2809 4889C7   		movq	%rax, %rdi
 5237 280c E8000000 		call	_ZN8UnitTest11TestDetailsC1ERKS0_i
 5237      00
 223:testHexIO.cpp **** 
 5238              		.loc 4 223 0 is_stmt 0 discriminator 12
 5239 2811 E8000000 		call	_ZN8UnitTest11CurrentTest7ResultsEv
 5239      00
 5240 2816 488B00   		movq	(%rax), %rax
 5241 2819 488D8D10 		leaq	-752(%rbp), %rcx
 5241      FDFFFF
 5242 2820 BA000000 		movl	$.LC47, %edx
 5242      00
 5243 2825 4889CE   		movq	%rcx, %rsi
 5244 2828 4889C7   		movq	%rax, %rdi
 5245 282b E8000000 		call	_ZN8UnitTest11TestResults13OnTestFailureERKNS_11TestDetailsEPKc
 5245      00
 5246              	.LEHE212:
 5247              	.LEHB213:
 223:testHexIO.cpp **** 
 5248              		.loc 4 223 0 discriminator 16
 5249 2830 E8000000 		call	__cxa_end_catch
 5249      00
 5250              	.LEHE213:
 223:testHexIO.cpp **** 
 5251              		.loc 4 223 0
 5252 2835 E962FAFF 		jmp	.L247
 5252      FF
 5253              	.L287:
 5254 283a 4889C3   		movq	%rax, %rbx
 226:testHexIO.cpp **** 	status = bufInitialise(&readbackMask, 1024, 0x00, NULL);
 5255              		.loc 4 226 0 is_stmt 1
 5256 283d E8000000 		call	__cxa_end_catch
 5256      00
 5257 2842 E97E0200 		jmp	.L240
 5257      00
 5258              	.L286:
 5259 2847 4889C7   		movq	%rax, %rdi
 5260 284a E8000000 		call	__cxa_begin_catch
 5260      00
 5261              	.LEHB214:
 5262 284f E8000000 		call	_ZN8UnitTest11CurrentTest7DetailsEv
 5262      00
 5263 2854 488B08   		movq	(%rax), %rcx
 5264 2857 488D8510 		leaq	-752(%rbp), %rax
 5264      FDFFFF
 5265 285e BAE20000 		movl	$226, %edx
 5265      00
 5266 2863 4889CE   		movq	%rcx, %rsi
 5267 2866 4889C7   		movq	%rax, %rdi
 5268 2869 E8000000 		call	_ZN8UnitTest11TestDetailsC1ERKS0_i
 5268      00
 226:testHexIO.cpp **** 	status = bufInitialise(&readbackMask, 1024, 0x00, NULL);
 5269              		.loc 4 226 0 is_stmt 0 discriminator 10
 5270 286e E8000000 		call	_ZN8UnitTest11CurrentTest7ResultsEv
 5270      00
 5271 2873 488B00   		movq	(%rax), %rax
 5272 2876 488D8D10 		leaq	-752(%rbp), %rcx
 5272      FDFFFF
 5273 287d BA000000 		movl	$.LC4, %edx
 5273      00
 5274 2882 4889CE   		movq	%rcx, %rsi
 5275 2885 4889C7   		movq	%rax, %rdi
 5276 2888 E8000000 		call	_ZN8UnitTest11TestResults13OnTestFailureERKNS_11TestDetailsEPKc
 5276      00
 5277              	.LEHE214:
 5278              	.LEHB215:
 226:testHexIO.cpp **** 	status = bufInitialise(&readbackMask, 1024, 0x00, NULL);
 5279              		.loc 4 226 0 discriminator 14
 5280 288d E8000000 		call	__cxa_end_catch
 5280      00
 5281              	.LEHE215:
 226:testHexIO.cpp **** 	status = bufInitialise(&readbackMask, 1024, 0x00, NULL);
 5282              		.loc 4 226 0
 5283 2892 E977FAFF 		jmp	.L250
 5283      FF
 5284              	.L289:
 5285 2897 4889C3   		movq	%rax, %rbx
 228:testHexIO.cpp **** 	status = bufReadFromIntelHexFile(&readbackData, &readbackMask, FILENAME, NULL);
 5286              		.loc 4 228 0 is_stmt 1
 5287 289a E8000000 		call	__cxa_end_catch
 5287      00
 5288 289f E9210200 		jmp	.L240
 5288      00
 5289              	.L288:
 5290 28a4 4889C7   		movq	%rax, %rdi
 5291 28a7 E8000000 		call	__cxa_begin_catch
 5291      00
 5292              	.LEHB216:
 5293 28ac E8000000 		call	_ZN8UnitTest11CurrentTest7DetailsEv
 5293      00
 5294 28b1 488B08   		movq	(%rax), %rcx
 5295 28b4 488D8510 		leaq	-752(%rbp), %rax
 5295      FDFFFF
 5296 28bb BAE40000 		movl	$228, %edx
 5296      00
 5297 28c0 4889CE   		movq	%rcx, %rsi
 5298 28c3 4889C7   		movq	%rax, %rdi
 5299 28c6 E8000000 		call	_ZN8UnitTest11TestDetailsC1ERKS0_i
 5299      00
 228:testHexIO.cpp **** 	status = bufReadFromIntelHexFile(&readbackData, &readbackMask, FILENAME, NULL);
 5300              		.loc 4 228 0 is_stmt 0 discriminator 10
 5301 28cb E8000000 		call	_ZN8UnitTest11CurrentTest7ResultsEv
 5301      00
 5302 28d0 488B00   		movq	(%rax), %rax
 5303 28d3 488D8D10 		leaq	-752(%rbp), %rcx
 5303      FDFFFF
 5304 28da BA000000 		movl	$.LC4, %edx
 5304      00
 5305 28df 4889CE   		movq	%rcx, %rsi
 5306 28e2 4889C7   		movq	%rax, %rdi
 5307 28e5 E8000000 		call	_ZN8UnitTest11TestResults13OnTestFailureERKNS_11TestDetailsEPKc
 5307      00
 5308              	.LEHE216:
 5309              	.LEHB217:
 228:testHexIO.cpp **** 	status = bufReadFromIntelHexFile(&readbackData, &readbackMask, FILENAME, NULL);
 5310              		.loc 4 228 0 discriminator 14
 5311 28ea E8000000 		call	__cxa_end_catch
 5311      00
 5312              	.LEHE217:
 228:testHexIO.cpp **** 	status = bufReadFromIntelHexFile(&readbackData, &readbackMask, FILENAME, NULL);
 5313              		.loc 4 228 0
 5314 28ef E98CFAFF 		jmp	.L253
 5314      FF
 5315              	.L291:
 5316 28f4 4889C3   		movq	%rax, %rbx
 230:testHexIO.cpp **** 	CHECK_EQUAL(data.length, readbackData.length);
 5317              		.loc 4 230 0 is_stmt 1
 5318 28f7 E8000000 		call	__cxa_end_catch
 5318      00
 5319 28fc E9C40100 		jmp	.L240
 5319      00
 5320              	.L290:
 5321 2901 4889C7   		movq	%rax, %rdi
 5322 2904 E8000000 		call	__cxa_begin_catch
 5322      00
 5323              	.LEHB218:
 5324 2909 E8000000 		call	_ZN8UnitTest11CurrentTest7DetailsEv
 5324      00
 5325 290e 488B08   		movq	(%rax), %rcx
 5326 2911 488D8510 		leaq	-752(%rbp), %rax
 5326      FDFFFF
 5327 2918 BAE60000 		movl	$230, %edx
 5327      00
 5328 291d 4889CE   		movq	%rcx, %rsi
 5329 2920 4889C7   		movq	%rax, %rdi
 5330 2923 E8000000 		call	_ZN8UnitTest11TestDetailsC1ERKS0_i
 5330      00
 230:testHexIO.cpp **** 	CHECK_EQUAL(data.length, readbackData.length);
 5331              		.loc 4 230 0 is_stmt 0 discriminator 10
 5332 2928 E8000000 		call	_ZN8UnitTest11CurrentTest7ResultsEv
 5332      00
 5333 292d 488B00   		movq	(%rax), %rax
 5334 2930 488D8D10 		leaq	-752(%rbp), %rcx
 5334      FDFFFF
 5335 2937 BA000000 		movl	$.LC4, %edx
 5335      00
 5336 293c 4889CE   		movq	%rcx, %rsi
 5337 293f 4889C7   		movq	%rax, %rdi
 5338 2942 E8000000 		call	_ZN8UnitTest11TestResults13OnTestFailureERKNS_11TestDetailsEPKc
 5338      00
 5339              	.LEHE218:
 5340              	.LEHB219:
 230:testHexIO.cpp **** 	CHECK_EQUAL(data.length, readbackData.length);
 5341              		.loc 4 230 0 discriminator 14
 5342 2947 E8000000 		call	__cxa_end_catch
 5342      00
 5343              	.LEHE219:
 230:testHexIO.cpp **** 	CHECK_EQUAL(data.length, readbackData.length);
 5344              		.loc 4 230 0
 5345 294c E9A3FAFF 		jmp	.L256
 5345      FF
 5346              	.L293:
 5347 2951 4889C3   		movq	%rax, %rbx
 231:testHexIO.cpp **** 	CHECK_ARRAY_EQUAL(data.data, readbackData.data, data.length);
 5348              		.loc 4 231 0 is_stmt 1
 5349 2954 E8000000 		call	__cxa_end_catch
 5349      00
 5350 2959 E9670100 		jmp	.L240
 5350      00
 5351              	.L292:
 5352 295e 4889C7   		movq	%rax, %rdi
 5353 2961 E8000000 		call	__cxa_begin_catch
 5353      00
 5354              	.LEHB220:
 5355 2966 E8000000 		call	_ZN8UnitTest11CurrentTest7DetailsEv
 5355      00
 5356 296b 488B08   		movq	(%rax), %rcx
 5357 296e 488D8510 		leaq	-752(%rbp), %rax
 5357      FDFFFF
 5358 2975 BAE70000 		movl	$231, %edx
 5358      00
 5359 297a 4889CE   		movq	%rcx, %rsi
 5360 297d 4889C7   		movq	%rax, %rdi
 5361 2980 E8000000 		call	_ZN8UnitTest11TestDetailsC1ERKS0_i
 5361      00
 231:testHexIO.cpp **** 	CHECK_ARRAY_EQUAL(data.data, readbackData.data, data.length);
 5362              		.loc 4 231 0 is_stmt 0 discriminator 10
 5363 2985 E8000000 		call	_ZN8UnitTest11CurrentTest7ResultsEv
 5363      00
 5364 298a 488B00   		movq	(%rax), %rax
 5365 298d 488D8D10 		leaq	-752(%rbp), %rcx
 5365      FDFFFF
 5366 2994 BA000000 		movl	$.LC48, %edx
 5366      00
 5367 2999 4889CE   		movq	%rcx, %rsi
 5368 299c 4889C7   		movq	%rax, %rdi
 5369 299f E8000000 		call	_ZN8UnitTest11TestResults13OnTestFailureERKNS_11TestDetailsEPKc
 5369      00
 5370              	.LEHE220:
 5371              	.LEHB221:
 231:testHexIO.cpp **** 	CHECK_ARRAY_EQUAL(data.data, readbackData.data, data.length);
 5372              		.loc 4 231 0 discriminator 14
 5373 29a4 E8000000 		call	__cxa_end_catch
 5373      00
 5374              	.LEHE221:
 231:testHexIO.cpp **** 	CHECK_ARRAY_EQUAL(data.data, readbackData.data, data.length);
 5375              		.loc 4 231 0
 5376 29a9 E998FAFF 		jmp	.L259
 5376      FF
 5377              	.L295:
 5378 29ae 4889C3   		movq	%rax, %rbx
 232:testHexIO.cpp **** 	CHECK_EQUAL(mask.length, readbackMask.length);
 5379              		.loc 4 232 0 is_stmt 1
 5380 29b1 E8000000 		call	__cxa_end_catch
 5380      00
 5381 29b6 E90A0100 		jmp	.L240
 5381      00
 5382              	.L294:
 5383 29bb 4889C7   		movq	%rax, %rdi
 5384 29be E8000000 		call	__cxa_begin_catch
 5384      00
 5385              	.LEHB222:
 5386 29c3 E8000000 		call	_ZN8UnitTest11CurrentTest7DetailsEv
 5386      00
 5387 29c8 488B08   		movq	(%rax), %rcx
 5388 29cb 488D8510 		leaq	-752(%rbp), %rax
 5388      FDFFFF
 5389 29d2 BAE80000 		movl	$232, %edx
 5389      00
 5390 29d7 4889CE   		movq	%rcx, %rsi
 5391 29da 4889C7   		movq	%rax, %rdi
 5392 29dd E8000000 		call	_ZN8UnitTest11TestDetailsC1ERKS0_i
 5392      00
 232:testHexIO.cpp **** 	CHECK_EQUAL(mask.length, readbackMask.length);
 5393              		.loc 4 232 0 is_stmt 0 discriminator 10
 5394 29e2 E8000000 		call	_ZN8UnitTest11CurrentTest7ResultsEv
 5394      00
 5395 29e7 488B00   		movq	(%rax), %rax
 5396 29ea 488D8D10 		leaq	-752(%rbp), %rcx
 5396      FDFFFF
 5397 29f1 BA000000 		movl	$.LC49, %edx
 5397      00
 5398 29f6 4889CE   		movq	%rcx, %rsi
 5399 29f9 4889C7   		movq	%rax, %rdi
 5400 29fc E8000000 		call	_ZN8UnitTest11TestResults13OnTestFailureERKNS_11TestDetailsEPKc
 5400      00
 5401              	.LEHE222:
 5402              	.LEHB223:
 232:testHexIO.cpp **** 	CHECK_EQUAL(mask.length, readbackMask.length);
 5403              		.loc 4 232 0 discriminator 14
 5404 2a01 E8000000 		call	__cxa_end_catch
 5404      00
 5405              	.LEHE223:
 232:testHexIO.cpp **** 	CHECK_EQUAL(mask.length, readbackMask.length);
 5406              		.loc 4 232 0
 5407 2a06 E98CFAFF 		jmp	.L262
 5407      FF
 5408              	.L297:
 5409 2a0b 4889C3   		movq	%rax, %rbx
 233:testHexIO.cpp **** 	CHECK_ARRAY_EQUAL(mask.data, readbackMask.data, mask.length);
 5410              		.loc 4 233 0 is_stmt 1
 5411 2a0e E8000000 		call	__cxa_end_catch
 5411      00
 5412 2a13 E9AD0000 		jmp	.L240
 5412      00
 5413              	.L296:
 5414 2a18 4889C7   		movq	%rax, %rdi
 5415 2a1b E8000000 		call	__cxa_begin_catch
 5415      00
 5416              	.LEHB224:
 5417 2a20 E8000000 		call	_ZN8UnitTest11CurrentTest7DetailsEv
 5417      00
 5418 2a25 488B08   		movq	(%rax), %rcx
 5419 2a28 488D8510 		leaq	-752(%rbp), %rax
 5419      FDFFFF
 5420 2a2f BAE90000 		movl	$233, %edx
 5420      00
 5421 2a34 4889CE   		movq	%rcx, %rsi
 5422 2a37 4889C7   		movq	%rax, %rdi
 5423 2a3a E8000000 		call	_ZN8UnitTest11TestDetailsC1ERKS0_i
 5423      00
 233:testHexIO.cpp **** 	CHECK_ARRAY_EQUAL(mask.data, readbackMask.data, mask.length);
 5424              		.loc 4 233 0 is_stmt 0 discriminator 10
 5425 2a3f E8000000 		call	_ZN8UnitTest11CurrentTest7ResultsEv
 5425      00
 5426 2a44 488B00   		movq	(%rax), %rax
 5427 2a47 488D8D10 		leaq	-752(%rbp), %rcx
 5427      FDFFFF
 5428 2a4e BA000000 		movl	$.LC50, %edx
 5428      00
 5429 2a53 4889CE   		movq	%rcx, %rsi
 5430 2a56 4889C7   		movq	%rax, %rdi
 5431 2a59 E8000000 		call	_ZN8UnitTest11TestResults13OnTestFailureERKNS_11TestDetailsEPKc
 5431      00
 5432              	.LEHE224:
 5433              	.LEHB225:
 233:testHexIO.cpp **** 	CHECK_ARRAY_EQUAL(mask.data, readbackMask.data, mask.length);
 5434              		.loc 4 233 0 discriminator 14
 5435 2a5e E8000000 		call	__cxa_end_catch
 5435      00
 5436              	.LEHE225:
 233:testHexIO.cpp **** 	CHECK_ARRAY_EQUAL(mask.data, readbackMask.data, mask.length);
 5437              		.loc 4 233 0
 5438 2a63 E981FAFF 		jmp	.L265
 5438      FF
 5439              	.L299:
 5440 2a68 4889C3   		movq	%rax, %rbx
 234:testHexIO.cpp **** 	
 5441              		.loc 4 234 0 is_stmt 1
 5442 2a6b E8000000 		call	__cxa_end_catch
 5442      00
 5443 2a70 EB53     		jmp	.L240
 5444              	.L298:
 5445 2a72 4889C7   		movq	%rax, %rdi
 5446 2a75 E8000000 		call	__cxa_begin_catch
 5446      00
 5447              	.LEHB226:
 5448 2a7a E8000000 		call	_ZN8UnitTest11CurrentTest7DetailsEv
 5448      00
 5449 2a7f 488B08   		movq	(%rax), %rcx
 5450 2a82 488D8510 		leaq	-752(%rbp), %rax
 5450      FDFFFF
 5451 2a89 BAEA0000 		movl	$234, %edx
 5451      00
 5452 2a8e 4889CE   		movq	%rcx, %rsi
 5453 2a91 4889C7   		movq	%rax, %rdi
 5454 2a94 E8000000 		call	_ZN8UnitTest11TestDetailsC1ERKS0_i
 5454      00
 234:testHexIO.cpp **** 	
 5455              		.loc 4 234 0 is_stmt 0 discriminator 10
 5456 2a99 E8000000 		call	_ZN8UnitTest11CurrentTest7ResultsEv
 5456      00
 5457 2a9e 488B00   		movq	(%rax), %rax
 5458 2aa1 488D8D10 		leaq	-752(%rbp), %rcx
 5458      FDFFFF
 5459 2aa8 BA000000 		movl	$.LC51, %edx
 5459      00
 5460 2aad 4889CE   		movq	%rcx, %rsi
 5461 2ab0 4889C7   		movq	%rax, %rdi
 5462 2ab3 E8000000 		call	_ZN8UnitTest11TestResults13OnTestFailureERKNS_11TestDetailsEPKc
 5462      00
 5463              	.LEHE226:
 5464              	.LEHB227:
 234:testHexIO.cpp **** 	
 5465              		.loc 4 234 0 discriminator 14
 5466 2ab8 E8000000 		call	__cxa_end_catch
 5466      00
 5467              	.LEHE227:
 234:testHexIO.cpp **** 	
 5468              		.loc 4 234 0
 5469 2abd E978FAFF 		jmp	.L268
 5469      FF
 5470              	.L279:
 5471 2ac2 4889C3   		movq	%rax, %rbx
 5472              	.L240:
 213:testHexIO.cpp **** 	ifstream::pos_type length;
 5473              		.loc 4 213 0 is_stmt 1
 5474 2ac5 488D8530 		leaq	-720(%rbp), %rax
 5474      FDFFFF
 5475 2acc 4889C7   		movq	%rax, %rdi
 5476 2acf E8000000 		call	_ZNSt14basic_ifstreamIcSt11char_traitsIcEED1Ev
 5476      00
 5477 2ad4 EB03     		jmp	.L227
 5478              	.L270:
 5479 2ad6 4889C3   		movq	%rax, %rbx
 5480              	.L227:
 239:testHexIO.cpp **** }
 5481              		.loc 4 239 0
 5482 2ad9 488D8550 		leaq	-944(%rbp), %rax
 5482      FCFFFF
 5483 2ae0 4889C7   		movq	%rax, %rdi
 5484 2ae3 E8000000 		call	_ZNSsD1Ev
 5484      00
 5485 2ae8 4889D8   		movq	%rbx, %rax
 5486 2aeb 4889C7   		movq	%rax, %rdi
 5487              	.LEHB228:
 5488 2aee E8000000 		call	_Unwind_Resume
 5488      00
 5489              	.LEHE228:
 5490              	.L300:
 5491              	.LBE38:
 5492              		.loc 4 240 0
 5493 2af3 E8000000 		call	__stack_chk_fail
 5493      00
 5494              	.L269:
 5495 2af8 488B5DF8 		movq	-8(%rbp), %rbx
 5496 2afc C9       		leave
 5497              		.cfi_def_cfa 7, 8
 5498 2afd C3       		ret
 5499              		.cfi_endproc
 5500              	.LFE1177:
 5501              		.section	.gcc_except_table
 5502              		.align 4
 5503              	.LLSDA1177:
 5504 03f0 FF       		.byte	0xff
 5505 03f1 03       		.byte	0x3
 5506 03f2 E402     		.uleb128 .LLSDATT1177-.LLSDATTD1177
 5507              	.LLSDATTD1177:
 5508 03f4 01       		.byte	0x1
 5509 03f5 DA02     		.uleb128 .LLSDACSE1177-.LLSDACSB1177
 5510              	.LLSDACSB1177:
 5511 03f7 8401     		.uleb128 .LEHB171-.LFB1177
 5512 03f9 05       		.uleb128 .LEHE171-.LEHB171
 5513 03fa 00       		.uleb128 0
 5514 03fb 00       		.uleb128 0
 5515 03fc AC01     		.uleb128 .LEHB172-.LFB1177
 5516 03fe 05       		.uleb128 .LEHE172-.LEHB172
 5517 03ff B71B     		.uleb128 .L270-.LFB1177
 5518 0401 00       		.uleb128 0
 5519 0402 B701     		.uleb128 .LEHB173-.LFB1177
 5520 0404 4E       		.uleb128 .LEHE173-.LEHB173
 5521 0405 9D11     		.uleb128 .L271-.LFB1177
 5522 0407 01       		.uleb128 0x1
 5523 0408 9E02     		.uleb128 .LEHB174-.LFB1177
 5524 040a 05       		.uleb128 .LEHE174-.LEHB174
 5525 040b B71B     		.uleb128 .L270-.LFB1177
 5526 040d 00       		.uleb128 0
 5527 040e A902     		.uleb128 .LEHB175-.LFB1177
 5528 0410 4E       		.uleb128 .LEHE175-.LEHB175
 5529 0411 FA11     		.uleb128 .L273-.LFB1177
 5530 0413 01       		.uleb128 0x1
 5531 0414 E903     		.uleb128 .LEHB176-.LFB1177
 5532 0416 05       		.uleb128 .LEHE176-.LEHB176
 5533 0417 B71B     		.uleb128 .L270-.LFB1177
 5534 0419 00       		.uleb128 0
 5535 041a F803     		.uleb128 .LEHB177-.LFB1177
 5536 041c 4E       		.uleb128 .LEHE177-.LEHB177
 5537 041d D712     		.uleb128 .L275-.LFB1177
 5538 041f 01       		.uleb128 0x1
 5539 0420 DA04     		.uleb128 .LEHB178-.LFB1177
 5540 0422 B101     		.uleb128 .LEHE178-.LEHB178
 5541 0424 B71B     		.uleb128 .L270-.LFB1177
 5542 0426 00       		.uleb128 0
 5543 0427 9106     		.uleb128 .LEHB179-.LFB1177
 5544 0429 4E       		.uleb128 .LEHE179-.LEHB179
 5545 042a B413     		.uleb128 .L277-.LFB1177
 5546 042c 01       		.uleb128 0x1
 5547 042d E906     		.uleb128 .LEHB180-.LFB1177
 5548 042f 05       		.uleb128 .LEHE180-.LEHB180
 5549 0430 B71B     		.uleb128 .L270-.LFB1177
 5550 0432 00       		.uleb128 0
 5551 0433 9D07     		.uleb128 .LEHB181-.LFB1177
 5552 0435 05       		.uleb128 .LEHE181-.LEHB181
 5553 0436 A31B     		.uleb128 .L279-.LFB1177
 5554 0438 00       		.uleb128 0
 5555 0439 AC07     		.uleb128 .LEHB182-.LFB1177
 5556 043b 54       		.uleb128 .LEHE182-.LEHB182
 5557 043c 9114     		.uleb128 .L280-.LFB1177
 5558 043e 01       		.uleb128 0x1
 5559 043f 8A08     		.uleb128 .LEHB183-.LFB1177
 5560 0441 05       		.uleb128 .LEHE183-.LEHB183
 5561 0442 A31B     		.uleb128 .L279-.LFB1177
 5562 0444 00       		.uleb128 0
 5563 0445 9D08     		.uleb128 .LEHB184-.LFB1177
 5564 0447 6F       		.uleb128 .LEHE184-.LEHB184
 5565 0448 EE14     		.uleb128 .L282-.LFB1177
 5566 044a 01       		.uleb128 0x1
 5567 044b A009     		.uleb128 .LEHB185-.LFB1177
 5568 044d 5F       		.uleb128 .LEHE185-.LEHB185
 5569 044e A31B     		.uleb128 .L279-.LFB1177
 5570 0450 00       		.uleb128 0
 5571 0451 FF09     		.uleb128 .LEHB186-.LFB1177
 5572 0453 7E       		.uleb128 .LEHE186-.LEHB186
 5573 0454 CB15     		.uleb128 .L284-.LFB1177
 5574 0456 01       		.uleb128 0x1
 5575 0457 960B     		.uleb128 .LEHB187-.LFB1177
 5576 0459 05       		.uleb128 .LEHE187-.LEHB187
 5577 045a A31B     		.uleb128 .L279-.LFB1177
 5578 045c 00       		.uleb128 0
 5579 045d A10B     		.uleb128 .LEHB188-.LFB1177
 5580 045f 4E       		.uleb128 .LEHE188-.LEHB188
 5581 0460 A816     		.uleb128 .L286-.LFB1177
 5582 0462 01       		.uleb128 0x1
 5583 0463 880C     		.uleb128 .LEHB189-.LFB1177
 5584 0465 05       		.uleb128 .LEHE189-.LEHB189
 5585 0466 A31B     		.uleb128 .L279-.LFB1177
 5586 0468 00       		.uleb128 0
 5587 0469 930C     		.uleb128 .LEHB190-.LFB1177
 5588 046b 4E       		.uleb128 .LEHE190-.LEHB190
 5589 046c 8517     		.uleb128 .L288-.LFB1177
 5590 046e 01       		.uleb128 0x1
 5591 046f FC0C     		.uleb128 .LEHB191-.LFB1177
 5592 0471 05       		.uleb128 .LEHE191-.LEHB191
 5593 0472 A31B     		.uleb128 .L279-.LFB1177
 5594 0474 00       		.uleb128 0
 5595 0475 870D     		.uleb128 .LEHB192-.LFB1177
 5596 0477 4E       		.uleb128 .LEHE192-.LEHB192
 5597 0478 E217     		.uleb128 .L290-.LFB1177
 5598 047a 01       		.uleb128 0x1
 5599 047b D50D     		.uleb128 .LEHB193-.LFB1177
 5600 047d 52       		.uleb128 .LEHE193-.LEHB193
 5601 047e BF18     		.uleb128 .L292-.LFB1177
 5602 0480 01       		.uleb128 0x1
 5603 0481 A70E     		.uleb128 .LEHB194-.LFB1177
 5604 0483 51       		.uleb128 .LEHE194-.LEHB194
 5605 0484 9C19     		.uleb128 .L294-.LFB1177
 5606 0486 01       		.uleb128 0x1
 5607 0487 F80E     		.uleb128 .LEHB195-.LFB1177
 5608 0489 52       		.uleb128 .LEHE195-.LEHB195
 5609 048a F919     		.uleb128 .L296-.LFB1177
 5610 048c 01       		.uleb128 0x1
 5611 048d CA0F     		.uleb128 .LEHB196-.LFB1177
 5612 048f 51       		.uleb128 .LEHE196-.LEHB196
 5613 0490 D31A     		.uleb128 .L298-.LFB1177
 5614 0492 01       		.uleb128 0x1
 5615 0493 A510     		.uleb128 .LEHB197-.LFB1177
 5616 0495 32       		.uleb128 .LEHE197-.LEHB197
 5617 0496 A31B     		.uleb128 .L279-.LFB1177
 5618 0498 00       		.uleb128 0
 5619 0499 E110     		.uleb128 .LEHB198-.LFB1177
 5620 049b 05       		.uleb128 .LEHE198-.LEHB198
 5621 049c B71B     		.uleb128 .L270-.LFB1177
 5622 049e 00       		.uleb128 0
 5623 049f F010     		.uleb128 .LEHB199-.LFB1177
 5624 04a1 05       		.uleb128 .LEHE199-.LEHB199
 5625 04a2 00       		.uleb128 0
 5626 04a3 00       		.uleb128 0
 5627 04a4 A511     		.uleb128 .LEHB200-.LFB1177
 5628 04a6 3E       		.uleb128 .LEHE200-.LEHB200
 5629 04a7 9011     		.uleb128 .L272-.LFB1177
 5630 04a9 00       		.uleb128 0
 5631 04aa E311     		.uleb128 .LEHB201-.LFB1177
 5632 04ac 05       		.uleb128 .LEHE201-.LEHB201
 5633 04ad B71B     		.uleb128 .L270-.LFB1177
 5634 04af 00       		.uleb128 0
 5635 04b0 8212     		.uleb128 .LEHB202-.LFB1177
 5636 04b2 3E       		.uleb128 .LEHE202-.LEHB202
 5637 04b3 ED11     		.uleb128 .L274-.LFB1177
 5638 04b5 00       		.uleb128 0
 5639 04b6 C012     		.uleb128 .LEHB203-.LFB1177
 5640 04b8 05       		.uleb128 .LEHE203-.LEHB203
 5641 04b9 B71B     		.uleb128 .L270-.LFB1177
 5642 04bb 00       		.uleb128 0
 5643 04bc DF12     		.uleb128 .LEHB204-.LFB1177
 5644 04be 3E       		.uleb128 .LEHE204-.LEHB204
 5645 04bf CA12     		.uleb128 .L276-.LFB1177
 5646 04c1 00       		.uleb128 0
 5647 04c2 9D13     		.uleb128 .LEHB205-.LFB1177
 5648 04c4 05       		.uleb128 .LEHE205-.LEHB205
 5649 04c5 B71B     		.uleb128 .L270-.LFB1177
 5650 04c7 00       		.uleb128 0
 5651 04c8 BC13     		.uleb128 .LEHB206-.LFB1177
 5652 04ca 3E       		.uleb128 .LEHE206-.LEHB206
 5653 04cb A713     		.uleb128 .L278-.LFB1177
 5654 04cd 00       		.uleb128 0
 5655 04ce FA13     		.uleb128 .LEHB207-.LFB1177
 5656 04d0 05       		.uleb128 .LEHE207-.LEHB207
 5657 04d1 B71B     		.uleb128 .L270-.LFB1177
 5658 04d3 00       		.uleb128 0
 5659 04d4 9914     		.uleb128 .LEHB208-.LFB1177
 5660 04d6 3E       		.uleb128 .LEHE208-.LEHB208
 5661 04d7 8414     		.uleb128 .L281-.LFB1177
 5662 04d9 00       		.uleb128 0
 5663 04da D714     		.uleb128 .LEHB209-.LFB1177
 5664 04dc 05       		.uleb128 .LEHE209-.LEHB209
 5665 04dd A31B     		.uleb128 .L279-.LFB1177
 5666 04df 00       		.uleb128 0
 5667 04e0 F614     		.uleb128 .LEHB210-.LFB1177
 5668 04e2 3E       		.uleb128 .LEHE210-.LEHB210
 5669 04e3 E114     		.uleb128 .L283-.LFB1177
 5670 04e5 00       		.uleb128 0
 5671 04e6 B415     		.uleb128 .LEHB211-.LFB1177
 5672 04e8 05       		.uleb128 .LEHE211-.LEHB211
 5673 04e9 A31B     		.uleb128 .L279-.LFB1177
 5674 04eb 00       		.uleb128 0
 5675 04ec D315     		.uleb128 .LEHB212-.LFB1177
 5676 04ee 3E       		.uleb128 .LEHE212-.LEHB212
 5677 04ef BE15     		.uleb128 .L285-.LFB1177
 5678 04f1 00       		.uleb128 0
 5679 04f2 9116     		.uleb128 .LEHB213-.LFB1177
 5680 04f4 05       		.uleb128 .LEHE213-.LEHB213
 5681 04f5 A31B     		.uleb128 .L279-.LFB1177
 5682 04f7 00       		.uleb128 0
 5683 04f8 B016     		.uleb128 .LEHB214-.LFB1177
 5684 04fa 3E       		.uleb128 .LEHE214-.LEHB214
 5685 04fb 9B16     		.uleb128 .L287-.LFB1177
 5686 04fd 00       		.uleb128 0
 5687 04fe EE16     		.uleb128 .LEHB215-.LFB1177
 5688 0500 05       		.uleb128 .LEHE215-.LEHB215
 5689 0501 A31B     		.uleb128 .L279-.LFB1177
 5690 0503 00       		.uleb128 0
 5691 0504 8D17     		.uleb128 .LEHB216-.LFB1177
 5692 0506 3E       		.uleb128 .LEHE216-.LEHB216
 5693 0507 F816     		.uleb128 .L289-.LFB1177
 5694 0509 00       		.uleb128 0
 5695 050a CB17     		.uleb128 .LEHB217-.LFB1177
 5696 050c 05       		.uleb128 .LEHE217-.LEHB217
 5697 050d A31B     		.uleb128 .L279-.LFB1177
 5698 050f 00       		.uleb128 0
 5699 0510 EA17     		.uleb128 .LEHB218-.LFB1177
 5700 0512 3E       		.uleb128 .LEHE218-.LEHB218
 5701 0513 D517     		.uleb128 .L291-.LFB1177
 5702 0515 00       		.uleb128 0
 5703 0516 A818     		.uleb128 .LEHB219-.LFB1177
 5704 0518 05       		.uleb128 .LEHE219-.LEHB219
 5705 0519 A31B     		.uleb128 .L279-.LFB1177
 5706 051b 00       		.uleb128 0
 5707 051c C718     		.uleb128 .LEHB220-.LFB1177
 5708 051e 3E       		.uleb128 .LEHE220-.LEHB220
 5709 051f B218     		.uleb128 .L293-.LFB1177
 5710 0521 00       		.uleb128 0
 5711 0522 8519     		.uleb128 .LEHB221-.LFB1177
 5712 0524 05       		.uleb128 .LEHE221-.LEHB221
 5713 0525 A31B     		.uleb128 .L279-.LFB1177
 5714 0527 00       		.uleb128 0
 5715 0528 A419     		.uleb128 .LEHB222-.LFB1177
 5716 052a 3E       		.uleb128 .LEHE222-.LEHB222
 5717 052b 8F19     		.uleb128 .L295-.LFB1177
 5718 052d 00       		.uleb128 0
 5719 052e E219     		.uleb128 .LEHB223-.LFB1177
 5720 0530 05       		.uleb128 .LEHE223-.LEHB223
 5721 0531 A31B     		.uleb128 .L279-.LFB1177
 5722 0533 00       		.uleb128 0
 5723 0534 811A     		.uleb128 .LEHB224-.LFB1177
 5724 0536 3E       		.uleb128 .LEHE224-.LEHB224
 5725 0537 EC19     		.uleb128 .L297-.LFB1177
 5726 0539 00       		.uleb128 0
 5727 053a BF1A     		.uleb128 .LEHB225-.LFB1177
 5728 053c 05       		.uleb128 .LEHE225-.LEHB225
 5729 053d A31B     		.uleb128 .L279-.LFB1177
 5730 053f 00       		.uleb128 0
 5731 0540 DB1A     		.uleb128 .LEHB226-.LFB1177
 5732 0542 3E       		.uleb128 .LEHE226-.LEHB226
 5733 0543 C91A     		.uleb128 .L299-.LFB1177
 5734 0545 00       		.uleb128 0
 5735 0546 991B     		.uleb128 .LEHB227-.LFB1177
 5736 0548 05       		.uleb128 .LEHE227-.LEHB227
 5737 0549 A31B     		.uleb128 .L279-.LFB1177
 5738 054b 00       		.uleb128 0
 5739 054c CF1B     		.uleb128 .LEHB228-.LFB1177
 5740 054e 05       		.uleb128 .LEHE228-.LEHB228
 5741 054f 00       		.uleb128 0
 5742 0550 00       		.uleb128 0
 5743              	.LLSDACSE1177:
 5744 0551 01       		.byte	0x1
 5745 0552 00       		.byte	0
 5746 0553 00       		.align 4
 5747 0554 00000000 		.long	0
 5748              	
 5749              	.LLSDATT1177:
 5750              		.text
 5752              		.section	.rodata
 5753              	.LC52:
 5754 08c7 48657849 		.string	"HexIO_testRoundTrip"
 5754      4F5F7465 
 5754      7374526F 
 5754      756E6454 
 5754      72697000 
 5755              		.section	.text._ZN23TestHexIO_testRoundTripC2Ev,"axG",@progbits,_ZN23TestHexIO_testRoundTripC5Ev,c
 5756              		.align 2
 5757              		.weak	_ZN23TestHexIO_testRoundTripC2Ev
 5759              	_ZN23TestHexIO_testRoundTripC2Ev:
 5760              	.LFB1179:
 241:testHexIO.cpp **** 
 242:testHexIO.cpp **** TEST(HexIO_testRoundTrip) {
 5761              		.loc 4 242 0
 5762              		.cfi_startproc
 5763 0000 55       		pushq	%rbp
 5764              		.cfi_def_cfa_offset 16
 5765              		.cfi_offset 6, -16
 5766 0001 4889E5   		movq	%rsp, %rbp
 5767              		.cfi_def_cfa_register 6
 5768 0004 4883EC10 		subq	$16, %rsp
 5769 0008 48897DF8 		movq	%rdi, -8(%rbp)
 5770              	.LBB39:
 5771              		.loc 4 242 0
 5772 000c E8000000 		call	_ZN13UnitTestSuite12GetSuiteNameEv
 5772      00
 5773 0011 4889C2   		movq	%rax, %rdx
 5774 0014 488B45F8 		movq	-8(%rbp), %rax
 5775 0018 41B8F200 		movl	$242, %r8d
 5775      0000
 5776 001e B9000000 		movl	$.LC1, %ecx
 5776      00
 5777 0023 BE000000 		movl	$.LC52, %esi
 5777      00
 5778 0028 4889C7   		movq	%rax, %rdi
 5779 002b E8000000 		call	_ZN8UnitTest4TestC2EPKcS2_S2_i
 5779      00
 5780 0030 488B45F8 		movq	-8(%rbp), %rax
 5781 0034 48C70000 		movq	$_ZTV23TestHexIO_testRoundTrip+16, (%rax)
 5781      000000
 5782              	.LBE39:
 5783 003b C9       		leave
 5784              		.cfi_def_cfa 7, 8
 5785 003c C3       		ret
 5786              		.cfi_endproc
 5787              	.LFE1179:
 5789              		.weak	_ZN23TestHexIO_testRoundTripC1Ev
 5790              		.set	_ZN23TestHexIO_testRoundTripC1Ev,_ZN23TestHexIO_testRoundTripC2Ev
 5791              		.globl	testHexIO_testRoundTripInstance
 5792              		.bss
 5793 02b9 00000000 		.align 32
 5793      000000
 5796              	testHexIO_testRoundTripInstance:
 5797 02c0 00000000 		.zero	56
 5797      00000000 
 5797      00000000 
 5797      00000000 
 5797      00000000 
 5798              		.globl	adderHexIO_testRoundTrip
 5801              	adderHexIO_testRoundTrip:
 5802 02f8 00       		.zero	1
 5803              		.section	.rodata
 5804              	.LC53:
 5805 08db 3A303631 		.string	":061270000895F894FFCF81"
 5805      32373030 
 5805      30303839 
 5805      35463839 
 5805      34464643 
 5806 08f3 00000000 		.align 8
 5806      00
 5807              	.LC54:
 5808 08f8 3A313031 		.string	":10126000E80083FF01C03DDC17701093E9001F9177"
 5808      32363030 
 5808      30453830 
 5808      30383346 
 5808      46303143 
 5809 0924 00000000 		.align 8
 5810              	.LC55:
 5811 0928 3A313031 		.string	":101250000801882361F01091E9001092E900809163"
 5811      32353030 
 5811      30303830 
 5811      31383832 
 5811      33363146 
 5812 0954 00000000 		.align 8
 5813              	.LC56:
 5814 0958 3A313031 		.string	":10121000E10082FF0AC08091E20082FF06C0809157"
 5814      32313030 
 5814      30453130 
 5814      30383246 
 5814      46304143 
 5815 0984 00000000 		.align 8
 5816              	.LC57:
 5817 0988 3A313031 		.string	":10120000E200A5DD80E060E042E18EDD71DF8091EB"
 5817      32303030 
 5817      30453230 
 5817      30413544 
 5817      44383045 
 5818 09b4 00000000 		.align 8
 5819              	.LC58:
 5820 09b8 3A313031 		.string	":1011F000E2008E7F8093E2008091E2008061809324"
 5820      31463030 
 5820      30453230 
 5820      30384537 
 5820      46383039 
 5821              	.LC59:
 5822 09e4 3A303631 		.string	":061220000895F894FFCFD1"
 5822      32323030 
 5822      30303839 
 5822      35463839 
 5822      34464643 
 5823              	.LC60:
 5824 09fc 3A303130 		.string	":0100CF00CF61"
 5824      30434630 
 5824      30434636 
 5824      3100
 5825 0a0a 00000000 		.align 8
 5825      0000
 5826              	.LC61:
 5827 0a10 3A304530 		.string	":0E00C00085BF889585B78F7D85BFF8CFF894F2"
 5827      30433030 
 5827      30383542 
 5827      46383839 
 5827      35383542 
 5828              		.align 8
 5829              	.LC62:
 5830 0a38 3A313030 		.string	":1000B0009BBD8ABD89B7806489BF789485B780620B"
 5830      30423030 
 5830      30394242 
 5830      44384142 
 5830      44383942 
 5831 0a64 00000000 		.align 8
 5832              	.LC63:
 5833 0a68 3A313030 		.string	":1000A00018958FEF8ABB1FBC8DE08EBD89E09DE364"
 5833      30413030 
 5833      30313839 
 5833      35384645 
 5833      46384142 
 5834 0a94 00000000 		.align 8
 5835              	.LC64:
 5836 0a98 3A313030 		.string	":1000B0009BBD8ABD89B7FFFFFFFFFF9485B78062B4"
 5836      30423030 
 5836      30394242 
 5836      44384142 
 5836      44383942 
 5837 0ac4 00000000 		.align 8
 5838              	.LC65:
 5839 0ac8 3A313030 		.string	":10001000BEBAFECA6E3B8209D926430DADDEADDE07"
 5839      30313030 
 5839      30424542 
 5839      41464543 
 5839      41364533 
 5840 0af4 00000000 		.align 8
 5841              	.LC66:
 5842 0af8 3A313030 		.string	":10000000BEBAFECA6E3B8209D926430DADDEADDE17"
 5842      30303030 
 5842      30424542 
 5842      41464543 
 5842      41364533 
 5843              	.LC67:
 5844 0b24 3A303230 		.string	":020000021000EC"
 5844      30303030 
 5844      32313030 
 5844      30454300 
 5845 0b34 00000000 		.align 8
 5846              	.LC68:
 5847 0b38 3A313046 		.string	":10FFF000BEBAFECA6E3B8209D926430DADDEADDE28"
 5847      46463030 
 5847      30424542 
 5847      41464543 
 5847      41364533 
 5848 0b64 00000000 		.align 8
 5849              	.LC69:
 5850 0b68 3A313046 		.string	":10FFE000BEBAFECA6E3B8209D926430DADDEADDE38"
 5850      46453030 
 5850      30424542 
 5850      41464543 
 5850      41364533 
 5851              		.text
 5852              		.align 2
 5853              		.globl	_ZNK23TestHexIO_testRoundTrip7RunImplEv
 5855              	_ZNK23TestHexIO_testRoundTrip7RunImplEv:
 5856              	.LFB1181:
 5857              		.loc 4 242 0
 5858              		.cfi_startproc
 5859 2afe 55       		pushq	%rbp
 5860              		.cfi_def_cfa_offset 16
 5861              		.cfi_offset 6, -16
 5862 2aff 4889E5   		movq	%rsp, %rbp
 5863              		.cfi_def_cfa_register 6
 5864 2b02 4883EC10 		subq	$16, %rsp
 5865 2b06 48897DF8 		movq	%rdi, -8(%rbp)
 243:testHexIO.cpp **** 	testRoundTrip(
 244:testHexIO.cpp **** 		":1011F000E2008E7F8093E2008091E2008061809324",
 245:testHexIO.cpp **** 		":10120000E200A5DD80E060E042E18EDD71DF8091EB",
 246:testHexIO.cpp **** 		":10121000E10082FF0AC08091E20082FF06C0809157",
 247:testHexIO.cpp **** 		":101250000801882361F01091E9001092E900809163",
 248:testHexIO.cpp **** 		":10126000E80083FF01C03DDC17701093E9001F9177",
 249:testHexIO.cpp **** 		":061270000895F894FFCF81",
 250:testHexIO.cpp **** 		NULL);
 5866              		.loc 4 250 0
 5867 2b0a 4883EC08 		subq	$8, %rsp
 5868 2b0e 6A00     		pushq	$0
 5869 2b10 41B90000 		movl	$.LC53, %r9d
 5869      0000
 5870 2b16 41B80000 		movl	$.LC54, %r8d
 5870      0000
 5871 2b1c B9000000 		movl	$.LC55, %ecx
 5871      00
 5872 2b21 BA000000 		movl	$.LC56, %edx
 5872      00
 5873 2b26 BE000000 		movl	$.LC57, %esi
 5873      00
 5874 2b2b BF000000 		movl	$.LC58, %edi
 5874      00
 5875 2b30 B8000000 		movl	$0, %eax
 5875      00
 5876 2b35 E8000000 		call	_Z13testRoundTripPKcz
 5876      00
 5877 2b3a 4883C410 		addq	$16, %rsp
 251:testHexIO.cpp **** 	testRoundTrip(
 252:testHexIO.cpp **** 		":1011F000E2008E7F8093E2008091E2008061809324",
 253:testHexIO.cpp **** 		":10120000E200A5DD80E060E042E18EDD71DF8091EB",
 254:testHexIO.cpp **** 		":10121000E10082FF0AC08091E20082FF06C0809157",
 255:testHexIO.cpp **** 		":061220000895F894FFCFD1",
 256:testHexIO.cpp **** 		":101250000801882361F01091E9001092E900809163",
 257:testHexIO.cpp **** 		":10126000E80083FF01C03DDC17701093E9001F9177",
 258:testHexIO.cpp **** 		":061270000895F894FFCF81",
 259:testHexIO.cpp **** 		NULL);
 5878              		.loc 4 259 0
 5879 2b3e 6A00     		pushq	$0
 5880 2b40 68000000 		pushq	$.LC53
 5880      00
 5881 2b45 41B90000 		movl	$.LC54, %r9d
 5881      0000
 5882 2b4b 41B80000 		movl	$.LC55, %r8d
 5882      0000
 5883 2b51 B9000000 		movl	$.LC59, %ecx
 5883      00
 5884 2b56 BA000000 		movl	$.LC56, %edx
 5884      00
 5885 2b5b BE000000 		movl	$.LC57, %esi
 5885      00
 5886 2b60 BF000000 		movl	$.LC58, %edi
 5886      00
 5887 2b65 B8000000 		movl	$0, %eax
 5887      00
 5888 2b6a E8000000 		call	_Z13testRoundTripPKcz
 5888      00
 5889 2b6f 4883C410 		addq	$16, %rsp
 260:testHexIO.cpp **** 	testRoundTrip(
 261:testHexIO.cpp **** 		":1000A00018958FEF8ABB1FBC8DE08EBD89E09DE364",
 262:testHexIO.cpp **** 		":1000B0009BBD8ABD89B7806489BF789485B780620B",
 263:testHexIO.cpp **** 		":0E00C00085BF889585B78F7D85BFF8CFF894F2",
 264:testHexIO.cpp **** 		":0100CF00CF61",
 265:testHexIO.cpp **** 		NULL);
 5890              		.loc 4 265 0
 5891 2b73 41B80000 		movl	$0, %r8d
 5891      0000
 5892 2b79 B9000000 		movl	$.LC60, %ecx
 5892      00
 5893 2b7e BA000000 		movl	$.LC61, %edx
 5893      00
 5894 2b83 BE000000 		movl	$.LC62, %esi
 5894      00
 5895 2b88 BF000000 		movl	$.LC63, %edi
 5895      00
 5896 2b8d B8000000 		movl	$0, %eax
 5896      00
 5897 2b92 E8000000 		call	_Z13testRoundTripPKcz
 5897      00
 266:testHexIO.cpp **** 	testRoundTrip(
 267:testHexIO.cpp **** 		":1000B0009BBD8ABD89B7FFFFFFFFFF9485B78062B4",
 268:testHexIO.cpp **** 		NULL);
 5898              		.loc 4 268 0
 5899 2b97 BE000000 		movl	$0, %esi
 5899      00
 5900 2b9c BF000000 		movl	$.LC64, %edi
 5900      00
 5901 2ba1 B8000000 		movl	$0, %eax
 5901      00
 5902 2ba6 E8000000 		call	_Z13testRoundTripPKcz
 5902      00
 269:testHexIO.cpp **** 	testRoundTrip(
 270:testHexIO.cpp **** 		":10FFE000BEBAFECA6E3B8209D926430DADDEADDE38",
 271:testHexIO.cpp **** 		":10FFF000BEBAFECA6E3B8209D926430DADDEADDE28",
 272:testHexIO.cpp **** 		":020000021000EC",
 273:testHexIO.cpp **** 		":10000000BEBAFECA6E3B8209D926430DADDEADDE17",
 274:testHexIO.cpp **** 		":10001000BEBAFECA6E3B8209D926430DADDEADDE07",
 275:testHexIO.cpp **** 		NULL);
 5903              		.loc 4 275 0
 5904 2bab 41B90000 		movl	$0, %r9d
 5904      0000
 5905 2bb1 41B80000 		movl	$.LC65, %r8d
 5905      0000
 5906 2bb7 B9000000 		movl	$.LC66, %ecx
 5906      00
 5907 2bbc BA000000 		movl	$.LC67, %edx
 5907      00
 5908 2bc1 BE000000 		movl	$.LC68, %esi
 5908      00
 5909 2bc6 BF000000 		movl	$.LC69, %edi
 5909      00
 5910 2bcb B8000000 		movl	$0, %eax
 5910      00
 5911 2bd0 E8000000 		call	_Z13testRoundTripPKcz
 5911      00
 276:testHexIO.cpp **** 	}
 5912              		.loc 4 276 0
 5913 2bd5 C9       		leave
 5914              		.cfi_def_cfa 7, 8
 5915 2bd6 C3       		ret
 5916              		.cfi_endproc
 5917              	.LFE1181:
 5919              		.section	.rodata
 5920 0b94 00000000 		.align 8
 5921              	.LC70:
 5922 0b98 556E6861 		.string	"Unhandled exception in CHECK_EQUAL(data.length, mask.length)"
 5922      6E646C65 
 5922      64206578 
 5922      63657074 
 5922      696F6E20 
 5923 0bd5 000000   		.align 8
 5924              	.LC71:
 5925 0bd8 556E6861 		.string	"Unhandled exception in CHECK_ARRAY_EQUAL(expectedWriteMap, mask.data)"
 5925      6E646C65 
 5925      64206578 
 5925      63657074 
 5925      696F6E20 
 5926              		.text
 5927              		.globl	_Z18testDeriveWriteMapPKcS0_
 5929              	_Z18testDeriveWriteMapPKcS0_:
 5930              	.LFB1182:
 277:testHexIO.cpp **** 
 278:testHexIO.cpp **** 
 279:testHexIO.cpp **** void testDeriveWriteMap(const char *inputData, const char *expectedWriteMap) {
 5931              		.loc 4 279 0
 5932              		.cfi_startproc
 5933              		.cfi_personality 0x3,__gxx_personality_v0
 5934              		.cfi_lsda 0x3,.LLSDA1182
 5935 2bd7 55       		pushq	%rbp
 5936              		.cfi_def_cfa_offset 16
 5937              		.cfi_offset 6, -16
 5938 2bd8 4889E5   		movq	%rsp, %rbp
 5939              		.cfi_def_cfa_register 6
 5940 2bdb 53       		pushq	%rbx
 5941 2bdc 4881EC98 		subq	$152, %rsp
 5941      000000
 5942              		.cfi_offset 3, -24
 5943 2be3 4889BD68 		movq	%rdi, -152(%rbp)
 5943      FFFFFF
 5944 2bea 4889B560 		movq	%rsi, -160(%rbp)
 5944      FFFFFF
 5945              		.loc 4 279 0
 5946 2bf1 64488B04 		movq	%fs:40, %rax
 5946      25280000 
 5946      00
 5947 2bfa 488945E8 		movq	%rax, -24(%rbp)
 5948 2bfe 31C0     		xorl	%eax, %eax
 5949              	.LBB40:
 280:testHexIO.cpp **** 	Buffer data, mask;
 281:testHexIO.cpp **** 	BufferStatus status;
 282:testHexIO.cpp **** 	status = bufInitialise(&data, 1024, '.', NULL);
 5950              		.loc 4 282 0
 5951 2c00 488D4580 		leaq	-128(%rbp), %rax
 5952 2c04 B9000000 		movl	$0, %ecx
 5952      00
 5953 2c09 BA2E0000 		movl	$46, %edx
 5953      00
 5954 2c0e BE000400 		movl	$1024, %esi
 5954      00
 5955 2c13 4889C7   		movq	%rax, %rdi
 5956              	.LEHB229:
 5957 2c16 E8000000 		call	bufInitialise
 5957      00
 5958              	.LEHE229:
 5959 2c1b 898574FF 		movl	%eax, -140(%rbp)
 5959      FFFF
 5960              	.LEHB230:
 283:testHexIO.cpp **** 	CHECK_EQUAL(BUF_SUCCESS, status);
 5961              		.loc 4 283 0
 5962 2c21 E8000000 		call	_ZN8UnitTest11CurrentTest7DetailsEv
 5962      00
 5963 2c26 488B08   		movq	(%rax), %rcx
 5964 2c29 488D45C0 		leaq	-64(%rbp), %rax
 5965 2c2d BA1B0100 		movl	$283, %edx
 5965      00
 5966 2c32 4889CE   		movq	%rcx, %rsi
 5967 2c35 4889C7   		movq	%rax, %rdi
 5968 2c38 E8000000 		call	_ZN8UnitTest11TestDetailsC1ERKS0_i
 5968      00
 5969              		.loc 4 283 0 is_stmt 0 discriminator 2
 5970 2c3d C745A000 		movl	$0, -96(%rbp)
 5970      000000
 5971 2c44 E8000000 		call	_ZN8UnitTest11CurrentTest7ResultsEv
 5971      00
 5972 2c49 488B00   		movq	(%rax), %rax
 5973 2c4c 488D4DC0 		leaq	-64(%rbp), %rcx
 5974 2c50 488D9574 		leaq	-140(%rbp), %rdx
 5974      FFFFFF
 5975 2c57 488D75A0 		leaq	-96(%rbp), %rsi
 5976 2c5b 4889C7   		movq	%rax, %rdi
 5977 2c5e E8000000 		call	_ZN8UnitTest10CheckEqualI12BufferStatusS1_EEvRNS_11TestResultsERKT_RKT0_RKNS_11TestDetailsE
 5977      00
 5978              	.LEHE230:
 5979              	.L310:
 284:testHexIO.cpp **** 	status = bufInitialise(&mask, 1024, 0x00, NULL);
 5980              		.loc 4 284 0 is_stmt 1
 5981 2c63 488D45A0 		leaq	-96(%rbp), %rax
 5982 2c67 B9000000 		movl	$0, %ecx
 5982      00
 5983 2c6c BA000000 		movl	$0, %edx
 5983      00
 5984 2c71 BE000400 		movl	$1024, %esi
 5984      00
 5985 2c76 4889C7   		movq	%rax, %rdi
 5986              	.LEHB231:
 5987 2c79 E8000000 		call	bufInitialise
 5987      00
 5988              	.LEHE231:
 5989 2c7e 898574FF 		movl	%eax, -140(%rbp)
 5989      FFFF
 5990              	.LEHB232:
 285:testHexIO.cpp **** 	CHECK_EQUAL(BUF_SUCCESS, status);
 5991              		.loc 4 285 0
 5992 2c84 E8000000 		call	_ZN8UnitTest11CurrentTest7DetailsEv
 5992      00
 5993 2c89 488B08   		movq	(%rax), %rcx
 5994 2c8c 488D45C0 		leaq	-64(%rbp), %rax
 5995 2c90 BA1D0100 		movl	$285, %edx
 5995      00
 5996 2c95 4889CE   		movq	%rcx, %rsi
 5997 2c98 4889C7   		movq	%rax, %rdi
 5998 2c9b E8000000 		call	_ZN8UnitTest11TestDetailsC1ERKS0_i
 5998      00
 5999              		.loc 4 285 0 is_stmt 0 discriminator 2
 6000 2ca0 C78578FF 		movl	$0, -136(%rbp)
 6000      FFFF0000 
 6000      0000
 6001 2caa E8000000 		call	_ZN8UnitTest11CurrentTest7ResultsEv
 6001      00
 6002 2caf 488B00   		movq	(%rax), %rax
 6003 2cb2 488D4DC0 		leaq	-64(%rbp), %rcx
 6004 2cb6 488D9574 		leaq	-140(%rbp), %rdx
 6004      FFFFFF
 6005 2cbd 488DB578 		leaq	-136(%rbp), %rsi
 6005      FFFFFF
 6006 2cc4 4889C7   		movq	%rax, %rdi
 6007 2cc7 E8000000 		call	_ZN8UnitTest10CheckEqualI12BufferStatusS1_EEvRNS_11TestResultsERKT_RKT0_RKNS_11TestDetailsE
 6007      00
 6008              	.LEHE232:
 6009              	.L313:
 286:testHexIO.cpp **** 	status = bufWriteBlock(&data, 0x00000000, (const uint8 *)inputData, strlen(inputData), NULL);
 6010              		.loc 4 286 0 is_stmt 1
 6011 2ccc 488B8568 		movq	-152(%rbp), %rax
 6011      FFFFFF
 6012 2cd3 4889C7   		movq	%rax, %rdi
 6013 2cd6 E8000000 		call	strlen
 6013      00
 6014 2cdb 89C1     		movl	%eax, %ecx
 6015 2cdd 488B9568 		movq	-152(%rbp), %rdx
 6015      FFFFFF
 6016 2ce4 488D4580 		leaq	-128(%rbp), %rax
 6017 2ce8 41B80000 		movl	$0, %r8d
 6017      0000
 6018 2cee BE000000 		movl	$0, %esi
 6018      00
 6019 2cf3 4889C7   		movq	%rax, %rdi
 6020              	.LEHB233:
 6021 2cf6 E8000000 		call	bufWriteBlock
 6021      00
 6022              	.LEHE233:
 6023 2cfb 898574FF 		movl	%eax, -140(%rbp)
 6023      FFFF
 6024              	.LEHB234:
 287:testHexIO.cpp **** 	CHECK_EQUAL(BUF_SUCCESS, status);
 6025              		.loc 4 287 0
 6026 2d01 E8000000 		call	_ZN8UnitTest11CurrentTest7DetailsEv
 6026      00
 6027 2d06 488B08   		movq	(%rax), %rcx
 6028 2d09 488D45C0 		leaq	-64(%rbp), %rax
 6029 2d0d BA1F0100 		movl	$287, %edx
 6029      00
 6030 2d12 4889CE   		movq	%rcx, %rsi
 6031 2d15 4889C7   		movq	%rax, %rdi
 6032 2d18 E8000000 		call	_ZN8UnitTest11TestDetailsC1ERKS0_i
 6032      00
 6033              		.loc 4 287 0 is_stmt 0 discriminator 2
 6034 2d1d C78578FF 		movl	$0, -136(%rbp)
 6034      FFFF0000 
 6034      0000
 6035 2d27 E8000000 		call	_ZN8UnitTest11CurrentTest7ResultsEv
 6035      00
 6036 2d2c 488B00   		movq	(%rax), %rax
 6037 2d2f 488D4DC0 		leaq	-64(%rbp), %rcx
 6038 2d33 488D9574 		leaq	-140(%rbp), %rdx
 6038      FFFFFF
 6039 2d3a 488DB578 		leaq	-136(%rbp), %rsi
 6039      FFFFFF
 6040 2d41 4889C7   		movq	%rax, %rdi
 6041 2d44 E8000000 		call	_ZN8UnitTest10CheckEqualI12BufferStatusS1_EEvRNS_11TestResultsERKT_RKT0_RKNS_11TestDetailsE
 6041      00
 6042              	.LEHE234:
 6043              	.L316:
 288:testHexIO.cpp **** 	status = bufDeriveMask(&data, &mask, NULL);
 6044              		.loc 4 288 0 is_stmt 1
 6045 2d49 488D4DA0 		leaq	-96(%rbp), %rcx
 6046 2d4d 488D4580 		leaq	-128(%rbp), %rax
 6047 2d51 BA000000 		movl	$0, %edx
 6047      00
 6048 2d56 4889CE   		movq	%rcx, %rsi
 6049 2d59 4889C7   		movq	%rax, %rdi
 6050              	.LEHB235:
 6051 2d5c E8000000 		call	bufDeriveMask
 6051      00
 6052              	.LEHE235:
 6053 2d61 898574FF 		movl	%eax, -140(%rbp)
 6053      FFFF
 6054              	.LEHB236:
 289:testHexIO.cpp **** 	CHECK_EQUAL(BUF_SUCCESS, status);
 6055              		.loc 4 289 0
 6056 2d67 E8000000 		call	_ZN8UnitTest11CurrentTest7DetailsEv
 6056      00
 6057 2d6c 488B08   		movq	(%rax), %rcx
 6058 2d6f 488D45C0 		leaq	-64(%rbp), %rax
 6059 2d73 BA210100 		movl	$289, %edx
 6059      00
 6060 2d78 4889CE   		movq	%rcx, %rsi
 6061 2d7b 4889C7   		movq	%rax, %rdi
 6062 2d7e E8000000 		call	_ZN8UnitTest11TestDetailsC1ERKS0_i
 6062      00
 6063              		.loc 4 289 0 is_stmt 0 discriminator 2
 6064 2d83 C78578FF 		movl	$0, -136(%rbp)
 6064      FFFF0000 
 6064      0000
 6065 2d8d E8000000 		call	_ZN8UnitTest11CurrentTest7ResultsEv
 6065      00
 6066 2d92 488B00   		movq	(%rax), %rax
 6067 2d95 488D4DC0 		leaq	-64(%rbp), %rcx
 6068 2d99 488D9574 		leaq	-140(%rbp), %rdx
 6068      FFFFFF
 6069 2da0 488DB578 		leaq	-136(%rbp), %rsi
 6069      FFFFFF
 6070 2da7 4889C7   		movq	%rax, %rdi
 6071 2daa E8000000 		call	_ZN8UnitTest10CheckEqualI12BufferStatusS1_EEvRNS_11TestResultsERKT_RKT0_RKNS_11TestDetailsE
 6071      00
 6072              	.LEHE236:
 6073              	.L319:
 6074              	.LEHB237:
 290:testHexIO.cpp **** 	CHECK_EQUAL(data.length, mask.length);
 6075              		.loc 4 290 0 is_stmt 1
 6076 2daf E8000000 		call	_ZN8UnitTest11CurrentTest7DetailsEv
 6076      00
 6077 2db4 488B08   		movq	(%rax), %rcx
 6078 2db7 488D45C0 		leaq	-64(%rbp), %rax
 6079 2dbb BA220100 		movl	$290, %edx
 6079      00
 6080 2dc0 4889CE   		movq	%rcx, %rsi
 6081 2dc3 4889C7   		movq	%rax, %rdi
 6082 2dc6 E8000000 		call	_ZN8UnitTest11TestDetailsC1ERKS0_i
 6082      00
 6083              		.loc 4 290 0 is_stmt 0 discriminator 2
 6084 2dcb E8000000 		call	_ZN8UnitTest11CurrentTest7ResultsEv
 6084      00
 6085 2dd0 488B00   		movq	(%rax), %rax
 6086 2dd3 488D55C0 		leaq	-64(%rbp), %rdx
 6087 2dd7 488D4DA0 		leaq	-96(%rbp), %rcx
 6088 2ddb 488D7908 		leaq	8(%rcx), %rdi
 6089 2ddf 488D4D80 		leaq	-128(%rbp), %rcx
 6090 2de3 488D7108 		leaq	8(%rcx), %rsi
 6091 2de7 4889D1   		movq	%rdx, %rcx
 6092 2dea 4889FA   		movq	%rdi, %rdx
 6093 2ded 4889C7   		movq	%rax, %rdi
 6094 2df0 E8000000 		call	_ZN8UnitTest10CheckEqualIjjEEvRNS_11TestResultsERKT_RKT0_RKNS_11TestDetailsE
 6094      00
 6095              	.LEHE237:
 6096              	.L322:
 6097              	.LBB41:
 291:testHexIO.cpp **** 	for ( uint32 i = 0; i < mask.length; i++ ) {
 6098              		.loc 4 291 0 is_stmt 1
 6099 2df5 C7857CFF 		movl	$0, -132(%rbp)
 6099      FFFF0000 
 6099      0000
 6100 2dff EB3D     		jmp	.L304
 6101              	.L307:
 292:testHexIO.cpp **** 		if ( mask.data[i] ) {
 6102              		.loc 4 292 0
 6103 2e01 488B55A0 		movq	-96(%rbp), %rdx
 6104 2e05 8B857CFF 		movl	-132(%rbp), %eax
 6104      FFFF
 6105 2e0b 4801D0   		addq	%rdx, %rax
 6106 2e0e 0FB600   		movzbl	(%rax), %eax
 6107 2e11 84C0     		testb	%al, %al
 6108 2e13 7412     		je	.L305
 293:testHexIO.cpp **** 			mask.data[i] = '*';
 6109              		.loc 4 293 0
 6110 2e15 488B55A0 		movq	-96(%rbp), %rdx
 6111 2e19 8B857CFF 		movl	-132(%rbp), %eax
 6111      FFFF
 6112 2e1f 4801D0   		addq	%rdx, %rax
 6113 2e22 C6002A   		movb	$42, (%rax)
 6114 2e25 EB10     		jmp	.L306
 6115              	.L305:
 294:testHexIO.cpp **** 		} else {
 295:testHexIO.cpp **** 			mask.data[i] = '.';
 6116              		.loc 4 295 0
 6117 2e27 488B55A0 		movq	-96(%rbp), %rdx
 6118 2e2b 8B857CFF 		movl	-132(%rbp), %eax
 6118      FFFF
 6119 2e31 4801D0   		addq	%rdx, %rax
 6120 2e34 C6002E   		movb	$46, (%rax)
 6121              	.L306:
 291:testHexIO.cpp **** 		if ( mask.data[i] ) {
 6122              		.loc 4 291 0 discriminator 2
 6123 2e37 83857CFF 		addl	$1, -132(%rbp)
 6123      FFFF01
 6124              	.L304:
 291:testHexIO.cpp **** 		if ( mask.data[i] ) {
 6125              		.loc 4 291 0 is_stmt 0 discriminator 1
 6126 2e3e 8B45A8   		movl	-88(%rbp), %eax
 6127 2e41 3B857CFF 		cmpl	-132(%rbp), %eax
 6127      FFFF
 6128 2e47 77B8     		ja	.L307
 6129              	.LEHB238:
 6130              	.LBE41:
 296:testHexIO.cpp **** 		}
 297:testHexIO.cpp **** 	}
 298:testHexIO.cpp **** 	CHECK_ARRAY_EQUAL(expectedWriteMap, mask.data, mask.length);
 6131              		.loc 4 298 0 is_stmt 1
 6132 2e49 E8000000 		call	_ZN8UnitTest11CurrentTest7DetailsEv
 6132      00
 6133 2e4e 488B08   		movq	(%rax), %rcx
 6134 2e51 488D45C0 		leaq	-64(%rbp), %rax
 6135 2e55 BA2A0100 		movl	$298, %edx
 6135      00
 6136 2e5a 4889CE   		movq	%rcx, %rsi
 6137 2e5d 4889C7   		movq	%rax, %rdi
 6138 2e60 E8000000 		call	_ZN8UnitTest11TestDetailsC1ERKS0_i
 6138      00
 6139              		.loc 4 298 0 is_stmt 0 discriminator 2
 6140 2e65 8B45A8   		movl	-88(%rbp), %eax
 6141 2e68 89C3     		movl	%eax, %ebx
 6142 2e6a E8000000 		call	_ZN8UnitTest11CurrentTest7ResultsEv
 6142      00
 6143 2e6f 488B00   		movq	(%rax), %rax
 6144 2e72 488D4DC0 		leaq	-64(%rbp), %rcx
 6145 2e76 488D55A0 		leaq	-96(%rbp), %rdx
 6146 2e7a 488DB560 		leaq	-160(%rbp), %rsi
 6146      FFFFFF
 6147 2e81 4989C8   		movq	%rcx, %r8
 6148 2e84 89D9     		movl	%ebx, %ecx
 6149 2e86 4889C7   		movq	%rax, %rdi
 6150 2e89 E8000000 		call	_ZN8UnitTest15CheckArrayEqualIPKcPhEEvRNS_11TestResultsERKT_RKT0_iRKNS_11TestDetailsE
 6150      00
 6151              	.LEHE238:
 6152              	.L325:
 299:testHexIO.cpp **** 	bufDestroy(&data);
 6153              		.loc 4 299 0 is_stmt 1
 6154 2e8e 488D4580 		leaq	-128(%rbp), %rax
 6155 2e92 4889C7   		movq	%rax, %rdi
 6156              	.LEHB239:
 6157 2e95 E8000000 		call	bufDestroy
 6157      00
 300:testHexIO.cpp **** 	bufDestroy(&mask);
 6158              		.loc 4 300 0
 6159 2e9a 488D45A0 		leaq	-96(%rbp), %rax
 6160 2e9e 4889C7   		movq	%rax, %rdi
 6161 2ea1 E8000000 		call	bufDestroy
 6161      00
 6162              	.LEHE239:
 6163              	.LBE40:
 301:testHexIO.cpp **** }
 6164              		.loc 4 301 0
 6165 2ea6 488B45E8 		movq	-24(%rbp), %rax
 6166 2eaa 64483304 		xorq	%fs:40, %rax
 6166      25280000 
 6166      00
 6167 2eb3 0F843802 		je	.L326
 6167      0000
 6168 2eb9 E92E0200 		jmp	.L339
 6168      00
 6169              	.L328:
 6170 2ebe 4889C3   		movq	%rax, %rbx
 6171              	.LBB42:
 283:testHexIO.cpp **** 	status = bufInitialise(&mask, 1024, 0x00, NULL);
 6172              		.loc 4 283 0
 6173 2ec1 E8000000 		call	__cxa_end_catch
 6173      00
 6174 2ec6 4889D8   		movq	%rbx, %rax
 6175 2ec9 4889C7   		movq	%rax, %rdi
 6176              	.LEHB240:
 6177 2ecc E8000000 		call	_Unwind_Resume
 6177      00
 6178              	.LEHE240:
 6179              	.L327:
 6180 2ed1 4889C7   		movq	%rax, %rdi
 6181 2ed4 E8000000 		call	__cxa_begin_catch
 6181      00
 6182              	.LEHB241:
 6183 2ed9 E8000000 		call	_ZN8UnitTest11CurrentTest7DetailsEv
 6183      00
 6184 2ede 488B08   		movq	(%rax), %rcx
 6185 2ee1 488D45C0 		leaq	-64(%rbp), %rax
 6186 2ee5 BA1B0100 		movl	$283, %edx
 6186      00
 6187 2eea 4889CE   		movq	%rcx, %rsi
 6188 2eed 4889C7   		movq	%rax, %rdi
 6189 2ef0 E8000000 		call	_ZN8UnitTest11TestDetailsC1ERKS0_i
 6189      00
 283:testHexIO.cpp **** 	status = bufInitialise(&mask, 1024, 0x00, NULL);
 6190              		.loc 4 283 0 is_stmt 0 discriminator 10
 6191 2ef5 E8000000 		call	_ZN8UnitTest11CurrentTest7ResultsEv
 6191      00
 6192 2efa 488B00   		movq	(%rax), %rax
 6193 2efd 488D4DC0 		leaq	-64(%rbp), %rcx
 6194 2f01 BA000000 		movl	$.LC4, %edx
 6194      00
 6195 2f06 4889CE   		movq	%rcx, %rsi
 6196 2f09 4889C7   		movq	%rax, %rdi
 6197 2f0c E8000000 		call	_ZN8UnitTest11TestResults13OnTestFailureERKNS_11TestDetailsEPKc
 6197      00
 6198              	.LEHE241:
 6199              	.LEHB242:
 283:testHexIO.cpp **** 	status = bufInitialise(&mask, 1024, 0x00, NULL);
 6200              		.loc 4 283 0 discriminator 14
 6201 2f11 E8000000 		call	__cxa_end_catch
 6201      00
 6202              	.LEHE242:
 6203 2f16 E948FDFF 		jmp	.L310
 6203      FF
 6204              	.L330:
 6205 2f1b 4889C3   		movq	%rax, %rbx
 285:testHexIO.cpp **** 	status = bufWriteBlock(&data, 0x00000000, (const uint8 *)inputData, strlen(inputData), NULL);
 6206              		.loc 4 285 0 is_stmt 1
 6207 2f1e E8000000 		call	__cxa_end_catch
 6207      00
 6208 2f23 4889D8   		movq	%rbx, %rax
 6209 2f26 4889C7   		movq	%rax, %rdi
 6210              	.LEHB243:
 6211 2f29 E8000000 		call	_Unwind_Resume
 6211      00
 6212              	.LEHE243:
 6213              	.L329:
 6214 2f2e 4889C7   		movq	%rax, %rdi
 6215 2f31 E8000000 		call	__cxa_begin_catch
 6215      00
 6216              	.LEHB244:
 6217 2f36 E8000000 		call	_ZN8UnitTest11CurrentTest7DetailsEv
 6217      00
 6218 2f3b 488B08   		movq	(%rax), %rcx
 6219 2f3e 488D45C0 		leaq	-64(%rbp), %rax
 6220 2f42 BA1D0100 		movl	$285, %edx
 6220      00
 6221 2f47 4889CE   		movq	%rcx, %rsi
 6222 2f4a 4889C7   		movq	%rax, %rdi
 6223 2f4d E8000000 		call	_ZN8UnitTest11TestDetailsC1ERKS0_i
 6223      00
 285:testHexIO.cpp **** 	status = bufWriteBlock(&data, 0x00000000, (const uint8 *)inputData, strlen(inputData), NULL);
 6224              		.loc 4 285 0 is_stmt 0 discriminator 10
 6225 2f52 E8000000 		call	_ZN8UnitTest11CurrentTest7ResultsEv
 6225      00
 6226 2f57 488B00   		movq	(%rax), %rax
 6227 2f5a 488D4DC0 		leaq	-64(%rbp), %rcx
 6228 2f5e BA000000 		movl	$.LC4, %edx
 6228      00
 6229 2f63 4889CE   		movq	%rcx, %rsi
 6230 2f66 4889C7   		movq	%rax, %rdi
 6231 2f69 E8000000 		call	_ZN8UnitTest11TestResults13OnTestFailureERKNS_11TestDetailsEPKc
 6231      00
 6232              	.LEHE244:
 6233              	.LEHB245:
 285:testHexIO.cpp **** 	status = bufWriteBlock(&data, 0x00000000, (const uint8 *)inputData, strlen(inputData), NULL);
 6234              		.loc 4 285 0 discriminator 14
 6235 2f6e E8000000 		call	__cxa_end_catch
 6235      00
 6236              	.LEHE245:
 6237 2f73 E954FDFF 		jmp	.L313
 6237      FF
 6238              	.L332:
 6239 2f78 4889C3   		movq	%rax, %rbx
 287:testHexIO.cpp **** 	status = bufDeriveMask(&data, &mask, NULL);
 6240              		.loc 4 287 0 is_stmt 1
 6241 2f7b E8000000 		call	__cxa_end_catch
 6241      00
 6242 2f80 4889D8   		movq	%rbx, %rax
 6243 2f83 4889C7   		movq	%rax, %rdi
 6244              	.LEHB246:
 6245 2f86 E8000000 		call	_Unwind_Resume
 6245      00
 6246              	.LEHE246:
 6247              	.L331:
 6248 2f8b 4889C7   		movq	%rax, %rdi
 6249 2f8e E8000000 		call	__cxa_begin_catch
 6249      00
 6250              	.LEHB247:
 6251 2f93 E8000000 		call	_ZN8UnitTest11CurrentTest7DetailsEv
 6251      00
 6252 2f98 488B08   		movq	(%rax), %rcx
 6253 2f9b 488D45C0 		leaq	-64(%rbp), %rax
 6254 2f9f BA1F0100 		movl	$287, %edx
 6254      00
 6255 2fa4 4889CE   		movq	%rcx, %rsi
 6256 2fa7 4889C7   		movq	%rax, %rdi
 6257 2faa E8000000 		call	_ZN8UnitTest11TestDetailsC1ERKS0_i
 6257      00
 287:testHexIO.cpp **** 	status = bufDeriveMask(&data, &mask, NULL);
 6258              		.loc 4 287 0 is_stmt 0 discriminator 10
 6259 2faf E8000000 		call	_ZN8UnitTest11CurrentTest7ResultsEv
 6259      00
 6260 2fb4 488B00   		movq	(%rax), %rax
 6261 2fb7 488D4DC0 		leaq	-64(%rbp), %rcx
 6262 2fbb BA000000 		movl	$.LC4, %edx
 6262      00
 6263 2fc0 4889CE   		movq	%rcx, %rsi
 6264 2fc3 4889C7   		movq	%rax, %rdi
 6265 2fc6 E8000000 		call	_ZN8UnitTest11TestResults13OnTestFailureERKNS_11TestDetailsEPKc
 6265      00
 6266              	.LEHE247:
 6267              	.LEHB248:
 287:testHexIO.cpp **** 	status = bufDeriveMask(&data, &mask, NULL);
 6268              		.loc 4 287 0 discriminator 14
 6269 2fcb E8000000 		call	__cxa_end_catch
 6269      00
 6270              	.LEHE248:
 6271 2fd0 E974FDFF 		jmp	.L316
 6271      FF
 6272              	.L334:
 6273 2fd5 4889C3   		movq	%rax, %rbx
 289:testHexIO.cpp **** 	CHECK_EQUAL(data.length, mask.length);
 6274              		.loc 4 289 0 is_stmt 1
 6275 2fd8 E8000000 		call	__cxa_end_catch
 6275      00
 6276 2fdd 4889D8   		movq	%rbx, %rax
 6277 2fe0 4889C7   		movq	%rax, %rdi
 6278              	.LEHB249:
 6279 2fe3 E8000000 		call	_Unwind_Resume
 6279      00
 6280              	.LEHE249:
 6281              	.L333:
 6282 2fe8 4889C7   		movq	%rax, %rdi
 6283 2feb E8000000 		call	__cxa_begin_catch
 6283      00
 6284              	.LEHB250:
 6285 2ff0 E8000000 		call	_ZN8UnitTest11CurrentTest7DetailsEv
 6285      00
 6286 2ff5 488B08   		movq	(%rax), %rcx
 6287 2ff8 488D45C0 		leaq	-64(%rbp), %rax
 6288 2ffc BA210100 		movl	$289, %edx
 6288      00
 6289 3001 4889CE   		movq	%rcx, %rsi
 6290 3004 4889C7   		movq	%rax, %rdi
 6291 3007 E8000000 		call	_ZN8UnitTest11TestDetailsC1ERKS0_i
 6291      00
 289:testHexIO.cpp **** 	CHECK_EQUAL(data.length, mask.length);
 6292              		.loc 4 289 0 is_stmt 0 discriminator 10
 6293 300c E8000000 		call	_ZN8UnitTest11CurrentTest7ResultsEv
 6293      00
 6294 3011 488B00   		movq	(%rax), %rax
 6295 3014 488D4DC0 		leaq	-64(%rbp), %rcx
 6296 3018 BA000000 		movl	$.LC4, %edx
 6296      00
 6297 301d 4889CE   		movq	%rcx, %rsi
 6298 3020 4889C7   		movq	%rax, %rdi
 6299 3023 E8000000 		call	_ZN8UnitTest11TestResults13OnTestFailureERKNS_11TestDetailsEPKc
 6299      00
 6300              	.LEHE250:
 6301              	.LEHB251:
 289:testHexIO.cpp **** 	CHECK_EQUAL(data.length, mask.length);
 6302              		.loc 4 289 0 discriminator 14
 6303 3028 E8000000 		call	__cxa_end_catch
 6303      00
 6304              	.LEHE251:
 6305 302d E97DFDFF 		jmp	.L319
 6305      FF
 6306              	.L336:
 6307 3032 4889C3   		movq	%rax, %rbx
 290:testHexIO.cpp **** 	for ( uint32 i = 0; i < mask.length; i++ ) {
 6308              		.loc 4 290 0 is_stmt 1
 6309 3035 E8000000 		call	__cxa_end_catch
 6309      00
 6310 303a 4889D8   		movq	%rbx, %rax
 6311 303d 4889C7   		movq	%rax, %rdi
 6312              	.LEHB252:
 6313 3040 E8000000 		call	_Unwind_Resume
 6313      00
 6314              	.LEHE252:
 6315              	.L335:
 6316 3045 4889C7   		movq	%rax, %rdi
 6317 3048 E8000000 		call	__cxa_begin_catch
 6317      00
 6318              	.LEHB253:
 6319 304d E8000000 		call	_ZN8UnitTest11CurrentTest7DetailsEv
 6319      00
 6320 3052 488B08   		movq	(%rax), %rcx
 6321 3055 488D45C0 		leaq	-64(%rbp), %rax
 6322 3059 BA220100 		movl	$290, %edx
 6322      00
 6323 305e 4889CE   		movq	%rcx, %rsi
 6324 3061 4889C7   		movq	%rax, %rdi
 6325 3064 E8000000 		call	_ZN8UnitTest11TestDetailsC1ERKS0_i
 6325      00
 290:testHexIO.cpp **** 	for ( uint32 i = 0; i < mask.length; i++ ) {
 6326              		.loc 4 290 0 is_stmt 0 discriminator 10
 6327 3069 E8000000 		call	_ZN8UnitTest11CurrentTest7ResultsEv
 6327      00
 6328 306e 488B00   		movq	(%rax), %rax
 6329 3071 488D4DC0 		leaq	-64(%rbp), %rcx
 6330 3075 BA000000 		movl	$.LC70, %edx
 6330      00
 6331 307a 4889CE   		movq	%rcx, %rsi
 6332 307d 4889C7   		movq	%rax, %rdi
 6333 3080 E8000000 		call	_ZN8UnitTest11TestResults13OnTestFailureERKNS_11TestDetailsEPKc
 6333      00
 6334              	.LEHE253:
 6335              	.LEHB254:
 290:testHexIO.cpp **** 	for ( uint32 i = 0; i < mask.length; i++ ) {
 6336              		.loc 4 290 0 discriminator 14
 6337 3085 E8000000 		call	__cxa_end_catch
 6337      00
 6338              	.LEHE254:
 6339 308a E966FDFF 		jmp	.L322
 6339      FF
 6340              	.L338:
 6341 308f 4889C3   		movq	%rax, %rbx
 298:testHexIO.cpp **** 	bufDestroy(&data);
 6342              		.loc 4 298 0 is_stmt 1
 6343 3092 E8000000 		call	__cxa_end_catch
 6343      00
 6344 3097 4889D8   		movq	%rbx, %rax
 6345 309a 4889C7   		movq	%rax, %rdi
 6346              	.LEHB255:
 6347 309d E8000000 		call	_Unwind_Resume
 6347      00
 6348              	.LEHE255:
 6349              	.L337:
 6350 30a2 4889C7   		movq	%rax, %rdi
 6351 30a5 E8000000 		call	__cxa_begin_catch
 6351      00
 6352              	.LEHB256:
 6353 30aa E8000000 		call	_ZN8UnitTest11CurrentTest7DetailsEv
 6353      00
 6354 30af 488B08   		movq	(%rax), %rcx
 6355 30b2 488D45C0 		leaq	-64(%rbp), %rax
 6356 30b6 BA2A0100 		movl	$298, %edx
 6356      00
 6357 30bb 4889CE   		movq	%rcx, %rsi
 6358 30be 4889C7   		movq	%rax, %rdi
 6359 30c1 E8000000 		call	_ZN8UnitTest11TestDetailsC1ERKS0_i
 6359      00
 298:testHexIO.cpp **** 	bufDestroy(&data);
 6360              		.loc 4 298 0 is_stmt 0 discriminator 10
 6361 30c6 E8000000 		call	_ZN8UnitTest11CurrentTest7ResultsEv
 6361      00
 6362 30cb 488B00   		movq	(%rax), %rax
 6363 30ce 488D4DC0 		leaq	-64(%rbp), %rcx
 6364 30d2 BA000000 		movl	$.LC71, %edx
 6364      00
 6365 30d7 4889CE   		movq	%rcx, %rsi
 6366 30da 4889C7   		movq	%rax, %rdi
 6367 30dd E8000000 		call	_ZN8UnitTest11TestResults13OnTestFailureERKNS_11TestDetailsEPKc
 6367      00
 6368              	.LEHE256:
 6369              	.LEHB257:
 298:testHexIO.cpp **** 	bufDestroy(&data);
 6370              		.loc 4 298 0 discriminator 14
 6371 30e2 E8000000 		call	__cxa_end_catch
 6371      00
 6372              	.LEHE257:
 6373 30e7 E9A2FDFF 		jmp	.L325
 6373      FF
 6374              	.L339:
 6375              	.LBE42:
 6376              		.loc 4 301 0 is_stmt 1
 6377 30ec E8000000 		call	__stack_chk_fail
 6377      00
 6378              	.L326:
 6379 30f1 4881C498 		addq	$152, %rsp
 6379      000000
 6380 30f8 5B       		popq	%rbx
 6381 30f9 5D       		popq	%rbp
 6382              		.cfi_def_cfa 7, 8
 6383 30fa C3       		ret
 6384              		.cfi_endproc
 6385              	.LFE1182:
 6386              		.section	.gcc_except_table
 6387              		.align 4
 6388              	.LLSDA1182:
 6389 0558 FF       		.byte	0xff
 6390 0559 03       		.byte	0x3
 6391 055a A401     		.uleb128 .LLSDATT1182-.LLSDATTD1182
 6392              	.LLSDATTD1182:
 6393 055c 01       		.byte	0x1
 6394 055d 9B01     		.uleb128 .LLSDACSE1182-.LLSDACSB1182
 6395              	.LLSDACSB1182:
 6396 055f 3F       		.uleb128 .LEHB229-.LFB1182
 6397 0560 05       		.uleb128 .LEHE229-.LEHB229
 6398 0561 00       		.uleb128 0
 6399 0562 00       		.uleb128 0
 6400 0563 4A       		.uleb128 .LEHB230-.LFB1182
 6401 0564 42       		.uleb128 .LEHE230-.LEHB230
 6402 0565 FA05     		.uleb128 .L327-.LFB1182
 6403 0567 01       		.uleb128 0x1
 6404 0568 A201     		.uleb128 .LEHB231-.LFB1182
 6405 056a 05       		.uleb128 .LEHE231-.LEHB231
 6406 056b 00       		.uleb128 0
 6407 056c 00       		.uleb128 0
 6408 056d AD01     		.uleb128 .LEHB232-.LFB1182
 6409 056f 48       		.uleb128 .LEHE232-.LEHB232
 6410 0570 D706     		.uleb128 .L329-.LFB1182
 6411 0572 01       		.uleb128 0x1
 6412 0573 9F02     		.uleb128 .LEHB233-.LFB1182
 6413 0575 05       		.uleb128 .LEHE233-.LEHB233
 6414 0576 00       		.uleb128 0
 6415 0577 00       		.uleb128 0
 6416 0578 AA02     		.uleb128 .LEHB234-.LFB1182
 6417 057a 48       		.uleb128 .LEHE234-.LEHB234
 6418 057b B407     		.uleb128 .L331-.LFB1182
 6419 057d 01       		.uleb128 0x1
 6420 057e 8503     		.uleb128 .LEHB235-.LFB1182
 6421 0580 05       		.uleb128 .LEHE235-.LEHB235
 6422 0581 00       		.uleb128 0
 6423 0582 00       		.uleb128 0
 6424 0583 9003     		.uleb128 .LEHB236-.LFB1182
 6425 0585 48       		.uleb128 .LEHE236-.LEHB236
 6426 0586 9108     		.uleb128 .L333-.LFB1182
 6427 0588 01       		.uleb128 0x1
 6428 0589 D803     		.uleb128 .LEHB237-.LFB1182
 6429 058b 46       		.uleb128 .LEHE237-.LEHB237
 6430 058c EE08     		.uleb128 .L335-.LFB1182
 6431 058e 01       		.uleb128 0x1
 6432 058f F204     		.uleb128 .LEHB238-.LFB1182
 6433 0591 45       		.uleb128 .LEHE238-.LEHB238
 6434 0592 CB09     		.uleb128 .L337-.LFB1182
 6435 0594 01       		.uleb128 0x1
 6436 0595 BE05     		.uleb128 .LEHB239-.LFB1182
 6437 0597 11       		.uleb128 .LEHE239-.LEHB239
 6438 0598 00       		.uleb128 0
 6439 0599 00       		.uleb128 0
 6440 059a F505     		.uleb128 .LEHB240-.LFB1182
 6441 059c 05       		.uleb128 .LEHE240-.LEHB240
 6442 059d 00       		.uleb128 0
 6443 059e 00       		.uleb128 0
 6444 059f 8206     		.uleb128 .LEHB241-.LFB1182
 6445 05a1 38       		.uleb128 .LEHE241-.LEHB241
 6446 05a2 E705     		.uleb128 .L328-.LFB1182
 6447 05a4 00       		.uleb128 0
 6448 05a5 BA06     		.uleb128 .LEHB242-.LFB1182
 6449 05a7 05       		.uleb128 .LEHE242-.LEHB242
 6450 05a8 00       		.uleb128 0
 6451 05a9 00       		.uleb128 0
 6452 05aa D206     		.uleb128 .LEHB243-.LFB1182
 6453 05ac 05       		.uleb128 .LEHE243-.LEHB243
 6454 05ad 00       		.uleb128 0
 6455 05ae 00       		.uleb128 0
 6456 05af DF06     		.uleb128 .LEHB244-.LFB1182
 6457 05b1 38       		.uleb128 .LEHE244-.LEHB244
 6458 05b2 C406     		.uleb128 .L330-.LFB1182
 6459 05b4 00       		.uleb128 0
 6460 05b5 9707     		.uleb128 .LEHB245-.LFB1182
 6461 05b7 05       		.uleb128 .LEHE245-.LEHB245
 6462 05b8 00       		.uleb128 0
 6463 05b9 00       		.uleb128 0
 6464 05ba AF07     		.uleb128 .LEHB246-.LFB1182
 6465 05bc 05       		.uleb128 .LEHE246-.LEHB246
 6466 05bd 00       		.uleb128 0
 6467 05be 00       		.uleb128 0
 6468 05bf BC07     		.uleb128 .LEHB247-.LFB1182
 6469 05c1 38       		.uleb128 .LEHE247-.LEHB247
 6470 05c2 A107     		.uleb128 .L332-.LFB1182
 6471 05c4 00       		.uleb128 0
 6472 05c5 F407     		.uleb128 .LEHB248-.LFB1182
 6473 05c7 05       		.uleb128 .LEHE248-.LEHB248
 6474 05c8 00       		.uleb128 0
 6475 05c9 00       		.uleb128 0
 6476 05ca 8C08     		.uleb128 .LEHB249-.LFB1182
 6477 05cc 05       		.uleb128 .LEHE249-.LEHB249
 6478 05cd 00       		.uleb128 0
 6479 05ce 00       		.uleb128 0
 6480 05cf 9908     		.uleb128 .LEHB250-.LFB1182
 6481 05d1 38       		.uleb128 .LEHE250-.LEHB250
 6482 05d2 FE07     		.uleb128 .L334-.LFB1182
 6483 05d4 00       		.uleb128 0
 6484 05d5 D108     		.uleb128 .LEHB251-.LFB1182
 6485 05d7 05       		.uleb128 .LEHE251-.LEHB251
 6486 05d8 00       		.uleb128 0
 6487 05d9 00       		.uleb128 0
 6488 05da E908     		.uleb128 .LEHB252-.LFB1182
 6489 05dc 05       		.uleb128 .LEHE252-.LEHB252
 6490 05dd 00       		.uleb128 0
 6491 05de 00       		.uleb128 0
 6492 05df F608     		.uleb128 .LEHB253-.LFB1182
 6493 05e1 38       		.uleb128 .LEHE253-.LEHB253
 6494 05e2 DB08     		.uleb128 .L336-.LFB1182
 6495 05e4 00       		.uleb128 0
 6496 05e5 AE09     		.uleb128 .LEHB254-.LFB1182
 6497 05e7 05       		.uleb128 .LEHE254-.LEHB254
 6498 05e8 00       		.uleb128 0
 6499 05e9 00       		.uleb128 0
 6500 05ea C609     		.uleb128 .LEHB255-.LFB1182
 6501 05ec 05       		.uleb128 .LEHE255-.LEHB255
 6502 05ed 00       		.uleb128 0
 6503 05ee 00       		.uleb128 0
 6504 05ef D309     		.uleb128 .LEHB256-.LFB1182
 6505 05f1 38       		.uleb128 .LEHE256-.LEHB256
 6506 05f2 B809     		.uleb128 .L338-.LFB1182
 6507 05f4 00       		.uleb128 0
 6508 05f5 8B0A     		.uleb128 .LEHB257-.LFB1182
 6509 05f7 05       		.uleb128 .LEHE257-.LEHB257
 6510 05f8 00       		.uleb128 0
 6511 05f9 00       		.uleb128 0
 6512              	.LLSDACSE1182:
 6513 05fa 01       		.byte	0x1
 6514 05fb 00       		.byte	0
 6515              		.align 4
 6516 05fc 00000000 		.long	0
 6517              	
 6518              	.LLSDATT1182:
 6519              		.text
 6521              		.section	.rodata
 6522              	.LC72:
 6523 0c1e 48657849 		.string	"HexIO_testDeriveWriteMap"
 6523      4F5F7465 
 6523      73744465 
 6523      72697665 
 6523      57726974 
 6524              		.section	.text._ZN28TestHexIO_testDeriveWriteMapC2Ev,"axG",@progbits,_ZN28TestHexIO_testDeriveWrit
 6525              		.align 2
 6526              		.weak	_ZN28TestHexIO_testDeriveWriteMapC2Ev
 6528              	_ZN28TestHexIO_testDeriveWriteMapC2Ev:
 6529              	.LFB1184:
 302:testHexIO.cpp **** 
 303:testHexIO.cpp **** TEST(HexIO_testDeriveWriteMap) {
 6530              		.loc 4 303 0
 6531              		.cfi_startproc
 6532 0000 55       		pushq	%rbp
 6533              		.cfi_def_cfa_offset 16
 6534              		.cfi_offset 6, -16
 6535 0001 4889E5   		movq	%rsp, %rbp
 6536              		.cfi_def_cfa_register 6
 6537 0004 4883EC10 		subq	$16, %rsp
 6538 0008 48897DF8 		movq	%rdi, -8(%rbp)
 6539              	.LBB43:
 6540              		.loc 4 303 0
 6541 000c E8000000 		call	_ZN13UnitTestSuite12GetSuiteNameEv
 6541      00
 6542 0011 4889C2   		movq	%rax, %rdx
 6543 0014 488B45F8 		movq	-8(%rbp), %rax
 6544 0018 41B82F01 		movl	$303, %r8d
 6544      0000
 6545 001e B9000000 		movl	$.LC1, %ecx
 6545      00
 6546 0023 BE000000 		movl	$.LC72, %esi
 6546      00
 6547 0028 4889C7   		movq	%rax, %rdi
 6548 002b E8000000 		call	_ZN8UnitTest4TestC2EPKcS2_S2_i
 6548      00
 6549 0030 488B45F8 		movq	-8(%rbp), %rax
 6550 0034 48C70000 		movq	$_ZTV28TestHexIO_testDeriveWriteMap+16, (%rax)
 6550      000000
 6551              	.LBE43:
 6552 003b C9       		leave
 6553              		.cfi_def_cfa 7, 8
 6554 003c C3       		ret
 6555              		.cfi_endproc
 6556              	.LFE1184:
 6558              		.weak	_ZN28TestHexIO_testDeriveWriteMapC1Ev
 6559              		.set	_ZN28TestHexIO_testDeriveWriteMapC1Ev,_ZN28TestHexIO_testDeriveWriteMapC2Ev
 6560              		.globl	testHexIO_testDeriveWriteMapInstance
 6561              		.bss
 6562 02f9 00000000 		.align 32
 6562      000000
 6565              	testHexIO_testDeriveWriteMapInstance:
 6566 0300 00000000 		.zero	56
 6566      00000000 
 6566      00000000 
 6566      00000000 
 6566      00000000 
 6567              		.globl	adderHexIO_testDeriveWriteMap
 6570              	adderHexIO_testDeriveWriteMap:
 6571 0338 00       		.zero	1
 6572              		.section	.rodata
 6573              	.LC73:
 6574 0c37 2A2A2A2A 		.string	"*****........*****"
 6574      2A2E2E2E 
 6574      2E2E2E2E 
 6574      2E2A2A2A 
 6574      2A2A00
 6575              	.LC74:
 6576 0c4a 48656C6C 		.string	"Hello........World"
 6576      6F2E2E2E 
 6576      2E2E2E2E 
 6576      2E576F72 
 6576      6C6400
 6577              	.LC75:
 6578 0c5d 2A2A2A2A 		.string	"*****************"
 6578      2A2A2A2A 
 6578      2A2A2A2A 
 6578      2A2A2A2A 
 6578      2A00
 6579              	.LC76:
 6580 0c6f 48656C6C 		.string	"Hello.......World"
 6580      6F2E2E2E 
 6580      2E2E2E2E 
 6580      576F726C 
 6580      6400
 6581              		.text
 6582 30fb 90       		.align 2
 6583              		.globl	_ZNK28TestHexIO_testDeriveWriteMap7RunImplEv
 6585              	_ZNK28TestHexIO_testDeriveWriteMap7RunImplEv:
 6586              	.LFB1186:
 6587              		.loc 4 303 0
 6588              		.cfi_startproc
 6589 30fc 55       		pushq	%rbp
 6590              		.cfi_def_cfa_offset 16
 6591              		.cfi_offset 6, -16
 6592 30fd 4889E5   		movq	%rsp, %rbp
 6593              		.cfi_def_cfa_register 6
 6594 3100 4883EC10 		subq	$16, %rsp
 6595 3104 48897DF8 		movq	%rdi, -8(%rbp)
 304:testHexIO.cpp **** 	testDeriveWriteMap("Hello........World", "*****........*****");
 6596              		.loc 4 304 0
 6597 3108 BE000000 		movl	$.LC73, %esi
 6597      00
 6598 310d BF000000 		movl	$.LC74, %edi
 6598      00
 6599 3112 E8000000 		call	_Z18testDeriveWriteMapPKcS0_
 6599      00
 305:testHexIO.cpp **** 	testDeriveWriteMap("Hello.......World", "*****************");
 6600              		.loc 4 305 0
 6601 3117 BE000000 		movl	$.LC75, %esi
 6601      00
 6602 311c BF000000 		movl	$.LC76, %edi
 6602      00
 6603 3121 E8000000 		call	_Z18testDeriveWriteMapPKcS0_
 6603      00
 306:testHexIO.cpp **** }
 6604              		.loc 4 306 0
 6605 3126 C9       		leave
 6606              		.cfi_def_cfa 7, 8
 6607 3127 C3       		ret
 6608              		.cfi_endproc
 6609              	.LFE1186:
 6611              		.section	.text._ZN8UnitTest15MemoryOutStreamD1Ev,"axG",@progbits,_ZN8UnitTest15MemoryOutStreamD1Ev
 6612              		.align 2
 6613              		.weak	_ZN8UnitTest15MemoryOutStreamD1Ev
 6615              	_ZN8UnitTest15MemoryOutStreamD1Ev:
 6616              	.LFB1217:
  13:/home/asoreyh/Dropbox/projects/lago/lago-software/acqua/brc/lago/makestuff/libs/libutpp/MemoryOutStream.h **** {
 6617              		.loc 3 13 0
 6618              		.cfi_startproc
 6619              		.cfi_personality 0x3,__gxx_personality_v0
 6620              		.cfi_lsda 0x3,.LLSDA1217
 6621 0000 55       		pushq	%rbp
 6622              		.cfi_def_cfa_offset 16
 6623              		.cfi_offset 6, -16
 6624 0001 4889E5   		movq	%rsp, %rbp
 6625              		.cfi_def_cfa_register 6
 6626 0004 53       		pushq	%rbx
 6627 0005 4883EC18 		subq	$24, %rsp
 6628              		.cfi_offset 3, -24
 6629 0009 48897DE8 		movq	%rdi, -24(%rbp)
 6630              	.LBB44:
  13:/home/asoreyh/Dropbox/projects/lago/lago-software/acqua/brc/lago/makestuff/libs/libutpp/MemoryOutStream.h **** {
 6631              		.loc 3 13 0
 6632 000d BA000000 		movl	$_ZTVN8UnitTest15MemoryOutStreamE+24, %edx
 6632      00
 6633 0012 488B45E8 		movq	-24(%rbp), %rax
 6634 0016 488910   		movq	%rdx, (%rax)
 6635 0019 BA600000 		movl	$96, %edx
 6635      00
 6636 001e 488B45E8 		movq	-24(%rbp), %rax
 6637 0022 4801D0   		addq	%rdx, %rax
 6638 0025 BA000000 		movl	$_ZTVN8UnitTest15MemoryOutStreamE+64, %edx
 6638      00
 6639 002a 488910   		movq	%rdx, (%rax)
 6640 002d 488B45E8 		movq	-24(%rbp), %rax
 6641 0031 4883C058 		addq	$88, %rax
 6642 0035 4889C7   		movq	%rax, %rdi
 6643              	.LEHB258:
 6644 0038 E8000000 		call	_ZNSsD1Ev
 6644      00
 6645              	.LEHE258:
  13:/home/asoreyh/Dropbox/projects/lago/lago-software/acqua/brc/lago/makestuff/libs/libutpp/MemoryOutStream.h **** {
 6646              		.loc 3 13 0 is_stmt 0 discriminator 14
 6647 003d BA000000 		movl	$_ZTTN8UnitTest15MemoryOutStreamE+8, %edx
 6647      00
 6648 0042 488B45E8 		movq	-24(%rbp), %rax
 6649 0046 4889D6   		movq	%rdx, %rsi
 6650 0049 4889C7   		movq	%rax, %rdi
 6651              	.LEHB259:
 6652 004c E8000000 		call	_ZNSt19basic_ostringstreamIcSt11char_traitsIcESaIcEED2Ev
 6652      00
 6653              	.LEHE259:
  13:/home/asoreyh/Dropbox/projects/lago/lago-software/acqua/brc/lago/makestuff/libs/libutpp/MemoryOutStream.h **** {
 6654              		.loc 3 13 0 discriminator 20
 6655 0051 B8020000 		movl	$2, %eax
 6655      00
 6656 0056 85C0     		testl	%eax, %eax
 6657 0058 7410     		je	.L344
  13:/home/asoreyh/Dropbox/projects/lago/lago-software/acqua/brc/lago/makestuff/libs/libutpp/MemoryOutStream.h **** {
 6658              		.loc 3 13 0 discriminator 21
 6659 005a 488B45E8 		movq	-24(%rbp), %rax
 6660 005e 4883C060 		addq	$96, %rax
 6661 0062 4889C7   		movq	%rax, %rdi
 6662              	.LEHB260:
 6663 0065 E8000000 		call	_ZNSt9basic_iosIcSt11char_traitsIcEED2Ev
 6663      00
 6664              	.LEHE260:
 6665              	.L344:
 6666              	.LBE44:
  13:/home/asoreyh/Dropbox/projects/lago/lago-software/acqua/brc/lago/makestuff/libs/libutpp/MemoryOutStream.h **** {
 6667              		.loc 3 13 0 discriminator 24
 6668 006a B8000000 		movl	$0, %eax
 6668      00
 6669 006f 85C0     		testl	%eax, %eax
 6670 0071 744E     		je	.L351
  13:/home/asoreyh/Dropbox/projects/lago/lago-software/acqua/brc/lago/makestuff/libs/libutpp/MemoryOutStream.h **** {
 6671              		.loc 3 13 0 discriminator 25
 6672 0073 488B45E8 		movq	-24(%rbp), %rax
 6673 0077 4889C7   		movq	%rax, %rdi
 6674 007a E8000000 		call	_ZdlPv
 6674      00
 6675 007f EB40     		jmp	.L351
 6676              	.L349:
 6677 0081 4889C3   		movq	%rax, %rbx
 6678              	.LBB45:
  13:/home/asoreyh/Dropbox/projects/lago/lago-software/acqua/brc/lago/makestuff/libs/libutpp/MemoryOutStream.h **** {
 6679              		.loc 3 13 0
 6680 0084 BA000000 		movl	$_ZTTN8UnitTest15MemoryOutStreamE+8, %edx
 6680      00
 6681 0089 488B45E8 		movq	-24(%rbp), %rax
 6682 008d 4889D6   		movq	%rdx, %rsi
 6683 0090 4889C7   		movq	%rax, %rdi
 6684 0093 E8000000 		call	_ZNSt19basic_ostringstreamIcSt11char_traitsIcESaIcEED2Ev
 6684      00
 6685 0098 EB03     		jmp	.L347
 6686              	.L350:
 6687 009a 4889C3   		movq	%rax, %rbx
 6688              	.L347:
  13:/home/asoreyh/Dropbox/projects/lago/lago-software/acqua/brc/lago/makestuff/libs/libutpp/MemoryOutStream.h **** {
 6689              		.loc 3 13 0 discriminator 19
 6690 009d B8020000 		movl	$2, %eax
 6690      00
 6691 00a2 85C0     		testl	%eax, %eax
 6692 00a4 7410     		je	.L348
  13:/home/asoreyh/Dropbox/projects/lago/lago-software/acqua/brc/lago/makestuff/libs/libutpp/MemoryOutStream.h **** {
 6693              		.loc 3 13 0 discriminator 32
 6694 00a6 488B45E8 		movq	-24(%rbp), %rax
 6695 00aa 4883C060 		addq	$96, %rax
 6696 00ae 4889C7   		movq	%rax, %rdi
 6697 00b1 E8000000 		call	_ZNSt9basic_iosIcSt11char_traitsIcEED2Ev
 6697      00
 6698              	.L348:
 6699 00b6 4889D8   		movq	%rbx, %rax
 6700 00b9 4889C7   		movq	%rax, %rdi
 6701              	.LEHB261:
 6702 00bc E8000000 		call	_Unwind_Resume
 6702      00
 6703              	.LEHE261:
 6704              	.L351:
 6705              	.LBE45:
  13:/home/asoreyh/Dropbox/projects/lago/lago-software/acqua/brc/lago/makestuff/libs/libutpp/MemoryOutStream.h **** {
 6706              		.loc 3 13 0
 6707 00c1 4883C418 		addq	$24, %rsp
 6708 00c5 5B       		popq	%rbx
 6709 00c6 5D       		popq	%rbp
 6710              		.cfi_def_cfa 7, 8
 6711 00c7 C3       		ret
 6712              		.cfi_endproc
 6713              	.LFE1217:
 6714              		.section	.gcc_except_table
 6715              	.LLSDA1217:
 6716 0600 FF       		.byte	0xff
 6717 0601 FF       		.byte	0xff
 6718 0602 01       		.byte	0x1
 6719 0603 13       		.uleb128 .LLSDACSE1217-.LLSDACSB1217
 6720              	.LLSDACSB1217:
 6721 0604 38       		.uleb128 .LEHB258-.LFB1217
 6722 0605 05       		.uleb128 .LEHE258-.LEHB258
 6723 0606 8101     		.uleb128 .L349-.LFB1217
 6724 0608 00       		.uleb128 0
 6725 0609 4C       		.uleb128 .LEHB259-.LFB1217
 6726 060a 05       		.uleb128 .LEHE259-.LEHB259
 6727 060b 9A01     		.uleb128 .L350-.LFB1217
 6728 060d 00       		.uleb128 0
 6729 060e 65       		.uleb128 .LEHB260-.LFB1217
 6730 060f 05       		.uleb128 .LEHE260-.LEHB260
 6731 0610 00       		.uleb128 0
 6732 0611 00       		.uleb128 0
 6733 0612 BC01     		.uleb128 .LEHB261-.LFB1217
 6734 0614 05       		.uleb128 .LEHE261-.LEHB261
 6735 0615 00       		.uleb128 0
 6736 0616 00       		.uleb128 0
 6737              	.LLSDACSE1217:
 6738              		.section	.text._ZN8UnitTest15MemoryOutStreamD1Ev,"axG",@progbits,_ZN8UnitTest15MemoryOutStreamD1Ev
 6740              		.set	.LTHUNK0,_ZN8UnitTest15MemoryOutStreamD1Ev
 6741              		.weak	_ZTv0_n24_N8UnitTest15MemoryOutStreamD1Ev
 6743              	_ZTv0_n24_N8UnitTest15MemoryOutStreamD1Ev:
 6744              	.LFB1369:
  13:/home/asoreyh/Dropbox/projects/lago/lago-software/acqua/brc/lago/makestuff/libs/libutpp/MemoryOutStream.h **** {
 6745              		.loc 3 13 0 is_stmt 1
 6746              		.cfi_startproc
 6747 00c8 4C8B17   		movq	(%rdi), %r10
 6748 00cb 49037AE8 		addq	-24(%r10), %rdi
 6749 00cf E92CFFFF 		jmp	.LTHUNK0
 6749      FF
 6750              		.cfi_endproc
 6751              	.LFE1369:
 6753              		.section	.text._ZN8UnitTest15MemoryOutStreamD0Ev,"axG",@progbits,_ZN8UnitTest15MemoryOutStreamD0Ev
 6754              		.align 2
 6755              		.weak	_ZN8UnitTest15MemoryOutStreamD0Ev
 6757              	_ZN8UnitTest15MemoryOutStreamD0Ev:
 6758              	.LFB1218:
  13:/home/asoreyh/Dropbox/projects/lago/lago-software/acqua/brc/lago/makestuff/libs/libutpp/MemoryOutStream.h **** {
 6759              		.loc 3 13 0
 6760              		.cfi_startproc
 6761 0000 55       		pushq	%rbp
 6762              		.cfi_def_cfa_offset 16
 6763              		.cfi_offset 6, -16
 6764 0001 4889E5   		movq	%rsp, %rbp
 6765              		.cfi_def_cfa_register 6
 6766 0004 4883EC10 		subq	$16, %rsp
 6767 0008 48897DF8 		movq	%rdi, -8(%rbp)
  13:/home/asoreyh/Dropbox/projects/lago/lago-software/acqua/brc/lago/makestuff/libs/libutpp/MemoryOutStream.h **** {
 6768              		.loc 3 13 0
 6769 000c 488B45F8 		movq	-8(%rbp), %rax
 6770 0010 4889C7   		movq	%rax, %rdi
 6771 0013 E8000000 		call	_ZN8UnitTest15MemoryOutStreamD1Ev
 6771      00
 6772 0018 488B45F8 		movq	-8(%rbp), %rax
 6773 001c 4889C7   		movq	%rax, %rdi
 6774 001f E8000000 		call	_ZdlPv
 6774      00
 6775 0024 C9       		leave
 6776              		.cfi_def_cfa 7, 8
 6777 0025 C3       		ret
 6778              		.cfi_endproc
 6779              	.LFE1218:
 6781              		.set	.LTHUNK1,_ZN8UnitTest15MemoryOutStreamD0Ev
 6782              		.weak	_ZTv0_n24_N8UnitTest15MemoryOutStreamD0Ev
 6784              	_ZTv0_n24_N8UnitTest15MemoryOutStreamD0Ev:
 6785              	.LFB1370:
  13:/home/asoreyh/Dropbox/projects/lago/lago-software/acqua/brc/lago/makestuff/libs/libutpp/MemoryOutStream.h **** {
 6786              		.loc 3 13 0
 6787              		.cfi_startproc
 6788 0026 4C8B17   		movq	(%rdi), %r10
 6789 0029 49037AE8 		addq	-24(%r10), %rdi
 6790 002d EBD1     		jmp	.LTHUNK1
 6791              		.cfi_endproc
 6792              	.LFE1370:
 6794              		.section	.rodata
 6795              	.LC77:
 6796 0c81 45787065 		.string	"Expected "
 6796      63746564 
 6796      2000
 6797              	.LC78:
 6798 0c8b 20627574 		.string	" but was "
 6798      20776173 
 6798      2000
 6799              		.section	.text._ZN8UnitTest10CheckEqualI12BufferStatusS1_EEvRNS_11TestResultsERKT_RKT0_RKNS_11Test
 6800              		.weak	_ZN8UnitTest10CheckEqualI12BufferStatusS1_EEvRNS_11TestResultsERKT_RKT0_RKNS_11TestDetailsE
 6802              	_ZN8UnitTest10CheckEqualI12BufferStatusS1_EEvRNS_11TestResultsERKT_RKT0_RKNS_11TestDetailsE:
 6803              	.LFB1214:
 6804              		.file 5 "/home/asoreyh/Dropbox/projects/lago/lago-software/acqua/brc/lago/makestuff/libs/libutpp/C
   1:/home/asoreyh/Dropbox/projects/lago/lago-software/acqua/brc/lago/makestuff/libs/libutpp/Checks.h **** #ifndef UNITTEST_CHECKS_H
   2:/home/asoreyh/Dropbox/projects/lago/lago-software/acqua/brc/lago/makestuff/libs/libutpp/Checks.h **** #define UNITTEST_CHECKS_H
   3:/home/asoreyh/Dropbox/projects/lago/lago-software/acqua/brc/lago/makestuff/libs/libutpp/Checks.h **** 
   4:/home/asoreyh/Dropbox/projects/lago/lago-software/acqua/brc/lago/makestuff/libs/libutpp/Checks.h **** #include "Config.h"
   5:/home/asoreyh/Dropbox/projects/lago/lago-software/acqua/brc/lago/makestuff/libs/libutpp/Checks.h **** #include "TestResults.h"
   6:/home/asoreyh/Dropbox/projects/lago/lago-software/acqua/brc/lago/makestuff/libs/libutpp/Checks.h **** #include "MemoryOutStream.h"
   7:/home/asoreyh/Dropbox/projects/lago/lago-software/acqua/brc/lago/makestuff/libs/libutpp/Checks.h **** 
   8:/home/asoreyh/Dropbox/projects/lago/lago-software/acqua/brc/lago/makestuff/libs/libutpp/Checks.h **** namespace UnitTest {
   9:/home/asoreyh/Dropbox/projects/lago/lago-software/acqua/brc/lago/makestuff/libs/libutpp/Checks.h **** 
  10:/home/asoreyh/Dropbox/projects/lago/lago-software/acqua/brc/lago/makestuff/libs/libutpp/Checks.h **** 
  11:/home/asoreyh/Dropbox/projects/lago/lago-software/acqua/brc/lago/makestuff/libs/libutpp/Checks.h **** template< typename Value >
  12:/home/asoreyh/Dropbox/projects/lago/lago-software/acqua/brc/lago/makestuff/libs/libutpp/Checks.h **** bool Check(Value const value)
  13:/home/asoreyh/Dropbox/projects/lago/lago-software/acqua/brc/lago/makestuff/libs/libutpp/Checks.h **** {
  14:/home/asoreyh/Dropbox/projects/lago/lago-software/acqua/brc/lago/makestuff/libs/libutpp/Checks.h ****     return !!value; // doing double negative to avoid silly VS warnings
  15:/home/asoreyh/Dropbox/projects/lago/lago-software/acqua/brc/lago/makestuff/libs/libutpp/Checks.h **** }
  16:/home/asoreyh/Dropbox/projects/lago/lago-software/acqua/brc/lago/makestuff/libs/libutpp/Checks.h **** 
  17:/home/asoreyh/Dropbox/projects/lago/lago-software/acqua/brc/lago/makestuff/libs/libutpp/Checks.h **** 
  18:/home/asoreyh/Dropbox/projects/lago/lago-software/acqua/brc/lago/makestuff/libs/libutpp/Checks.h **** template< typename Expected, typename Actual >
  19:/home/asoreyh/Dropbox/projects/lago/lago-software/acqua/brc/lago/makestuff/libs/libutpp/Checks.h **** void CheckEqual(TestResults& results, Expected const& expected, Actual const& actual, TestDetails c
 6805              		.loc 5 19 0
 6806              		.cfi_startproc
 6807              		.cfi_personality 0x3,__gxx_personality_v0
 6808              		.cfi_lsda 0x3,.LLSDA1214
 6809 0000 55       		pushq	%rbp
 6810              		.cfi_def_cfa_offset 16
 6811              		.cfi_offset 6, -16
 6812 0001 4889E5   		movq	%rsp, %rbp
 6813              		.cfi_def_cfa_register 6
 6814 0004 4154     		pushq	%r12
 6815 0006 53       		pushq	%rbx
 6816 0007 4881EC90 		subq	$400, %rsp
 6816      010000
 6817              		.cfi_offset 12, -24
 6818              		.cfi_offset 3, -32
 6819 000e 4889BD78 		movq	%rdi, -392(%rbp)
 6819      FEFFFF
 6820 0015 4889B570 		movq	%rsi, -400(%rbp)
 6820      FEFFFF
 6821 001c 48899568 		movq	%rdx, -408(%rbp)
 6821      FEFFFF
 6822 0023 48898D60 		movq	%rcx, -416(%rbp)
 6822      FEFFFF
 6823              		.loc 5 19 0
 6824 002a 64488B04 		movq	%fs:40, %rax
 6824      25280000 
 6824      00
 6825 0033 488945E8 		movq	%rax, -24(%rbp)
 6826 0037 31C0     		xorl	%eax, %eax
 6827              	.LBB46:
 6828              	.LBB47:
  20:/home/asoreyh/Dropbox/projects/lago/lago-software/acqua/brc/lago/makestuff/libs/libutpp/Checks.h **** {
  21:/home/asoreyh/Dropbox/projects/lago/lago-software/acqua/brc/lago/makestuff/libs/libutpp/Checks.h ****     if (!(expected == actual))
 6829              		.loc 5 21 0
 6830 0039 488B8570 		movq	-400(%rbp), %rax
 6830      FEFFFF
 6831 0040 8B10     		movl	(%rax), %edx
 6832 0042 488B8568 		movq	-408(%rbp), %rax
 6832      FEFFFF
 6833 0049 8B00     		movl	(%rax), %eax
 6834 004b 39C2     		cmpl	%eax, %edx
 6835 004d 0F849600 		je	.L355
 6835      0000
 6836              	.LBB48:
  22:/home/asoreyh/Dropbox/projects/lago/lago-software/acqua/brc/lago/makestuff/libs/libutpp/Checks.h ****     {
  23:/home/asoreyh/Dropbox/projects/lago/lago-software/acqua/brc/lago/makestuff/libs/libutpp/Checks.h ****         UnitTest::MemoryOutStream stream;
 6837              		.loc 5 23 0
 6838 0053 488D8580 		leaq	-384(%rbp), %rax
 6838      FEFFFF
 6839 005a 4889C7   		movq	%rax, %rdi
 6840              	.LEHB262:
 6841 005d E8000000 		call	_ZN8UnitTest15MemoryOutStreamC1Ev
 6841      00
 6842              	.LEHE262:
  24:/home/asoreyh/Dropbox/projects/lago/lago-software/acqua/brc/lago/makestuff/libs/libutpp/Checks.h ****         stream << "Expected " << expected << " but was " << actual;
 6843              		.loc 5 24 0
 6844 0062 488B8568 		movq	-408(%rbp), %rax
 6844      FEFFFF
 6845 0069 8B00     		movl	(%rax), %eax
 6846 006b 89C3     		movl	%eax, %ebx
 6847 006d 488B8570 		movq	-400(%rbp), %rax
 6847      FEFFFF
 6848 0074 8B00     		movl	(%rax), %eax
 6849 0076 4189C4   		movl	%eax, %r12d
 6850 0079 488D8580 		leaq	-384(%rbp), %rax
 6850      FEFFFF
 6851 0080 BE000000 		movl	$.LC77, %esi
 6851      00
 6852 0085 4889C7   		movq	%rax, %rdi
 6853              	.LEHB263:
 6854 0088 E8000000 		call	_ZStlsISt11char_traitsIcEERSt13basic_ostreamIcT_ES5_PKc
 6854      00
 6855 008d 4489E6   		movl	%r12d, %esi
 6856 0090 4889C7   		movq	%rax, %rdi
 6857 0093 E8000000 		call	_ZNSolsEi
 6857      00
 6858              		.loc 5 24 0 is_stmt 0 discriminator 1
 6859 0098 BE000000 		movl	$.LC78, %esi
 6859      00
 6860 009d 4889C7   		movq	%rax, %rdi
 6861 00a0 E8000000 		call	_ZStlsISt11char_traitsIcEERSt13basic_ostreamIcT_ES5_PKc
 6861      00
 6862              		.loc 5 24 0 discriminator 2
 6863 00a5 89DE     		movl	%ebx, %esi
 6864 00a7 4889C7   		movq	%rax, %rdi
 6865 00aa E8000000 		call	_ZNSolsEi
 6865      00
  25:/home/asoreyh/Dropbox/projects/lago/lago-software/acqua/brc/lago/makestuff/libs/libutpp/Checks.h **** 
  26:/home/asoreyh/Dropbox/projects/lago/lago-software/acqua/brc/lago/makestuff/libs/libutpp/Checks.h ****         results.OnTestFailure(details, stream.GetText());
 6866              		.loc 5 26 0 is_stmt 1
 6867 00af 488D8580 		leaq	-384(%rbp), %rax
 6867      FEFFFF
 6868 00b6 4889C7   		movq	%rax, %rdi
 6869 00b9 E8000000 		call	_ZNK8UnitTest15MemoryOutStream7GetTextEv
 6869      00
 6870 00be 4889C2   		movq	%rax, %rdx
 6871 00c1 488B8D60 		movq	-416(%rbp), %rcx
 6871      FEFFFF
 6872 00c8 488B8578 		movq	-392(%rbp), %rax
 6872      FEFFFF
 6873 00cf 4889CE   		movq	%rcx, %rsi
 6874 00d2 4889C7   		movq	%rax, %rdi
 6875 00d5 E8000000 		call	_ZN8UnitTest11TestResults13OnTestFailureERKNS_11TestDetailsEPKc
 6875      00
 6876              	.LEHE263:
 6877              		.loc 5 26 0 is_stmt 0 discriminator 4
 6878 00da 488D8580 		leaq	-384(%rbp), %rax
 6878      FEFFFF
 6879 00e1 4889C7   		movq	%rax, %rdi
 6880              	.LEHB264:
 6881 00e4 E8000000 		call	_ZN8UnitTest15MemoryOutStreamD1Ev
 6881      00
 6882              	.LEHE264:
 6883              	.L355:
 6884              	.LBE48:
 6885              	.LBE47:
 6886              	.LBE46:
  27:/home/asoreyh/Dropbox/projects/lago/lago-software/acqua/brc/lago/makestuff/libs/libutpp/Checks.h ****     }
  28:/home/asoreyh/Dropbox/projects/lago/lago-software/acqua/brc/lago/makestuff/libs/libutpp/Checks.h **** }
 6887              		.loc 5 28 0 is_stmt 1
 6888 00e9 488B45E8 		movq	-24(%rbp), %rax
 6889 00ed 64483304 		xorq	%fs:40, %rax
 6889      25280000 
 6889      00
 6890 00f6 7424     		je	.L357
 6891 00f8 EB1D     		jmp	.L359
 6892              	.L358:
 6893 00fa 4889C3   		movq	%rax, %rbx
 6894              	.LBB51:
 6895              	.LBB50:
 6896              	.LBB49:
  26:/home/asoreyh/Dropbox/projects/lago/lago-software/acqua/brc/lago/makestuff/libs/libutpp/Checks.h ****     }
 6897              		.loc 5 26 0
 6898 00fd 488D8580 		leaq	-384(%rbp), %rax
 6898      FEFFFF
 6899 0104 4889C7   		movq	%rax, %rdi
 6900 0107 E8000000 		call	_ZN8UnitTest15MemoryOutStreamD1Ev
 6900      00
 6901 010c 4889D8   		movq	%rbx, %rax
 6902 010f 4889C7   		movq	%rax, %rdi
 6903              	.LEHB265:
 6904 0112 E8000000 		call	_Unwind_Resume
 6904      00
 6905              	.LEHE265:
 6906              	.L359:
 6907              	.LBE49:
 6908              	.LBE50:
 6909              	.LBE51:
 6910              		.loc 5 28 0
 6911 0117 E8000000 		call	__stack_chk_fail
 6911      00
 6912              	.L357:
 6913 011c 4881C490 		addq	$400, %rsp
 6913      010000
 6914 0123 5B       		popq	%rbx
 6915 0124 415C     		popq	%r12
 6916 0126 5D       		popq	%rbp
 6917              		.cfi_def_cfa 7, 8
 6918 0127 C3       		ret
 6919              		.cfi_endproc
 6920              	.LFE1214:
 6921              		.section	.gcc_except_table
 6922              	.LLSDA1214:
 6923 0617 FF       		.byte	0xff
 6924 0618 FF       		.byte	0xff
 6925 0619 01       		.byte	0x1
 6926 061a 14       		.uleb128 .LLSDACSE1214-.LLSDACSB1214
 6927              	.LLSDACSB1214:
 6928 061b 5D       		.uleb128 .LEHB262-.LFB1214
 6929 061c 05       		.uleb128 .LEHE262-.LEHB262
 6930 061d 00       		.uleb128 0
 6931 061e 00       		.uleb128 0
 6932 061f 8801     		.uleb128 .LEHB263-.LFB1214
 6933 0621 52       		.uleb128 .LEHE263-.LEHB263
 6934 0622 FA01     		.uleb128 .L358-.LFB1214
 6935 0624 00       		.uleb128 0
 6936 0625 E401     		.uleb128 .LEHB264-.LFB1214
 6937 0627 05       		.uleb128 .LEHE264-.LEHB264
 6938 0628 00       		.uleb128 0
 6939 0629 00       		.uleb128 0
 6940 062a 9202     		.uleb128 .LEHB265-.LFB1214
 6941 062c 05       		.uleb128 .LEHE265-.LEHB265
 6942 062d 00       		.uleb128 0
 6943 062e 00       		.uleb128 0
 6944              	.LLSDACSE1214:
 6945              		.section	.text._ZN8UnitTest10CheckEqualI12BufferStatusS1_EEvRNS_11TestResultsERKT_RKT0_RKNS_11Test
 6947              		.section	.text._ZN8UnitTest10CheckEqualIihEEvRNS_11TestResultsERKT_RKT0_RKNS_11TestDetailsE,"axG",
 6948              		.weak	_ZN8UnitTest10CheckEqualIihEEvRNS_11TestResultsERKT_RKT0_RKNS_11TestDetailsE
 6950              	_ZN8UnitTest10CheckEqualIihEEvRNS_11TestResultsERKT_RKT0_RKNS_11TestDetailsE:
 6951              	.LFB1219:
  19:/home/asoreyh/Dropbox/projects/lago/lago-software/acqua/brc/lago/makestuff/libs/libutpp/Checks.h **** {
 6952              		.loc 5 19 0
 6953              		.cfi_startproc
 6954              		.cfi_personality 0x3,__gxx_personality_v0
 6955              		.cfi_lsda 0x3,.LLSDA1219
 6956 0000 55       		pushq	%rbp
 6957              		.cfi_def_cfa_offset 16
 6958              		.cfi_offset 6, -16
 6959 0001 4889E5   		movq	%rsp, %rbp
 6960              		.cfi_def_cfa_register 6
 6961 0004 4154     		pushq	%r12
 6962 0006 53       		pushq	%rbx
 6963 0007 4881EC90 		subq	$400, %rsp
 6963      010000
 6964              		.cfi_offset 12, -24
 6965              		.cfi_offset 3, -32
 6966 000e 4889BD78 		movq	%rdi, -392(%rbp)
 6966      FEFFFF
 6967 0015 4889B570 		movq	%rsi, -400(%rbp)
 6967      FEFFFF
 6968 001c 48899568 		movq	%rdx, -408(%rbp)
 6968      FEFFFF
 6969 0023 48898D60 		movq	%rcx, -416(%rbp)
 6969      FEFFFF
  19:/home/asoreyh/Dropbox/projects/lago/lago-software/acqua/brc/lago/makestuff/libs/libutpp/Checks.h **** {
 6970              		.loc 5 19 0
 6971 002a 64488B04 		movq	%fs:40, %rax
 6971      25280000 
 6971      00
 6972 0033 488945E8 		movq	%rax, -24(%rbp)
 6973 0037 31C0     		xorl	%eax, %eax
 6974              	.LBB52:
 6975              	.LBB53:
  21:/home/asoreyh/Dropbox/projects/lago/lago-software/acqua/brc/lago/makestuff/libs/libutpp/Checks.h ****     {
 6976              		.loc 5 21 0
 6977 0039 488B8570 		movq	-400(%rbp), %rax
 6977      FEFFFF
 6978 0040 8B10     		movl	(%rax), %edx
 6979 0042 488B8568 		movq	-408(%rbp), %rax
 6979      FEFFFF
 6980 0049 0FB600   		movzbl	(%rax), %eax
 6981 004c 0FB6C0   		movzbl	%al, %eax
 6982 004f 39C2     		cmpl	%eax, %edx
 6983 0051 0F849600 		je	.L361
 6983      0000
 6984              	.LBB54:
  23:/home/asoreyh/Dropbox/projects/lago/lago-software/acqua/brc/lago/makestuff/libs/libutpp/Checks.h ****         stream << "Expected " << expected << " but was " << actual;
 6985              		.loc 5 23 0
 6986 0057 488D8580 		leaq	-384(%rbp), %rax
 6986      FEFFFF
 6987 005e 4889C7   		movq	%rax, %rdi
 6988              	.LEHB266:
 6989 0061 E8000000 		call	_ZN8UnitTest15MemoryOutStreamC1Ev
 6989      00
 6990              	.LEHE266:
  24:/home/asoreyh/Dropbox/projects/lago/lago-software/acqua/brc/lago/makestuff/libs/libutpp/Checks.h **** 
 6991              		.loc 5 24 0
 6992 0066 488B8568 		movq	-408(%rbp), %rax
 6992      FEFFFF
 6993 006d 0FB600   		movzbl	(%rax), %eax
 6994 0070 0FB6D8   		movzbl	%al, %ebx
 6995 0073 488B8570 		movq	-400(%rbp), %rax
 6995      FEFFFF
 6996 007a 448B20   		movl	(%rax), %r12d
 6997 007d 488D8580 		leaq	-384(%rbp), %rax
 6997      FEFFFF
 6998 0084 BE000000 		movl	$.LC77, %esi
 6998      00
 6999 0089 4889C7   		movq	%rax, %rdi
 7000              	.LEHB267:
 7001 008c E8000000 		call	_ZStlsISt11char_traitsIcEERSt13basic_ostreamIcT_ES5_PKc
 7001      00
 7002 0091 4489E6   		movl	%r12d, %esi
 7003 0094 4889C7   		movq	%rax, %rdi
 7004 0097 E8000000 		call	_ZNSolsEi
 7004      00
  24:/home/asoreyh/Dropbox/projects/lago/lago-software/acqua/brc/lago/makestuff/libs/libutpp/Checks.h **** 
 7005              		.loc 5 24 0 is_stmt 0 discriminator 1
 7006 009c BE000000 		movl	$.LC78, %esi
 7006      00
 7007 00a1 4889C7   		movq	%rax, %rdi
 7008 00a4 E8000000 		call	_ZStlsISt11char_traitsIcEERSt13basic_ostreamIcT_ES5_PKc
 7008      00
  24:/home/asoreyh/Dropbox/projects/lago/lago-software/acqua/brc/lago/makestuff/libs/libutpp/Checks.h **** 
 7009              		.loc 5 24 0 discriminator 2
 7010 00a9 89DE     		movl	%ebx, %esi
 7011 00ab 4889C7   		movq	%rax, %rdi
 7012 00ae E8000000 		call	_ZStlsISt11char_traitsIcEERSt13basic_ostreamIcT_ES5_h
 7012      00
  26:/home/asoreyh/Dropbox/projects/lago/lago-software/acqua/brc/lago/makestuff/libs/libutpp/Checks.h ****     }
 7013              		.loc 5 26 0 is_stmt 1
 7014 00b3 488D8580 		leaq	-384(%rbp), %rax
 7014      FEFFFF
 7015 00ba 4889C7   		movq	%rax, %rdi
 7016 00bd E8000000 		call	_ZNK8UnitTest15MemoryOutStream7GetTextEv
 7016      00
 7017 00c2 4889C2   		movq	%rax, %rdx
 7018 00c5 488B8D60 		movq	-416(%rbp), %rcx
 7018      FEFFFF
 7019 00cc 488B8578 		movq	-392(%rbp), %rax
 7019      FEFFFF
 7020 00d3 4889CE   		movq	%rcx, %rsi
 7021 00d6 4889C7   		movq	%rax, %rdi
 7022 00d9 E8000000 		call	_ZN8UnitTest11TestResults13OnTestFailureERKNS_11TestDetailsEPKc
 7022      00
 7023              	.LEHE267:
  26:/home/asoreyh/Dropbox/projects/lago/lago-software/acqua/brc/lago/makestuff/libs/libutpp/Checks.h ****     }
 7024              		.loc 5 26 0 is_stmt 0 discriminator 4
 7025 00de 488D8580 		leaq	-384(%rbp), %rax
 7025      FEFFFF
 7026 00e5 4889C7   		movq	%rax, %rdi
 7027              	.LEHB268:
 7028 00e8 E8000000 		call	_ZN8UnitTest15MemoryOutStreamD1Ev
 7028      00
 7029              	.LEHE268:
 7030              	.L361:
 7031              	.LBE54:
 7032              	.LBE53:
 7033              	.LBE52:
 7034              		.loc 5 28 0 is_stmt 1
 7035 00ed 488B45E8 		movq	-24(%rbp), %rax
 7036 00f1 64483304 		xorq	%fs:40, %rax
 7036      25280000 
 7036      00
 7037 00fa 7424     		je	.L363
 7038 00fc EB1D     		jmp	.L365
 7039              	.L364:
 7040 00fe 4889C3   		movq	%rax, %rbx
 7041              	.LBB57:
 7042              	.LBB56:
 7043              	.LBB55:
  26:/home/asoreyh/Dropbox/projects/lago/lago-software/acqua/brc/lago/makestuff/libs/libutpp/Checks.h ****     }
 7044              		.loc 5 26 0
 7045 0101 488D8580 		leaq	-384(%rbp), %rax
 7045      FEFFFF
 7046 0108 4889C7   		movq	%rax, %rdi
 7047 010b E8000000 		call	_ZN8UnitTest15MemoryOutStreamD1Ev
 7047      00
 7048 0110 4889D8   		movq	%rbx, %rax
 7049 0113 4889C7   		movq	%rax, %rdi
 7050              	.LEHB269:
 7051 0116 E8000000 		call	_Unwind_Resume
 7051      00
 7052              	.LEHE269:
 7053              	.L365:
 7054              	.LBE55:
 7055              	.LBE56:
 7056              	.LBE57:
 7057              		.loc 5 28 0
 7058 011b E8000000 		call	__stack_chk_fail
 7058      00
 7059              	.L363:
 7060 0120 4881C490 		addq	$400, %rsp
 7060      010000
 7061 0127 5B       		popq	%rbx
 7062 0128 415C     		popq	%r12
 7063 012a 5D       		popq	%rbp
 7064              		.cfi_def_cfa 7, 8
 7065 012b C3       		ret
 7066              		.cfi_endproc
 7067              	.LFE1219:
 7068              		.section	.gcc_except_table
 7069              	.LLSDA1219:
 7070 062f FF       		.byte	0xff
 7071 0630 FF       		.byte	0xff
 7072 0631 01       		.byte	0x1
 7073 0632 14       		.uleb128 .LLSDACSE1219-.LLSDACSB1219
 7074              	.LLSDACSB1219:
 7075 0633 61       		.uleb128 .LEHB266-.LFB1219
 7076 0634 05       		.uleb128 .LEHE266-.LEHB266
 7077 0635 00       		.uleb128 0
 7078 0636 00       		.uleb128 0
 7079 0637 8C01     		.uleb128 .LEHB267-.LFB1219
 7080 0639 52       		.uleb128 .LEHE267-.LEHB267
 7081 063a FE01     		.uleb128 .L364-.LFB1219
 7082 063c 00       		.uleb128 0
 7083 063d E801     		.uleb128 .LEHB268-.LFB1219
 7084 063f 05       		.uleb128 .LEHE268-.LEHB268
 7085 0640 00       		.uleb128 0
 7086 0641 00       		.uleb128 0
 7087 0642 9602     		.uleb128 .LEHB269-.LFB1219
 7088 0644 05       		.uleb128 .LEHE269-.LEHB269
 7089 0645 00       		.uleb128 0
 7090 0646 00       		.uleb128 0
 7091              	.LLSDACSE1219:
 7092              		.section	.text._ZN8UnitTest10CheckEqualIihEEvRNS_11TestResultsERKT_RKT0_RKNS_11TestDetailsE,"axG",
 7094              		.section	.text._ZN8UnitTest10CheckEqualImjEEvRNS_11TestResultsERKT_RKT0_RKNS_11TestDetailsE,"axG",
 7095              		.weak	_ZN8UnitTest10CheckEqualImjEEvRNS_11TestResultsERKT_RKT0_RKNS_11TestDetailsE
 7097              	_ZN8UnitTest10CheckEqualImjEEvRNS_11TestResultsERKT_RKT0_RKNS_11TestDetailsE:
 7098              	.LFB1220:
  19:/home/asoreyh/Dropbox/projects/lago/lago-software/acqua/brc/lago/makestuff/libs/libutpp/Checks.h **** {
 7099              		.loc 5 19 0
 7100              		.cfi_startproc
 7101              		.cfi_personality 0x3,__gxx_personality_v0
 7102              		.cfi_lsda 0x3,.LLSDA1220
 7103 0000 55       		pushq	%rbp
 7104              		.cfi_def_cfa_offset 16
 7105              		.cfi_offset 6, -16
 7106 0001 4889E5   		movq	%rsp, %rbp
 7107              		.cfi_def_cfa_register 6
 7108 0004 4154     		pushq	%r12
 7109 0006 53       		pushq	%rbx
 7110 0007 4881EC90 		subq	$400, %rsp
 7110      010000
 7111              		.cfi_offset 12, -24
 7112              		.cfi_offset 3, -32
 7113 000e 4889BD78 		movq	%rdi, -392(%rbp)
 7113      FEFFFF
 7114 0015 4889B570 		movq	%rsi, -400(%rbp)
 7114      FEFFFF
 7115 001c 48899568 		movq	%rdx, -408(%rbp)
 7115      FEFFFF
 7116 0023 48898D60 		movq	%rcx, -416(%rbp)
 7116      FEFFFF
  19:/home/asoreyh/Dropbox/projects/lago/lago-software/acqua/brc/lago/makestuff/libs/libutpp/Checks.h **** {
 7117              		.loc 5 19 0
 7118 002a 64488B04 		movq	%fs:40, %rax
 7118      25280000 
 7118      00
 7119 0033 488945E8 		movq	%rax, -24(%rbp)
 7120 0037 31C0     		xorl	%eax, %eax
 7121              	.LBB58:
 7122              	.LBB59:
  21:/home/asoreyh/Dropbox/projects/lago/lago-software/acqua/brc/lago/makestuff/libs/libutpp/Checks.h ****     {
 7123              		.loc 5 21 0
 7124 0039 488B8570 		movq	-400(%rbp), %rax
 7124      FEFFFF
 7125 0040 488B10   		movq	(%rax), %rdx
 7126 0043 488B8568 		movq	-408(%rbp), %rax
 7126      FEFFFF
 7127 004a 8B00     		movl	(%rax), %eax
 7128 004c 89C0     		movl	%eax, %eax
 7129 004e 4839C2   		cmpq	%rax, %rdx
 7130 0051 0F849200 		je	.L367
 7130      0000
 7131              	.LBB60:
  23:/home/asoreyh/Dropbox/projects/lago/lago-software/acqua/brc/lago/makestuff/libs/libutpp/Checks.h ****         stream << "Expected " << expected << " but was " << actual;
 7132              		.loc 5 23 0
 7133 0057 488D8580 		leaq	-384(%rbp), %rax
 7133      FEFFFF
 7134 005e 4889C7   		movq	%rax, %rdi
 7135              	.LEHB270:
 7136 0061 E8000000 		call	_ZN8UnitTest15MemoryOutStreamC1Ev
 7136      00
 7137              	.LEHE270:
  24:/home/asoreyh/Dropbox/projects/lago/lago-software/acqua/brc/lago/makestuff/libs/libutpp/Checks.h **** 
 7138              		.loc 5 24 0
 7139 0066 488B8568 		movq	-408(%rbp), %rax
 7139      FEFFFF
 7140 006d 8B18     		movl	(%rax), %ebx
 7141 006f 488B8570 		movq	-400(%rbp), %rax
 7141      FEFFFF
 7142 0076 4C8B20   		movq	(%rax), %r12
 7143 0079 488D8580 		leaq	-384(%rbp), %rax
 7143      FEFFFF
 7144 0080 BE000000 		movl	$.LC77, %esi
 7144      00
 7145 0085 4889C7   		movq	%rax, %rdi
 7146              	.LEHB271:
 7147 0088 E8000000 		call	_ZStlsISt11char_traitsIcEERSt13basic_ostreamIcT_ES5_PKc
 7147      00
 7148 008d 4C89E6   		movq	%r12, %rsi
 7149 0090 4889C7   		movq	%rax, %rdi
 7150 0093 E8000000 		call	_ZNSolsEm
 7150      00
  24:/home/asoreyh/Dropbox/projects/lago/lago-software/acqua/brc/lago/makestuff/libs/libutpp/Checks.h **** 
 7151              		.loc 5 24 0 is_stmt 0 discriminator 1
 7152 0098 BE000000 		movl	$.LC78, %esi
 7152      00
 7153 009d 4889C7   		movq	%rax, %rdi
 7154 00a0 E8000000 		call	_ZStlsISt11char_traitsIcEERSt13basic_ostreamIcT_ES5_PKc
 7154      00
  24:/home/asoreyh/Dropbox/projects/lago/lago-software/acqua/brc/lago/makestuff/libs/libutpp/Checks.h **** 
 7155              		.loc 5 24 0 discriminator 2
 7156 00a5 89DE     		movl	%ebx, %esi
 7157 00a7 4889C7   		movq	%rax, %rdi
 7158 00aa E8000000 		call	_ZNSolsEj
 7158      00
  26:/home/asoreyh/Dropbox/projects/lago/lago-software/acqua/brc/lago/makestuff/libs/libutpp/Checks.h ****     }
 7159              		.loc 5 26 0 is_stmt 1
 7160 00af 488D8580 		leaq	-384(%rbp), %rax
 7160      FEFFFF
 7161 00b6 4889C7   		movq	%rax, %rdi
 7162 00b9 E8000000 		call	_ZNK8UnitTest15MemoryOutStream7GetTextEv
 7162      00
 7163 00be 4889C2   		movq	%rax, %rdx
 7164 00c1 488B8D60 		movq	-416(%rbp), %rcx
 7164      FEFFFF
 7165 00c8 488B8578 		movq	-392(%rbp), %rax
 7165      FEFFFF
 7166 00cf 4889CE   		movq	%rcx, %rsi
 7167 00d2 4889C7   		movq	%rax, %rdi
 7168 00d5 E8000000 		call	_ZN8UnitTest11TestResults13OnTestFailureERKNS_11TestDetailsEPKc
 7168      00
 7169              	.LEHE271:
  26:/home/asoreyh/Dropbox/projects/lago/lago-software/acqua/brc/lago/makestuff/libs/libutpp/Checks.h ****     }
 7170              		.loc 5 26 0 is_stmt 0 discriminator 4
 7171 00da 488D8580 		leaq	-384(%rbp), %rax
 7171      FEFFFF
 7172 00e1 4889C7   		movq	%rax, %rdi
 7173              	.LEHB272:
 7174 00e4 E8000000 		call	_ZN8UnitTest15MemoryOutStreamD1Ev
 7174      00
 7175              	.LEHE272:
 7176              	.L367:
 7177              	.LBE60:
 7178              	.LBE59:
 7179              	.LBE58:
 7180              		.loc 5 28 0 is_stmt 1
 7181 00e9 488B45E8 		movq	-24(%rbp), %rax
 7182 00ed 64483304 		xorq	%fs:40, %rax
 7182      25280000 
 7182      00
 7183 00f6 7424     		je	.L369
 7184 00f8 EB1D     		jmp	.L371
 7185              	.L370:
 7186 00fa 4889C3   		movq	%rax, %rbx
 7187              	.LBB63:
 7188              	.LBB62:
 7189              	.LBB61:
  26:/home/asoreyh/Dropbox/projects/lago/lago-software/acqua/brc/lago/makestuff/libs/libutpp/Checks.h ****     }
 7190              		.loc 5 26 0
 7191 00fd 488D8580 		leaq	-384(%rbp), %rax
 7191      FEFFFF
 7192 0104 4889C7   		movq	%rax, %rdi
 7193 0107 E8000000 		call	_ZN8UnitTest15MemoryOutStreamD1Ev
 7193      00
 7194 010c 4889D8   		movq	%rbx, %rax
 7195 010f 4889C7   		movq	%rax, %rdi
 7196              	.LEHB273:
 7197 0112 E8000000 		call	_Unwind_Resume
 7197      00
 7198              	.LEHE273:
 7199              	.L371:
 7200              	.LBE61:
 7201              	.LBE62:
 7202              	.LBE63:
 7203              		.loc 5 28 0
 7204 0117 E8000000 		call	__stack_chk_fail
 7204      00
 7205              	.L369:
 7206 011c 4881C490 		addq	$400, %rsp
 7206      010000
 7207 0123 5B       		popq	%rbx
 7208 0124 415C     		popq	%r12
 7209 0126 5D       		popq	%rbp
 7210              		.cfi_def_cfa 7, 8
 7211 0127 C3       		ret
 7212              		.cfi_endproc
 7213              	.LFE1220:
 7214              		.section	.gcc_except_table
 7215              	.LLSDA1220:
 7216 0647 FF       		.byte	0xff
 7217 0648 FF       		.byte	0xff
 7218 0649 01       		.byte	0x1
 7219 064a 14       		.uleb128 .LLSDACSE1220-.LLSDACSB1220
 7220              	.LLSDACSB1220:
 7221 064b 61       		.uleb128 .LEHB270-.LFB1220
 7222 064c 05       		.uleb128 .LEHE270-.LEHB270
 7223 064d 00       		.uleb128 0
 7224 064e 00       		.uleb128 0
 7225 064f 8801     		.uleb128 .LEHB271-.LFB1220
 7226 0651 52       		.uleb128 .LEHE271-.LEHB271
 7227 0652 FA01     		.uleb128 .L370-.LFB1220
 7228 0654 00       		.uleb128 0
 7229 0655 E401     		.uleb128 .LEHB272-.LFB1220
 7230 0657 05       		.uleb128 .LEHE272-.LEHB272
 7231 0658 00       		.uleb128 0
 7232 0659 00       		.uleb128 0
 7233 065a 9202     		.uleb128 .LEHB273-.LFB1220
 7234 065c 05       		.uleb128 .LEHE273-.LEHB273
 7235 065d 00       		.uleb128 0
 7236 065e 00       		.uleb128 0
 7237              	.LLSDACSE1220:
 7238              		.section	.text._ZN8UnitTest10CheckEqualImjEEvRNS_11TestResultsERKT_RKT0_RKNS_11TestDetailsE,"axG",
 7240              		.section	.rodata
 7241              	.LC79:
 7242 0c95 45787065 		.string	"Expected [ "
 7242      63746564 
 7242      205B2000 
 7243              	.LC80:
 7244 0ca1 2000     		.string	" "
 7245              	.LC81:
 7246 0ca3 5D206275 		.string	"] but was [ "
 7246      74207761 
 7246      73205B20 
 7246      00
 7247              	.LC82:
 7248 0cb0 5D00     		.string	"]"
 7249              		.section	.text._ZN8UnitTest15CheckArrayEqualIA4_hPhEEvRNS_11TestResultsERKT_RKT0_iRKNS_11TestDetai
 7250              		.weak	_ZN8UnitTest15CheckArrayEqualIA4_hPhEEvRNS_11TestResultsERKT_RKT0_iRKNS_11TestDetailsE
 7252              	_ZN8UnitTest15CheckArrayEqualIA4_hPhEEvRNS_11TestResultsERKT_RKT0_iRKNS_11TestDetailsE:
 7253              	.LFB1221:
  29:/home/asoreyh/Dropbox/projects/lago/lago-software/acqua/brc/lago/makestuff/libs/libutpp/Checks.h **** 
  30:/home/asoreyh/Dropbox/projects/lago/lago-software/acqua/brc/lago/makestuff/libs/libutpp/Checks.h **** void CheckEqual(TestResults& results, char const* expected, char const* actual, TestDetails const& 
  31:/home/asoreyh/Dropbox/projects/lago/lago-software/acqua/brc/lago/makestuff/libs/libutpp/Checks.h **** 
  32:/home/asoreyh/Dropbox/projects/lago/lago-software/acqua/brc/lago/makestuff/libs/libutpp/Checks.h **** void CheckEqual(TestResults& results, char* expected, char* actual, TestDetails const& details);
  33:/home/asoreyh/Dropbox/projects/lago/lago-software/acqua/brc/lago/makestuff/libs/libutpp/Checks.h **** 
  34:/home/asoreyh/Dropbox/projects/lago/lago-software/acqua/brc/lago/makestuff/libs/libutpp/Checks.h **** void CheckEqual(TestResults& results, char* expected, char const* actual, TestDetails const& detail
  35:/home/asoreyh/Dropbox/projects/lago/lago-software/acqua/brc/lago/makestuff/libs/libutpp/Checks.h **** 
  36:/home/asoreyh/Dropbox/projects/lago/lago-software/acqua/brc/lago/makestuff/libs/libutpp/Checks.h **** void CheckEqual(TestResults& results, char const* expected, char* actual, TestDetails const& detail
  37:/home/asoreyh/Dropbox/projects/lago/lago-software/acqua/brc/lago/makestuff/libs/libutpp/Checks.h **** 
  38:/home/asoreyh/Dropbox/projects/lago/lago-software/acqua/brc/lago/makestuff/libs/libutpp/Checks.h **** template< typename Expected, typename Actual, typename Tolerance >
  39:/home/asoreyh/Dropbox/projects/lago/lago-software/acqua/brc/lago/makestuff/libs/libutpp/Checks.h **** bool AreClose(Expected const& expected, Actual const& actual, Tolerance const& tolerance)
  40:/home/asoreyh/Dropbox/projects/lago/lago-software/acqua/brc/lago/makestuff/libs/libutpp/Checks.h **** {
  41:/home/asoreyh/Dropbox/projects/lago/lago-software/acqua/brc/lago/makestuff/libs/libutpp/Checks.h ****     return (actual >= (expected - tolerance)) && (actual <= (expected + tolerance));
  42:/home/asoreyh/Dropbox/projects/lago/lago-software/acqua/brc/lago/makestuff/libs/libutpp/Checks.h **** }
  43:/home/asoreyh/Dropbox/projects/lago/lago-software/acqua/brc/lago/makestuff/libs/libutpp/Checks.h **** 
  44:/home/asoreyh/Dropbox/projects/lago/lago-software/acqua/brc/lago/makestuff/libs/libutpp/Checks.h **** template< typename Expected, typename Actual, typename Tolerance >
  45:/home/asoreyh/Dropbox/projects/lago/lago-software/acqua/brc/lago/makestuff/libs/libutpp/Checks.h **** void CheckClose(TestResults& results, Expected const& expected, Actual const& actual, Tolerance con
  46:/home/asoreyh/Dropbox/projects/lago/lago-software/acqua/brc/lago/makestuff/libs/libutpp/Checks.h ****                 TestDetails const& details)
  47:/home/asoreyh/Dropbox/projects/lago/lago-software/acqua/brc/lago/makestuff/libs/libutpp/Checks.h **** {
  48:/home/asoreyh/Dropbox/projects/lago/lago-software/acqua/brc/lago/makestuff/libs/libutpp/Checks.h ****     if (!AreClose(expected, actual, tolerance))
  49:/home/asoreyh/Dropbox/projects/lago/lago-software/acqua/brc/lago/makestuff/libs/libutpp/Checks.h ****     { 
  50:/home/asoreyh/Dropbox/projects/lago/lago-software/acqua/brc/lago/makestuff/libs/libutpp/Checks.h ****         UnitTest::MemoryOutStream stream;
  51:/home/asoreyh/Dropbox/projects/lago/lago-software/acqua/brc/lago/makestuff/libs/libutpp/Checks.h ****         stream << "Expected " << expected << " +/- " << tolerance << " but was " << actual;
  52:/home/asoreyh/Dropbox/projects/lago/lago-software/acqua/brc/lago/makestuff/libs/libutpp/Checks.h **** 
  53:/home/asoreyh/Dropbox/projects/lago/lago-software/acqua/brc/lago/makestuff/libs/libutpp/Checks.h ****         results.OnTestFailure(details, stream.GetText());
  54:/home/asoreyh/Dropbox/projects/lago/lago-software/acqua/brc/lago/makestuff/libs/libutpp/Checks.h ****     }
  55:/home/asoreyh/Dropbox/projects/lago/lago-software/acqua/brc/lago/makestuff/libs/libutpp/Checks.h **** }
  56:/home/asoreyh/Dropbox/projects/lago/lago-software/acqua/brc/lago/makestuff/libs/libutpp/Checks.h **** 
  57:/home/asoreyh/Dropbox/projects/lago/lago-software/acqua/brc/lago/makestuff/libs/libutpp/Checks.h **** 
  58:/home/asoreyh/Dropbox/projects/lago/lago-software/acqua/brc/lago/makestuff/libs/libutpp/Checks.h **** template< typename Expected, typename Actual >
  59:/home/asoreyh/Dropbox/projects/lago/lago-software/acqua/brc/lago/makestuff/libs/libutpp/Checks.h **** void CheckArrayEqual(TestResults& results, Expected const& expected, Actual const& actual,
 7254              		.loc 5 59 0
 7255              		.cfi_startproc
 7256              		.cfi_personality 0x3,__gxx_personality_v0
 7257              		.cfi_lsda 0x3,.LLSDA1221
 7258 0000 55       		pushq	%rbp
 7259              		.cfi_def_cfa_offset 16
 7260              		.cfi_offset 6, -16
 7261 0001 4889E5   		movq	%rsp, %rbp
 7262              		.cfi_def_cfa_register 6
 7263 0004 53       		pushq	%rbx
 7264 0005 4881ECB8 		subq	$440, %rsp
 7264      010000
 7265              		.cfi_offset 3, -24
 7266 000c 4889BD68 		movq	%rdi, -408(%rbp)
 7266      FEFFFF
 7267 0013 4889B560 		movq	%rsi, -416(%rbp)
 7267      FEFFFF
 7268 001a 48899558 		movq	%rdx, -424(%rbp)
 7268      FEFFFF
 7269 0021 898D54FE 		movl	%ecx, -428(%rbp)
 7269      FFFF
 7270 0027 4C898548 		movq	%r8, -440(%rbp)
 7270      FEFFFF
 7271              		.loc 5 59 0
 7272 002e 64488B04 		movq	%fs:40, %rax
 7272      25280000 
 7272      00
 7273 0037 488945E8 		movq	%rax, -24(%rbp)
 7274 003b 31C0     		xorl	%eax, %eax
 7275              	.LBB64:
  60:/home/asoreyh/Dropbox/projects/lago/lago-software/acqua/brc/lago/makestuff/libs/libutpp/Checks.h ****                 int const count, TestDetails const& details)
  61:/home/asoreyh/Dropbox/projects/lago/lago-software/acqua/brc/lago/makestuff/libs/libutpp/Checks.h **** {
  62:/home/asoreyh/Dropbox/projects/lago/lago-software/acqua/brc/lago/makestuff/libs/libutpp/Checks.h ****     bool equal = true;
 7276              		.loc 5 62 0
 7277 003d C68573FE 		movb	$1, -397(%rbp)
 7277      FFFF01
 7278              	.LBB65:
  63:/home/asoreyh/Dropbox/projects/lago/lago-software/acqua/brc/lago/makestuff/libs/libutpp/Checks.h ****     for (int i = 0; i < count; ++i)
 7279              		.loc 5 63 0
 7280 0044 C78574FE 		movl	$0, -396(%rbp)
 7280      FFFF0000 
 7280      0000
 7281 004e EB4E     		jmp	.L373
 7282              	.L374:
  64:/home/asoreyh/Dropbox/projects/lago/lago-software/acqua/brc/lago/makestuff/libs/libutpp/Checks.h ****         equal &= (expected[i] == actual[i]);
 7283              		.loc 5 64 0 discriminator 3
 7284 0050 0FB68D73 		movzbl	-397(%rbp), %ecx
 7284      FEFFFF
 7285 0057 488B9560 		movq	-416(%rbp), %rdx
 7285      FEFFFF
 7286 005e 8B8574FE 		movl	-396(%rbp), %eax
 7286      FFFF
 7287 0064 4898     		cltq
 7288 0066 0FB61402 		movzbl	(%rdx,%rax), %edx
 7289 006a 488B8558 		movq	-424(%rbp), %rax
 7289      FEFFFF
 7290 0071 488B30   		movq	(%rax), %rsi
 7291 0074 8B8574FE 		movl	-396(%rbp), %eax
 7291      FFFF
 7292 007a 4898     		cltq
 7293 007c 4801F0   		addq	%rsi, %rax
 7294 007f 0FB600   		movzbl	(%rax), %eax
 7295 0082 38C2     		cmpb	%al, %dl
 7296 0084 0F94C0   		sete	%al
 7297 0087 0FB6C0   		movzbl	%al, %eax
 7298 008a 21C8     		andl	%ecx, %eax
 7299 008c 85C0     		testl	%eax, %eax
 7300 008e 0F95C0   		setne	%al
 7301 0091 888573FE 		movb	%al, -397(%rbp)
 7301      FFFF
  63:/home/asoreyh/Dropbox/projects/lago/lago-software/acqua/brc/lago/makestuff/libs/libutpp/Checks.h ****     for (int i = 0; i < count; ++i)
 7302              		.loc 5 63 0 discriminator 3
 7303 0097 838574FE 		addl	$1, -396(%rbp)
 7303      FFFF01
 7304              	.L373:
  63:/home/asoreyh/Dropbox/projects/lago/lago-software/acqua/brc/lago/makestuff/libs/libutpp/Checks.h ****     for (int i = 0; i < count; ++i)
 7305              		.loc 5 63 0 is_stmt 0 discriminator 1
 7306 009e 8B8574FE 		movl	-396(%rbp), %eax
 7306      FFFF
 7307 00a4 3B8554FE 		cmpl	-428(%rbp), %eax
 7307      FFFF
 7308 00aa 7CA4     		jl	.L374
 7309              	.LBE65:
 7310              	.LBB66:
  65:/home/asoreyh/Dropbox/projects/lago/lago-software/acqua/brc/lago/makestuff/libs/libutpp/Checks.h **** 
  66:/home/asoreyh/Dropbox/projects/lago/lago-software/acqua/brc/lago/makestuff/libs/libutpp/Checks.h ****     if (!equal)
 7311              		.loc 5 66 0 is_stmt 1
 7312 00ac 0FB68573 		movzbl	-397(%rbp), %eax
 7312      FEFFFF
 7313 00b3 83F001   		xorl	$1, %eax
 7314 00b6 84C0     		testb	%al, %al
 7315 00b8 0F843401 		je	.L375
 7315      0000
 7316              	.LBB67:
  67:/home/asoreyh/Dropbox/projects/lago/lago-software/acqua/brc/lago/makestuff/libs/libutpp/Checks.h ****     {
  68:/home/asoreyh/Dropbox/projects/lago/lago-software/acqua/brc/lago/makestuff/libs/libutpp/Checks.h ****         UnitTest::MemoryOutStream stream;
 7317              		.loc 5 68 0
 7318 00be 488D8580 		leaq	-384(%rbp), %rax
 7318      FEFFFF
 7319 00c5 4889C7   		movq	%rax, %rdi
 7320              	.LEHB274:
 7321 00c8 E8000000 		call	_ZN8UnitTest15MemoryOutStreamC1Ev
 7321      00
 7322              	.LEHE274:
  69:/home/asoreyh/Dropbox/projects/lago/lago-software/acqua/brc/lago/makestuff/libs/libutpp/Checks.h **** 
  70:/home/asoreyh/Dropbox/projects/lago/lago-software/acqua/brc/lago/makestuff/libs/libutpp/Checks.h **** 		stream << "Expected [ ";
 7323              		.loc 5 70 0
 7324 00cd 488D8580 		leaq	-384(%rbp), %rax
 7324      FEFFFF
 7325 00d4 BE000000 		movl	$.LC79, %esi
 7325      00
 7326 00d9 4889C7   		movq	%rax, %rdi
 7327              	.LEHB275:
 7328 00dc E8000000 		call	_ZStlsISt11char_traitsIcEERSt13basic_ostreamIcT_ES5_PKc
 7328      00
 7329              	.LBB68:
  71:/home/asoreyh/Dropbox/projects/lago/lago-software/acqua/brc/lago/makestuff/libs/libutpp/Checks.h **** 
  72:/home/asoreyh/Dropbox/projects/lago/lago-software/acqua/brc/lago/makestuff/libs/libutpp/Checks.h **** 		for (int expectedIndex = 0; expectedIndex < count; ++expectedIndex)
 7330              		.loc 5 72 0
 7331 00e1 C78578FE 		movl	$0, -392(%rbp)
 7331      FFFF0000 
 7331      0000
 7332 00eb EB3B     		jmp	.L376
 7333              	.L377:
  73:/home/asoreyh/Dropbox/projects/lago/lago-software/acqua/brc/lago/makestuff/libs/libutpp/Checks.h ****             stream << expected[expectedIndex] << " ";
 7334              		.loc 5 73 0
 7335 00ed 488B9560 		movq	-416(%rbp), %rdx
 7335      FEFFFF
 7336 00f4 8B8578FE 		movl	-392(%rbp), %eax
 7336      FFFF
 7337 00fa 4898     		cltq
 7338 00fc 0FB60402 		movzbl	(%rdx,%rax), %eax
 7339 0100 0FB6D0   		movzbl	%al, %edx
 7340 0103 488D8580 		leaq	-384(%rbp), %rax
 7340      FEFFFF
 7341 010a 89D6     		movl	%edx, %esi
 7342 010c 4889C7   		movq	%rax, %rdi
 7343 010f E8000000 		call	_ZStlsISt11char_traitsIcEERSt13basic_ostreamIcT_ES5_h
 7343      00
 7344 0114 BE000000 		movl	$.LC80, %esi
 7344      00
 7345 0119 4889C7   		movq	%rax, %rdi
 7346 011c E8000000 		call	_ZStlsISt11char_traitsIcEERSt13basic_ostreamIcT_ES5_PKc
 7346      00
  72:/home/asoreyh/Dropbox/projects/lago/lago-software/acqua/brc/lago/makestuff/libs/libutpp/Checks.h ****             stream << expected[expectedIndex] << " ";
 7347              		.loc 5 72 0 discriminator 2
 7348 0121 838578FE 		addl	$1, -392(%rbp)
 7348      FFFF01
 7349              	.L376:
  72:/home/asoreyh/Dropbox/projects/lago/lago-software/acqua/brc/lago/makestuff/libs/libutpp/Checks.h ****             stream << expected[expectedIndex] << " ";
 7350              		.loc 5 72 0 is_stmt 0 discriminator 1
 7351 0128 8B8578FE 		movl	-392(%rbp), %eax
 7351      FFFF
 7352 012e 3B8554FE 		cmpl	-428(%rbp), %eax
 7352      FFFF
 7353 0134 7CB7     		jl	.L377
 7354              	.LBE68:
  74:/home/asoreyh/Dropbox/projects/lago/lago-software/acqua/brc/lago/makestuff/libs/libutpp/Checks.h **** 
  75:/home/asoreyh/Dropbox/projects/lago/lago-software/acqua/brc/lago/makestuff/libs/libutpp/Checks.h **** 		stream << "] but was [ ";
 7355              		.loc 5 75 0 is_stmt 1
 7356 0136 488D8580 		leaq	-384(%rbp), %rax
 7356      FEFFFF
 7357 013d BE000000 		movl	$.LC81, %esi
 7357      00
 7358 0142 4889C7   		movq	%rax, %rdi
 7359 0145 E8000000 		call	_ZStlsISt11char_traitsIcEERSt13basic_ostreamIcT_ES5_PKc
 7359      00
 7360              	.LBB69:
  76:/home/asoreyh/Dropbox/projects/lago/lago-software/acqua/brc/lago/makestuff/libs/libutpp/Checks.h **** 
  77:/home/asoreyh/Dropbox/projects/lago/lago-software/acqua/brc/lago/makestuff/libs/libutpp/Checks.h **** 		for (int actualIndex = 0; actualIndex < count; ++actualIndex)
 7361              		.loc 5 77 0
 7362 014a C7857CFE 		movl	$0, -388(%rbp)
 7362      FFFF0000 
 7362      0000
 7363 0154 EB40     		jmp	.L378
 7364              	.L379:
  78:/home/asoreyh/Dropbox/projects/lago/lago-software/acqua/brc/lago/makestuff/libs/libutpp/Checks.h ****             stream << actual[actualIndex] << " ";
 7365              		.loc 5 78 0
 7366 0156 488B8558 		movq	-424(%rbp), %rax
 7366      FEFFFF
 7367 015d 488B10   		movq	(%rax), %rdx
 7368 0160 8B857CFE 		movl	-388(%rbp), %eax
 7368      FFFF
 7369 0166 4898     		cltq
 7370 0168 4801D0   		addq	%rdx, %rax
 7371 016b 0FB600   		movzbl	(%rax), %eax
 7372 016e 0FB6D0   		movzbl	%al, %edx
 7373 0171 488D8580 		leaq	-384(%rbp), %rax
 7373      FEFFFF
 7374 0178 89D6     		movl	%edx, %esi
 7375 017a 4889C7   		movq	%rax, %rdi
 7376 017d E8000000 		call	_ZStlsISt11char_traitsIcEERSt13basic_ostreamIcT_ES5_h
 7376      00
 7377 0182 BE000000 		movl	$.LC80, %esi
 7377      00
 7378 0187 4889C7   		movq	%rax, %rdi
 7379 018a E8000000 		call	_ZStlsISt11char_traitsIcEERSt13basic_ostreamIcT_ES5_PKc
 7379      00
  77:/home/asoreyh/Dropbox/projects/lago/lago-software/acqua/brc/lago/makestuff/libs/libutpp/Checks.h ****             stream << actual[actualIndex] << " ";
 7380              		.loc 5 77 0 discriminator 2
 7381 018f 83857CFE 		addl	$1, -388(%rbp)
 7381      FFFF01
 7382              	.L378:
  77:/home/asoreyh/Dropbox/projects/lago/lago-software/acqua/brc/lago/makestuff/libs/libutpp/Checks.h ****             stream << actual[actualIndex] << " ";
 7383              		.loc 5 77 0 is_stmt 0 discriminator 1
 7384 0196 8B857CFE 		movl	-388(%rbp), %eax
 7384      FFFF
 7385 019c 3B8554FE 		cmpl	-428(%rbp), %eax
 7385      FFFF
 7386 01a2 7CB2     		jl	.L379
 7387              	.LBE69:
  79:/home/asoreyh/Dropbox/projects/lago/lago-software/acqua/brc/lago/makestuff/libs/libutpp/Checks.h **** 
  80:/home/asoreyh/Dropbox/projects/lago/lago-software/acqua/brc/lago/makestuff/libs/libutpp/Checks.h **** 		stream << "]";
 7388              		.loc 5 80 0 is_stmt 1
 7389 01a4 488D8580 		leaq	-384(%rbp), %rax
 7389      FEFFFF
 7390 01ab BE000000 		movl	$.LC82, %esi
 7390      00
 7391 01b0 4889C7   		movq	%rax, %rdi
 7392 01b3 E8000000 		call	_ZStlsISt11char_traitsIcEERSt13basic_ostreamIcT_ES5_PKc
 7392      00
  81:/home/asoreyh/Dropbox/projects/lago/lago-software/acqua/brc/lago/makestuff/libs/libutpp/Checks.h **** 
  82:/home/asoreyh/Dropbox/projects/lago/lago-software/acqua/brc/lago/makestuff/libs/libutpp/Checks.h ****         results.OnTestFailure(details, stream.GetText());
 7393              		.loc 5 82 0
 7394 01b8 488D8580 		leaq	-384(%rbp), %rax
 7394      FEFFFF
 7395 01bf 4889C7   		movq	%rax, %rdi
 7396 01c2 E8000000 		call	_ZNK8UnitTest15MemoryOutStream7GetTextEv
 7396      00
 7397 01c7 4889C2   		movq	%rax, %rdx
 7398 01ca 488B8D48 		movq	-440(%rbp), %rcx
 7398      FEFFFF
 7399 01d1 488B8568 		movq	-408(%rbp), %rax
 7399      FEFFFF
 7400 01d8 4889CE   		movq	%rcx, %rsi
 7401 01db 4889C7   		movq	%rax, %rdi
 7402 01de E8000000 		call	_ZN8UnitTest11TestResults13OnTestFailureERKNS_11TestDetailsEPKc
 7402      00
 7403              	.LEHE275:
 7404              		.loc 5 82 0 is_stmt 0 discriminator 4
 7405 01e3 488D8580 		leaq	-384(%rbp), %rax
 7405      FEFFFF
 7406 01ea 4889C7   		movq	%rax, %rdi
 7407              	.LEHB276:
 7408 01ed E8000000 		call	_ZN8UnitTest15MemoryOutStreamD1Ev
 7408      00
 7409              	.LEHE276:
 7410              	.L375:
 7411              	.LBE67:
 7412              	.LBE66:
 7413              	.LBE64:
  83:/home/asoreyh/Dropbox/projects/lago/lago-software/acqua/brc/lago/makestuff/libs/libutpp/Checks.h ****     }
  84:/home/asoreyh/Dropbox/projects/lago/lago-software/acqua/brc/lago/makestuff/libs/libutpp/Checks.h **** }
 7414              		.loc 5 84 0 is_stmt 1
 7415 01f2 488B45E8 		movq	-24(%rbp), %rax
 7416 01f6 64483304 		xorq	%fs:40, %rax
 7416      25280000 
 7416      00
 7417 01ff 7424     		je	.L381
 7418 0201 EB1D     		jmp	.L383
 7419              	.L382:
 7420 0203 4889C3   		movq	%rax, %rbx
 7421              	.LBB72:
 7422              	.LBB71:
 7423              	.LBB70:
  82:/home/asoreyh/Dropbox/projects/lago/lago-software/acqua/brc/lago/makestuff/libs/libutpp/Checks.h ****     }
 7424              		.loc 5 82 0
 7425 0206 488D8580 		leaq	-384(%rbp), %rax
 7425      FEFFFF
 7426 020d 4889C7   		movq	%rax, %rdi
 7427 0210 E8000000 		call	_ZN8UnitTest15MemoryOutStreamD1Ev
 7427      00
 7428 0215 4889D8   		movq	%rbx, %rax
 7429 0218 4889C7   		movq	%rax, %rdi
 7430              	.LEHB277:
 7431 021b E8000000 		call	_Unwind_Resume
 7431      00
 7432              	.LEHE277:
 7433              	.L383:
 7434              	.LBE70:
 7435              	.LBE71:
 7436              	.LBE72:
 7437              		.loc 5 84 0
 7438 0220 E8000000 		call	__stack_chk_fail
 7438      00
 7439              	.L381:
 7440 0225 4881C4B8 		addq	$440, %rsp
 7440      010000
 7441 022c 5B       		popq	%rbx
 7442 022d 5D       		popq	%rbp
 7443              		.cfi_def_cfa 7, 8
 7444 022e C3       		ret
 7445              		.cfi_endproc
 7446              	.LFE1221:
 7447              		.section	.gcc_except_table
 7448              	.LLSDA1221:
 7449 065f FF       		.byte	0xff
 7450 0660 FF       		.byte	0xff
 7451 0661 01       		.byte	0x1
 7452 0662 16       		.uleb128 .LLSDACSE1221-.LLSDACSB1221
 7453              	.LLSDACSB1221:
 7454 0663 C801     		.uleb128 .LEHB274-.LFB1221
 7455 0665 05       		.uleb128 .LEHE274-.LEHB274
 7456 0666 00       		.uleb128 0
 7457 0667 00       		.uleb128 0
 7458 0668 DC01     		.uleb128 .LEHB275-.LFB1221
 7459 066a 8702     		.uleb128 .LEHE275-.LEHB275
 7460 066c 8304     		.uleb128 .L382-.LFB1221
 7461 066e 00       		.uleb128 0
 7462 066f ED03     		.uleb128 .LEHB276-.LFB1221
 7463 0671 05       		.uleb128 .LEHE276-.LEHB276
 7464 0672 00       		.uleb128 0
 7465 0673 00       		.uleb128 0
 7466 0674 9B04     		.uleb128 .LEHB277-.LFB1221
 7467 0676 05       		.uleb128 .LEHE277-.LEHB277
 7468 0677 00       		.uleb128 0
 7469 0678 00       		.uleb128 0
 7470              	.LLSDACSE1221:
 7471              		.section	.text._ZN8UnitTest15CheckArrayEqualIA4_hPhEEvRNS_11TestResultsERKT_RKT0_iRKNS_11TestDetai
 7473              		.section	.text._ZNSt4fposI11__mbstate_tEC2Ev,"axG",@progbits,_ZNSt4fposI11__mbstate_tEC5Ev,comdat
 7474              		.align 2
 7475              		.weak	_ZNSt4fposI11__mbstate_tEC2Ev
 7477              	_ZNSt4fposI11__mbstate_tEC2Ev:
 7478              	.LFB1232:
 7479              		.file 6 "/usr/include/c++/4.9/bits/postypes.h"
   1:/usr/include/c++/4.9/bits/postypes.h **** // Position types -*- C++ -*-
   2:/usr/include/c++/4.9/bits/postypes.h **** 
   3:/usr/include/c++/4.9/bits/postypes.h **** // Copyright (C) 1997-2014 Free Software Foundation, Inc.
   4:/usr/include/c++/4.9/bits/postypes.h **** //
   5:/usr/include/c++/4.9/bits/postypes.h **** // This file is part of the GNU ISO C++ Library.  This library is free
   6:/usr/include/c++/4.9/bits/postypes.h **** // software; you can redistribute it and/or modify it under the
   7:/usr/include/c++/4.9/bits/postypes.h **** // terms of the GNU General Public License as published by the
   8:/usr/include/c++/4.9/bits/postypes.h **** // Free Software Foundation; either version 3, or (at your option)
   9:/usr/include/c++/4.9/bits/postypes.h **** // any later version.
  10:/usr/include/c++/4.9/bits/postypes.h **** 
  11:/usr/include/c++/4.9/bits/postypes.h **** // This library is distributed in the hope that it will be useful,
  12:/usr/include/c++/4.9/bits/postypes.h **** // but WITHOUT ANY WARRANTY; without even the implied warranty of
  13:/usr/include/c++/4.9/bits/postypes.h **** // MERCHANTABILITY or FITNESS FOR A PARTICULAR PURPOSE.  See the
  14:/usr/include/c++/4.9/bits/postypes.h **** // GNU General Public License for more details.
  15:/usr/include/c++/4.9/bits/postypes.h **** 
  16:/usr/include/c++/4.9/bits/postypes.h **** // Under Section 7 of GPL version 3, you are granted additional
  17:/usr/include/c++/4.9/bits/postypes.h **** // permissions described in the GCC Runtime Library Exception, version
  18:/usr/include/c++/4.9/bits/postypes.h **** // 3.1, as published by the Free Software Foundation.
  19:/usr/include/c++/4.9/bits/postypes.h **** 
  20:/usr/include/c++/4.9/bits/postypes.h **** // You should have received a copy of the GNU General Public License and
  21:/usr/include/c++/4.9/bits/postypes.h **** // a copy of the GCC Runtime Library Exception along with this program;
  22:/usr/include/c++/4.9/bits/postypes.h **** // see the files COPYING3 and COPYING.RUNTIME respectively.  If not, see
  23:/usr/include/c++/4.9/bits/postypes.h **** // <http://www.gnu.org/licenses/>.
  24:/usr/include/c++/4.9/bits/postypes.h **** 
  25:/usr/include/c++/4.9/bits/postypes.h **** /** @file bits/postypes.h
  26:/usr/include/c++/4.9/bits/postypes.h ****  *  This is an internal header file, included by other library headers.
  27:/usr/include/c++/4.9/bits/postypes.h ****  *  Do not attempt to use it directly. @headername{iosfwd}
  28:/usr/include/c++/4.9/bits/postypes.h ****  */
  29:/usr/include/c++/4.9/bits/postypes.h **** 
  30:/usr/include/c++/4.9/bits/postypes.h **** //
  31:/usr/include/c++/4.9/bits/postypes.h **** // ISO C++ 14882: 27.4.1 - Types
  32:/usr/include/c++/4.9/bits/postypes.h **** // ISO C++ 14882: 27.4.3 - Template class fpos
  33:/usr/include/c++/4.9/bits/postypes.h **** //
  34:/usr/include/c++/4.9/bits/postypes.h **** 
  35:/usr/include/c++/4.9/bits/postypes.h **** #ifndef _GLIBCXX_POSTYPES_H
  36:/usr/include/c++/4.9/bits/postypes.h **** #define _GLIBCXX_POSTYPES_H 1
  37:/usr/include/c++/4.9/bits/postypes.h **** 
  38:/usr/include/c++/4.9/bits/postypes.h **** #pragma GCC system_header
  39:/usr/include/c++/4.9/bits/postypes.h **** 
  40:/usr/include/c++/4.9/bits/postypes.h **** #include <cwchar> // For mbstate_t
  41:/usr/include/c++/4.9/bits/postypes.h **** 
  42:/usr/include/c++/4.9/bits/postypes.h **** // XXX If <stdint.h> is really needed, make sure to define the macros
  43:/usr/include/c++/4.9/bits/postypes.h **** // before including it, in order not to break <tr1/cstdint> (and <cstdint>
  44:/usr/include/c++/4.9/bits/postypes.h **** // in C++0x).  Reconsider all this as soon as possible...
  45:/usr/include/c++/4.9/bits/postypes.h **** #if (defined(_GLIBCXX_HAVE_INT64_T) && !defined(_GLIBCXX_HAVE_INT64_T_LONG) \
  46:/usr/include/c++/4.9/bits/postypes.h ****      && !defined(_GLIBCXX_HAVE_INT64_T_LONG_LONG))
  47:/usr/include/c++/4.9/bits/postypes.h **** 
  48:/usr/include/c++/4.9/bits/postypes.h **** #ifndef __STDC_LIMIT_MACROS
  49:/usr/include/c++/4.9/bits/postypes.h **** # define _UNDEF__STDC_LIMIT_MACROS
  50:/usr/include/c++/4.9/bits/postypes.h **** # define __STDC_LIMIT_MACROS
  51:/usr/include/c++/4.9/bits/postypes.h **** #endif
  52:/usr/include/c++/4.9/bits/postypes.h **** #ifndef __STDC_CONSTANT_MACROS
  53:/usr/include/c++/4.9/bits/postypes.h **** # define _UNDEF__STDC_CONSTANT_MACROS
  54:/usr/include/c++/4.9/bits/postypes.h **** # define __STDC_CONSTANT_MACROS
  55:/usr/include/c++/4.9/bits/postypes.h **** #endif
  56:/usr/include/c++/4.9/bits/postypes.h **** #include <stdint.h> // For int64_t
  57:/usr/include/c++/4.9/bits/postypes.h **** #ifdef _UNDEF__STDC_LIMIT_MACROS
  58:/usr/include/c++/4.9/bits/postypes.h **** # undef __STDC_LIMIT_MACROS
  59:/usr/include/c++/4.9/bits/postypes.h **** # undef _UNDEF__STDC_LIMIT_MACROS
  60:/usr/include/c++/4.9/bits/postypes.h **** #endif
  61:/usr/include/c++/4.9/bits/postypes.h **** #ifdef _UNDEF__STDC_CONSTANT_MACROS
  62:/usr/include/c++/4.9/bits/postypes.h **** # undef __STDC_CONSTANT_MACROS
  63:/usr/include/c++/4.9/bits/postypes.h **** # undef _UNDEF__STDC_CONSTANT_MACROS
  64:/usr/include/c++/4.9/bits/postypes.h **** #endif
  65:/usr/include/c++/4.9/bits/postypes.h **** 
  66:/usr/include/c++/4.9/bits/postypes.h **** #endif
  67:/usr/include/c++/4.9/bits/postypes.h **** 
  68:/usr/include/c++/4.9/bits/postypes.h **** namespace std _GLIBCXX_VISIBILITY(default)
  69:/usr/include/c++/4.9/bits/postypes.h **** {
  70:/usr/include/c++/4.9/bits/postypes.h **** _GLIBCXX_BEGIN_NAMESPACE_VERSION
  71:/usr/include/c++/4.9/bits/postypes.h **** 
  72:/usr/include/c++/4.9/bits/postypes.h ****   // The types streamoff, streampos and wstreampos and the class
  73:/usr/include/c++/4.9/bits/postypes.h ****   // template fpos<> are described in clauses 21.1.2, 21.1.3, 27.1.2,
  74:/usr/include/c++/4.9/bits/postypes.h ****   // 27.2, 27.4.1, 27.4.3 and D.6. Despite all this verbiage, the
  75:/usr/include/c++/4.9/bits/postypes.h ****   // behaviour of these types is mostly implementation defined or
  76:/usr/include/c++/4.9/bits/postypes.h ****   // unspecified. The behaviour in this implementation is as noted
  77:/usr/include/c++/4.9/bits/postypes.h ****   // below.
  78:/usr/include/c++/4.9/bits/postypes.h **** 
  79:/usr/include/c++/4.9/bits/postypes.h ****   /**
  80:/usr/include/c++/4.9/bits/postypes.h ****    *  @brief  Type used by fpos, char_traits<char>, and char_traits<wchar_t>.
  81:/usr/include/c++/4.9/bits/postypes.h ****    *
  82:/usr/include/c++/4.9/bits/postypes.h ****    *  In clauses 21.1.3.1 and 27.4.1 streamoff is described as an
  83:/usr/include/c++/4.9/bits/postypes.h ****    *  implementation defined type.
  84:/usr/include/c++/4.9/bits/postypes.h ****    *  Note: In versions of GCC up to and including GCC 3.3, streamoff
  85:/usr/include/c++/4.9/bits/postypes.h ****    *  was typedef long.
  86:/usr/include/c++/4.9/bits/postypes.h ****   */  
  87:/usr/include/c++/4.9/bits/postypes.h **** #ifdef _GLIBCXX_HAVE_INT64_T_LONG
  88:/usr/include/c++/4.9/bits/postypes.h ****   typedef long          streamoff;
  89:/usr/include/c++/4.9/bits/postypes.h **** #elif defined(_GLIBCXX_HAVE_INT64_T_LONG_LONG)
  90:/usr/include/c++/4.9/bits/postypes.h ****   typedef long long     streamoff;
  91:/usr/include/c++/4.9/bits/postypes.h **** #elif defined(_GLIBCXX_HAVE_INT64_T) 
  92:/usr/include/c++/4.9/bits/postypes.h ****   typedef int64_t       streamoff;
  93:/usr/include/c++/4.9/bits/postypes.h **** #else
  94:/usr/include/c++/4.9/bits/postypes.h ****   typedef long long     streamoff;
  95:/usr/include/c++/4.9/bits/postypes.h **** #endif
  96:/usr/include/c++/4.9/bits/postypes.h **** 
  97:/usr/include/c++/4.9/bits/postypes.h ****   /// Integral type for I/O operation counts and buffer sizes.
  98:/usr/include/c++/4.9/bits/postypes.h ****   typedef ptrdiff_t	streamsize; // Signed integral type
  99:/usr/include/c++/4.9/bits/postypes.h **** 
 100:/usr/include/c++/4.9/bits/postypes.h ****   /**
 101:/usr/include/c++/4.9/bits/postypes.h ****    *  @brief  Class representing stream positions.
 102:/usr/include/c++/4.9/bits/postypes.h ****    *
 103:/usr/include/c++/4.9/bits/postypes.h ****    *  The standard places no requirements upon the template parameter StateT.
 104:/usr/include/c++/4.9/bits/postypes.h ****    *  In this implementation StateT must be DefaultConstructible,
 105:/usr/include/c++/4.9/bits/postypes.h ****    *  CopyConstructible and Assignable.  The standard only requires that fpos
 106:/usr/include/c++/4.9/bits/postypes.h ****    *  should contain a member of type StateT. In this implementation it also
 107:/usr/include/c++/4.9/bits/postypes.h ****    *  contains an offset stored as a signed integer.
 108:/usr/include/c++/4.9/bits/postypes.h ****    *
 109:/usr/include/c++/4.9/bits/postypes.h ****    *  @param  StateT  Type passed to and returned from state().
 110:/usr/include/c++/4.9/bits/postypes.h ****    */
 111:/usr/include/c++/4.9/bits/postypes.h ****   template<typename _StateT>
 112:/usr/include/c++/4.9/bits/postypes.h ****     class fpos
 113:/usr/include/c++/4.9/bits/postypes.h ****     {
 114:/usr/include/c++/4.9/bits/postypes.h ****     private:
 115:/usr/include/c++/4.9/bits/postypes.h ****       streamoff	                _M_off;
 116:/usr/include/c++/4.9/bits/postypes.h ****       _StateT			_M_state;
 117:/usr/include/c++/4.9/bits/postypes.h **** 
 118:/usr/include/c++/4.9/bits/postypes.h ****     public:
 119:/usr/include/c++/4.9/bits/postypes.h ****       // The standard doesn't require that fpos objects can be default
 120:/usr/include/c++/4.9/bits/postypes.h ****       // constructed. This implementation provides a default
 121:/usr/include/c++/4.9/bits/postypes.h ****       // constructor that initializes the offset to 0 and default
 122:/usr/include/c++/4.9/bits/postypes.h ****       // constructs the state.
 123:/usr/include/c++/4.9/bits/postypes.h ****       fpos()
 7480              		.loc 6 123 0
 7481              		.cfi_startproc
 7482 0000 55       		pushq	%rbp
 7483              		.cfi_def_cfa_offset 16
 7484              		.cfi_offset 6, -16
 7485 0001 4889E5   		movq	%rsp, %rbp
 7486              		.cfi_def_cfa_register 6
 7487 0004 48897DF8 		movq	%rdi, -8(%rbp)
 7488              	.LBB73:
 124:/usr/include/c++/4.9/bits/postypes.h ****       : _M_off(0), _M_state() { }
 7489              		.loc 6 124 0
 7490 0008 488B45F8 		movq	-8(%rbp), %rax
 7491 000c 48C70000 		movq	$0, (%rax)
 7491      000000
 7492 0013 488B45F8 		movq	-8(%rbp), %rax
 7493 0017 C7400800 		movl	$0, 8(%rax)
 7493      000000
 7494 001e 488B45F8 		movq	-8(%rbp), %rax
 7495 0022 C7400C00 		movl	$0, 12(%rax)
 7495      000000
 7496              	.LBE73:
 7497 0029 5D       		popq	%rbp
 7498              		.cfi_def_cfa 7, 8
 7499 002a C3       		ret
 7500              		.cfi_endproc
 7501              	.LFE1232:
 7503              		.weak	_ZNSt4fposI11__mbstate_tEC1Ev
 7504              		.set	_ZNSt4fposI11__mbstate_tEC1Ev,_ZNSt4fposI11__mbstate_tEC2Ev
 7505              		.section	.text._ZN8UnitTest5CheckIbEEbT_,"axG",@progbits,_ZN8UnitTest5CheckIbEEbT_,comdat
 7506              		.weak	_ZN8UnitTest5CheckIbEEbT_
 7508              	_ZN8UnitTest5CheckIbEEbT_:
 7509              	.LFB1236:
  12:/home/asoreyh/Dropbox/projects/lago/lago-software/acqua/brc/lago/makestuff/libs/libutpp/Checks.h **** {
 7510              		.loc 5 12 0
 7511              		.cfi_startproc
 7512 0000 55       		pushq	%rbp
 7513              		.cfi_def_cfa_offset 16
 7514              		.cfi_offset 6, -16
 7515 0001 4889E5   		movq	%rsp, %rbp
 7516              		.cfi_def_cfa_register 6
 7517 0004 89F8     		movl	%edi, %eax
 7518 0006 8845FC   		movb	%al, -4(%rbp)
  14:/home/asoreyh/Dropbox/projects/lago/lago-software/acqua/brc/lago/makestuff/libs/libutpp/Checks.h **** }
 7519              		.loc 5 14 0
 7520 0009 0FB645FC 		movzbl	-4(%rbp), %eax
  15:/home/asoreyh/Dropbox/projects/lago/lago-software/acqua/brc/lago/makestuff/libs/libutpp/Checks.h **** 
 7521              		.loc 5 15 0
 7522 000d 5D       		popq	%rbp
 7523              		.cfi_def_cfa 7, 8
 7524 000e C3       		ret
 7525              		.cfi_endproc
 7526              	.LFE1236:
 7528              		.section	.text._ZNKSt4fposI11__mbstate_tEcvlEv,"axG",@progbits,_ZNKSt4fposI11__mbstate_tEcvlEv,com
 7529              		.align 2
 7530              		.weak	_ZNKSt4fposI11__mbstate_tEcvlEv
 7532              	_ZNKSt4fposI11__mbstate_tEcvlEv:
 7533              	.LFB1238:
 125:/usr/include/c++/4.9/bits/postypes.h **** 
 126:/usr/include/c++/4.9/bits/postypes.h ****       // The standard requires that fpos objects can be constructed
 127:/usr/include/c++/4.9/bits/postypes.h ****       // from streamoff objects using the constructor syntax, and
 128:/usr/include/c++/4.9/bits/postypes.h ****       // fails to give any meaningful semantics. In this
 129:/usr/include/c++/4.9/bits/postypes.h ****       // implementation implicit conversion is also allowed, and this
 130:/usr/include/c++/4.9/bits/postypes.h ****       // constructor stores the streamoff as the offset and default
 131:/usr/include/c++/4.9/bits/postypes.h ****       // constructs the state.
 132:/usr/include/c++/4.9/bits/postypes.h ****       /// Construct position from offset.
 133:/usr/include/c++/4.9/bits/postypes.h ****       fpos(streamoff __off)
 134:/usr/include/c++/4.9/bits/postypes.h ****       : _M_off(__off), _M_state() { }
 135:/usr/include/c++/4.9/bits/postypes.h **** 
 136:/usr/include/c++/4.9/bits/postypes.h ****       /// Convert to streamoff.
 137:/usr/include/c++/4.9/bits/postypes.h ****       operator streamoff() const { return _M_off; }
 7534              		.loc 6 137 0
 7535              		.cfi_startproc
 7536 0000 55       		pushq	%rbp
 7537              		.cfi_def_cfa_offset 16
 7538              		.cfi_offset 6, -16
 7539 0001 4889E5   		movq	%rsp, %rbp
 7540              		.cfi_def_cfa_register 6
 7541 0004 48897DF8 		movq	%rdi, -8(%rbp)
 7542              		.loc 6 137 0
 7543 0008 488B45F8 		movq	-8(%rbp), %rax
 7544 000c 488B00   		movq	(%rax), %rax
 7545 000f 5D       		popq	%rbp
 7546              		.cfi_def_cfa 7, 8
 7547 0010 C3       		ret
 7548              		.cfi_endproc
 7549              	.LFE1238:
 7551              		.section	.text._ZN8UnitTest15CheckArrayEqualIPKcS2_EEvRNS_11TestResultsERKT_RKT0_iRKNS_11TestDetai
 7552              		.weak	_ZN8UnitTest15CheckArrayEqualIPKcS2_EEvRNS_11TestResultsERKT_RKT0_iRKNS_11TestDetailsE
 7554              	_ZN8UnitTest15CheckArrayEqualIPKcS2_EEvRNS_11TestResultsERKT_RKT0_iRKNS_11TestDetailsE:
 7555              	.LFB1241:
  59:/home/asoreyh/Dropbox/projects/lago/lago-software/acqua/brc/lago/makestuff/libs/libutpp/Checks.h ****                 int const count, TestDetails const& details)
 7556              		.loc 5 59 0
 7557              		.cfi_startproc
 7558              		.cfi_personality 0x3,__gxx_personality_v0
 7559              		.cfi_lsda 0x3,.LLSDA1241
 7560 0000 55       		pushq	%rbp
 7561              		.cfi_def_cfa_offset 16
 7562              		.cfi_offset 6, -16
 7563 0001 4889E5   		movq	%rsp, %rbp
 7564              		.cfi_def_cfa_register 6
 7565 0004 53       		pushq	%rbx
 7566 0005 4881ECB8 		subq	$440, %rsp
 7566      010000
 7567              		.cfi_offset 3, -24
 7568 000c 4889BD68 		movq	%rdi, -408(%rbp)
 7568      FEFFFF
 7569 0013 4889B560 		movq	%rsi, -416(%rbp)
 7569      FEFFFF
 7570 001a 48899558 		movq	%rdx, -424(%rbp)
 7570      FEFFFF
 7571 0021 898D54FE 		movl	%ecx, -428(%rbp)
 7571      FFFF
 7572 0027 4C898548 		movq	%r8, -440(%rbp)
 7572      FEFFFF
  59:/home/asoreyh/Dropbox/projects/lago/lago-software/acqua/brc/lago/makestuff/libs/libutpp/Checks.h ****                 int const count, TestDetails const& details)
 7573              		.loc 5 59 0
 7574 002e 64488B04 		movq	%fs:40, %rax
 7574      25280000 
 7574      00
 7575 0037 488945E8 		movq	%rax, -24(%rbp)
 7576 003b 31C0     		xorl	%eax, %eax
 7577              	.LBB74:
  62:/home/asoreyh/Dropbox/projects/lago/lago-software/acqua/brc/lago/makestuff/libs/libutpp/Checks.h ****     for (int i = 0; i < count; ++i)
 7578              		.loc 5 62 0
 7579 003d C68573FE 		movb	$1, -397(%rbp)
 7579      FFFF01
 7580              	.LBB75:
  63:/home/asoreyh/Dropbox/projects/lago/lago-software/acqua/brc/lago/makestuff/libs/libutpp/Checks.h ****         equal &= (expected[i] == actual[i]);
 7581              		.loc 5 63 0
 7582 0044 C78574FE 		movl	$0, -396(%rbp)
 7582      FFFF0000 
 7582      0000
 7583 004e EB53     		jmp	.L390
 7584              	.L391:
  64:/home/asoreyh/Dropbox/projects/lago/lago-software/acqua/brc/lago/makestuff/libs/libutpp/Checks.h **** 
 7585              		.loc 5 64 0 discriminator 3
 7586 0050 0FB69573 		movzbl	-397(%rbp), %edx
 7586      FEFFFF
 7587 0057 488B8560 		movq	-416(%rbp), %rax
 7587      FEFFFF
 7588 005e 488B08   		movq	(%rax), %rcx
 7589 0061 8B8574FE 		movl	-396(%rbp), %eax
 7589      FFFF
 7590 0067 4898     		cltq
 7591 0069 4801C8   		addq	%rcx, %rax
 7592 006c 0FB608   		movzbl	(%rax), %ecx
 7593 006f 488B8558 		movq	-424(%rbp), %rax
 7593      FEFFFF
 7594 0076 488B30   		movq	(%rax), %rsi
 7595 0079 8B8574FE 		movl	-396(%rbp), %eax
 7595      FFFF
 7596 007f 4898     		cltq
 7597 0081 4801F0   		addq	%rsi, %rax
 7598 0084 0FB600   		movzbl	(%rax), %eax
 7599 0087 38C1     		cmpb	%al, %cl
 7600 0089 0F94C0   		sete	%al
 7601 008c 0FB6C0   		movzbl	%al, %eax
 7602 008f 21D0     		andl	%edx, %eax
 7603 0091 85C0     		testl	%eax, %eax
 7604 0093 0F95C0   		setne	%al
 7605 0096 888573FE 		movb	%al, -397(%rbp)
 7605      FFFF
  63:/home/asoreyh/Dropbox/projects/lago/lago-software/acqua/brc/lago/makestuff/libs/libutpp/Checks.h ****         equal &= (expected[i] == actual[i]);
 7606              		.loc 5 63 0 discriminator 3
 7607 009c 838574FE 		addl	$1, -396(%rbp)
 7607      FFFF01
 7608              	.L390:
  63:/home/asoreyh/Dropbox/projects/lago/lago-software/acqua/brc/lago/makestuff/libs/libutpp/Checks.h ****         equal &= (expected[i] == actual[i]);
 7609              		.loc 5 63 0 is_stmt 0 discriminator 1
 7610 00a3 8B8574FE 		movl	-396(%rbp), %eax
 7610      FFFF
 7611 00a9 3B8554FE 		cmpl	-428(%rbp), %eax
 7611      FFFF
 7612 00af 7C9F     		jl	.L391
 7613              	.LBE75:
 7614              	.LBB76:
  66:/home/asoreyh/Dropbox/projects/lago/lago-software/acqua/brc/lago/makestuff/libs/libutpp/Checks.h ****     {
 7615              		.loc 5 66 0 is_stmt 1
 7616 00b1 0FB68573 		movzbl	-397(%rbp), %eax
 7616      FEFFFF
 7617 00b8 83F001   		xorl	$1, %eax
 7618 00bb 84C0     		testb	%al, %al
 7619 00bd 0F843901 		je	.L392
 7619      0000
 7620              	.LBB77:
  68:/home/asoreyh/Dropbox/projects/lago/lago-software/acqua/brc/lago/makestuff/libs/libutpp/Checks.h **** 
 7621              		.loc 5 68 0
 7622 00c3 488D8580 		leaq	-384(%rbp), %rax
 7622      FEFFFF
 7623 00ca 4889C7   		movq	%rax, %rdi
 7624              	.LEHB278:
 7625 00cd E8000000 		call	_ZN8UnitTest15MemoryOutStreamC1Ev
 7625      00
 7626              	.LEHE278:
  70:/home/asoreyh/Dropbox/projects/lago/lago-software/acqua/brc/lago/makestuff/libs/libutpp/Checks.h **** 
 7627              		.loc 5 70 0
 7628 00d2 488D8580 		leaq	-384(%rbp), %rax
 7628      FEFFFF
 7629 00d9 BE000000 		movl	$.LC79, %esi
 7629      00
 7630 00de 4889C7   		movq	%rax, %rdi
 7631              	.LEHB279:
 7632 00e1 E8000000 		call	_ZStlsISt11char_traitsIcEERSt13basic_ostreamIcT_ES5_PKc
 7632      00
 7633              	.LBB78:
  72:/home/asoreyh/Dropbox/projects/lago/lago-software/acqua/brc/lago/makestuff/libs/libutpp/Checks.h ****             stream << expected[expectedIndex] << " ";
 7634              		.loc 5 72 0
 7635 00e6 C78578FE 		movl	$0, -392(%rbp)
 7635      FFFF0000 
 7635      0000
 7636 00f0 EB40     		jmp	.L393
 7637              	.L394:
  73:/home/asoreyh/Dropbox/projects/lago/lago-software/acqua/brc/lago/makestuff/libs/libutpp/Checks.h **** 
 7638              		.loc 5 73 0
 7639 00f2 488B8560 		movq	-416(%rbp), %rax
 7639      FEFFFF
 7640 00f9 488B10   		movq	(%rax), %rdx
 7641 00fc 8B8578FE 		movl	-392(%rbp), %eax
 7641      FFFF
 7642 0102 4898     		cltq
 7643 0104 4801D0   		addq	%rdx, %rax
 7644 0107 0FB600   		movzbl	(%rax), %eax
 7645 010a 0FBED0   		movsbl	%al, %edx
 7646 010d 488D8580 		leaq	-384(%rbp), %rax
 7646      FEFFFF
 7647 0114 89D6     		movl	%edx, %esi
 7648 0116 4889C7   		movq	%rax, %rdi
 7649 0119 E8000000 		call	_ZStlsISt11char_traitsIcEERSt13basic_ostreamIcT_ES5_c
 7649      00
 7650 011e BE000000 		movl	$.LC80, %esi
 7650      00
 7651 0123 4889C7   		movq	%rax, %rdi
 7652 0126 E8000000 		call	_ZStlsISt11char_traitsIcEERSt13basic_ostreamIcT_ES5_PKc
 7652      00
  72:/home/asoreyh/Dropbox/projects/lago/lago-software/acqua/brc/lago/makestuff/libs/libutpp/Checks.h ****             stream << expected[expectedIndex] << " ";
 7653              		.loc 5 72 0 discriminator 2
 7654 012b 838578FE 		addl	$1, -392(%rbp)
 7654      FFFF01
 7655              	.L393:
  72:/home/asoreyh/Dropbox/projects/lago/lago-software/acqua/brc/lago/makestuff/libs/libutpp/Checks.h ****             stream << expected[expectedIndex] << " ";
 7656              		.loc 5 72 0 is_stmt 0 discriminator 1
 7657 0132 8B8578FE 		movl	-392(%rbp), %eax
 7657      FFFF
 7658 0138 3B8554FE 		cmpl	-428(%rbp), %eax
 7658      FFFF
 7659 013e 7CB2     		jl	.L394
 7660              	.LBE78:
  75:/home/asoreyh/Dropbox/projects/lago/lago-software/acqua/brc/lago/makestuff/libs/libutpp/Checks.h **** 
 7661              		.loc 5 75 0 is_stmt 1
 7662 0140 488D8580 		leaq	-384(%rbp), %rax
 7662      FEFFFF
 7663 0147 BE000000 		movl	$.LC81, %esi
 7663      00
 7664 014c 4889C7   		movq	%rax, %rdi
 7665 014f E8000000 		call	_ZStlsISt11char_traitsIcEERSt13basic_ostreamIcT_ES5_PKc
 7665      00
 7666              	.LBB79:
  77:/home/asoreyh/Dropbox/projects/lago/lago-software/acqua/brc/lago/makestuff/libs/libutpp/Checks.h ****             stream << actual[actualIndex] << " ";
 7667              		.loc 5 77 0
 7668 0154 C7857CFE 		movl	$0, -388(%rbp)
 7668      FFFF0000 
 7668      0000
 7669 015e EB40     		jmp	.L395
 7670              	.L396:
  78:/home/asoreyh/Dropbox/projects/lago/lago-software/acqua/brc/lago/makestuff/libs/libutpp/Checks.h **** 
 7671              		.loc 5 78 0
 7672 0160 488B8558 		movq	-424(%rbp), %rax
 7672      FEFFFF
 7673 0167 488B10   		movq	(%rax), %rdx
 7674 016a 8B857CFE 		movl	-388(%rbp), %eax
 7674      FFFF
 7675 0170 4898     		cltq
 7676 0172 4801D0   		addq	%rdx, %rax
 7677 0175 0FB600   		movzbl	(%rax), %eax
 7678 0178 0FBED0   		movsbl	%al, %edx
 7679 017b 488D8580 		leaq	-384(%rbp), %rax
 7679      FEFFFF
 7680 0182 89D6     		movl	%edx, %esi
 7681 0184 4889C7   		movq	%rax, %rdi
 7682 0187 E8000000 		call	_ZStlsISt11char_traitsIcEERSt13basic_ostreamIcT_ES5_c
 7682      00
 7683 018c BE000000 		movl	$.LC80, %esi
 7683      00
 7684 0191 4889C7   		movq	%rax, %rdi
 7685 0194 E8000000 		call	_ZStlsISt11char_traitsIcEERSt13basic_ostreamIcT_ES5_PKc
 7685      00
  77:/home/asoreyh/Dropbox/projects/lago/lago-software/acqua/brc/lago/makestuff/libs/libutpp/Checks.h ****             stream << actual[actualIndex] << " ";
 7686              		.loc 5 77 0 discriminator 2
 7687 0199 83857CFE 		addl	$1, -388(%rbp)
 7687      FFFF01
 7688              	.L395:
  77:/home/asoreyh/Dropbox/projects/lago/lago-software/acqua/brc/lago/makestuff/libs/libutpp/Checks.h ****             stream << actual[actualIndex] << " ";
 7689              		.loc 5 77 0 is_stmt 0 discriminator 1
 7690 01a0 8B857CFE 		movl	-388(%rbp), %eax
 7690      FFFF
 7691 01a6 3B8554FE 		cmpl	-428(%rbp), %eax
 7691      FFFF
 7692 01ac 7CB2     		jl	.L396
 7693              	.LBE79:
  80:/home/asoreyh/Dropbox/projects/lago/lago-software/acqua/brc/lago/makestuff/libs/libutpp/Checks.h **** 
 7694              		.loc 5 80 0 is_stmt 1
 7695 01ae 488D8580 		leaq	-384(%rbp), %rax
 7695      FEFFFF
 7696 01b5 BE000000 		movl	$.LC82, %esi
 7696      00
 7697 01ba 4889C7   		movq	%rax, %rdi
 7698 01bd E8000000 		call	_ZStlsISt11char_traitsIcEERSt13basic_ostreamIcT_ES5_PKc
 7698      00
  82:/home/asoreyh/Dropbox/projects/lago/lago-software/acqua/brc/lago/makestuff/libs/libutpp/Checks.h ****     }
 7699              		.loc 5 82 0
 7700 01c2 488D8580 		leaq	-384(%rbp), %rax
 7700      FEFFFF
 7701 01c9 4889C7   		movq	%rax, %rdi
 7702 01cc E8000000 		call	_ZNK8UnitTest15MemoryOutStream7GetTextEv
 7702      00
 7703 01d1 4889C2   		movq	%rax, %rdx
 7704 01d4 488B8D48 		movq	-440(%rbp), %rcx
 7704      FEFFFF
 7705 01db 488B8568 		movq	-408(%rbp), %rax
 7705      FEFFFF
 7706 01e2 4889CE   		movq	%rcx, %rsi
 7707 01e5 4889C7   		movq	%rax, %rdi
 7708 01e8 E8000000 		call	_ZN8UnitTest11TestResults13OnTestFailureERKNS_11TestDetailsEPKc
 7708      00
 7709              	.LEHE279:
  82:/home/asoreyh/Dropbox/projects/lago/lago-software/acqua/brc/lago/makestuff/libs/libutpp/Checks.h ****     }
 7710              		.loc 5 82 0 is_stmt 0 discriminator 4
 7711 01ed 488D8580 		leaq	-384(%rbp), %rax
 7711      FEFFFF
 7712 01f4 4889C7   		movq	%rax, %rdi
 7713              	.LEHB280:
 7714 01f7 E8000000 		call	_ZN8UnitTest15MemoryOutStreamD1Ev
 7714      00
 7715              	.LEHE280:
 7716              	.L392:
 7717              	.LBE77:
 7718              	.LBE76:
 7719              	.LBE74:
 7720              		.loc 5 84 0 is_stmt 1
 7721 01fc 488B45E8 		movq	-24(%rbp), %rax
 7722 0200 64483304 		xorq	%fs:40, %rax
 7722      25280000 
 7722      00
 7723 0209 7424     		je	.L398
 7724 020b EB1D     		jmp	.L400
 7725              	.L399:
 7726 020d 4889C3   		movq	%rax, %rbx
 7727              	.LBB82:
 7728              	.LBB81:
 7729              	.LBB80:
  82:/home/asoreyh/Dropbox/projects/lago/lago-software/acqua/brc/lago/makestuff/libs/libutpp/Checks.h ****     }
 7730              		.loc 5 82 0
 7731 0210 488D8580 		leaq	-384(%rbp), %rax
 7731      FEFFFF
 7732 0217 4889C7   		movq	%rax, %rdi
 7733 021a E8000000 		call	_ZN8UnitTest15MemoryOutStreamD1Ev
 7733      00
 7734 021f 4889D8   		movq	%rbx, %rax
 7735 0222 4889C7   		movq	%rax, %rdi
 7736              	.LEHB281:
 7737 0225 E8000000 		call	_Unwind_Resume
 7737      00
 7738              	.LEHE281:
 7739              	.L400:
 7740              	.LBE80:
 7741              	.LBE81:
 7742              	.LBE82:
 7743              		.loc 5 84 0
 7744 022a E8000000 		call	__stack_chk_fail
 7744      00
 7745              	.L398:
 7746 022f 4881C4B8 		addq	$440, %rsp
 7746      010000
 7747 0236 5B       		popq	%rbx
 7748 0237 5D       		popq	%rbp
 7749              		.cfi_def_cfa 7, 8
 7750 0238 C3       		ret
 7751              		.cfi_endproc
 7752              	.LFE1241:
 7753              		.section	.gcc_except_table
 7754              	.LLSDA1241:
 7755 0679 FF       		.byte	0xff
 7756 067a FF       		.byte	0xff
 7757 067b 01       		.byte	0x1
 7758 067c 16       		.uleb128 .LLSDACSE1241-.LLSDACSB1241
 7759              	.LLSDACSB1241:
 7760 067d CD01     		.uleb128 .LEHB278-.LFB1241
 7761 067f 05       		.uleb128 .LEHE278-.LEHB278
 7762 0680 00       		.uleb128 0
 7763 0681 00       		.uleb128 0
 7764 0682 E101     		.uleb128 .LEHB279-.LFB1241
 7765 0684 8C02     		.uleb128 .LEHE279-.LEHB279
 7766 0686 8D04     		.uleb128 .L399-.LFB1241
 7767 0688 00       		.uleb128 0
 7768 0689 F703     		.uleb128 .LEHB280-.LFB1241
 7769 068b 05       		.uleb128 .LEHE280-.LEHB280
 7770 068c 00       		.uleb128 0
 7771 068d 00       		.uleb128 0
 7772 068e A504     		.uleb128 .LEHB281-.LFB1241
 7773 0690 05       		.uleb128 .LEHE281-.LEHB281
 7774 0691 00       		.uleb128 0
 7775 0692 00       		.uleb128 0
 7776              	.LLSDACSE1241:
 7777              		.section	.text._ZN8UnitTest15CheckArrayEqualIPKcS2_EEvRNS_11TestResultsERKT_RKT0_iRKNS_11TestDetai
 7779              		.section	.text._ZN8UnitTest10CheckEqualIjjEEvRNS_11TestResultsERKT_RKT0_RKNS_11TestDetailsE,"axG",
 7780              		.weak	_ZN8UnitTest10CheckEqualIjjEEvRNS_11TestResultsERKT_RKT0_RKNS_11TestDetailsE
 7782              	_ZN8UnitTest10CheckEqualIjjEEvRNS_11TestResultsERKT_RKT0_RKNS_11TestDetailsE:
 7783              	.LFB1242:
  19:/home/asoreyh/Dropbox/projects/lago/lago-software/acqua/brc/lago/makestuff/libs/libutpp/Checks.h **** {
 7784              		.loc 5 19 0
 7785              		.cfi_startproc
 7786              		.cfi_personality 0x3,__gxx_personality_v0
 7787              		.cfi_lsda 0x3,.LLSDA1242
 7788 0000 55       		pushq	%rbp
 7789              		.cfi_def_cfa_offset 16
 7790              		.cfi_offset 6, -16
 7791 0001 4889E5   		movq	%rsp, %rbp
 7792              		.cfi_def_cfa_register 6
 7793 0004 4154     		pushq	%r12
 7794 0006 53       		pushq	%rbx
 7795 0007 4881EC90 		subq	$400, %rsp
 7795      010000
 7796              		.cfi_offset 12, -24
 7797              		.cfi_offset 3, -32
 7798 000e 4889BD78 		movq	%rdi, -392(%rbp)
 7798      FEFFFF
 7799 0015 4889B570 		movq	%rsi, -400(%rbp)
 7799      FEFFFF
 7800 001c 48899568 		movq	%rdx, -408(%rbp)
 7800      FEFFFF
 7801 0023 48898D60 		movq	%rcx, -416(%rbp)
 7801      FEFFFF
  19:/home/asoreyh/Dropbox/projects/lago/lago-software/acqua/brc/lago/makestuff/libs/libutpp/Checks.h **** {
 7802              		.loc 5 19 0
 7803 002a 64488B04 		movq	%fs:40, %rax
 7803      25280000 
 7803      00
 7804 0033 488945E8 		movq	%rax, -24(%rbp)
 7805 0037 31C0     		xorl	%eax, %eax
 7806              	.LBB83:
 7807              	.LBB84:
  21:/home/asoreyh/Dropbox/projects/lago/lago-software/acqua/brc/lago/makestuff/libs/libutpp/Checks.h ****     {
 7808              		.loc 5 21 0
 7809 0039 488B8570 		movq	-400(%rbp), %rax
 7809      FEFFFF
 7810 0040 8B10     		movl	(%rax), %edx
 7811 0042 488B8568 		movq	-408(%rbp), %rax
 7811      FEFFFF
 7812 0049 8B00     		movl	(%rax), %eax
 7813 004b 39C2     		cmpl	%eax, %edx
 7814 004d 0F849200 		je	.L402
 7814      0000
 7815              	.LBB85:
  23:/home/asoreyh/Dropbox/projects/lago/lago-software/acqua/brc/lago/makestuff/libs/libutpp/Checks.h ****         stream << "Expected " << expected << " but was " << actual;
 7816              		.loc 5 23 0
 7817 0053 488D8580 		leaq	-384(%rbp), %rax
 7817      FEFFFF
 7818 005a 4889C7   		movq	%rax, %rdi
 7819              	.LEHB282:
 7820 005d E8000000 		call	_ZN8UnitTest15MemoryOutStreamC1Ev
 7820      00
 7821              	.LEHE282:
  24:/home/asoreyh/Dropbox/projects/lago/lago-software/acqua/brc/lago/makestuff/libs/libutpp/Checks.h **** 
 7822              		.loc 5 24 0
 7823 0062 488B8568 		movq	-408(%rbp), %rax
 7823      FEFFFF
 7824 0069 8B18     		movl	(%rax), %ebx
 7825 006b 488B8570 		movq	-400(%rbp), %rax
 7825      FEFFFF
 7826 0072 448B20   		movl	(%rax), %r12d
 7827 0075 488D8580 		leaq	-384(%rbp), %rax
 7827      FEFFFF
 7828 007c BE000000 		movl	$.LC77, %esi
 7828      00
 7829 0081 4889C7   		movq	%rax, %rdi
 7830              	.LEHB283:
 7831 0084 E8000000 		call	_ZStlsISt11char_traitsIcEERSt13basic_ostreamIcT_ES5_PKc
 7831      00
 7832 0089 4489E6   		movl	%r12d, %esi
 7833 008c 4889C7   		movq	%rax, %rdi
 7834 008f E8000000 		call	_ZNSolsEj
 7834      00
  24:/home/asoreyh/Dropbox/projects/lago/lago-software/acqua/brc/lago/makestuff/libs/libutpp/Checks.h **** 
 7835              		.loc 5 24 0 is_stmt 0 discriminator 1
 7836 0094 BE000000 		movl	$.LC78, %esi
 7836      00
 7837 0099 4889C7   		movq	%rax, %rdi
 7838 009c E8000000 		call	_ZStlsISt11char_traitsIcEERSt13basic_ostreamIcT_ES5_PKc
 7838      00
  24:/home/asoreyh/Dropbox/projects/lago/lago-software/acqua/brc/lago/makestuff/libs/libutpp/Checks.h **** 
 7839              		.loc 5 24 0 discriminator 2
 7840 00a1 89DE     		movl	%ebx, %esi
 7841 00a3 4889C7   		movq	%rax, %rdi
 7842 00a6 E8000000 		call	_ZNSolsEj
 7842      00
  26:/home/asoreyh/Dropbox/projects/lago/lago-software/acqua/brc/lago/makestuff/libs/libutpp/Checks.h ****     }
 7843              		.loc 5 26 0 is_stmt 1
 7844 00ab 488D8580 		leaq	-384(%rbp), %rax
 7844      FEFFFF
 7845 00b2 4889C7   		movq	%rax, %rdi
 7846 00b5 E8000000 		call	_ZNK8UnitTest15MemoryOutStream7GetTextEv
 7846      00
 7847 00ba 4889C2   		movq	%rax, %rdx
 7848 00bd 488B8D60 		movq	-416(%rbp), %rcx
 7848      FEFFFF
 7849 00c4 488B8578 		movq	-392(%rbp), %rax
 7849      FEFFFF
 7850 00cb 4889CE   		movq	%rcx, %rsi
 7851 00ce 4889C7   		movq	%rax, %rdi
 7852 00d1 E8000000 		call	_ZN8UnitTest11TestResults13OnTestFailureERKNS_11TestDetailsEPKc
 7852      00
 7853              	.LEHE283:
  26:/home/asoreyh/Dropbox/projects/lago/lago-software/acqua/brc/lago/makestuff/libs/libutpp/Checks.h ****     }
 7854              		.loc 5 26 0 is_stmt 0 discriminator 4
 7855 00d6 488D8580 		leaq	-384(%rbp), %rax
 7855      FEFFFF
 7856 00dd 4889C7   		movq	%rax, %rdi
 7857              	.LEHB284:
 7858 00e0 E8000000 		call	_ZN8UnitTest15MemoryOutStreamD1Ev
 7858      00
 7859              	.LEHE284:
 7860              	.L402:
 7861              	.LBE85:
 7862              	.LBE84:
 7863              	.LBE83:
  28:/home/asoreyh/Dropbox/projects/lago/lago-software/acqua/brc/lago/makestuff/libs/libutpp/Checks.h **** 
 7864              		.loc 5 28 0 is_stmt 1
 7865 00e5 488B45E8 		movq	-24(%rbp), %rax
 7866 00e9 64483304 		xorq	%fs:40, %rax
 7866      25280000 
 7866      00
 7867 00f2 7424     		je	.L404
 7868 00f4 EB1D     		jmp	.L406
 7869              	.L405:
 7870 00f6 4889C3   		movq	%rax, %rbx
 7871              	.LBB88:
 7872              	.LBB87:
 7873              	.LBB86:
  26:/home/asoreyh/Dropbox/projects/lago/lago-software/acqua/brc/lago/makestuff/libs/libutpp/Checks.h ****     }
 7874              		.loc 5 26 0
 7875 00f9 488D8580 		leaq	-384(%rbp), %rax
 7875      FEFFFF
 7876 0100 4889C7   		movq	%rax, %rdi
 7877 0103 E8000000 		call	_ZN8UnitTest15MemoryOutStreamD1Ev
 7877      00
 7878 0108 4889D8   		movq	%rbx, %rax
 7879 010b 4889C7   		movq	%rax, %rdi
 7880              	.LEHB285:
 7881 010e E8000000 		call	_Unwind_Resume
 7881      00
 7882              	.LEHE285:
 7883              	.L406:
 7884              	.LBE86:
 7885              	.LBE87:
 7886              	.LBE88:
  28:/home/asoreyh/Dropbox/projects/lago/lago-software/acqua/brc/lago/makestuff/libs/libutpp/Checks.h **** 
 7887              		.loc 5 28 0
 7888 0113 E8000000 		call	__stack_chk_fail
 7888      00
 7889              	.L404:
 7890 0118 4881C490 		addq	$400, %rsp
 7890      010000
 7891 011f 5B       		popq	%rbx
 7892 0120 415C     		popq	%r12
 7893 0122 5D       		popq	%rbp
 7894              		.cfi_def_cfa 7, 8
 7895 0123 C3       		ret
 7896              		.cfi_endproc
 7897              	.LFE1242:
 7898              		.section	.gcc_except_table
 7899              	.LLSDA1242:
 7900 0693 FF       		.byte	0xff
 7901 0694 FF       		.byte	0xff
 7902 0695 01       		.byte	0x1
 7903 0696 14       		.uleb128 .LLSDACSE1242-.LLSDACSB1242
 7904              	.LLSDACSB1242:
 7905 0697 5D       		.uleb128 .LEHB282-.LFB1242
 7906 0698 05       		.uleb128 .LEHE282-.LEHB282
 7907 0699 00       		.uleb128 0
 7908 069a 00       		.uleb128 0
 7909 069b 8401     		.uleb128 .LEHB283-.LFB1242
 7910 069d 52       		.uleb128 .LEHE283-.LEHB283
 7911 069e F601     		.uleb128 .L405-.LFB1242
 7912 06a0 00       		.uleb128 0
 7913 06a1 E001     		.uleb128 .LEHB284-.LFB1242
 7914 06a3 05       		.uleb128 .LEHE284-.LEHB284
 7915 06a4 00       		.uleb128 0
 7916 06a5 00       		.uleb128 0
 7917 06a6 8E02     		.uleb128 .LEHB285-.LFB1242
 7918 06a8 05       		.uleb128 .LEHE285-.LEHB285
 7919 06a9 00       		.uleb128 0
 7920 06aa 00       		.uleb128 0
 7921              	.LLSDACSE1242:
 7922              		.section	.text._ZN8UnitTest10CheckEqualIjjEEvRNS_11TestResultsERKT_RKT0_RKNS_11TestDetailsE,"axG",
 7924              		.section	.text._ZN8UnitTest15CheckArrayEqualIPhS1_EEvRNS_11TestResultsERKT_RKT0_iRKNS_11TestDetail
 7925              		.weak	_ZN8UnitTest15CheckArrayEqualIPhS1_EEvRNS_11TestResultsERKT_RKT0_iRKNS_11TestDetailsE
 7927              	_ZN8UnitTest15CheckArrayEqualIPhS1_EEvRNS_11TestResultsERKT_RKT0_iRKNS_11TestDetailsE:
 7928              	.LFB1243:
  59:/home/asoreyh/Dropbox/projects/lago/lago-software/acqua/brc/lago/makestuff/libs/libutpp/Checks.h ****                 int const count, TestDetails const& details)
 7929              		.loc 5 59 0
 7930              		.cfi_startproc
 7931              		.cfi_personality 0x3,__gxx_personality_v0
 7932              		.cfi_lsda 0x3,.LLSDA1243
 7933 0000 55       		pushq	%rbp
 7934              		.cfi_def_cfa_offset 16
 7935              		.cfi_offset 6, -16
 7936 0001 4889E5   		movq	%rsp, %rbp
 7937              		.cfi_def_cfa_register 6
 7938 0004 53       		pushq	%rbx
 7939 0005 4881ECB8 		subq	$440, %rsp
 7939      010000
 7940              		.cfi_offset 3, -24
 7941 000c 4889BD68 		movq	%rdi, -408(%rbp)
 7941      FEFFFF
 7942 0013 4889B560 		movq	%rsi, -416(%rbp)
 7942      FEFFFF
 7943 001a 48899558 		movq	%rdx, -424(%rbp)
 7943      FEFFFF
 7944 0021 898D54FE 		movl	%ecx, -428(%rbp)
 7944      FFFF
 7945 0027 4C898548 		movq	%r8, -440(%rbp)
 7945      FEFFFF
  59:/home/asoreyh/Dropbox/projects/lago/lago-software/acqua/brc/lago/makestuff/libs/libutpp/Checks.h ****                 int const count, TestDetails const& details)
 7946              		.loc 5 59 0
 7947 002e 64488B04 		movq	%fs:40, %rax
 7947      25280000 
 7947      00
 7948 0037 488945E8 		movq	%rax, -24(%rbp)
 7949 003b 31C0     		xorl	%eax, %eax
 7950              	.LBB89:
  62:/home/asoreyh/Dropbox/projects/lago/lago-software/acqua/brc/lago/makestuff/libs/libutpp/Checks.h ****     for (int i = 0; i < count; ++i)
 7951              		.loc 5 62 0
 7952 003d C68573FE 		movb	$1, -397(%rbp)
 7952      FFFF01
 7953              	.LBB90:
  63:/home/asoreyh/Dropbox/projects/lago/lago-software/acqua/brc/lago/makestuff/libs/libutpp/Checks.h ****         equal &= (expected[i] == actual[i]);
 7954              		.loc 5 63 0
 7955 0044 C78574FE 		movl	$0, -396(%rbp)
 7955      FFFF0000 
 7955      0000
 7956 004e EB53     		jmp	.L408
 7957              	.L409:
  64:/home/asoreyh/Dropbox/projects/lago/lago-software/acqua/brc/lago/makestuff/libs/libutpp/Checks.h **** 
 7958              		.loc 5 64 0 discriminator 3
 7959 0050 0FB69573 		movzbl	-397(%rbp), %edx
 7959      FEFFFF
 7960 0057 488B8560 		movq	-416(%rbp), %rax
 7960      FEFFFF
 7961 005e 488B08   		movq	(%rax), %rcx
 7962 0061 8B8574FE 		movl	-396(%rbp), %eax
 7962      FFFF
 7963 0067 4898     		cltq
 7964 0069 4801C8   		addq	%rcx, %rax
 7965 006c 0FB608   		movzbl	(%rax), %ecx
 7966 006f 488B8558 		movq	-424(%rbp), %rax
 7966      FEFFFF
 7967 0076 488B30   		movq	(%rax), %rsi
 7968 0079 8B8574FE 		movl	-396(%rbp), %eax
 7968      FFFF
 7969 007f 4898     		cltq
 7970 0081 4801F0   		addq	%rsi, %rax
 7971 0084 0FB600   		movzbl	(%rax), %eax
 7972 0087 38C1     		cmpb	%al, %cl
 7973 0089 0F94C0   		sete	%al
 7974 008c 0FB6C0   		movzbl	%al, %eax
 7975 008f 21D0     		andl	%edx, %eax
 7976 0091 85C0     		testl	%eax, %eax
 7977 0093 0F95C0   		setne	%al
 7978 0096 888573FE 		movb	%al, -397(%rbp)
 7978      FFFF
  63:/home/asoreyh/Dropbox/projects/lago/lago-software/acqua/brc/lago/makestuff/libs/libutpp/Checks.h ****         equal &= (expected[i] == actual[i]);
 7979              		.loc 5 63 0 discriminator 3
 7980 009c 838574FE 		addl	$1, -396(%rbp)
 7980      FFFF01
 7981              	.L408:
  63:/home/asoreyh/Dropbox/projects/lago/lago-software/acqua/brc/lago/makestuff/libs/libutpp/Checks.h ****         equal &= (expected[i] == actual[i]);
 7982              		.loc 5 63 0 is_stmt 0 discriminator 1
 7983 00a3 8B8574FE 		movl	-396(%rbp), %eax
 7983      FFFF
 7984 00a9 3B8554FE 		cmpl	-428(%rbp), %eax
 7984      FFFF
 7985 00af 7C9F     		jl	.L409
 7986              	.LBE90:
 7987              	.LBB91:
  66:/home/asoreyh/Dropbox/projects/lago/lago-software/acqua/brc/lago/makestuff/libs/libutpp/Checks.h ****     {
 7988              		.loc 5 66 0 is_stmt 1
 7989 00b1 0FB68573 		movzbl	-397(%rbp), %eax
 7989      FEFFFF
 7990 00b8 83F001   		xorl	$1, %eax
 7991 00bb 84C0     		testb	%al, %al
 7992 00bd 0F843901 		je	.L410
 7992      0000
 7993              	.LBB92:
  68:/home/asoreyh/Dropbox/projects/lago/lago-software/acqua/brc/lago/makestuff/libs/libutpp/Checks.h **** 
 7994              		.loc 5 68 0
 7995 00c3 488D8580 		leaq	-384(%rbp), %rax
 7995      FEFFFF
 7996 00ca 4889C7   		movq	%rax, %rdi
 7997              	.LEHB286:
 7998 00cd E8000000 		call	_ZN8UnitTest15MemoryOutStreamC1Ev
 7998      00
 7999              	.LEHE286:
  70:/home/asoreyh/Dropbox/projects/lago/lago-software/acqua/brc/lago/makestuff/libs/libutpp/Checks.h **** 
 8000              		.loc 5 70 0
 8001 00d2 488D8580 		leaq	-384(%rbp), %rax
 8001      FEFFFF
 8002 00d9 BE000000 		movl	$.LC79, %esi
 8002      00
 8003 00de 4889C7   		movq	%rax, %rdi
 8004              	.LEHB287:
 8005 00e1 E8000000 		call	_ZStlsISt11char_traitsIcEERSt13basic_ostreamIcT_ES5_PKc
 8005      00
 8006              	.LBB93:
  72:/home/asoreyh/Dropbox/projects/lago/lago-software/acqua/brc/lago/makestuff/libs/libutpp/Checks.h ****             stream << expected[expectedIndex] << " ";
 8007              		.loc 5 72 0
 8008 00e6 C78578FE 		movl	$0, -392(%rbp)
 8008      FFFF0000 
 8008      0000
 8009 00f0 EB40     		jmp	.L411
 8010              	.L412:
  73:/home/asoreyh/Dropbox/projects/lago/lago-software/acqua/brc/lago/makestuff/libs/libutpp/Checks.h **** 
 8011              		.loc 5 73 0
 8012 00f2 488B8560 		movq	-416(%rbp), %rax
 8012      FEFFFF
 8013 00f9 488B10   		movq	(%rax), %rdx
 8014 00fc 8B8578FE 		movl	-392(%rbp), %eax
 8014      FFFF
 8015 0102 4898     		cltq
 8016 0104 4801D0   		addq	%rdx, %rax
 8017 0107 0FB600   		movzbl	(%rax), %eax
 8018 010a 0FB6D0   		movzbl	%al, %edx
 8019 010d 488D8580 		leaq	-384(%rbp), %rax
 8019      FEFFFF
 8020 0114 89D6     		movl	%edx, %esi
 8021 0116 4889C7   		movq	%rax, %rdi
 8022 0119 E8000000 		call	_ZStlsISt11char_traitsIcEERSt13basic_ostreamIcT_ES5_h
 8022      00
 8023 011e BE000000 		movl	$.LC80, %esi
 8023      00
 8024 0123 4889C7   		movq	%rax, %rdi
 8025 0126 E8000000 		call	_ZStlsISt11char_traitsIcEERSt13basic_ostreamIcT_ES5_PKc
 8025      00
  72:/home/asoreyh/Dropbox/projects/lago/lago-software/acqua/brc/lago/makestuff/libs/libutpp/Checks.h ****             stream << expected[expectedIndex] << " ";
 8026              		.loc 5 72 0 discriminator 2
 8027 012b 838578FE 		addl	$1, -392(%rbp)
 8027      FFFF01
 8028              	.L411:
  72:/home/asoreyh/Dropbox/projects/lago/lago-software/acqua/brc/lago/makestuff/libs/libutpp/Checks.h ****             stream << expected[expectedIndex] << " ";
 8029              		.loc 5 72 0 is_stmt 0 discriminator 1
 8030 0132 8B8578FE 		movl	-392(%rbp), %eax
 8030      FFFF
 8031 0138 3B8554FE 		cmpl	-428(%rbp), %eax
 8031      FFFF
 8032 013e 7CB2     		jl	.L412
 8033              	.LBE93:
  75:/home/asoreyh/Dropbox/projects/lago/lago-software/acqua/brc/lago/makestuff/libs/libutpp/Checks.h **** 
 8034              		.loc 5 75 0 is_stmt 1
 8035 0140 488D8580 		leaq	-384(%rbp), %rax
 8035      FEFFFF
 8036 0147 BE000000 		movl	$.LC81, %esi
 8036      00
 8037 014c 4889C7   		movq	%rax, %rdi
 8038 014f E8000000 		call	_ZStlsISt11char_traitsIcEERSt13basic_ostreamIcT_ES5_PKc
 8038      00
 8039              	.LBB94:
  77:/home/asoreyh/Dropbox/projects/lago/lago-software/acqua/brc/lago/makestuff/libs/libutpp/Checks.h ****             stream << actual[actualIndex] << " ";
 8040              		.loc 5 77 0
 8041 0154 C7857CFE 		movl	$0, -388(%rbp)
 8041      FFFF0000 
 8041      0000
 8042 015e EB40     		jmp	.L413
 8043              	.L414:
  78:/home/asoreyh/Dropbox/projects/lago/lago-software/acqua/brc/lago/makestuff/libs/libutpp/Checks.h **** 
 8044              		.loc 5 78 0
 8045 0160 488B8558 		movq	-424(%rbp), %rax
 8045      FEFFFF
 8046 0167 488B10   		movq	(%rax), %rdx
 8047 016a 8B857CFE 		movl	-388(%rbp), %eax
 8047      FFFF
 8048 0170 4898     		cltq
 8049 0172 4801D0   		addq	%rdx, %rax
 8050 0175 0FB600   		movzbl	(%rax), %eax
 8051 0178 0FB6D0   		movzbl	%al, %edx
 8052 017b 488D8580 		leaq	-384(%rbp), %rax
 8052      FEFFFF
 8053 0182 89D6     		movl	%edx, %esi
 8054 0184 4889C7   		movq	%rax, %rdi
 8055 0187 E8000000 		call	_ZStlsISt11char_traitsIcEERSt13basic_ostreamIcT_ES5_h
 8055      00
 8056 018c BE000000 		movl	$.LC80, %esi
 8056      00
 8057 0191 4889C7   		movq	%rax, %rdi
 8058 0194 E8000000 		call	_ZStlsISt11char_traitsIcEERSt13basic_ostreamIcT_ES5_PKc
 8058      00
  77:/home/asoreyh/Dropbox/projects/lago/lago-software/acqua/brc/lago/makestuff/libs/libutpp/Checks.h ****             stream << actual[actualIndex] << " ";
 8059              		.loc 5 77 0 discriminator 2
 8060 0199 83857CFE 		addl	$1, -388(%rbp)
 8060      FFFF01
 8061              	.L413:
  77:/home/asoreyh/Dropbox/projects/lago/lago-software/acqua/brc/lago/makestuff/libs/libutpp/Checks.h ****             stream << actual[actualIndex] << " ";
 8062              		.loc 5 77 0 is_stmt 0 discriminator 1
 8063 01a0 8B857CFE 		movl	-388(%rbp), %eax
 8063      FFFF
 8064 01a6 3B8554FE 		cmpl	-428(%rbp), %eax
 8064      FFFF
 8065 01ac 7CB2     		jl	.L414
 8066              	.LBE94:
  80:/home/asoreyh/Dropbox/projects/lago/lago-software/acqua/brc/lago/makestuff/libs/libutpp/Checks.h **** 
 8067              		.loc 5 80 0 is_stmt 1
 8068 01ae 488D8580 		leaq	-384(%rbp), %rax
 8068      FEFFFF
 8069 01b5 BE000000 		movl	$.LC82, %esi
 8069      00
 8070 01ba 4889C7   		movq	%rax, %rdi
 8071 01bd E8000000 		call	_ZStlsISt11char_traitsIcEERSt13basic_ostreamIcT_ES5_PKc
 8071      00
  82:/home/asoreyh/Dropbox/projects/lago/lago-software/acqua/brc/lago/makestuff/libs/libutpp/Checks.h ****     }
 8072              		.loc 5 82 0
 8073 01c2 488D8580 		leaq	-384(%rbp), %rax
 8073      FEFFFF
 8074 01c9 4889C7   		movq	%rax, %rdi
 8075 01cc E8000000 		call	_ZNK8UnitTest15MemoryOutStream7GetTextEv
 8075      00
 8076 01d1 4889C2   		movq	%rax, %rdx
 8077 01d4 488B8D48 		movq	-440(%rbp), %rcx
 8077      FEFFFF
 8078 01db 488B8568 		movq	-408(%rbp), %rax
 8078      FEFFFF
 8079 01e2 4889CE   		movq	%rcx, %rsi
 8080 01e5 4889C7   		movq	%rax, %rdi
 8081 01e8 E8000000 		call	_ZN8UnitTest11TestResults13OnTestFailureERKNS_11TestDetailsEPKc
 8081      00
 8082              	.LEHE287:
  82:/home/asoreyh/Dropbox/projects/lago/lago-software/acqua/brc/lago/makestuff/libs/libutpp/Checks.h ****     }
 8083              		.loc 5 82 0 is_stmt 0 discriminator 4
 8084 01ed 488D8580 		leaq	-384(%rbp), %rax
 8084      FEFFFF
 8085 01f4 4889C7   		movq	%rax, %rdi
 8086              	.LEHB288:
 8087 01f7 E8000000 		call	_ZN8UnitTest15MemoryOutStreamD1Ev
 8087      00
 8088              	.LEHE288:
 8089              	.L410:
 8090              	.LBE92:
 8091              	.LBE91:
 8092              	.LBE89:
 8093              		.loc 5 84 0 is_stmt 1
 8094 01fc 488B45E8 		movq	-24(%rbp), %rax
 8095 0200 64483304 		xorq	%fs:40, %rax
 8095      25280000 
 8095      00
 8096 0209 7424     		je	.L416
 8097 020b EB1D     		jmp	.L418
 8098              	.L417:
 8099 020d 4889C3   		movq	%rax, %rbx
 8100              	.LBB97:
 8101              	.LBB96:
 8102              	.LBB95:
  82:/home/asoreyh/Dropbox/projects/lago/lago-software/acqua/brc/lago/makestuff/libs/libutpp/Checks.h ****     }
 8103              		.loc 5 82 0
 8104 0210 488D8580 		leaq	-384(%rbp), %rax
 8104      FEFFFF
 8105 0217 4889C7   		movq	%rax, %rdi
 8106 021a E8000000 		call	_ZN8UnitTest15MemoryOutStreamD1Ev
 8106      00
 8107 021f 4889D8   		movq	%rbx, %rax
 8108 0222 4889C7   		movq	%rax, %rdi
 8109              	.LEHB289:
 8110 0225 E8000000 		call	_Unwind_Resume
 8110      00
 8111              	.LEHE289:
 8112              	.L418:
 8113              	.LBE95:
 8114              	.LBE96:
 8115              	.LBE97:
 8116              		.loc 5 84 0
 8117 022a E8000000 		call	__stack_chk_fail
 8117      00
 8118              	.L416:
 8119 022f 4881C4B8 		addq	$440, %rsp
 8119      010000
 8120 0236 5B       		popq	%rbx
 8121 0237 5D       		popq	%rbp
 8122              		.cfi_def_cfa 7, 8
 8123 0238 C3       		ret
 8124              		.cfi_endproc
 8125              	.LFE1243:
 8126              		.section	.gcc_except_table
 8127              	.LLSDA1243:
 8128 06ab FF       		.byte	0xff
 8129 06ac FF       		.byte	0xff
 8130 06ad 01       		.byte	0x1
 8131 06ae 16       		.uleb128 .LLSDACSE1243-.LLSDACSB1243
 8132              	.LLSDACSB1243:
 8133 06af CD01     		.uleb128 .LEHB286-.LFB1243
 8134 06b1 05       		.uleb128 .LEHE286-.LEHB286
 8135 06b2 00       		.uleb128 0
 8136 06b3 00       		.uleb128 0
 8137 06b4 E101     		.uleb128 .LEHB287-.LFB1243
 8138 06b6 8C02     		.uleb128 .LEHE287-.LEHB287
 8139 06b8 8D04     		.uleb128 .L417-.LFB1243
 8140 06ba 00       		.uleb128 0
 8141 06bb F703     		.uleb128 .LEHB288-.LFB1243
 8142 06bd 05       		.uleb128 .LEHE288-.LEHB288
 8143 06be 00       		.uleb128 0
 8144 06bf 00       		.uleb128 0
 8145 06c0 A504     		.uleb128 .LEHB289-.LFB1243
 8146 06c2 05       		.uleb128 .LEHE289-.LEHB289
 8147 06c3 00       		.uleb128 0
 8148 06c4 00       		.uleb128 0
 8149              	.LLSDACSE1243:
 8150              		.section	.text._ZN8UnitTest15CheckArrayEqualIPhS1_EEvRNS_11TestResultsERKT_RKT0_iRKNS_11TestDetail
 8152              		.section	.text._ZN8UnitTest15CheckArrayEqualIPKcPhEEvRNS_11TestResultsERKT_RKT0_iRKNS_11TestDetail
 8153              		.weak	_ZN8UnitTest15CheckArrayEqualIPKcPhEEvRNS_11TestResultsERKT_RKT0_iRKNS_11TestDetailsE
 8155              	_ZN8UnitTest15CheckArrayEqualIPKcPhEEvRNS_11TestResultsERKT_RKT0_iRKNS_11TestDetailsE:
 8156              	.LFB1244:
  59:/home/asoreyh/Dropbox/projects/lago/lago-software/acqua/brc/lago/makestuff/libs/libutpp/Checks.h ****                 int const count, TestDetails const& details)
 8157              		.loc 5 59 0
 8158              		.cfi_startproc
 8159              		.cfi_personality 0x3,__gxx_personality_v0
 8160              		.cfi_lsda 0x3,.LLSDA1244
 8161 0000 55       		pushq	%rbp
 8162              		.cfi_def_cfa_offset 16
 8163              		.cfi_offset 6, -16
 8164 0001 4889E5   		movq	%rsp, %rbp
 8165              		.cfi_def_cfa_register 6
 8166 0004 53       		pushq	%rbx
 8167 0005 4881ECB8 		subq	$440, %rsp
 8167      010000
 8168              		.cfi_offset 3, -24
 8169 000c 4889BD68 		movq	%rdi, -408(%rbp)
 8169      FEFFFF
 8170 0013 4889B560 		movq	%rsi, -416(%rbp)
 8170      FEFFFF
 8171 001a 48899558 		movq	%rdx, -424(%rbp)
 8171      FEFFFF
 8172 0021 898D54FE 		movl	%ecx, -428(%rbp)
 8172      FFFF
 8173 0027 4C898548 		movq	%r8, -440(%rbp)
 8173      FEFFFF
  59:/home/asoreyh/Dropbox/projects/lago/lago-software/acqua/brc/lago/makestuff/libs/libutpp/Checks.h ****                 int const count, TestDetails const& details)
 8174              		.loc 5 59 0
 8175 002e 64488B04 		movq	%fs:40, %rax
 8175      25280000 
 8175      00
 8176 0037 488945E8 		movq	%rax, -24(%rbp)
 8177 003b 31C0     		xorl	%eax, %eax
 8178              	.LBB98:
  62:/home/asoreyh/Dropbox/projects/lago/lago-software/acqua/brc/lago/makestuff/libs/libutpp/Checks.h ****     for (int i = 0; i < count; ++i)
 8179              		.loc 5 62 0
 8180 003d C68573FE 		movb	$1, -397(%rbp)
 8180      FFFF01
 8181              	.LBB99:
  63:/home/asoreyh/Dropbox/projects/lago/lago-software/acqua/brc/lago/makestuff/libs/libutpp/Checks.h ****         equal &= (expected[i] == actual[i]);
 8182              		.loc 5 63 0
 8183 0044 C78574FE 		movl	$0, -396(%rbp)
 8183      FFFF0000 
 8183      0000
 8184 004e EB59     		jmp	.L420
 8185              	.L421:
  64:/home/asoreyh/Dropbox/projects/lago/lago-software/acqua/brc/lago/makestuff/libs/libutpp/Checks.h **** 
 8186              		.loc 5 64 0 discriminator 3
 8187 0050 0FB69573 		movzbl	-397(%rbp), %edx
 8187      FEFFFF
 8188 0057 488B8560 		movq	-416(%rbp), %rax
 8188      FEFFFF
 8189 005e 488B08   		movq	(%rax), %rcx
 8190 0061 8B8574FE 		movl	-396(%rbp), %eax
 8190      FFFF
 8191 0067 4898     		cltq
 8192 0069 4801C8   		addq	%rcx, %rax
 8193 006c 0FB600   		movzbl	(%rax), %eax
 8194 006f 0FBEC8   		movsbl	%al, %ecx
 8195 0072 488B8558 		movq	-424(%rbp), %rax
 8195      FEFFFF
 8196 0079 488B30   		movq	(%rax), %rsi
 8197 007c 8B8574FE 		movl	-396(%rbp), %eax
 8197      FFFF
 8198 0082 4898     		cltq
 8199 0084 4801F0   		addq	%rsi, %rax
 8200 0087 0FB600   		movzbl	(%rax), %eax
 8201 008a 0FB6C0   		movzbl	%al, %eax
 8202 008d 39C1     		cmpl	%eax, %ecx
 8203 008f 0F94C0   		sete	%al
 8204 0092 0FB6C0   		movzbl	%al, %eax
 8205 0095 21D0     		andl	%edx, %eax
 8206 0097 85C0     		testl	%eax, %eax
 8207 0099 0F95C0   		setne	%al
 8208 009c 888573FE 		movb	%al, -397(%rbp)
 8208      FFFF
  63:/home/asoreyh/Dropbox/projects/lago/lago-software/acqua/brc/lago/makestuff/libs/libutpp/Checks.h ****         equal &= (expected[i] == actual[i]);
 8209              		.loc 5 63 0 discriminator 3
 8210 00a2 838574FE 		addl	$1, -396(%rbp)
 8210      FFFF01
 8211              	.L420:
  63:/home/asoreyh/Dropbox/projects/lago/lago-software/acqua/brc/lago/makestuff/libs/libutpp/Checks.h ****         equal &= (expected[i] == actual[i]);
 8212              		.loc 5 63 0 is_stmt 0 discriminator 1
 8213 00a9 8B8574FE 		movl	-396(%rbp), %eax
 8213      FFFF
 8214 00af 3B8554FE 		cmpl	-428(%rbp), %eax
 8214      FFFF
 8215 00b5 7C99     		jl	.L421
 8216              	.LBE99:
 8217              	.LBB100:
  66:/home/asoreyh/Dropbox/projects/lago/lago-software/acqua/brc/lago/makestuff/libs/libutpp/Checks.h ****     {
 8218              		.loc 5 66 0 is_stmt 1
 8219 00b7 0FB68573 		movzbl	-397(%rbp), %eax
 8219      FEFFFF
 8220 00be 83F001   		xorl	$1, %eax
 8221 00c1 84C0     		testb	%al, %al
 8222 00c3 0F843901 		je	.L422
 8222      0000
 8223              	.LBB101:
  68:/home/asoreyh/Dropbox/projects/lago/lago-software/acqua/brc/lago/makestuff/libs/libutpp/Checks.h **** 
 8224              		.loc 5 68 0
 8225 00c9 488D8580 		leaq	-384(%rbp), %rax
 8225      FEFFFF
 8226 00d0 4889C7   		movq	%rax, %rdi
 8227              	.LEHB290:
 8228 00d3 E8000000 		call	_ZN8UnitTest15MemoryOutStreamC1Ev
 8228      00
 8229              	.LEHE290:
  70:/home/asoreyh/Dropbox/projects/lago/lago-software/acqua/brc/lago/makestuff/libs/libutpp/Checks.h **** 
 8230              		.loc 5 70 0
 8231 00d8 488D8580 		leaq	-384(%rbp), %rax
 8231      FEFFFF
 8232 00df BE000000 		movl	$.LC79, %esi
 8232      00
 8233 00e4 4889C7   		movq	%rax, %rdi
 8234              	.LEHB291:
 8235 00e7 E8000000 		call	_ZStlsISt11char_traitsIcEERSt13basic_ostreamIcT_ES5_PKc
 8235      00
 8236              	.LBB102:
  72:/home/asoreyh/Dropbox/projects/lago/lago-software/acqua/brc/lago/makestuff/libs/libutpp/Checks.h ****             stream << expected[expectedIndex] << " ";
 8237              		.loc 5 72 0
 8238 00ec C78578FE 		movl	$0, -392(%rbp)
 8238      FFFF0000 
 8238      0000
 8239 00f6 EB40     		jmp	.L423
 8240              	.L424:
  73:/home/asoreyh/Dropbox/projects/lago/lago-software/acqua/brc/lago/makestuff/libs/libutpp/Checks.h **** 
 8241              		.loc 5 73 0
 8242 00f8 488B8560 		movq	-416(%rbp), %rax
 8242      FEFFFF
 8243 00ff 488B10   		movq	(%rax), %rdx
 8244 0102 8B8578FE 		movl	-392(%rbp), %eax
 8244      FFFF
 8245 0108 4898     		cltq
 8246 010a 4801D0   		addq	%rdx, %rax
 8247 010d 0FB600   		movzbl	(%rax), %eax
 8248 0110 0FBED0   		movsbl	%al, %edx
 8249 0113 488D8580 		leaq	-384(%rbp), %rax
 8249      FEFFFF
 8250 011a 89D6     		movl	%edx, %esi
 8251 011c 4889C7   		movq	%rax, %rdi
 8252 011f E8000000 		call	_ZStlsISt11char_traitsIcEERSt13basic_ostreamIcT_ES5_c
 8252      00
 8253 0124 BE000000 		movl	$.LC80, %esi
 8253      00
 8254 0129 4889C7   		movq	%rax, %rdi
 8255 012c E8000000 		call	_ZStlsISt11char_traitsIcEERSt13basic_ostreamIcT_ES5_PKc
 8255      00
  72:/home/asoreyh/Dropbox/projects/lago/lago-software/acqua/brc/lago/makestuff/libs/libutpp/Checks.h ****             stream << expected[expectedIndex] << " ";
 8256              		.loc 5 72 0 discriminator 2
 8257 0131 838578FE 		addl	$1, -392(%rbp)
 8257      FFFF01
 8258              	.L423:
  72:/home/asoreyh/Dropbox/projects/lago/lago-software/acqua/brc/lago/makestuff/libs/libutpp/Checks.h ****             stream << expected[expectedIndex] << " ";
 8259              		.loc 5 72 0 is_stmt 0 discriminator 1
 8260 0138 8B8578FE 		movl	-392(%rbp), %eax
 8260      FFFF
 8261 013e 3B8554FE 		cmpl	-428(%rbp), %eax
 8261      FFFF
 8262 0144 7CB2     		jl	.L424
 8263              	.LBE102:
  75:/home/asoreyh/Dropbox/projects/lago/lago-software/acqua/brc/lago/makestuff/libs/libutpp/Checks.h **** 
 8264              		.loc 5 75 0 is_stmt 1
 8265 0146 488D8580 		leaq	-384(%rbp), %rax
 8265      FEFFFF
 8266 014d BE000000 		movl	$.LC81, %esi
 8266      00
 8267 0152 4889C7   		movq	%rax, %rdi
 8268 0155 E8000000 		call	_ZStlsISt11char_traitsIcEERSt13basic_ostreamIcT_ES5_PKc
 8268      00
 8269              	.LBB103:
  77:/home/asoreyh/Dropbox/projects/lago/lago-software/acqua/brc/lago/makestuff/libs/libutpp/Checks.h ****             stream << actual[actualIndex] << " ";
 8270              		.loc 5 77 0
 8271 015a C7857CFE 		movl	$0, -388(%rbp)
 8271      FFFF0000 
 8271      0000
 8272 0164 EB40     		jmp	.L425
 8273              	.L426:
  78:/home/asoreyh/Dropbox/projects/lago/lago-software/acqua/brc/lago/makestuff/libs/libutpp/Checks.h **** 
 8274              		.loc 5 78 0
 8275 0166 488B8558 		movq	-424(%rbp), %rax
 8275      FEFFFF
 8276 016d 488B10   		movq	(%rax), %rdx
 8277 0170 8B857CFE 		movl	-388(%rbp), %eax
 8277      FFFF
 8278 0176 4898     		cltq
 8279 0178 4801D0   		addq	%rdx, %rax
 8280 017b 0FB600   		movzbl	(%rax), %eax
 8281 017e 0FB6D0   		movzbl	%al, %edx
 8282 0181 488D8580 		leaq	-384(%rbp), %rax
 8282      FEFFFF
 8283 0188 89D6     		movl	%edx, %esi
 8284 018a 4889C7   		movq	%rax, %rdi
 8285 018d E8000000 		call	_ZStlsISt11char_traitsIcEERSt13basic_ostreamIcT_ES5_h
 8285      00
 8286 0192 BE000000 		movl	$.LC80, %esi
 8286      00
 8287 0197 4889C7   		movq	%rax, %rdi
 8288 019a E8000000 		call	_ZStlsISt11char_traitsIcEERSt13basic_ostreamIcT_ES5_PKc
 8288      00
  77:/home/asoreyh/Dropbox/projects/lago/lago-software/acqua/brc/lago/makestuff/libs/libutpp/Checks.h ****             stream << actual[actualIndex] << " ";
 8289              		.loc 5 77 0 discriminator 2
 8290 019f 83857CFE 		addl	$1, -388(%rbp)
 8290      FFFF01
 8291              	.L425:
  77:/home/asoreyh/Dropbox/projects/lago/lago-software/acqua/brc/lago/makestuff/libs/libutpp/Checks.h ****             stream << actual[actualIndex] << " ";
 8292              		.loc 5 77 0 is_stmt 0 discriminator 1
 8293 01a6 8B857CFE 		movl	-388(%rbp), %eax
 8293      FFFF
 8294 01ac 3B8554FE 		cmpl	-428(%rbp), %eax
 8294      FFFF
 8295 01b2 7CB2     		jl	.L426
 8296              	.LBE103:
  80:/home/asoreyh/Dropbox/projects/lago/lago-software/acqua/brc/lago/makestuff/libs/libutpp/Checks.h **** 
 8297              		.loc 5 80 0 is_stmt 1
 8298 01b4 488D8580 		leaq	-384(%rbp), %rax
 8298      FEFFFF
 8299 01bb BE000000 		movl	$.LC82, %esi
 8299      00
 8300 01c0 4889C7   		movq	%rax, %rdi
 8301 01c3 E8000000 		call	_ZStlsISt11char_traitsIcEERSt13basic_ostreamIcT_ES5_PKc
 8301      00
  82:/home/asoreyh/Dropbox/projects/lago/lago-software/acqua/brc/lago/makestuff/libs/libutpp/Checks.h ****     }
 8302              		.loc 5 82 0
 8303 01c8 488D8580 		leaq	-384(%rbp), %rax
 8303      FEFFFF
 8304 01cf 4889C7   		movq	%rax, %rdi
 8305 01d2 E8000000 		call	_ZNK8UnitTest15MemoryOutStream7GetTextEv
 8305      00
 8306 01d7 4889C2   		movq	%rax, %rdx
 8307 01da 488B8D48 		movq	-440(%rbp), %rcx
 8307      FEFFFF
 8308 01e1 488B8568 		movq	-408(%rbp), %rax
 8308      FEFFFF
 8309 01e8 4889CE   		movq	%rcx, %rsi
 8310 01eb 4889C7   		movq	%rax, %rdi
 8311 01ee E8000000 		call	_ZN8UnitTest11TestResults13OnTestFailureERKNS_11TestDetailsEPKc
 8311      00
 8312              	.LEHE291:
  82:/home/asoreyh/Dropbox/projects/lago/lago-software/acqua/brc/lago/makestuff/libs/libutpp/Checks.h ****     }
 8313              		.loc 5 82 0 is_stmt 0 discriminator 4
 8314 01f3 488D8580 		leaq	-384(%rbp), %rax
 8314      FEFFFF
 8315 01fa 4889C7   		movq	%rax, %rdi
 8316              	.LEHB292:
 8317 01fd E8000000 		call	_ZN8UnitTest15MemoryOutStreamD1Ev
 8317      00
 8318              	.LEHE292:
 8319              	.L422:
 8320              	.LBE101:
 8321              	.LBE100:
 8322              	.LBE98:
 8323              		.loc 5 84 0 is_stmt 1
 8324 0202 488B45E8 		movq	-24(%rbp), %rax
 8325 0206 64483304 		xorq	%fs:40, %rax
 8325      25280000 
 8325      00
 8326 020f 7424     		je	.L428
 8327 0211 EB1D     		jmp	.L430
 8328              	.L429:
 8329 0213 4889C3   		movq	%rax, %rbx
 8330              	.LBB106:
 8331              	.LBB105:
 8332              	.LBB104:
  82:/home/asoreyh/Dropbox/projects/lago/lago-software/acqua/brc/lago/makestuff/libs/libutpp/Checks.h ****     }
 8333              		.loc 5 82 0
 8334 0216 488D8580 		leaq	-384(%rbp), %rax
 8334      FEFFFF
 8335 021d 4889C7   		movq	%rax, %rdi
 8336 0220 E8000000 		call	_ZN8UnitTest15MemoryOutStreamD1Ev
 8336      00
 8337 0225 4889D8   		movq	%rbx, %rax
 8338 0228 4889C7   		movq	%rax, %rdi
 8339              	.LEHB293:
 8340 022b E8000000 		call	_Unwind_Resume
 8340      00
 8341              	.LEHE293:
 8342              	.L430:
 8343              	.LBE104:
 8344              	.LBE105:
 8345              	.LBE106:
 8346              		.loc 5 84 0
 8347 0230 E8000000 		call	__stack_chk_fail
 8347      00
 8348              	.L428:
 8349 0235 4881C4B8 		addq	$440, %rsp
 8349      010000
 8350 023c 5B       		popq	%rbx
 8351 023d 5D       		popq	%rbp
 8352              		.cfi_def_cfa 7, 8
 8353 023e C3       		ret
 8354              		.cfi_endproc
 8355              	.LFE1244:
 8356              		.section	.gcc_except_table
 8357              	.LLSDA1244:
 8358 06c5 FF       		.byte	0xff
 8359 06c6 FF       		.byte	0xff
 8360 06c7 01       		.byte	0x1
 8361 06c8 16       		.uleb128 .LLSDACSE1244-.LLSDACSB1244
 8362              	.LLSDACSB1244:
 8363 06c9 D301     		.uleb128 .LEHB290-.LFB1244
 8364 06cb 05       		.uleb128 .LEHE290-.LEHB290
 8365 06cc 00       		.uleb128 0
 8366 06cd 00       		.uleb128 0
 8367 06ce E701     		.uleb128 .LEHB291-.LFB1244
 8368 06d0 8C02     		.uleb128 .LEHE291-.LEHB291
 8369 06d2 9304     		.uleb128 .L429-.LFB1244
 8370 06d4 00       		.uleb128 0
 8371 06d5 FD03     		.uleb128 .LEHB292-.LFB1244
 8372 06d7 05       		.uleb128 .LEHE292-.LEHB292
 8373 06d8 00       		.uleb128 0
 8374 06d9 00       		.uleb128 0
 8375 06da AB04     		.uleb128 .LEHB293-.LFB1244
 8376 06dc 05       		.uleb128 .LEHE293-.LEHB293
 8377 06dd 00       		.uleb128 0
 8378 06de 00       		.uleb128 0
 8379              	.LLSDACSE1244:
 8380              		.section	.text._ZN8UnitTest15CheckArrayEqualIPKcPhEEvRNS_11TestResultsERKT_RKT0_iRKNS_11TestDetail
 8382              		.weak	_ZTV28TestHexIO_testDeriveWriteMap
 8383              		.section	.rodata._ZTV28TestHexIO_testDeriveWriteMap,"aG",@progbits,_ZTV28TestHexIO_testDeriveWrite
 8384              		.align 32
 8387              	_ZTV28TestHexIO_testDeriveWriteMap:
 8388 0000 00000000 		.quad	0
 8388      00000000 
 8389 0008 00000000 		.quad	_ZTI28TestHexIO_testDeriveWriteMap
 8389      00000000 
 8390 0010 00000000 		.quad	_ZN28TestHexIO_testDeriveWriteMapD1Ev
 8390      00000000 
 8391 0018 00000000 		.quad	_ZN28TestHexIO_testDeriveWriteMapD0Ev
 8391      00000000 
 8392 0020 00000000 		.quad	_ZNK28TestHexIO_testDeriveWriteMap7RunImplEv
 8392      00000000 
 8393              		.section	.text._ZN28TestHexIO_testDeriveWriteMapD2Ev,"axG",@progbits,_ZN28TestHexIO_testDeriveWrit
 8394              		.align 2
 8395              		.weak	_ZN28TestHexIO_testDeriveWriteMapD2Ev
 8397              	_ZN28TestHexIO_testDeriveWriteMapD2Ev:
 8398              	.LFB1316:
 303:testHexIO.cpp **** 	testDeriveWriteMap("Hello........World", "*****........*****");
 8399              		.loc 4 303 0
 8400              		.cfi_startproc
 8401 0000 55       		pushq	%rbp
 8402              		.cfi_def_cfa_offset 16
 8403              		.cfi_offset 6, -16
 8404 0001 4889E5   		movq	%rsp, %rbp
 8405              		.cfi_def_cfa_register 6
 8406 0004 4883EC10 		subq	$16, %rsp
 8407 0008 48897DF8 		movq	%rdi, -8(%rbp)
 8408              	.LBB107:
 303:testHexIO.cpp **** 	testDeriveWriteMap("Hello........World", "*****........*****");
 8409              		.loc 4 303 0
 8410 000c 488B45F8 		movq	-8(%rbp), %rax
 8411 0010 48C70000 		movq	$_ZTV28TestHexIO_testDeriveWriteMap+16, (%rax)
 8411      000000
 8412 0017 488B45F8 		movq	-8(%rbp), %rax
 8413 001b 4889C7   		movq	%rax, %rdi
 8414 001e E8000000 		call	_ZN8UnitTest4TestD2Ev
 8414      00
 8415              	.LBE107:
 8416 0023 B8000000 		movl	$0, %eax
 8416      00
 8417 0028 85C0     		testl	%eax, %eax
 8418 002a 740C     		je	.L431
 303:testHexIO.cpp **** 	testDeriveWriteMap("Hello........World", "*****........*****");
 8419              		.loc 4 303 0 is_stmt 0 discriminator 4
 8420 002c 488B45F8 		movq	-8(%rbp), %rax
 8421 0030 4889C7   		movq	%rax, %rdi
 8422 0033 E8000000 		call	_ZdlPv
 8422      00
 8423              	.L431:
 303:testHexIO.cpp **** 	testDeriveWriteMap("Hello........World", "*****........*****");
 8424              		.loc 4 303 0
 8425 0038 C9       		leave
 8426              		.cfi_def_cfa 7, 8
 8427 0039 C3       		ret
 8428              		.cfi_endproc
 8429              	.LFE1316:
 8431              		.weak	_ZN28TestHexIO_testDeriveWriteMapD1Ev
 8432              		.set	_ZN28TestHexIO_testDeriveWriteMapD1Ev,_ZN28TestHexIO_testDeriveWriteMapD2Ev
 8433              		.section	.text._ZN28TestHexIO_testDeriveWriteMapD0Ev,"axG",@progbits,_ZN28TestHexIO_testDeriveWrit
 8434              		.align 2
 8435              		.weak	_ZN28TestHexIO_testDeriveWriteMapD0Ev
 8437              	_ZN28TestHexIO_testDeriveWriteMapD0Ev:
 8438              	.LFB1318:
 303:testHexIO.cpp **** 	testDeriveWriteMap("Hello........World", "*****........*****");
 8439              		.loc 4 303 0 is_stmt 1
 8440              		.cfi_startproc
 8441 0000 55       		pushq	%rbp
 8442              		.cfi_def_cfa_offset 16
 8443              		.cfi_offset 6, -16
 8444 0001 4889E5   		movq	%rsp, %rbp
 8445              		.cfi_def_cfa_register 6
 8446 0004 4883EC10 		subq	$16, %rsp
 8447 0008 48897DF8 		movq	%rdi, -8(%rbp)
 303:testHexIO.cpp **** 	testDeriveWriteMap("Hello........World", "*****........*****");
 8448              		.loc 4 303 0
 8449 000c 488B45F8 		movq	-8(%rbp), %rax
 8450 0010 4889C7   		movq	%rax, %rdi
 8451 0013 E8000000 		call	_ZN28TestHexIO_testDeriveWriteMapD1Ev
 8451      00
 8452 0018 488B45F8 		movq	-8(%rbp), %rax
 8453 001c 4889C7   		movq	%rax, %rdi
 8454 001f E8000000 		call	_ZdlPv
 8454      00
 8455 0024 C9       		leave
 8456              		.cfi_def_cfa 7, 8
 8457 0025 C3       		ret
 8458              		.cfi_endproc
 8459              	.LFE1318:
 8461              		.weak	_ZTV23TestHexIO_testRoundTrip
 8462              		.section	.rodata._ZTV23TestHexIO_testRoundTrip,"aG",@progbits,_ZTV23TestHexIO_testRoundTrip,comdat
 8463              		.align 32
 8466              	_ZTV23TestHexIO_testRoundTrip:
 8467 0000 00000000 		.quad	0
 8467      00000000 
 8468 0008 00000000 		.quad	_ZTI23TestHexIO_testRoundTrip
 8468      00000000 
 8469 0010 00000000 		.quad	_ZN23TestHexIO_testRoundTripD1Ev
 8469      00000000 
 8470 0018 00000000 		.quad	_ZN23TestHexIO_testRoundTripD0Ev
 8470      00000000 
 8471 0020 00000000 		.quad	_ZNK23TestHexIO_testRoundTrip7RunImplEv
 8471      00000000 
 8472              		.section	.text._ZN23TestHexIO_testRoundTripD2Ev,"axG",@progbits,_ZN23TestHexIO_testRoundTripD5Ev,c
 8473              		.align 2
 8474              		.weak	_ZN23TestHexIO_testRoundTripD2Ev
 8476              	_ZN23TestHexIO_testRoundTripD2Ev:
 8477              	.LFB1320:
 242:testHexIO.cpp **** 	testRoundTrip(
 8478              		.loc 4 242 0
 8479              		.cfi_startproc
 8480 0000 55       		pushq	%rbp
 8481              		.cfi_def_cfa_offset 16
 8482              		.cfi_offset 6, -16
 8483 0001 4889E5   		movq	%rsp, %rbp
 8484              		.cfi_def_cfa_register 6
 8485 0004 4883EC10 		subq	$16, %rsp
 8486 0008 48897DF8 		movq	%rdi, -8(%rbp)
 8487              	.LBB108:
 242:testHexIO.cpp **** 	testRoundTrip(
 8488              		.loc 4 242 0
 8489 000c 488B45F8 		movq	-8(%rbp), %rax
 8490 0010 48C70000 		movq	$_ZTV23TestHexIO_testRoundTrip+16, (%rax)
 8490      000000
 8491 0017 488B45F8 		movq	-8(%rbp), %rax
 8492 001b 4889C7   		movq	%rax, %rdi
 8493 001e E8000000 		call	_ZN8UnitTest4TestD2Ev
 8493      00
 8494              	.LBE108:
 8495 0023 B8000000 		movl	$0, %eax
 8495      00
 8496 0028 85C0     		testl	%eax, %eax
 8497 002a 740C     		je	.L436
 242:testHexIO.cpp **** 	testRoundTrip(
 8498              		.loc 4 242 0 is_stmt 0 discriminator 4
 8499 002c 488B45F8 		movq	-8(%rbp), %rax
 8500 0030 4889C7   		movq	%rax, %rdi
 8501 0033 E8000000 		call	_ZdlPv
 8501      00
 8502              	.L436:
 242:testHexIO.cpp **** 	testRoundTrip(
 8503              		.loc 4 242 0
 8504 0038 C9       		leave
 8505              		.cfi_def_cfa 7, 8
 8506 0039 C3       		ret
 8507              		.cfi_endproc
 8508              	.LFE1320:
 8510              		.weak	_ZN23TestHexIO_testRoundTripD1Ev
 8511              		.set	_ZN23TestHexIO_testRoundTripD1Ev,_ZN23TestHexIO_testRoundTripD2Ev
 8512              		.section	.text._ZN23TestHexIO_testRoundTripD0Ev,"axG",@progbits,_ZN23TestHexIO_testRoundTripD5Ev,c
 8513              		.align 2
 8514              		.weak	_ZN23TestHexIO_testRoundTripD0Ev
 8516              	_ZN23TestHexIO_testRoundTripD0Ev:
 8517              	.LFB1322:
 242:testHexIO.cpp **** 	testRoundTrip(
 8518              		.loc 4 242 0 is_stmt 1
 8519              		.cfi_startproc
 8520 0000 55       		pushq	%rbp
 8521              		.cfi_def_cfa_offset 16
 8522              		.cfi_offset 6, -16
 8523 0001 4889E5   		movq	%rsp, %rbp
 8524              		.cfi_def_cfa_register 6
 8525 0004 4883EC10 		subq	$16, %rsp
 8526 0008 48897DF8 		movq	%rdi, -8(%rbp)
 242:testHexIO.cpp **** 	testRoundTrip(
 8527              		.loc 4 242 0
 8528 000c 488B45F8 		movq	-8(%rbp), %rax
 8529 0010 4889C7   		movq	%rax, %rdi
 8530 0013 E8000000 		call	_ZN23TestHexIO_testRoundTripD1Ev
 8530      00
 8531 0018 488B45F8 		movq	-8(%rbp), %rax
 8532 001c 4889C7   		movq	%rax, %rdi
 8533 001f E8000000 		call	_ZdlPv
 8533      00
 8534 0024 C9       		leave
 8535              		.cfi_def_cfa 7, 8
 8536 0025 C3       		ret
 8537              		.cfi_endproc
 8538              	.LFE1322:
 8540              		.weak	_ZTV25TestHexIO_testCorruptLine
 8541              		.section	.rodata._ZTV25TestHexIO_testCorruptLine,"aG",@progbits,_ZTV25TestHexIO_testCorruptLine,co
 8542              		.align 32
 8545              	_ZTV25TestHexIO_testCorruptLine:
 8546 0000 00000000 		.quad	0
 8546      00000000 
 8547 0008 00000000 		.quad	_ZTI25TestHexIO_testCorruptLine
 8547      00000000 
 8548 0010 00000000 		.quad	_ZN25TestHexIO_testCorruptLineD1Ev
 8548      00000000 
 8549 0018 00000000 		.quad	_ZN25TestHexIO_testCorruptLineD0Ev
 8549      00000000 
 8550 0020 00000000 		.quad	_ZNK25TestHexIO_testCorruptLine7RunImplEv
 8550      00000000 
 8551              		.section	.text._ZN25TestHexIO_testCorruptLineD2Ev,"axG",@progbits,_ZN25TestHexIO_testCorruptLineD5
 8552              		.align 2
 8553              		.weak	_ZN25TestHexIO_testCorruptLineD2Ev
 8555              	_ZN25TestHexIO_testCorruptLineD2Ev:
 8556              	.LFB1324:
 173:testHexIO.cpp **** 	Buffer data;
 8557              		.loc 4 173 0
 8558              		.cfi_startproc
 8559 0000 55       		pushq	%rbp
 8560              		.cfi_def_cfa_offset 16
 8561              		.cfi_offset 6, -16
 8562 0001 4889E5   		movq	%rsp, %rbp
 8563              		.cfi_def_cfa_register 6
 8564 0004 4883EC10 		subq	$16, %rsp
 8565 0008 48897DF8 		movq	%rdi, -8(%rbp)
 8566              	.LBB109:
 173:testHexIO.cpp **** 	Buffer data;
 8567              		.loc 4 173 0
 8568 000c 488B45F8 		movq	-8(%rbp), %rax
 8569 0010 48C70000 		movq	$_ZTV25TestHexIO_testCorruptLine+16, (%rax)
 8569      000000
 8570 0017 488B45F8 		movq	-8(%rbp), %rax
 8571 001b 4889C7   		movq	%rax, %rdi
 8572 001e E8000000 		call	_ZN8UnitTest4TestD2Ev
 8572      00
 8573              	.LBE109:
 8574 0023 B8000000 		movl	$0, %eax
 8574      00
 8575 0028 85C0     		testl	%eax, %eax
 8576 002a 740C     		je	.L441
 173:testHexIO.cpp **** 	Buffer data;
 8577              		.loc 4 173 0 is_stmt 0 discriminator 4
 8578 002c 488B45F8 		movq	-8(%rbp), %rax
 8579 0030 4889C7   		movq	%rax, %rdi
 8580 0033 E8000000 		call	_ZdlPv
 8580      00
 8581              	.L441:
 173:testHexIO.cpp **** 	Buffer data;
 8582              		.loc 4 173 0
 8583 0038 C9       		leave
 8584              		.cfi_def_cfa 7, 8
 8585 0039 C3       		ret
 8586              		.cfi_endproc
 8587              	.LFE1324:
 8589              		.weak	_ZN25TestHexIO_testCorruptLineD1Ev
 8590              		.set	_ZN25TestHexIO_testCorruptLineD1Ev,_ZN25TestHexIO_testCorruptLineD2Ev
 8591              		.section	.text._ZN25TestHexIO_testCorruptLineD0Ev,"axG",@progbits,_ZN25TestHexIO_testCorruptLineD5
 8592              		.align 2
 8593              		.weak	_ZN25TestHexIO_testCorruptLineD0Ev
 8595              	_ZN25TestHexIO_testCorruptLineD0Ev:
 8596              	.LFB1326:
 173:testHexIO.cpp **** 	Buffer data;
 8597              		.loc 4 173 0 is_stmt 1
 8598              		.cfi_startproc
 8599 0000 55       		pushq	%rbp
 8600              		.cfi_def_cfa_offset 16
 8601              		.cfi_offset 6, -16
 8602 0001 4889E5   		movq	%rsp, %rbp
 8603              		.cfi_def_cfa_register 6
 8604 0004 4883EC10 		subq	$16, %rsp
 8605 0008 48897DF8 		movq	%rdi, -8(%rbp)
 173:testHexIO.cpp **** 	Buffer data;
 8606              		.loc 4 173 0
 8607 000c 488B45F8 		movq	-8(%rbp), %rax
 8608 0010 4889C7   		movq	%rax, %rdi
 8609 0013 E8000000 		call	_ZN25TestHexIO_testCorruptLineD1Ev
 8609      00
 8610 0018 488B45F8 		movq	-8(%rbp), %rax
 8611 001c 4889C7   		movq	%rax, %rdi
 8612 001f E8000000 		call	_ZdlPv
 8612      00
 8613 0024 C9       		leave
 8614              		.cfi_def_cfa 7, 8
 8615 0025 C3       		ret
 8616              		.cfi_endproc
 8617              	.LFE1326:
 8619              		.weak	_ZTV25TestHexIO_testBadChecksum
 8620              		.section	.rodata._ZTV25TestHexIO_testBadChecksum,"aG",@progbits,_ZTV25TestHexIO_testBadChecksum,co
 8621              		.align 32
 8624              	_ZTV25TestHexIO_testBadChecksum:
 8625 0000 00000000 		.quad	0
 8625      00000000 
 8626 0008 00000000 		.quad	_ZTI25TestHexIO_testBadChecksum
 8626      00000000 
 8627 0010 00000000 		.quad	_ZN25TestHexIO_testBadChecksumD1Ev
 8627      00000000 
 8628 0018 00000000 		.quad	_ZN25TestHexIO_testBadChecksumD0Ev
 8628      00000000 
 8629 0020 00000000 		.quad	_ZNK25TestHexIO_testBadChecksum7RunImplEv
 8629      00000000 
 8630              		.section	.text._ZN25TestHexIO_testBadChecksumD2Ev,"axG",@progbits,_ZN25TestHexIO_testBadChecksumD5
 8631              		.align 2
 8632              		.weak	_ZN25TestHexIO_testBadChecksumD2Ev
 8634              	_ZN25TestHexIO_testBadChecksumD2Ev:
 8635              	.LFB1328:
 160:testHexIO.cpp **** 	Buffer data;
 8636              		.loc 4 160 0
 8637              		.cfi_startproc
 8638 0000 55       		pushq	%rbp
 8639              		.cfi_def_cfa_offset 16
 8640              		.cfi_offset 6, -16
 8641 0001 4889E5   		movq	%rsp, %rbp
 8642              		.cfi_def_cfa_register 6
 8643 0004 4883EC10 		subq	$16, %rsp
 8644 0008 48897DF8 		movq	%rdi, -8(%rbp)
 8645              	.LBB110:
 160:testHexIO.cpp **** 	Buffer data;
 8646              		.loc 4 160 0
 8647 000c 488B45F8 		movq	-8(%rbp), %rax
 8648 0010 48C70000 		movq	$_ZTV25TestHexIO_testBadChecksum+16, (%rax)
 8648      000000
 8649 0017 488B45F8 		movq	-8(%rbp), %rax
 8650 001b 4889C7   		movq	%rax, %rdi
 8651 001e E8000000 		call	_ZN8UnitTest4TestD2Ev
 8651      00
 8652              	.LBE110:
 8653 0023 B8000000 		movl	$0, %eax
 8653      00
 8654 0028 85C0     		testl	%eax, %eax
 8655 002a 740C     		je	.L446
 160:testHexIO.cpp **** 	Buffer data;
 8656              		.loc 4 160 0 is_stmt 0 discriminator 4
 8657 002c 488B45F8 		movq	-8(%rbp), %rax
 8658 0030 4889C7   		movq	%rax, %rdi
 8659 0033 E8000000 		call	_ZdlPv
 8659      00
 8660              	.L446:
 160:testHexIO.cpp **** 	Buffer data;
 8661              		.loc 4 160 0
 8662 0038 C9       		leave
 8663              		.cfi_def_cfa 7, 8
 8664 0039 C3       		ret
 8665              		.cfi_endproc
 8666              	.LFE1328:
 8668              		.weak	_ZN25TestHexIO_testBadChecksumD1Ev
 8669              		.set	_ZN25TestHexIO_testBadChecksumD1Ev,_ZN25TestHexIO_testBadChecksumD2Ev
 8670              		.section	.text._ZN25TestHexIO_testBadChecksumD0Ev,"axG",@progbits,_ZN25TestHexIO_testBadChecksumD5
 8671              		.align 2
 8672              		.weak	_ZN25TestHexIO_testBadChecksumD0Ev
 8674              	_ZN25TestHexIO_testBadChecksumD0Ev:
 8675              	.LFB1330:
 160:testHexIO.cpp **** 	Buffer data;
 8676              		.loc 4 160 0 is_stmt 1
 8677              		.cfi_startproc
 8678 0000 55       		pushq	%rbp
 8679              		.cfi_def_cfa_offset 16
 8680              		.cfi_offset 6, -16
 8681 0001 4889E5   		movq	%rsp, %rbp
 8682              		.cfi_def_cfa_register 6
 8683 0004 4883EC10 		subq	$16, %rsp
 8684 0008 48897DF8 		movq	%rdi, -8(%rbp)
 160:testHexIO.cpp **** 	Buffer data;
 8685              		.loc 4 160 0
 8686 000c 488B45F8 		movq	-8(%rbp), %rax
 8687 0010 4889C7   		movq	%rax, %rdi
 8688 0013 E8000000 		call	_ZN25TestHexIO_testBadChecksumD1Ev
 8688      00
 8689 0018 488B45F8 		movq	-8(%rbp), %rax
 8690 001c 4889C7   		movq	%rax, %rdi
 8691 001f E8000000 		call	_ZdlPv
 8691      00
 8692 0024 C9       		leave
 8693              		.cfi_def_cfa 7, 8
 8694 0025 C3       		ret
 8695              		.cfi_endproc
 8696              	.LFE1330:
 8698              		.weak	_ZTV26TestHexIO_testJunkChecksum
 8699              		.section	.rodata._ZTV26TestHexIO_testJunkChecksum,"aG",@progbits,_ZTV26TestHexIO_testJunkChecksum,
 8700              		.align 32
 8703              	_ZTV26TestHexIO_testJunkChecksum:
 8704 0000 00000000 		.quad	0
 8704      00000000 
 8705 0008 00000000 		.quad	_ZTI26TestHexIO_testJunkChecksum
 8705      00000000 
 8706 0010 00000000 		.quad	_ZN26TestHexIO_testJunkChecksumD1Ev
 8706      00000000 
 8707 0018 00000000 		.quad	_ZN26TestHexIO_testJunkChecksumD0Ev
 8707      00000000 
 8708 0020 00000000 		.quad	_ZNK26TestHexIO_testJunkChecksum7RunImplEv
 8708      00000000 
 8709              		.section	.text._ZN26TestHexIO_testJunkChecksumD2Ev,"axG",@progbits,_ZN26TestHexIO_testJunkChecksum
 8710              		.align 2
 8711              		.weak	_ZN26TestHexIO_testJunkChecksumD2Ev
 8713              	_ZN26TestHexIO_testJunkChecksumD2Ev:
 8714              	.LFB1332:
 147:testHexIO.cpp **** 	Buffer data;
 8715              		.loc 4 147 0
 8716              		.cfi_startproc
 8717 0000 55       		pushq	%rbp
 8718              		.cfi_def_cfa_offset 16
 8719              		.cfi_offset 6, -16
 8720 0001 4889E5   		movq	%rsp, %rbp
 8721              		.cfi_def_cfa_register 6
 8722 0004 4883EC10 		subq	$16, %rsp
 8723 0008 48897DF8 		movq	%rdi, -8(%rbp)
 8724              	.LBB111:
 147:testHexIO.cpp **** 	Buffer data;
 8725              		.loc 4 147 0
 8726 000c 488B45F8 		movq	-8(%rbp), %rax
 8727 0010 48C70000 		movq	$_ZTV26TestHexIO_testJunkChecksum+16, (%rax)
 8727      000000
 8728 0017 488B45F8 		movq	-8(%rbp), %rax
 8729 001b 4889C7   		movq	%rax, %rdi
 8730 001e E8000000 		call	_ZN8UnitTest4TestD2Ev
 8730      00
 8731              	.LBE111:
 8732 0023 B8000000 		movl	$0, %eax
 8732      00
 8733 0028 85C0     		testl	%eax, %eax
 8734 002a 740C     		je	.L451
 147:testHexIO.cpp **** 	Buffer data;
 8735              		.loc 4 147 0 is_stmt 0 discriminator 4
 8736 002c 488B45F8 		movq	-8(%rbp), %rax
 8737 0030 4889C7   		movq	%rax, %rdi
 8738 0033 E8000000 		call	_ZdlPv
 8738      00
 8739              	.L451:
 147:testHexIO.cpp **** 	Buffer data;
 8740              		.loc 4 147 0
 8741 0038 C9       		leave
 8742              		.cfi_def_cfa 7, 8
 8743 0039 C3       		ret
 8744              		.cfi_endproc
 8745              	.LFE1332:
 8747              		.weak	_ZN26TestHexIO_testJunkChecksumD1Ev
 8748              		.set	_ZN26TestHexIO_testJunkChecksumD1Ev,_ZN26TestHexIO_testJunkChecksumD2Ev
 8749              		.section	.text._ZN26TestHexIO_testJunkChecksumD0Ev,"axG",@progbits,_ZN26TestHexIO_testJunkChecksum
 8750              		.align 2
 8751              		.weak	_ZN26TestHexIO_testJunkChecksumD0Ev
 8753              	_ZN26TestHexIO_testJunkChecksumD0Ev:
 8754              	.LFB1334:
 147:testHexIO.cpp **** 	Buffer data;
 8755              		.loc 4 147 0 is_stmt 1
 8756              		.cfi_startproc
 8757 0000 55       		pushq	%rbp
 8758              		.cfi_def_cfa_offset 16
 8759              		.cfi_offset 6, -16
 8760 0001 4889E5   		movq	%rsp, %rbp
 8761              		.cfi_def_cfa_register 6
 8762 0004 4883EC10 		subq	$16, %rsp
 8763 0008 48897DF8 		movq	%rdi, -8(%rbp)
 147:testHexIO.cpp **** 	Buffer data;
 8764              		.loc 4 147 0
 8765 000c 488B45F8 		movq	-8(%rbp), %rax
 8766 0010 4889C7   		movq	%rax, %rdi
 8767 0013 E8000000 		call	_ZN26TestHexIO_testJunkChecksumD1Ev
 8767      00
 8768 0018 488B45F8 		movq	-8(%rbp), %rax
 8769 001c 4889C7   		movq	%rax, %rdi
 8770 001f E8000000 		call	_ZdlPv
 8770      00
 8771 0024 C9       		leave
 8772              		.cfi_def_cfa 7, 8
 8773 0025 C3       		ret
 8774              		.cfi_endproc
 8775              	.LFE1334:
 8777              		.weak	_ZTV26TestHexIO_testJunkDataByte
 8778              		.section	.rodata._ZTV26TestHexIO_testJunkDataByte,"aG",@progbits,_ZTV26TestHexIO_testJunkDataByte,
 8779              		.align 32
 8782              	_ZTV26TestHexIO_testJunkDataByte:
 8783 0000 00000000 		.quad	0
 8783      00000000 
 8784 0008 00000000 		.quad	_ZTI26TestHexIO_testJunkDataByte
 8784      00000000 
 8785 0010 00000000 		.quad	_ZN26TestHexIO_testJunkDataByteD1Ev
 8785      00000000 
 8786 0018 00000000 		.quad	_ZN26TestHexIO_testJunkDataByteD0Ev
 8786      00000000 
 8787 0020 00000000 		.quad	_ZNK26TestHexIO_testJunkDataByte7RunImplEv
 8787      00000000 
 8788              		.section	.text._ZN26TestHexIO_testJunkDataByteD2Ev,"axG",@progbits,_ZN26TestHexIO_testJunkDataByte
 8789              		.align 2
 8790              		.weak	_ZN26TestHexIO_testJunkDataByteD2Ev
 8792              	_ZN26TestHexIO_testJunkDataByteD2Ev:
 8793              	.LFB1336:
 134:testHexIO.cpp **** 	Buffer data;
 8794              		.loc 4 134 0
 8795              		.cfi_startproc
 8796 0000 55       		pushq	%rbp
 8797              		.cfi_def_cfa_offset 16
 8798              		.cfi_offset 6, -16
 8799 0001 4889E5   		movq	%rsp, %rbp
 8800              		.cfi_def_cfa_register 6
 8801 0004 4883EC10 		subq	$16, %rsp
 8802 0008 48897DF8 		movq	%rdi, -8(%rbp)
 8803              	.LBB112:
 134:testHexIO.cpp **** 	Buffer data;
 8804              		.loc 4 134 0
 8805 000c 488B45F8 		movq	-8(%rbp), %rax
 8806 0010 48C70000 		movq	$_ZTV26TestHexIO_testJunkDataByte+16, (%rax)
 8806      000000
 8807 0017 488B45F8 		movq	-8(%rbp), %rax
 8808 001b 4889C7   		movq	%rax, %rdi
 8809 001e E8000000 		call	_ZN8UnitTest4TestD2Ev
 8809      00
 8810              	.LBE112:
 8811 0023 B8000000 		movl	$0, %eax
 8811      00
 8812 0028 85C0     		testl	%eax, %eax
 8813 002a 740C     		je	.L456
 134:testHexIO.cpp **** 	Buffer data;
 8814              		.loc 4 134 0 is_stmt 0 discriminator 4
 8815 002c 488B45F8 		movq	-8(%rbp), %rax
 8816 0030 4889C7   		movq	%rax, %rdi
 8817 0033 E8000000 		call	_ZdlPv
 8817      00
 8818              	.L456:
 134:testHexIO.cpp **** 	Buffer data;
 8819              		.loc 4 134 0
 8820 0038 C9       		leave
 8821              		.cfi_def_cfa 7, 8
 8822 0039 C3       		ret
 8823              		.cfi_endproc
 8824              	.LFE1336:
 8826              		.weak	_ZN26TestHexIO_testJunkDataByteD1Ev
 8827              		.set	_ZN26TestHexIO_testJunkDataByteD1Ev,_ZN26TestHexIO_testJunkDataByteD2Ev
 8828              		.section	.text._ZN26TestHexIO_testJunkDataByteD0Ev,"axG",@progbits,_ZN26TestHexIO_testJunkDataByte
 8829              		.align 2
 8830              		.weak	_ZN26TestHexIO_testJunkDataByteD0Ev
 8832              	_ZN26TestHexIO_testJunkDataByteD0Ev:
 8833              	.LFB1338:
 134:testHexIO.cpp **** 	Buffer data;
 8834              		.loc 4 134 0 is_stmt 1
 8835              		.cfi_startproc
 8836 0000 55       		pushq	%rbp
 8837              		.cfi_def_cfa_offset 16
 8838              		.cfi_offset 6, -16
 8839 0001 4889E5   		movq	%rsp, %rbp
 8840              		.cfi_def_cfa_register 6
 8841 0004 4883EC10 		subq	$16, %rsp
 8842 0008 48897DF8 		movq	%rdi, -8(%rbp)
 134:testHexIO.cpp **** 	Buffer data;
 8843              		.loc 4 134 0
 8844 000c 488B45F8 		movq	-8(%rbp), %rax
 8845 0010 4889C7   		movq	%rax, %rdi
 8846 0013 E8000000 		call	_ZN26TestHexIO_testJunkDataByteD1Ev
 8846      00
 8847 0018 488B45F8 		movq	-8(%rbp), %rax
 8848 001c 4889C7   		movq	%rax, %rdi
 8849 001f E8000000 		call	_ZdlPv
 8849      00
 8850 0024 C9       		leave
 8851              		.cfi_def_cfa 7, 8
 8852 0025 C3       		ret
 8853              		.cfi_endproc
 8854              	.LFE1338:
 8856              		.weak	_ZTV25TestHexIO_testJunkRecType
 8857              		.section	.rodata._ZTV25TestHexIO_testJunkRecType,"aG",@progbits,_ZTV25TestHexIO_testJunkRecType,co
 8858              		.align 32
 8861              	_ZTV25TestHexIO_testJunkRecType:
 8862 0000 00000000 		.quad	0
 8862      00000000 
 8863 0008 00000000 		.quad	_ZTI25TestHexIO_testJunkRecType
 8863      00000000 
 8864 0010 00000000 		.quad	_ZN25TestHexIO_testJunkRecTypeD1Ev
 8864      00000000 
 8865 0018 00000000 		.quad	_ZN25TestHexIO_testJunkRecTypeD0Ev
 8865      00000000 
 8866 0020 00000000 		.quad	_ZNK25TestHexIO_testJunkRecType7RunImplEv
 8866      00000000 
 8867              		.section	.text._ZN25TestHexIO_testJunkRecTypeD2Ev,"axG",@progbits,_ZN25TestHexIO_testJunkRecTypeD5
 8868              		.align 2
 8869              		.weak	_ZN25TestHexIO_testJunkRecTypeD2Ev
 8871              	_ZN25TestHexIO_testJunkRecTypeD2Ev:
 8872              	.LFB1340:
 121:testHexIO.cpp **** 	Buffer data;
 8873              		.loc 4 121 0
 8874              		.cfi_startproc
 8875 0000 55       		pushq	%rbp
 8876              		.cfi_def_cfa_offset 16
 8877              		.cfi_offset 6, -16
 8878 0001 4889E5   		movq	%rsp, %rbp
 8879              		.cfi_def_cfa_register 6
 8880 0004 4883EC10 		subq	$16, %rsp
 8881 0008 48897DF8 		movq	%rdi, -8(%rbp)
 8882              	.LBB113:
 121:testHexIO.cpp **** 	Buffer data;
 8883              		.loc 4 121 0
 8884 000c 488B45F8 		movq	-8(%rbp), %rax
 8885 0010 48C70000 		movq	$_ZTV25TestHexIO_testJunkRecType+16, (%rax)
 8885      000000
 8886 0017 488B45F8 		movq	-8(%rbp), %rax
 8887 001b 4889C7   		movq	%rax, %rdi
 8888 001e E8000000 		call	_ZN8UnitTest4TestD2Ev
 8888      00
 8889              	.LBE113:
 8890 0023 B8000000 		movl	$0, %eax
 8890      00
 8891 0028 85C0     		testl	%eax, %eax
 8892 002a 740C     		je	.L461
 121:testHexIO.cpp **** 	Buffer data;
 8893              		.loc 4 121 0 is_stmt 0 discriminator 4
 8894 002c 488B45F8 		movq	-8(%rbp), %rax
 8895 0030 4889C7   		movq	%rax, %rdi
 8896 0033 E8000000 		call	_ZdlPv
 8896      00
 8897              	.L461:
 121:testHexIO.cpp **** 	Buffer data;
 8898              		.loc 4 121 0
 8899 0038 C9       		leave
 8900              		.cfi_def_cfa 7, 8
 8901 0039 C3       		ret
 8902              		.cfi_endproc
 8903              	.LFE1340:
 8905              		.weak	_ZN25TestHexIO_testJunkRecTypeD1Ev
 8906              		.set	_ZN25TestHexIO_testJunkRecTypeD1Ev,_ZN25TestHexIO_testJunkRecTypeD2Ev
 8907              		.section	.text._ZN25TestHexIO_testJunkRecTypeD0Ev,"axG",@progbits,_ZN25TestHexIO_testJunkRecTypeD5
 8908              		.align 2
 8909              		.weak	_ZN25TestHexIO_testJunkRecTypeD0Ev
 8911              	_ZN25TestHexIO_testJunkRecTypeD0Ev:
 8912              	.LFB1342:
 121:testHexIO.cpp **** 	Buffer data;
 8913              		.loc 4 121 0 is_stmt 1
 8914              		.cfi_startproc
 8915 0000 55       		pushq	%rbp
 8916              		.cfi_def_cfa_offset 16
 8917              		.cfi_offset 6, -16
 8918 0001 4889E5   		movq	%rsp, %rbp
 8919              		.cfi_def_cfa_register 6
 8920 0004 4883EC10 		subq	$16, %rsp
 8921 0008 48897DF8 		movq	%rdi, -8(%rbp)
 121:testHexIO.cpp **** 	Buffer data;
 8922              		.loc 4 121 0
 8923 000c 488B45F8 		movq	-8(%rbp), %rax
 8924 0010 4889C7   		movq	%rax, %rdi
 8925 0013 E8000000 		call	_ZN25TestHexIO_testJunkRecTypeD1Ev
 8925      00
 8926 0018 488B45F8 		movq	-8(%rbp), %rax
 8927 001c 4889C7   		movq	%rax, %rdi
 8928 001f E8000000 		call	_ZdlPv
 8928      00
 8929 0024 C9       		leave
 8930              		.cfi_def_cfa 7, 8
 8931 0025 C3       		ret
 8932              		.cfi_endproc
 8933              	.LFE1342:
 8935              		.weak	_ZTV25TestHexIO_testJunkAddrLsb
 8936              		.section	.rodata._ZTV25TestHexIO_testJunkAddrLsb,"aG",@progbits,_ZTV25TestHexIO_testJunkAddrLsb,co
 8937              		.align 32
 8940              	_ZTV25TestHexIO_testJunkAddrLsb:
 8941 0000 00000000 		.quad	0
 8941      00000000 
 8942 0008 00000000 		.quad	_ZTI25TestHexIO_testJunkAddrLsb
 8942      00000000 
 8943 0010 00000000 		.quad	_ZN25TestHexIO_testJunkAddrLsbD1Ev
 8943      00000000 
 8944 0018 00000000 		.quad	_ZN25TestHexIO_testJunkAddrLsbD0Ev
 8944      00000000 
 8945 0020 00000000 		.quad	_ZNK25TestHexIO_testJunkAddrLsb7RunImplEv
 8945      00000000 
 8946              		.section	.text._ZN25TestHexIO_testJunkAddrLsbD2Ev,"axG",@progbits,_ZN25TestHexIO_testJunkAddrLsbD5
 8947              		.align 2
 8948              		.weak	_ZN25TestHexIO_testJunkAddrLsbD2Ev
 8950              	_ZN25TestHexIO_testJunkAddrLsbD2Ev:
 8951              	.LFB1344:
 108:testHexIO.cpp **** 	Buffer data;
 8952              		.loc 4 108 0
 8953              		.cfi_startproc
 8954 0000 55       		pushq	%rbp
 8955              		.cfi_def_cfa_offset 16
 8956              		.cfi_offset 6, -16
 8957 0001 4889E5   		movq	%rsp, %rbp
 8958              		.cfi_def_cfa_register 6
 8959 0004 4883EC10 		subq	$16, %rsp
 8960 0008 48897DF8 		movq	%rdi, -8(%rbp)
 8961              	.LBB114:
 108:testHexIO.cpp **** 	Buffer data;
 8962              		.loc 4 108 0
 8963 000c 488B45F8 		movq	-8(%rbp), %rax
 8964 0010 48C70000 		movq	$_ZTV25TestHexIO_testJunkAddrLsb+16, (%rax)
 8964      000000
 8965 0017 488B45F8 		movq	-8(%rbp), %rax
 8966 001b 4889C7   		movq	%rax, %rdi
 8967 001e E8000000 		call	_ZN8UnitTest4TestD2Ev
 8967      00
 8968              	.LBE114:
 8969 0023 B8000000 		movl	$0, %eax
 8969      00
 8970 0028 85C0     		testl	%eax, %eax
 8971 002a 740C     		je	.L466
 108:testHexIO.cpp **** 	Buffer data;
 8972              		.loc 4 108 0 is_stmt 0 discriminator 4
 8973 002c 488B45F8 		movq	-8(%rbp), %rax
 8974 0030 4889C7   		movq	%rax, %rdi
 8975 0033 E8000000 		call	_ZdlPv
 8975      00
 8976              	.L466:
 108:testHexIO.cpp **** 	Buffer data;
 8977              		.loc 4 108 0
 8978 0038 C9       		leave
 8979              		.cfi_def_cfa 7, 8
 8980 0039 C3       		ret
 8981              		.cfi_endproc
 8982              	.LFE1344:
 8984              		.weak	_ZN25TestHexIO_testJunkAddrLsbD1Ev
 8985              		.set	_ZN25TestHexIO_testJunkAddrLsbD1Ev,_ZN25TestHexIO_testJunkAddrLsbD2Ev
 8986              		.section	.text._ZN25TestHexIO_testJunkAddrLsbD0Ev,"axG",@progbits,_ZN25TestHexIO_testJunkAddrLsbD5
 8987              		.align 2
 8988              		.weak	_ZN25TestHexIO_testJunkAddrLsbD0Ev
 8990              	_ZN25TestHexIO_testJunkAddrLsbD0Ev:
 8991              	.LFB1346:
 108:testHexIO.cpp **** 	Buffer data;
 8992              		.loc 4 108 0 is_stmt 1
 8993              		.cfi_startproc
 8994 0000 55       		pushq	%rbp
 8995              		.cfi_def_cfa_offset 16
 8996              		.cfi_offset 6, -16
 8997 0001 4889E5   		movq	%rsp, %rbp
 8998              		.cfi_def_cfa_register 6
 8999 0004 4883EC10 		subq	$16, %rsp
 9000 0008 48897DF8 		movq	%rdi, -8(%rbp)
 108:testHexIO.cpp **** 	Buffer data;
 9001              		.loc 4 108 0
 9002 000c 488B45F8 		movq	-8(%rbp), %rax
 9003 0010 4889C7   		movq	%rax, %rdi
 9004 0013 E8000000 		call	_ZN25TestHexIO_testJunkAddrLsbD1Ev
 9004      00
 9005 0018 488B45F8 		movq	-8(%rbp), %rax
 9006 001c 4889C7   		movq	%rax, %rdi
 9007 001f E8000000 		call	_ZdlPv
 9007      00
 9008 0024 C9       		leave
 9009              		.cfi_def_cfa 7, 8
 9010 0025 C3       		ret
 9011              		.cfi_endproc
 9012              	.LFE1346:
 9014              		.weak	_ZTV25TestHexIO_testJunkAddrMsb
 9015              		.section	.rodata._ZTV25TestHexIO_testJunkAddrMsb,"aG",@progbits,_ZTV25TestHexIO_testJunkAddrMsb,co
 9016              		.align 32
 9019              	_ZTV25TestHexIO_testJunkAddrMsb:
 9020 0000 00000000 		.quad	0
 9020      00000000 
 9021 0008 00000000 		.quad	_ZTI25TestHexIO_testJunkAddrMsb
 9021      00000000 
 9022 0010 00000000 		.quad	_ZN25TestHexIO_testJunkAddrMsbD1Ev
 9022      00000000 
 9023 0018 00000000 		.quad	_ZN25TestHexIO_testJunkAddrMsbD0Ev
 9023      00000000 
 9024 0020 00000000 		.quad	_ZNK25TestHexIO_testJunkAddrMsb7RunImplEv
 9024      00000000 
 9025              		.section	.text._ZN25TestHexIO_testJunkAddrMsbD2Ev,"axG",@progbits,_ZN25TestHexIO_testJunkAddrMsbD5
 9026              		.align 2
 9027              		.weak	_ZN25TestHexIO_testJunkAddrMsbD2Ev
 9029              	_ZN25TestHexIO_testJunkAddrMsbD2Ev:
 9030              	.LFB1348:
  95:testHexIO.cpp **** 	Buffer data;
 9031              		.loc 4 95 0
 9032              		.cfi_startproc
 9033 0000 55       		pushq	%rbp
 9034              		.cfi_def_cfa_offset 16
 9035              		.cfi_offset 6, -16
 9036 0001 4889E5   		movq	%rsp, %rbp
 9037              		.cfi_def_cfa_register 6
 9038 0004 4883EC10 		subq	$16, %rsp
 9039 0008 48897DF8 		movq	%rdi, -8(%rbp)
 9040              	.LBB115:
  95:testHexIO.cpp **** 	Buffer data;
 9041              		.loc 4 95 0
 9042 000c 488B45F8 		movq	-8(%rbp), %rax
 9043 0010 48C70000 		movq	$_ZTV25TestHexIO_testJunkAddrMsb+16, (%rax)
 9043      000000
 9044 0017 488B45F8 		movq	-8(%rbp), %rax
 9045 001b 4889C7   		movq	%rax, %rdi
 9046 001e E8000000 		call	_ZN8UnitTest4TestD2Ev
 9046      00
 9047              	.LBE115:
 9048 0023 B8000000 		movl	$0, %eax
 9048      00
 9049 0028 85C0     		testl	%eax, %eax
 9050 002a 740C     		je	.L471
  95:testHexIO.cpp **** 	Buffer data;
 9051              		.loc 4 95 0 is_stmt 0 discriminator 4
 9052 002c 488B45F8 		movq	-8(%rbp), %rax
 9053 0030 4889C7   		movq	%rax, %rdi
 9054 0033 E8000000 		call	_ZdlPv
 9054      00
 9055              	.L471:
  95:testHexIO.cpp **** 	Buffer data;
 9056              		.loc 4 95 0
 9057 0038 C9       		leave
 9058              		.cfi_def_cfa 7, 8
 9059 0039 C3       		ret
 9060              		.cfi_endproc
 9061              	.LFE1348:
 9063              		.weak	_ZN25TestHexIO_testJunkAddrMsbD1Ev
 9064              		.set	_ZN25TestHexIO_testJunkAddrMsbD1Ev,_ZN25TestHexIO_testJunkAddrMsbD2Ev
 9065              		.section	.text._ZN25TestHexIO_testJunkAddrMsbD0Ev,"axG",@progbits,_ZN25TestHexIO_testJunkAddrMsbD5
 9066              		.align 2
 9067              		.weak	_ZN25TestHexIO_testJunkAddrMsbD0Ev
 9069              	_ZN25TestHexIO_testJunkAddrMsbD0Ev:
 9070              	.LFB1350:
  95:testHexIO.cpp **** 	Buffer data;
 9071              		.loc 4 95 0 is_stmt 1
 9072              		.cfi_startproc
 9073 0000 55       		pushq	%rbp
 9074              		.cfi_def_cfa_offset 16
 9075              		.cfi_offset 6, -16
 9076 0001 4889E5   		movq	%rsp, %rbp
 9077              		.cfi_def_cfa_register 6
 9078 0004 4883EC10 		subq	$16, %rsp
 9079 0008 48897DF8 		movq	%rdi, -8(%rbp)
  95:testHexIO.cpp **** 	Buffer data;
 9080              		.loc 4 95 0
 9081 000c 488B45F8 		movq	-8(%rbp), %rax
 9082 0010 4889C7   		movq	%rax, %rdi
 9083 0013 E8000000 		call	_ZN25TestHexIO_testJunkAddrMsbD1Ev
 9083      00
 9084 0018 488B45F8 		movq	-8(%rbp), %rax
 9085 001c 4889C7   		movq	%rax, %rdi
 9086 001f E8000000 		call	_ZdlPv
 9086      00
 9087 0024 C9       		leave
 9088              		.cfi_def_cfa 7, 8
 9089 0025 C3       		ret
 9090              		.cfi_endproc
 9091              	.LFE1350:
 9093              		.weak	_ZTV27TestHexIO_testJunkByteCount
 9094              		.section	.rodata._ZTV27TestHexIO_testJunkByteCount,"aG",@progbits,_ZTV27TestHexIO_testJunkByteCoun
 9095              		.align 32
 9098              	_ZTV27TestHexIO_testJunkByteCount:
 9099 0000 00000000 		.quad	0
 9099      00000000 
 9100 0008 00000000 		.quad	_ZTI27TestHexIO_testJunkByteCount
 9100      00000000 
 9101 0010 00000000 		.quad	_ZN27TestHexIO_testJunkByteCountD1Ev
 9101      00000000 
 9102 0018 00000000 		.quad	_ZN27TestHexIO_testJunkByteCountD0Ev
 9102      00000000 
 9103 0020 00000000 		.quad	_ZNK27TestHexIO_testJunkByteCount7RunImplEv
 9103      00000000 
 9104              		.section	.text._ZN27TestHexIO_testJunkByteCountD2Ev,"axG",@progbits,_ZN27TestHexIO_testJunkByteCou
 9105              		.align 2
 9106              		.weak	_ZN27TestHexIO_testJunkByteCountD2Ev
 9108              	_ZN27TestHexIO_testJunkByteCountD2Ev:
 9109              	.LFB1352:
  82:testHexIO.cpp **** 	Buffer data;
 9110              		.loc 4 82 0
 9111              		.cfi_startproc
 9112 0000 55       		pushq	%rbp
 9113              		.cfi_def_cfa_offset 16
 9114              		.cfi_offset 6, -16
 9115 0001 4889E5   		movq	%rsp, %rbp
 9116              		.cfi_def_cfa_register 6
 9117 0004 4883EC10 		subq	$16, %rsp
 9118 0008 48897DF8 		movq	%rdi, -8(%rbp)
 9119              	.LBB116:
  82:testHexIO.cpp **** 	Buffer data;
 9120              		.loc 4 82 0
 9121 000c 488B45F8 		movq	-8(%rbp), %rax
 9122 0010 48C70000 		movq	$_ZTV27TestHexIO_testJunkByteCount+16, (%rax)
 9122      000000
 9123 0017 488B45F8 		movq	-8(%rbp), %rax
 9124 001b 4889C7   		movq	%rax, %rdi
 9125 001e E8000000 		call	_ZN8UnitTest4TestD2Ev
 9125      00
 9126              	.LBE116:
 9127 0023 B8000000 		movl	$0, %eax
 9127      00
 9128 0028 85C0     		testl	%eax, %eax
 9129 002a 740C     		je	.L476
  82:testHexIO.cpp **** 	Buffer data;
 9130              		.loc 4 82 0 is_stmt 0 discriminator 4
 9131 002c 488B45F8 		movq	-8(%rbp), %rax
 9132 0030 4889C7   		movq	%rax, %rdi
 9133 0033 E8000000 		call	_ZdlPv
 9133      00
 9134              	.L476:
  82:testHexIO.cpp **** 	Buffer data;
 9135              		.loc 4 82 0
 9136 0038 C9       		leave
 9137              		.cfi_def_cfa 7, 8
 9138 0039 C3       		ret
 9139              		.cfi_endproc
 9140              	.LFE1352:
 9142              		.weak	_ZN27TestHexIO_testJunkByteCountD1Ev
 9143              		.set	_ZN27TestHexIO_testJunkByteCountD1Ev,_ZN27TestHexIO_testJunkByteCountD2Ev
 9144              		.section	.text._ZN27TestHexIO_testJunkByteCountD0Ev,"axG",@progbits,_ZN27TestHexIO_testJunkByteCou
 9145              		.align 2
 9146              		.weak	_ZN27TestHexIO_testJunkByteCountD0Ev
 9148              	_ZN27TestHexIO_testJunkByteCountD0Ev:
 9149              	.LFB1354:
  82:testHexIO.cpp **** 	Buffer data;
 9150              		.loc 4 82 0 is_stmt 1
 9151              		.cfi_startproc
 9152 0000 55       		pushq	%rbp
 9153              		.cfi_def_cfa_offset 16
 9154              		.cfi_offset 6, -16
 9155 0001 4889E5   		movq	%rsp, %rbp
 9156              		.cfi_def_cfa_register 6
 9157 0004 4883EC10 		subq	$16, %rsp
 9158 0008 48897DF8 		movq	%rdi, -8(%rbp)
  82:testHexIO.cpp **** 	Buffer data;
 9159              		.loc 4 82 0
 9160 000c 488B45F8 		movq	-8(%rbp), %rax
 9161 0010 4889C7   		movq	%rax, %rdi
 9162 0013 E8000000 		call	_ZN27TestHexIO_testJunkByteCountD1Ev
 9162      00
 9163 0018 488B45F8 		movq	-8(%rbp), %rax
 9164 001c 4889C7   		movq	%rax, %rdi
 9165 001f E8000000 		call	_ZdlPv
 9165      00
 9166 0024 C9       		leave
 9167              		.cfi_def_cfa 7, 8
 9168 0025 C3       		ret
 9169              		.cfi_endproc
 9170              	.LFE1354:
 9172              		.weak	_ZTV27TestHexIO_testJunkStartCode
 9173              		.section	.rodata._ZTV27TestHexIO_testJunkStartCode,"aG",@progbits,_ZTV27TestHexIO_testJunkStartCod
 9174              		.align 32
 9177              	_ZTV27TestHexIO_testJunkStartCode:
 9178 0000 00000000 		.quad	0
 9178      00000000 
 9179 0008 00000000 		.quad	_ZTI27TestHexIO_testJunkStartCode
 9179      00000000 
 9180 0010 00000000 		.quad	_ZN27TestHexIO_testJunkStartCodeD1Ev
 9180      00000000 
 9181 0018 00000000 		.quad	_ZN27TestHexIO_testJunkStartCodeD0Ev
 9181      00000000 
 9182 0020 00000000 		.quad	_ZNK27TestHexIO_testJunkStartCode7RunImplEv
 9182      00000000 
 9183              		.section	.text._ZN27TestHexIO_testJunkStartCodeD2Ev,"axG",@progbits,_ZN27TestHexIO_testJunkStartCo
 9184              		.align 2
 9185              		.weak	_ZN27TestHexIO_testJunkStartCodeD2Ev
 9187              	_ZN27TestHexIO_testJunkStartCodeD2Ev:
 9188              	.LFB1356:
  69:testHexIO.cpp **** 	Buffer data;
 9189              		.loc 4 69 0
 9190              		.cfi_startproc
 9191 0000 55       		pushq	%rbp
 9192              		.cfi_def_cfa_offset 16
 9193              		.cfi_offset 6, -16
 9194 0001 4889E5   		movq	%rsp, %rbp
 9195              		.cfi_def_cfa_register 6
 9196 0004 4883EC10 		subq	$16, %rsp
 9197 0008 48897DF8 		movq	%rdi, -8(%rbp)
 9198              	.LBB117:
  69:testHexIO.cpp **** 	Buffer data;
 9199              		.loc 4 69 0
 9200 000c 488B45F8 		movq	-8(%rbp), %rax
 9201 0010 48C70000 		movq	$_ZTV27TestHexIO_testJunkStartCode+16, (%rax)
 9201      000000
 9202 0017 488B45F8 		movq	-8(%rbp), %rax
 9203 001b 4889C7   		movq	%rax, %rdi
 9204 001e E8000000 		call	_ZN8UnitTest4TestD2Ev
 9204      00
 9205              	.LBE117:
 9206 0023 B8000000 		movl	$0, %eax
 9206      00
 9207 0028 85C0     		testl	%eax, %eax
 9208 002a 740C     		je	.L481
  69:testHexIO.cpp **** 	Buffer data;
 9209              		.loc 4 69 0 is_stmt 0 discriminator 4
 9210 002c 488B45F8 		movq	-8(%rbp), %rax
 9211 0030 4889C7   		movq	%rax, %rdi
 9212 0033 E8000000 		call	_ZdlPv
 9212      00
 9213              	.L481:
  69:testHexIO.cpp **** 	Buffer data;
 9214              		.loc 4 69 0
 9215 0038 C9       		leave
 9216              		.cfi_def_cfa 7, 8
 9217 0039 C3       		ret
 9218              		.cfi_endproc
 9219              	.LFE1356:
 9221              		.weak	_ZN27TestHexIO_testJunkStartCodeD1Ev
 9222              		.set	_ZN27TestHexIO_testJunkStartCodeD1Ev,_ZN27TestHexIO_testJunkStartCodeD2Ev
 9223              		.section	.text._ZN27TestHexIO_testJunkStartCodeD0Ev,"axG",@progbits,_ZN27TestHexIO_testJunkStartCo
 9224              		.align 2
 9225              		.weak	_ZN27TestHexIO_testJunkStartCodeD0Ev
 9227              	_ZN27TestHexIO_testJunkStartCodeD0Ev:
 9228              	.LFB1358:
  69:testHexIO.cpp **** 	Buffer data;
 9229              		.loc 4 69 0 is_stmt 1
 9230              		.cfi_startproc
 9231 0000 55       		pushq	%rbp
 9232              		.cfi_def_cfa_offset 16
 9233              		.cfi_offset 6, -16
 9234 0001 4889E5   		movq	%rsp, %rbp
 9235              		.cfi_def_cfa_register 6
 9236 0004 4883EC10 		subq	$16, %rsp
 9237 0008 48897DF8 		movq	%rdi, -8(%rbp)
  69:testHexIO.cpp **** 	Buffer data;
 9238              		.loc 4 69 0
 9239 000c 488B45F8 		movq	-8(%rbp), %rax
 9240 0010 4889C7   		movq	%rax, %rdi
 9241 0013 E8000000 		call	_ZN27TestHexIO_testJunkStartCodeD1Ev
 9241      00
 9242 0018 488B45F8 		movq	-8(%rbp), %rax
 9243 001c 4889C7   		movq	%rax, %rdi
 9244 001f E8000000 		call	_ZdlPv
 9244      00
 9245 0024 C9       		leave
 9246              		.cfi_def_cfa 7, 8
 9247 0025 C3       		ret
 9248              		.cfi_endproc
 9249              	.LFE1358:
 9251              		.weak	_ZTV22TestHexIO_testValidEOF
 9252              		.section	.rodata._ZTV22TestHexIO_testValidEOF,"aG",@progbits,_ZTV22TestHexIO_testValidEOF,comdat
 9253              		.align 32
 9256              	_ZTV22TestHexIO_testValidEOF:
 9257 0000 00000000 		.quad	0
 9257      00000000 
 9258 0008 00000000 		.quad	_ZTI22TestHexIO_testValidEOF
 9258      00000000 
 9259 0010 00000000 		.quad	_ZN22TestHexIO_testValidEOFD1Ev
 9259      00000000 
 9260 0018 00000000 		.quad	_ZN22TestHexIO_testValidEOFD0Ev
 9260      00000000 
 9261 0020 00000000 		.quad	_ZNK22TestHexIO_testValidEOF7RunImplEv
 9261      00000000 
 9262              		.section	.text._ZN22TestHexIO_testValidEOFD2Ev,"axG",@progbits,_ZN22TestHexIO_testValidEOFD5Ev,com
 9263              		.align 2
 9264              		.weak	_ZN22TestHexIO_testValidEOFD2Ev
 9266              	_ZN22TestHexIO_testValidEOFD2Ev:
 9267              	.LFB1360:
  50:testHexIO.cpp **** 	Buffer data, mask;
 9268              		.loc 4 50 0
 9269              		.cfi_startproc
 9270 0000 55       		pushq	%rbp
 9271              		.cfi_def_cfa_offset 16
 9272              		.cfi_offset 6, -16
 9273 0001 4889E5   		movq	%rsp, %rbp
 9274              		.cfi_def_cfa_register 6
 9275 0004 4883EC10 		subq	$16, %rsp
 9276 0008 48897DF8 		movq	%rdi, -8(%rbp)
 9277              	.LBB118:
  50:testHexIO.cpp **** 	Buffer data, mask;
 9278              		.loc 4 50 0
 9279 000c 488B45F8 		movq	-8(%rbp), %rax
 9280 0010 48C70000 		movq	$_ZTV22TestHexIO_testValidEOF+16, (%rax)
 9280      000000
 9281 0017 488B45F8 		movq	-8(%rbp), %rax
 9282 001b 4889C7   		movq	%rax, %rdi
 9283 001e E8000000 		call	_ZN8UnitTest4TestD2Ev
 9283      00
 9284              	.LBE118:
 9285 0023 B8000000 		movl	$0, %eax
 9285      00
 9286 0028 85C0     		testl	%eax, %eax
 9287 002a 740C     		je	.L486
  50:testHexIO.cpp **** 	Buffer data, mask;
 9288              		.loc 4 50 0 is_stmt 0 discriminator 4
 9289 002c 488B45F8 		movq	-8(%rbp), %rax
 9290 0030 4889C7   		movq	%rax, %rdi
 9291 0033 E8000000 		call	_ZdlPv
 9291      00
 9292              	.L486:
  50:testHexIO.cpp **** 	Buffer data, mask;
 9293              		.loc 4 50 0
 9294 0038 C9       		leave
 9295              		.cfi_def_cfa 7, 8
 9296 0039 C3       		ret
 9297              		.cfi_endproc
 9298              	.LFE1360:
 9300              		.weak	_ZN22TestHexIO_testValidEOFD1Ev
 9301              		.set	_ZN22TestHexIO_testValidEOFD1Ev,_ZN22TestHexIO_testValidEOFD2Ev
 9302              		.section	.text._ZN22TestHexIO_testValidEOFD0Ev,"axG",@progbits,_ZN22TestHexIO_testValidEOFD5Ev,com
 9303              		.align 2
 9304              		.weak	_ZN22TestHexIO_testValidEOFD0Ev
 9306              	_ZN22TestHexIO_testValidEOFD0Ev:
 9307              	.LFB1362:
  50:testHexIO.cpp **** 	Buffer data, mask;
 9308              		.loc 4 50 0 is_stmt 1
 9309              		.cfi_startproc
 9310 0000 55       		pushq	%rbp
 9311              		.cfi_def_cfa_offset 16
 9312              		.cfi_offset 6, -16
 9313 0001 4889E5   		movq	%rsp, %rbp
 9314              		.cfi_def_cfa_register 6
 9315 0004 4883EC10 		subq	$16, %rsp
 9316 0008 48897DF8 		movq	%rdi, -8(%rbp)
  50:testHexIO.cpp **** 	Buffer data, mask;
 9317              		.loc 4 50 0
 9318 000c 488B45F8 		movq	-8(%rbp), %rax
 9319 0010 4889C7   		movq	%rax, %rdi
 9320 0013 E8000000 		call	_ZN22TestHexIO_testValidEOFD1Ev
 9320      00
 9321 0018 488B45F8 		movq	-8(%rbp), %rax
 9322 001c 4889C7   		movq	%rax, %rdi
 9323 001f E8000000 		call	_ZdlPv
 9323      00
 9324 0024 C9       		leave
 9325              		.cfi_def_cfa 7, 8
 9326 0025 C3       		ret
 9327              		.cfi_endproc
 9328              	.LFE1362:
 9330              		.weak	_ZTV27TestHexIO_testValidDataLine
 9331              		.section	.rodata._ZTV27TestHexIO_testValidDataLine,"aG",@progbits,_ZTV27TestHexIO_testValidDataLin
 9332              		.align 32
 9335              	_ZTV27TestHexIO_testValidDataLine:
 9336 0000 00000000 		.quad	0
 9336      00000000 
 9337 0008 00000000 		.quad	_ZTI27TestHexIO_testValidDataLine
 9337      00000000 
 9338 0010 00000000 		.quad	_ZN27TestHexIO_testValidDataLineD1Ev
 9338      00000000 
 9339 0018 00000000 		.quad	_ZN27TestHexIO_testValidDataLineD0Ev
 9339      00000000 
 9340 0020 00000000 		.quad	_ZNK27TestHexIO_testValidDataLine7RunImplEv
 9340      00000000 
 9341              		.section	.text._ZN27TestHexIO_testValidDataLineD2Ev,"axG",@progbits,_ZN27TestHexIO_testValidDataLi
 9342              		.align 2
 9343              		.weak	_ZN27TestHexIO_testValidDataLineD2Ev
 9345              	_ZN27TestHexIO_testValidDataLineD2Ev:
 9346              	.LFB1364:
  27:testHexIO.cpp **** 	Buffer data, mask;
 9347              		.loc 4 27 0
 9348              		.cfi_startproc
 9349 0000 55       		pushq	%rbp
 9350              		.cfi_def_cfa_offset 16
 9351              		.cfi_offset 6, -16
 9352 0001 4889E5   		movq	%rsp, %rbp
 9353              		.cfi_def_cfa_register 6
 9354 0004 4883EC10 		subq	$16, %rsp
 9355 0008 48897DF8 		movq	%rdi, -8(%rbp)
 9356              	.LBB119:
  27:testHexIO.cpp **** 	Buffer data, mask;
 9357              		.loc 4 27 0
 9358 000c 488B45F8 		movq	-8(%rbp), %rax
 9359 0010 48C70000 		movq	$_ZTV27TestHexIO_testValidDataLine+16, (%rax)
 9359      000000
 9360 0017 488B45F8 		movq	-8(%rbp), %rax
 9361 001b 4889C7   		movq	%rax, %rdi
 9362 001e E8000000 		call	_ZN8UnitTest4TestD2Ev
 9362      00
 9363              	.LBE119:
 9364 0023 B8000000 		movl	$0, %eax
 9364      00
 9365 0028 85C0     		testl	%eax, %eax
 9366 002a 740C     		je	.L491
  27:testHexIO.cpp **** 	Buffer data, mask;
 9367              		.loc 4 27 0 is_stmt 0 discriminator 4
 9368 002c 488B45F8 		movq	-8(%rbp), %rax
 9369 0030 4889C7   		movq	%rax, %rdi
 9370 0033 E8000000 		call	_ZdlPv
 9370      00
 9371              	.L491:
  27:testHexIO.cpp **** 	Buffer data, mask;
 9372              		.loc 4 27 0
 9373 0038 C9       		leave
 9374              		.cfi_def_cfa 7, 8
 9375 0039 C3       		ret
 9376              		.cfi_endproc
 9377              	.LFE1364:
 9379              		.weak	_ZN27TestHexIO_testValidDataLineD1Ev
 9380              		.set	_ZN27TestHexIO_testValidDataLineD1Ev,_ZN27TestHexIO_testValidDataLineD2Ev
 9381              		.section	.text._ZN27TestHexIO_testValidDataLineD0Ev,"axG",@progbits,_ZN27TestHexIO_testValidDataLi
 9382              		.align 2
 9383              		.weak	_ZN27TestHexIO_testValidDataLineD0Ev
 9385              	_ZN27TestHexIO_testValidDataLineD0Ev:
 9386              	.LFB1366:
  27:testHexIO.cpp **** 	Buffer data, mask;
 9387              		.loc 4 27 0 is_stmt 1
 9388              		.cfi_startproc
 9389 0000 55       		pushq	%rbp
 9390              		.cfi_def_cfa_offset 16
 9391              		.cfi_offset 6, -16
 9392 0001 4889E5   		movq	%rsp, %rbp
 9393              		.cfi_def_cfa_register 6
 9394 0004 4883EC10 		subq	$16, %rsp
 9395 0008 48897DF8 		movq	%rdi, -8(%rbp)
  27:testHexIO.cpp **** 	Buffer data, mask;
 9396              		.loc 4 27 0
 9397 000c 488B45F8 		movq	-8(%rbp), %rax
 9398 0010 4889C7   		movq	%rax, %rdi
 9399 0013 E8000000 		call	_ZN27TestHexIO_testValidDataLineD1Ev
 9399      00
 9400 0018 488B45F8 		movq	-8(%rbp), %rax
 9401 001c 4889C7   		movq	%rax, %rdi
 9402 001f E8000000 		call	_ZdlPv
 9402      00
 9403 0024 C9       		leave
 9404              		.cfi_def_cfa 7, 8
 9405 0025 C3       		ret
 9406              		.cfi_endproc
 9407              	.LFE1366:
 9409              		.weak	_ZTVN8UnitTest15MemoryOutStreamE
 9410              		.section	.rodata._ZTVN8UnitTest15MemoryOutStreamE,"aG",@progbits,_ZTVN8UnitTest15MemoryOutStreamE,
 9411              		.align 64
 9414              	_ZTVN8UnitTest15MemoryOutStreamE:
 9415 0000 60000000 		.quad	96
 9415      00000000 
 9416 0008 00000000 		.quad	0
 9416      00000000 
 9417 0010 00000000 		.quad	_ZTIN8UnitTest15MemoryOutStreamE
 9417      00000000 
 9418 0018 00000000 		.quad	_ZN8UnitTest15MemoryOutStreamD1Ev
 9418      00000000 
 9419 0020 00000000 		.quad	_ZN8UnitTest15MemoryOutStreamD0Ev
 9419      00000000 
 9420 0028 A0FFFFFF 		.quad	-96
 9420      FFFFFFFF 
 9421 0030 A0FFFFFF 		.quad	-96
 9421      FFFFFFFF 
 9422 0038 00000000 		.quad	_ZTIN8UnitTest15MemoryOutStreamE
 9422      00000000 
 9423 0040 00000000 		.quad	_ZTv0_n24_N8UnitTest15MemoryOutStreamD1Ev
 9423      00000000 
 9424 0048 00000000 		.quad	_ZTv0_n24_N8UnitTest15MemoryOutStreamD0Ev
 9424      00000000 
 9425              		.weak	_ZTTN8UnitTest15MemoryOutStreamE
 9426              		.section	.rodata._ZTTN8UnitTest15MemoryOutStreamE,"aG",@progbits,_ZTVN8UnitTest15MemoryOutStreamE,
 9427              		.align 32
 9430              	_ZTTN8UnitTest15MemoryOutStreamE:
 9431 0000 00000000 		.quad	_ZTVN8UnitTest15MemoryOutStreamE+24
 9431      00000000 
 9432 0008 00000000 		.quad	_ZTCN8UnitTest15MemoryOutStreamE0_St19basic_ostringstreamIcSt11char_traitsIcESaIcEE+24
 9432      00000000 
 9433 0010 00000000 		.quad	_ZTCN8UnitTest15MemoryOutStreamE0_So+24
 9433      00000000 
 9434 0018 00000000 		.quad	_ZTCN8UnitTest15MemoryOutStreamE0_So+64
 9434      00000000 
 9435 0020 00000000 		.quad	_ZTCN8UnitTest15MemoryOutStreamE0_St19basic_ostringstreamIcSt11char_traitsIcESaIcEE+64
 9435      00000000 
 9436 0028 00000000 		.quad	_ZTVN8UnitTest15MemoryOutStreamE+64
 9436      00000000 
 9437              		.hidden	_ZTCN8UnitTest15MemoryOutStreamE0_St19basic_ostringstreamIcSt11char_traitsIcESaIcEE
 9438              		.weak	_ZTCN8UnitTest15MemoryOutStreamE0_St19basic_ostringstreamIcSt11char_traitsIcESaIcEE
 9439              		.section	.rodata._ZTCN8UnitTest15MemoryOutStreamE0_St19basic_ostringstreamIcSt11char_traitsIcESaIc
 9440              		.align 64
 9443              	_ZTCN8UnitTest15MemoryOutStreamE0_St19basic_ostringstreamIcSt11char_traitsIcESaIcEE:
 9444 0000 60000000 		.quad	96
 9444      00000000 
 9445 0008 00000000 		.quad	0
 9445      00000000 
 9446 0010 00000000 		.quad	_ZTISt19basic_ostringstreamIcSt11char_traitsIcESaIcEE
 9446      00000000 
 9447 0018 00000000 		.quad	0
 9447      00000000 
 9448 0020 00000000 		.quad	0
 9448      00000000 
 9449 0028 A0FFFFFF 		.quad	-96
 9449      FFFFFFFF 
 9450 0030 A0FFFFFF 		.quad	-96
 9450      FFFFFFFF 
 9451 0038 00000000 		.quad	_ZTISt19basic_ostringstreamIcSt11char_traitsIcESaIcEE
 9451      00000000 
 9452 0040 00000000 		.quad	0
 9452      00000000 
 9453 0048 00000000 		.quad	0
 9453      00000000 
 9454              		.hidden	_ZTCN8UnitTest15MemoryOutStreamE0_So
 9455              		.weak	_ZTCN8UnitTest15MemoryOutStreamE0_So
 9456              		.section	.rodata._ZTCN8UnitTest15MemoryOutStreamE0_So,"aG",@progbits,_ZTVN8UnitTest15MemoryOutStre
 9457              		.align 64
 9460              	_ZTCN8UnitTest15MemoryOutStreamE0_So:
 9461 0000 60000000 		.quad	96
 9461      00000000 
 9462 0008 00000000 		.quad	0
 9462      00000000 
 9463 0010 00000000 		.quad	_ZTISo
 9463      00000000 
 9464 0018 00000000 		.quad	0
 9464      00000000 
 9465 0020 00000000 		.quad	0
 9465      00000000 
 9466 0028 A0FFFFFF 		.quad	-96
 9466      FFFFFFFF 
 9467 0030 A0FFFFFF 		.quad	-96
 9467      FFFFFFFF 
 9468 0038 00000000 		.quad	_ZTISo
 9468      00000000 
 9469 0040 00000000 		.quad	0
 9469      00000000 
 9470 0048 00000000 		.quad	0
 9470      00000000 
 9471              		.weak	_ZTI28TestHexIO_testDeriveWriteMap
 9472              		.section	.rodata._ZTI28TestHexIO_testDeriveWriteMap,"aG",@progbits,_ZTI28TestHexIO_testDeriveWrite
 9473              		.align 16
 9476              	_ZTI28TestHexIO_testDeriveWriteMap:
 9477 0000 00000000 		.quad	_ZTVN10__cxxabiv120__si_class_type_infoE+16
 9477      00000000 
 9478 0008 00000000 		.quad	_ZTS28TestHexIO_testDeriveWriteMap
 9478      00000000 
 9479 0010 00000000 		.quad	_ZTIN8UnitTest4TestE
 9479      00000000 
 9480              		.weak	_ZTS28TestHexIO_testDeriveWriteMap
 9481              		.section	.rodata._ZTS28TestHexIO_testDeriveWriteMap,"aG",@progbits,_ZTS28TestHexIO_testDeriveWrite
 9482              		.align 16
 9485              	_ZTS28TestHexIO_testDeriveWriteMap:
 9486 0000 32385465 		.string	"28TestHexIO_testDeriveWriteMap"
 9486      73744865 
 9486      78494F5F 
 9486      74657374 
 9486      44657269 
 9487              		.weak	_ZTI23TestHexIO_testRoundTrip
 9488              		.section	.rodata._ZTI23TestHexIO_testRoundTrip,"aG",@progbits,_ZTI23TestHexIO_testRoundTrip,comdat
 9489              		.align 16
 9492              	_ZTI23TestHexIO_testRoundTrip:
 9493 0000 00000000 		.quad	_ZTVN10__cxxabiv120__si_class_type_infoE+16
 9493      00000000 
 9494 0008 00000000 		.quad	_ZTS23TestHexIO_testRoundTrip
 9494      00000000 
 9495 0010 00000000 		.quad	_ZTIN8UnitTest4TestE
 9495      00000000 
 9496              		.weak	_ZTS23TestHexIO_testRoundTrip
 9497              		.section	.rodata._ZTS23TestHexIO_testRoundTrip,"aG",@progbits,_ZTS23TestHexIO_testRoundTrip,comdat
 9498              		.align 16
 9501              	_ZTS23TestHexIO_testRoundTrip:
 9502 0000 32335465 		.string	"23TestHexIO_testRoundTrip"
 9502      73744865 
 9502      78494F5F 
 9502      74657374 
 9502      526F756E 
 9503              		.weak	_ZTI25TestHexIO_testCorruptLine
 9504              		.section	.rodata._ZTI25TestHexIO_testCorruptLine,"aG",@progbits,_ZTI25TestHexIO_testCorruptLine,co
 9505              		.align 16
 9508              	_ZTI25TestHexIO_testCorruptLine:
 9509 0000 00000000 		.quad	_ZTVN10__cxxabiv120__si_class_type_infoE+16
 9509      00000000 
 9510 0008 00000000 		.quad	_ZTS25TestHexIO_testCorruptLine
 9510      00000000 
 9511 0010 00000000 		.quad	_ZTIN8UnitTest4TestE
 9511      00000000 
 9512              		.weak	_ZTS25TestHexIO_testCorruptLine
 9513              		.section	.rodata._ZTS25TestHexIO_testCorruptLine,"aG",@progbits,_ZTS25TestHexIO_testCorruptLine,co
 9514              		.align 16
 9517              	_ZTS25TestHexIO_testCorruptLine:
 9518 0000 32355465 		.string	"25TestHexIO_testCorruptLine"
 9518      73744865 
 9518      78494F5F 
 9518      74657374 
 9518      436F7272 
 9519              		.weak	_ZTI25TestHexIO_testBadChecksum
 9520              		.section	.rodata._ZTI25TestHexIO_testBadChecksum,"aG",@progbits,_ZTI25TestHexIO_testBadChecksum,co
 9521              		.align 16
 9524              	_ZTI25TestHexIO_testBadChecksum:
 9525 0000 00000000 		.quad	_ZTVN10__cxxabiv120__si_class_type_infoE+16
 9525      00000000 
 9526 0008 00000000 		.quad	_ZTS25TestHexIO_testBadChecksum
 9526      00000000 
 9527 0010 00000000 		.quad	_ZTIN8UnitTest4TestE
 9527      00000000 
 9528              		.weak	_ZTS25TestHexIO_testBadChecksum
 9529              		.section	.rodata._ZTS25TestHexIO_testBadChecksum,"aG",@progbits,_ZTS25TestHexIO_testBadChecksum,co
 9530              		.align 16
 9533              	_ZTS25TestHexIO_testBadChecksum:
 9534 0000 32355465 		.string	"25TestHexIO_testBadChecksum"
 9534      73744865 
 9534      78494F5F 
 9534      74657374 
 9534      42616443 
 9535              		.weak	_ZTI26TestHexIO_testJunkChecksum
 9536              		.section	.rodata._ZTI26TestHexIO_testJunkChecksum,"aG",@progbits,_ZTI26TestHexIO_testJunkChecksum,
 9537              		.align 16
 9540              	_ZTI26TestHexIO_testJunkChecksum:
 9541 0000 00000000 		.quad	_ZTVN10__cxxabiv120__si_class_type_infoE+16
 9541      00000000 
 9542 0008 00000000 		.quad	_ZTS26TestHexIO_testJunkChecksum
 9542      00000000 
 9543 0010 00000000 		.quad	_ZTIN8UnitTest4TestE
 9543      00000000 
 9544              		.weak	_ZTS26TestHexIO_testJunkChecksum
 9545              		.section	.rodata._ZTS26TestHexIO_testJunkChecksum,"aG",@progbits,_ZTS26TestHexIO_testJunkChecksum,
 9546              		.align 16
 9549              	_ZTS26TestHexIO_testJunkChecksum:
 9550 0000 32365465 		.string	"26TestHexIO_testJunkChecksum"
 9550      73744865 
 9550      78494F5F 
 9550      74657374 
 9550      4A756E6B 
 9551              		.weak	_ZTI26TestHexIO_testJunkDataByte
 9552              		.section	.rodata._ZTI26TestHexIO_testJunkDataByte,"aG",@progbits,_ZTI26TestHexIO_testJunkDataByte,
 9553              		.align 16
 9556              	_ZTI26TestHexIO_testJunkDataByte:
 9557 0000 00000000 		.quad	_ZTVN10__cxxabiv120__si_class_type_infoE+16
 9557      00000000 
 9558 0008 00000000 		.quad	_ZTS26TestHexIO_testJunkDataByte
 9558      00000000 
 9559 0010 00000000 		.quad	_ZTIN8UnitTest4TestE
 9559      00000000 
 9560              		.weak	_ZTS26TestHexIO_testJunkDataByte
 9561              		.section	.rodata._ZTS26TestHexIO_testJunkDataByte,"aG",@progbits,_ZTS26TestHexIO_testJunkDataByte,
 9562              		.align 16
 9565              	_ZTS26TestHexIO_testJunkDataByte:
 9566 0000 32365465 		.string	"26TestHexIO_testJunkDataByte"
 9566      73744865 
 9566      78494F5F 
 9566      74657374 
 9566      4A756E6B 
 9567              		.weak	_ZTI25TestHexIO_testJunkRecType
 9568              		.section	.rodata._ZTI25TestHexIO_testJunkRecType,"aG",@progbits,_ZTI25TestHexIO_testJunkRecType,co
 9569              		.align 16
 9572              	_ZTI25TestHexIO_testJunkRecType:
 9573 0000 00000000 		.quad	_ZTVN10__cxxabiv120__si_class_type_infoE+16
 9573      00000000 
 9574 0008 00000000 		.quad	_ZTS25TestHexIO_testJunkRecType
 9574      00000000 
 9575 0010 00000000 		.quad	_ZTIN8UnitTest4TestE
 9575      00000000 
 9576              		.weak	_ZTS25TestHexIO_testJunkRecType
 9577              		.section	.rodata._ZTS25TestHexIO_testJunkRecType,"aG",@progbits,_ZTS25TestHexIO_testJunkRecType,co
 9578              		.align 16
 9581              	_ZTS25TestHexIO_testJunkRecType:
 9582 0000 32355465 		.string	"25TestHexIO_testJunkRecType"
 9582      73744865 
 9582      78494F5F 
 9582      74657374 
 9582      4A756E6B 
 9583              		.weak	_ZTI25TestHexIO_testJunkAddrLsb
 9584              		.section	.rodata._ZTI25TestHexIO_testJunkAddrLsb,"aG",@progbits,_ZTI25TestHexIO_testJunkAddrLsb,co
 9585              		.align 16
 9588              	_ZTI25TestHexIO_testJunkAddrLsb:
 9589 0000 00000000 		.quad	_ZTVN10__cxxabiv120__si_class_type_infoE+16
 9589      00000000 
 9590 0008 00000000 		.quad	_ZTS25TestHexIO_testJunkAddrLsb
 9590      00000000 
 9591 0010 00000000 		.quad	_ZTIN8UnitTest4TestE
 9591      00000000 
 9592              		.weak	_ZTS25TestHexIO_testJunkAddrLsb
 9593              		.section	.rodata._ZTS25TestHexIO_testJunkAddrLsb,"aG",@progbits,_ZTS25TestHexIO_testJunkAddrLsb,co
 9594              		.align 16
 9597              	_ZTS25TestHexIO_testJunkAddrLsb:
 9598 0000 32355465 		.string	"25TestHexIO_testJunkAddrLsb"
 9598      73744865 
 9598      78494F5F 
 9598      74657374 
 9598      4A756E6B 
 9599              		.weak	_ZTI25TestHexIO_testJunkAddrMsb
 9600              		.section	.rodata._ZTI25TestHexIO_testJunkAddrMsb,"aG",@progbits,_ZTI25TestHexIO_testJunkAddrMsb,co
 9601              		.align 16
 9604              	_ZTI25TestHexIO_testJunkAddrMsb:
 9605 0000 00000000 		.quad	_ZTVN10__cxxabiv120__si_class_type_infoE+16
 9605      00000000 
 9606 0008 00000000 		.quad	_ZTS25TestHexIO_testJunkAddrMsb
 9606      00000000 
 9607 0010 00000000 		.quad	_ZTIN8UnitTest4TestE
 9607      00000000 
 9608              		.weak	_ZTS25TestHexIO_testJunkAddrMsb
 9609              		.section	.rodata._ZTS25TestHexIO_testJunkAddrMsb,"aG",@progbits,_ZTS25TestHexIO_testJunkAddrMsb,co
 9610              		.align 16
 9613              	_ZTS25TestHexIO_testJunkAddrMsb:
 9614 0000 32355465 		.string	"25TestHexIO_testJunkAddrMsb"
 9614      73744865 
 9614      78494F5F 
 9614      74657374 
 9614      4A756E6B 
 9615              		.weak	_ZTI27TestHexIO_testJunkByteCount
 9616              		.section	.rodata._ZTI27TestHexIO_testJunkByteCount,"aG",@progbits,_ZTI27TestHexIO_testJunkByteCoun
 9617              		.align 16
 9620              	_ZTI27TestHexIO_testJunkByteCount:
 9621 0000 00000000 		.quad	_ZTVN10__cxxabiv120__si_class_type_infoE+16
 9621      00000000 
 9622 0008 00000000 		.quad	_ZTS27TestHexIO_testJunkByteCount
 9622      00000000 
 9623 0010 00000000 		.quad	_ZTIN8UnitTest4TestE
 9623      00000000 
 9624              		.weak	_ZTS27TestHexIO_testJunkByteCount
 9625              		.section	.rodata._ZTS27TestHexIO_testJunkByteCount,"aG",@progbits,_ZTS27TestHexIO_testJunkByteCoun
 9626              		.align 16
 9629              	_ZTS27TestHexIO_testJunkByteCount:
 9630 0000 32375465 		.string	"27TestHexIO_testJunkByteCount"
 9630      73744865 
 9630      78494F5F 
 9630      74657374 
 9630      4A756E6B 
 9631              		.weak	_ZTI27TestHexIO_testJunkStartCode
 9632              		.section	.rodata._ZTI27TestHexIO_testJunkStartCode,"aG",@progbits,_ZTI27TestHexIO_testJunkStartCod
 9633              		.align 16
 9636              	_ZTI27TestHexIO_testJunkStartCode:
 9637 0000 00000000 		.quad	_ZTVN10__cxxabiv120__si_class_type_infoE+16
 9637      00000000 
 9638 0008 00000000 		.quad	_ZTS27TestHexIO_testJunkStartCode
 9638      00000000 
 9639 0010 00000000 		.quad	_ZTIN8UnitTest4TestE
 9639      00000000 
 9640              		.weak	_ZTS27TestHexIO_testJunkStartCode
 9641              		.section	.rodata._ZTS27TestHexIO_testJunkStartCode,"aG",@progbits,_ZTS27TestHexIO_testJunkStartCod
 9642              		.align 16
 9645              	_ZTS27TestHexIO_testJunkStartCode:
 9646 0000 32375465 		.string	"27TestHexIO_testJunkStartCode"
 9646      73744865 
 9646      78494F5F 
 9646      74657374 
 9646      4A756E6B 
 9647              		.weak	_ZTI22TestHexIO_testValidEOF
 9648              		.section	.rodata._ZTI22TestHexIO_testValidEOF,"aG",@progbits,_ZTI22TestHexIO_testValidEOF,comdat
 9649              		.align 16
 9652              	_ZTI22TestHexIO_testValidEOF:
 9653 0000 00000000 		.quad	_ZTVN10__cxxabiv120__si_class_type_infoE+16
 9653      00000000 
 9654 0008 00000000 		.quad	_ZTS22TestHexIO_testValidEOF
 9654      00000000 
 9655 0010 00000000 		.quad	_ZTIN8UnitTest4TestE
 9655      00000000 
 9656              		.weak	_ZTS22TestHexIO_testValidEOF
 9657              		.section	.rodata._ZTS22TestHexIO_testValidEOF,"aG",@progbits,_ZTS22TestHexIO_testValidEOF,comdat
 9658              		.align 16
 9661              	_ZTS22TestHexIO_testValidEOF:
 9662 0000 32325465 		.string	"22TestHexIO_testValidEOF"
 9662      73744865 
 9662      78494F5F 
 9662      74657374 
 9662      56616C69 
 9663              		.weak	_ZTI27TestHexIO_testValidDataLine
 9664              		.section	.rodata._ZTI27TestHexIO_testValidDataLine,"aG",@progbits,_ZTI27TestHexIO_testValidDataLin
 9665              		.align 16
 9668              	_ZTI27TestHexIO_testValidDataLine:
 9669 0000 00000000 		.quad	_ZTVN10__cxxabiv120__si_class_type_infoE+16
 9669      00000000 
 9670 0008 00000000 		.quad	_ZTS27TestHexIO_testValidDataLine
 9670      00000000 
 9671 0010 00000000 		.quad	_ZTIN8UnitTest4TestE
 9671      00000000 
 9672              		.weak	_ZTS27TestHexIO_testValidDataLine
 9673              		.section	.rodata._ZTS27TestHexIO_testValidDataLine,"aG",@progbits,_ZTS27TestHexIO_testValidDataLin
 9674              		.align 16
 9677              	_ZTS27TestHexIO_testValidDataLine:
 9678 0000 32375465 		.string	"27TestHexIO_testValidDataLine"
 9678      73744865 
 9678      78494F5F 
 9678      74657374 
 9678      56616C69 
 9679              		.weak	_ZTSN8UnitTest15MemoryOutStreamE
 9680              		.section	.rodata._ZTSN8UnitTest15MemoryOutStreamE,"aG",@progbits,_ZTSN8UnitTest15MemoryOutStreamE,
 9681              		.align 16
 9684              	_ZTSN8UnitTest15MemoryOutStreamE:
 9685 0000 4E38556E 		.string	"N8UnitTest15MemoryOutStreamE"
 9685      69745465 
 9685      73743135 
 9685      4D656D6F 
 9685      72794F75 
 9686              		.weak	_ZTIN8UnitTest15MemoryOutStreamE
 9687              		.section	.rodata._ZTIN8UnitTest15MemoryOutStreamE,"aG",@progbits,_ZTIN8UnitTest15MemoryOutStreamE,
 9688              		.align 16
 9691              	_ZTIN8UnitTest15MemoryOutStreamE:
 9692 0000 00000000 		.quad	_ZTVN10__cxxabiv120__si_class_type_infoE+16
 9692      00000000 
 9693 0008 00000000 		.quad	_ZTSN8UnitTest15MemoryOutStreamE
 9693      00000000 
 9694 0010 00000000 		.quad	_ZTISt19basic_ostringstreamIcSt11char_traitsIcESaIcEE
 9694      00000000 
 9695              		.text
 9697              	_Z41__static_initialization_and_destruction_0ii:
 9698              	.LFB1367:
 9699              		.loc 4 306 0
 9700              		.cfi_startproc
 9701 3128 55       		pushq	%rbp
 9702              		.cfi_def_cfa_offset 16
 9703              		.cfi_offset 6, -16
 9704 3129 4889E5   		movq	%rsp, %rbp
 9705              		.cfi_def_cfa_register 6
 9706 312c 4883EC10 		subq	$16, %rsp
 9707 3130 897DFC   		movl	%edi, -4(%rbp)
 9708 3133 8975F8   		movl	%esi, -8(%rbp)
 9709              		.loc 4 306 0
 9710 3136 837DFC01 		cmpl	$1, -4(%rbp)
 9711 313a 0F85BE02 		jne	.L496
 9711      0000
 9712              		.loc 4 306 0 is_stmt 0 discriminator 1
 9713 3140 817DF8FF 		cmpl	$65535, -8(%rbp)
 9713      FF0000
 9714 3147 0F85B102 		jne	.L496
 9714      0000
  27:testHexIO.cpp **** 	Buffer data, mask;
 9715              		.loc 4 27 0 is_stmt 1
 9716 314d BF000000 		movl	$testHexIO_testValidDataLineInstance, %edi
 9716      00
 9717 3152 E8000000 		call	_ZN27TestHexIO_testValidDataLineC1Ev
 9717      00
 9718 3157 BA000000 		movl	$__dso_handle, %edx
 9718      00
 9719 315c BE000000 		movl	$testHexIO_testValidDataLineInstance, %esi
 9719      00
 9720 3161 BF000000 		movl	$_ZN27TestHexIO_testValidDataLineD1Ev, %edi
 9720      00
 9721 3166 E8000000 		call	__cxa_atexit
 9721      00
 9722 316b E8000000 		call	_ZN8UnitTest4Test11GetTestListEv
 9722      00
 9723 3170 BA000000 		movl	$testHexIO_testValidDataLineInstance, %edx
 9723      00
 9724 3175 4889C6   		movq	%rax, %rsi
 9725 3178 BF000000 		movl	$adderHexIO_testValidDataLine, %edi
 9725      00
 9726 317d E8000000 		call	_ZN8UnitTest9ListAdderC1ERNS_8TestListEPNS_4TestE
 9726      00
  50:testHexIO.cpp **** 	Buffer data, mask;
 9727              		.loc 4 50 0
 9728 3182 BF000000 		movl	$testHexIO_testValidEOFInstance, %edi
 9728      00
 9729 3187 E8000000 		call	_ZN22TestHexIO_testValidEOFC1Ev
 9729      00
 9730 318c BA000000 		movl	$__dso_handle, %edx
 9730      00
 9731 3191 BE000000 		movl	$testHexIO_testValidEOFInstance, %esi
 9731      00
 9732 3196 BF000000 		movl	$_ZN22TestHexIO_testValidEOFD1Ev, %edi
 9732      00
 9733 319b E8000000 		call	__cxa_atexit
 9733      00
 9734 31a0 E8000000 		call	_ZN8UnitTest4Test11GetTestListEv
 9734      00
 9735 31a5 BA000000 		movl	$testHexIO_testValidEOFInstance, %edx
 9735      00
 9736 31aa 4889C6   		movq	%rax, %rsi
 9737 31ad BF000000 		movl	$adderHexIO_testValidEOF, %edi
 9737      00
 9738 31b2 E8000000 		call	_ZN8UnitTest9ListAdderC1ERNS_8TestListEPNS_4TestE
 9738      00
  69:testHexIO.cpp **** 	Buffer data;
 9739              		.loc 4 69 0
 9740 31b7 BF000000 		movl	$testHexIO_testJunkStartCodeInstance, %edi
 9740      00
 9741 31bc E8000000 		call	_ZN27TestHexIO_testJunkStartCodeC1Ev
 9741      00
 9742 31c1 BA000000 		movl	$__dso_handle, %edx
 9742      00
 9743 31c6 BE000000 		movl	$testHexIO_testJunkStartCodeInstance, %esi
 9743      00
 9744 31cb BF000000 		movl	$_ZN27TestHexIO_testJunkStartCodeD1Ev, %edi
 9744      00
 9745 31d0 E8000000 		call	__cxa_atexit
 9745      00
 9746 31d5 E8000000 		call	_ZN8UnitTest4Test11GetTestListEv
 9746      00
 9747 31da BA000000 		movl	$testHexIO_testJunkStartCodeInstance, %edx
 9747      00
 9748 31df 4889C6   		movq	%rax, %rsi
 9749 31e2 BF000000 		movl	$adderHexIO_testJunkStartCode, %edi
 9749      00
 9750 31e7 E8000000 		call	_ZN8UnitTest9ListAdderC1ERNS_8TestListEPNS_4TestE
 9750      00
  82:testHexIO.cpp **** 	Buffer data;
 9751              		.loc 4 82 0
 9752 31ec BF000000 		movl	$testHexIO_testJunkByteCountInstance, %edi
 9752      00
 9753 31f1 E8000000 		call	_ZN27TestHexIO_testJunkByteCountC1Ev
 9753      00
 9754 31f6 BA000000 		movl	$__dso_handle, %edx
 9754      00
 9755 31fb BE000000 		movl	$testHexIO_testJunkByteCountInstance, %esi
 9755      00
 9756 3200 BF000000 		movl	$_ZN27TestHexIO_testJunkByteCountD1Ev, %edi
 9756      00
 9757 3205 E8000000 		call	__cxa_atexit
 9757      00
 9758 320a E8000000 		call	_ZN8UnitTest4Test11GetTestListEv
 9758      00
 9759 320f BA000000 		movl	$testHexIO_testJunkByteCountInstance, %edx
 9759      00
 9760 3214 4889C6   		movq	%rax, %rsi
 9761 3217 BF000000 		movl	$adderHexIO_testJunkByteCount, %edi
 9761      00
 9762 321c E8000000 		call	_ZN8UnitTest9ListAdderC1ERNS_8TestListEPNS_4TestE
 9762      00
  95:testHexIO.cpp **** 	Buffer data;
 9763              		.loc 4 95 0
 9764 3221 BF000000 		movl	$testHexIO_testJunkAddrMsbInstance, %edi
 9764      00
 9765 3226 E8000000 		call	_ZN25TestHexIO_testJunkAddrMsbC1Ev
 9765      00
 9766 322b BA000000 		movl	$__dso_handle, %edx
 9766      00
 9767 3230 BE000000 		movl	$testHexIO_testJunkAddrMsbInstance, %esi
 9767      00
 9768 3235 BF000000 		movl	$_ZN25TestHexIO_testJunkAddrMsbD1Ev, %edi
 9768      00
 9769 323a E8000000 		call	__cxa_atexit
 9769      00
 9770 323f E8000000 		call	_ZN8UnitTest4Test11GetTestListEv
 9770      00
 9771 3244 BA000000 		movl	$testHexIO_testJunkAddrMsbInstance, %edx
 9771      00
 9772 3249 4889C6   		movq	%rax, %rsi
 9773 324c BF000000 		movl	$adderHexIO_testJunkAddrMsb, %edi
 9773      00
 9774 3251 E8000000 		call	_ZN8UnitTest9ListAdderC1ERNS_8TestListEPNS_4TestE
 9774      00
 108:testHexIO.cpp **** 	Buffer data;
 9775              		.loc 4 108 0
 9776 3256 BF000000 		movl	$testHexIO_testJunkAddrLsbInstance, %edi
 9776      00
 9777 325b E8000000 		call	_ZN25TestHexIO_testJunkAddrLsbC1Ev
 9777      00
 9778 3260 BA000000 		movl	$__dso_handle, %edx
 9778      00
 9779 3265 BE000000 		movl	$testHexIO_testJunkAddrLsbInstance, %esi
 9779      00
 9780 326a BF000000 		movl	$_ZN25TestHexIO_testJunkAddrLsbD1Ev, %edi
 9780      00
 9781 326f E8000000 		call	__cxa_atexit
 9781      00
 9782 3274 E8000000 		call	_ZN8UnitTest4Test11GetTestListEv
 9782      00
 9783 3279 BA000000 		movl	$testHexIO_testJunkAddrLsbInstance, %edx
 9783      00
 9784 327e 4889C6   		movq	%rax, %rsi
 9785 3281 BF000000 		movl	$adderHexIO_testJunkAddrLsb, %edi
 9785      00
 9786 3286 E8000000 		call	_ZN8UnitTest9ListAdderC1ERNS_8TestListEPNS_4TestE
 9786      00
 121:testHexIO.cpp **** 	Buffer data;
 9787              		.loc 4 121 0
 9788 328b BF000000 		movl	$testHexIO_testJunkRecTypeInstance, %edi
 9788      00
 9789 3290 E8000000 		call	_ZN25TestHexIO_testJunkRecTypeC1Ev
 9789      00
 9790 3295 BA000000 		movl	$__dso_handle, %edx
 9790      00
 9791 329a BE000000 		movl	$testHexIO_testJunkRecTypeInstance, %esi
 9791      00
 9792 329f BF000000 		movl	$_ZN25TestHexIO_testJunkRecTypeD1Ev, %edi
 9792      00
 9793 32a4 E8000000 		call	__cxa_atexit
 9793      00
 9794 32a9 E8000000 		call	_ZN8UnitTest4Test11GetTestListEv
 9794      00
 9795 32ae BA000000 		movl	$testHexIO_testJunkRecTypeInstance, %edx
 9795      00
 9796 32b3 4889C6   		movq	%rax, %rsi
 9797 32b6 BF000000 		movl	$adderHexIO_testJunkRecType, %edi
 9797      00
 9798 32bb E8000000 		call	_ZN8UnitTest9ListAdderC1ERNS_8TestListEPNS_4TestE
 9798      00
 134:testHexIO.cpp **** 	Buffer data;
 9799              		.loc 4 134 0
 9800 32c0 BF000000 		movl	$testHexIO_testJunkDataByteInstance, %edi
 9800      00
 9801 32c5 E8000000 		call	_ZN26TestHexIO_testJunkDataByteC1Ev
 9801      00
 9802 32ca BA000000 		movl	$__dso_handle, %edx
 9802      00
 9803 32cf BE000000 		movl	$testHexIO_testJunkDataByteInstance, %esi
 9803      00
 9804 32d4 BF000000 		movl	$_ZN26TestHexIO_testJunkDataByteD1Ev, %edi
 9804      00
 9805 32d9 E8000000 		call	__cxa_atexit
 9805      00
 9806 32de E8000000 		call	_ZN8UnitTest4Test11GetTestListEv
 9806      00
 9807 32e3 BA000000 		movl	$testHexIO_testJunkDataByteInstance, %edx
 9807      00
 9808 32e8 4889C6   		movq	%rax, %rsi
 9809 32eb BF000000 		movl	$adderHexIO_testJunkDataByte, %edi
 9809      00
 9810 32f0 E8000000 		call	_ZN8UnitTest9ListAdderC1ERNS_8TestListEPNS_4TestE
 9810      00
 147:testHexIO.cpp **** 	Buffer data;
 9811              		.loc 4 147 0
 9812 32f5 BF000000 		movl	$testHexIO_testJunkChecksumInstance, %edi
 9812      00
 9813 32fa E8000000 		call	_ZN26TestHexIO_testJunkChecksumC1Ev
 9813      00
 9814 32ff BA000000 		movl	$__dso_handle, %edx
 9814      00
 9815 3304 BE000000 		movl	$testHexIO_testJunkChecksumInstance, %esi
 9815      00
 9816 3309 BF000000 		movl	$_ZN26TestHexIO_testJunkChecksumD1Ev, %edi
 9816      00
 9817 330e E8000000 		call	__cxa_atexit
 9817      00
 9818 3313 E8000000 		call	_ZN8UnitTest4Test11GetTestListEv
 9818      00
 9819 3318 BA000000 		movl	$testHexIO_testJunkChecksumInstance, %edx
 9819      00
 9820 331d 4889C6   		movq	%rax, %rsi
 9821 3320 BF000000 		movl	$adderHexIO_testJunkChecksum, %edi
 9821      00
 9822 3325 E8000000 		call	_ZN8UnitTest9ListAdderC1ERNS_8TestListEPNS_4TestE
 9822      00
 160:testHexIO.cpp **** 	Buffer data;
 9823              		.loc 4 160 0
 9824 332a BF000000 		movl	$testHexIO_testBadChecksumInstance, %edi
 9824      00
 9825 332f E8000000 		call	_ZN25TestHexIO_testBadChecksumC1Ev
 9825      00
 9826 3334 BA000000 		movl	$__dso_handle, %edx
 9826      00
 9827 3339 BE000000 		movl	$testHexIO_testBadChecksumInstance, %esi
 9827      00
 9828 333e BF000000 		movl	$_ZN25TestHexIO_testBadChecksumD1Ev, %edi
 9828      00
 9829 3343 E8000000 		call	__cxa_atexit
 9829      00
 9830 3348 E8000000 		call	_ZN8UnitTest4Test11GetTestListEv
 9830      00
 9831 334d BA000000 		movl	$testHexIO_testBadChecksumInstance, %edx
 9831      00
 9832 3352 4889C6   		movq	%rax, %rsi
 9833 3355 BF000000 		movl	$adderHexIO_testBadChecksum, %edi
 9833      00
 9834 335a E8000000 		call	_ZN8UnitTest9ListAdderC1ERNS_8TestListEPNS_4TestE
 9834      00
 173:testHexIO.cpp **** 	Buffer data;
 9835              		.loc 4 173 0
 9836 335f BF000000 		movl	$testHexIO_testCorruptLineInstance, %edi
 9836      00
 9837 3364 E8000000 		call	_ZN25TestHexIO_testCorruptLineC1Ev
 9837      00
 9838 3369 BA000000 		movl	$__dso_handle, %edx
 9838      00
 9839 336e BE000000 		movl	$testHexIO_testCorruptLineInstance, %esi
 9839      00
 9840 3373 BF000000 		movl	$_ZN25TestHexIO_testCorruptLineD1Ev, %edi
 9840      00
 9841 3378 E8000000 		call	__cxa_atexit
 9841      00
 9842 337d E8000000 		call	_ZN8UnitTest4Test11GetTestListEv
 9842      00
 9843 3382 BA000000 		movl	$testHexIO_testCorruptLineInstance, %edx
 9843      00
 9844 3387 4889C6   		movq	%rax, %rsi
 9845 338a BF000000 		movl	$adderHexIO_testCorruptLine, %edi
 9845      00
 9846 338f E8000000 		call	_ZN8UnitTest9ListAdderC1ERNS_8TestListEPNS_4TestE
 9846      00
 242:testHexIO.cpp **** 	testRoundTrip(
 9847              		.loc 4 242 0
 9848 3394 BF000000 		movl	$testHexIO_testRoundTripInstance, %edi
 9848      00
 9849 3399 E8000000 		call	_ZN23TestHexIO_testRoundTripC1Ev
 9849      00
 9850 339e BA000000 		movl	$__dso_handle, %edx
 9850      00
 9851 33a3 BE000000 		movl	$testHexIO_testRoundTripInstance, %esi
 9851      00
 9852 33a8 BF000000 		movl	$_ZN23TestHexIO_testRoundTripD1Ev, %edi
 9852      00
 9853 33ad E8000000 		call	__cxa_atexit
 9853      00
 9854 33b2 E8000000 		call	_ZN8UnitTest4Test11GetTestListEv
 9854      00
 9855 33b7 BA000000 		movl	$testHexIO_testRoundTripInstance, %edx
 9855      00
 9856 33bc 4889C6   		movq	%rax, %rsi
 9857 33bf BF000000 		movl	$adderHexIO_testRoundTrip, %edi
 9857      00
 9858 33c4 E8000000 		call	_ZN8UnitTest9ListAdderC1ERNS_8TestListEPNS_4TestE
 9858      00
 303:testHexIO.cpp **** 	testDeriveWriteMap("Hello........World", "*****........*****");
 9859              		.loc 4 303 0
 9860 33c9 BF000000 		movl	$testHexIO_testDeriveWriteMapInstance, %edi
 9860      00
 9861 33ce E8000000 		call	_ZN28TestHexIO_testDeriveWriteMapC1Ev
 9861      00
 9862 33d3 BA000000 		movl	$__dso_handle, %edx
 9862      00
 9863 33d8 BE000000 		movl	$testHexIO_testDeriveWriteMapInstance, %esi
 9863      00
 9864 33dd BF000000 		movl	$_ZN28TestHexIO_testDeriveWriteMapD1Ev, %edi
 9864      00
 9865 33e2 E8000000 		call	__cxa_atexit
 9865      00
 9866 33e7 E8000000 		call	_ZN8UnitTest4Test11GetTestListEv
 9866      00
 9867 33ec BA000000 		movl	$testHexIO_testDeriveWriteMapInstance, %edx
 9867      00
 9868 33f1 4889C6   		movq	%rax, %rsi
 9869 33f4 BF000000 		movl	$adderHexIO_testDeriveWriteMap, %edi
 9869      00
 9870 33f9 E8000000 		call	_ZN8UnitTest9ListAdderC1ERNS_8TestListEPNS_4TestE
 9870      00
 9871              	.L496:
 9872              		.loc 4 306 0
 9873 33fe C9       		leave
 9874              		.cfi_def_cfa 7, 8
 9875 33ff C3       		ret
 9876              		.cfi_endproc
 9877              	.LFE1367:
 9880              	_GLOBAL__sub_I_testHexIO_testValidDataLineInstance:
 9881              	.LFB1368:
 9882              		.loc 4 306 0
 9883              		.cfi_startproc
 9884 3400 55       		pushq	%rbp
 9885              		.cfi_def_cfa_offset 16
 9886              		.cfi_offset 6, -16
 9887 3401 4889E5   		movq	%rsp, %rbp
 9888              		.cfi_def_cfa_register 6
 9889              		.loc 4 306 0
 9890 3404 BEFFFF00 		movl	$65535, %esi
 9890      00
 9891 3409 BF010000 		movl	$1, %edi
 9891      00
 9892 340e E815FDFF 		call	_Z41__static_initialization_and_destruction_0ii
 9892      FF
 9893 3413 5D       		popq	%rbp
 9894              		.cfi_def_cfa 7, 8
 9895 3414 C3       		ret
 9896              		.cfi_endproc
 9897              	.LFE1368:
 9899              		.section	.init_array,"aw"
 9900              		.align 8
 9901 0000 00000000 		.quad	_GLOBAL__sub_I_testHexIO_testValidDataLineInstance
 9901      00000000 
 9902              		.section	.rodata
 9903 0cb2 00000000 		.align 8
 9903      0000
 9906              	_ZZL18__gthread_active_pvE20__gthread_active_ptr:
 9907 0cb8 00000000 		.quad	_ZL28__gthrw___pthread_key_createPjPFvPvE
 9907      00000000 
 9908              		.weakref	_ZL28__gthrw___pthread_key_createPjPFvPvE,__pthread_key_create
 9909              		.text
 9910              	.Letext0:
 9911              		.file 7 "<built-in>"
 9912              		.file 8 "/usr/lib/gcc/x86_64-linux-gnu/4.9/include/stdarg.h"
 9913              		.file 9 "/usr/include/c++/4.9/cstdarg"
 9914              		.file 10 "/usr/include/c++/4.9/cwchar"
 9915              		.file 11 "/usr/include/c++/4.9/bits/char_traits.h"
 9916              		.file 12 "/usr/include/x86_64-linux-gnu/c++/4.9/bits/c++config.h"
 9917              		.file 13 "/usr/include/c++/4.9/bits/allocator.h"
 9918              		.file 14 "/usr/include/c++/4.9/clocale"
 9919              		.file 15 "/usr/include/c++/4.9/bits/basic_string.h"
 9920              		.file 16 "/usr/include/c++/4.9/bits/basic_string.tcc"
 9921              		.file 17 "/usr/include/c++/4.9/bits/stringfwd.h"
 9922              		.file 18 "/usr/include/c++/4.9/cwctype"
 9923              		.file 19 "/usr/include/c++/4.9/cstdio"
 9924              		.file 20 "/usr/include/c++/4.9/cstring"
 9925              		.file 21 "/usr/include/c++/4.9/iosfwd"
 9926              		.file 22 "/usr/include/c++/4.9/fstream"
 9927              		.file 23 "/usr/include/c++/4.9/debug/debug.h"
 9928              		.file 24 "/usr/include/c++/4.9/bits/predefined_ops.h"
 9929              		.file 25 "/usr/include/c++/4.9/ext/new_allocator.h"
 9930              		.file 26 "/usr/include/c++/4.9/ext/numeric_traits.h"
 9931              		.file 27 "/usr/include/c++/4.9/bits/cpp_type_traits.h"
 9932              		.file 28 "/usr/include/stdio.h"
 9933              		.file 29 "/usr/include/libio.h"
 9934              		.file 30 "/usr/lib/gcc/x86_64-linux-gnu/4.9/include/stddef.h"
 9935              		.file 31 "/usr/include/wchar.h"
 9936              		.file 32 "/usr/include/time.h"
 9937              		.file 33 "/usr/include/locale.h"
 9938              		.file 34 "/usr/include/x86_64-linux-gnu/bits/types.h"
 9939              		.file 35 "/usr/include/x86_64-linux-gnu/c++/4.9/bits/atomic_word.h"
 9940              		.file 36 "/usr/include/wctype.h"
 9941              		.file 37 "/usr/include/_G_config.h"
 9942              		.file 38 "/usr/include/string.h"
 9943              		.file 39 "/home/asoreyh/Dropbox/projects/lago/lago-software/acqua/brc/lago/makestuff/libs/libutpp/
 9944              		.file 40 "/home/asoreyh/Dropbox/projects/lago/lago-software/acqua/brc/lago/makestuff/libs/libutpp/
 9945              		.file 41 "/home/asoreyh/Dropbox/projects/lago/lago-software/acqua/brc/lago/makestuff/libs/libutpp/
 9946              		.file 42 "/home/asoreyh/Dropbox/projects/lago/lago-software/acqua/brc/lago/makestuff/common/makest
 9947              		.file 43 "../libbuffer.h"
DEFINED SYMBOLS
                            *ABS*:0000000000000000 testHexIO.cpp
     /tmp/ccd0lf5W.s:7      .text._ZStorSt13_Ios_OpenmodeS_:0000000000000000 _ZStorSt13_Ios_OpenmodeS_
     /tmp/ccd0lf5W.s:35     .text._ZN13UnitTestSuite12GetSuiteNameEv:0000000000000000 _ZN13UnitTestSuite12GetSuiteNameEv
     /tmp/ccd0lf5W.s:58     .text._ZN8UnitTest15MemoryOutStreamC1Ev:0000000000000000 _ZN8UnitTest15MemoryOutStreamC1Ev
     /tmp/ccd0lf5W.s:9430   .rodata._ZTTN8UnitTest15MemoryOutStreamE:0000000000000000 _ZTTN8UnitTest15MemoryOutStreamE
     /tmp/ccd0lf5W.s:9414   .rodata._ZTVN8UnitTest15MemoryOutStreamE:0000000000000000 _ZTVN8UnitTest15MemoryOutStreamE
     /tmp/ccd0lf5W.s:176    .text._ZN27TestHexIO_testValidDataLineC2Ev:0000000000000000 _ZN27TestHexIO_testValidDataLineC2Ev
     /tmp/ccd0lf5W.s:9335   .rodata._ZTV27TestHexIO_testValidDataLine:0000000000000000 _ZTV27TestHexIO_testValidDataLine
     /tmp/ccd0lf5W.s:176    .text._ZN27TestHexIO_testValidDataLineC2Ev:0000000000000000 _ZN27TestHexIO_testValidDataLineC1Ev
     /tmp/ccd0lf5W.s:214    .bss:0000000000000000 testHexIO_testValidDataLineInstance
     /tmp/ccd0lf5W.s:219    .bss:0000000000000038 adderHexIO_testValidDataLine
     /tmp/ccd0lf5W.s:249    .text:0000000000000000 _ZNK27TestHexIO_testValidDataLine7RunImplEv
     /tmp/ccd0lf5W.s:6802   .text._ZN8UnitTest10CheckEqualI12BufferStatusS1_EEvRNS_11TestResultsERKT_RKT0_RKNS_11TestDetailsE:0000000000000000 _ZN8UnitTest10CheckEqualI12BufferStatusS1_EEvRNS_11TestResultsERKT_RKT0_RKNS_11TestDetailsE
     /tmp/ccd0lf5W.s:6950   .text._ZN8UnitTest10CheckEqualIihEEvRNS_11TestResultsERKT_RKT0_RKNS_11TestDetailsE:0000000000000000 _ZN8UnitTest10CheckEqualIihEEvRNS_11TestResultsERKT_RKT0_RKNS_11TestDetailsE
     /tmp/ccd0lf5W.s:7097   .text._ZN8UnitTest10CheckEqualImjEEvRNS_11TestResultsERKT_RKT0_RKNS_11TestDetailsE:0000000000000000 _ZN8UnitTest10CheckEqualImjEEvRNS_11TestResultsERKT_RKT0_RKNS_11TestDetailsE
     /tmp/ccd0lf5W.s:7252   .text._ZN8UnitTest15CheckArrayEqualIA4_hPhEEvRNS_11TestResultsERKT_RKT0_iRKNS_11TestDetailsE:0000000000000000 _ZN8UnitTest15CheckArrayEqualIA4_hPhEEvRNS_11TestResultsERKT_RKT0_iRKNS_11TestDetailsE
     /tmp/ccd0lf5W.s:1031   .text._ZN22TestHexIO_testValidEOFC2Ev:0000000000000000 _ZN22TestHexIO_testValidEOFC2Ev
     /tmp/ccd0lf5W.s:9256   .rodata._ZTV22TestHexIO_testValidEOF:0000000000000000 _ZTV22TestHexIO_testValidEOF
     /tmp/ccd0lf5W.s:1031   .text._ZN22TestHexIO_testValidEOFC2Ev:0000000000000000 _ZN22TestHexIO_testValidEOFC1Ev
     /tmp/ccd0lf5W.s:1068   .bss:0000000000000040 testHexIO_testValidEOFInstance
     /tmp/ccd0lf5W.s:1073   .bss:0000000000000078 adderHexIO_testValidEOF
     /tmp/ccd0lf5W.s:1091   .text:00000000000006f8 _ZNK22TestHexIO_testValidEOF7RunImplEv
     /tmp/ccd0lf5W.s:1648   .text._ZN27TestHexIO_testJunkStartCodeC2Ev:0000000000000000 _ZN27TestHexIO_testJunkStartCodeC2Ev
     /tmp/ccd0lf5W.s:9177   .rodata._ZTV27TestHexIO_testJunkStartCode:0000000000000000 _ZTV27TestHexIO_testJunkStartCode
     /tmp/ccd0lf5W.s:1648   .text._ZN27TestHexIO_testJunkStartCodeC2Ev:0000000000000000 _ZN27TestHexIO_testJunkStartCodeC1Ev
     /tmp/ccd0lf5W.s:1685   .bss:0000000000000080 testHexIO_testJunkStartCodeInstance
     /tmp/ccd0lf5W.s:1690   .bss:00000000000000b8 adderHexIO_testJunkStartCode
     /tmp/ccd0lf5W.s:1702   .text:0000000000000bd4 _ZNK27TestHexIO_testJunkStartCode7RunImplEv
     /tmp/ccd0lf5W.s:1955   .text._ZN27TestHexIO_testJunkByteCountC2Ev:0000000000000000 _ZN27TestHexIO_testJunkByteCountC2Ev
     /tmp/ccd0lf5W.s:9098   .rodata._ZTV27TestHexIO_testJunkByteCount:0000000000000000 _ZTV27TestHexIO_testJunkByteCount
     /tmp/ccd0lf5W.s:1955   .text._ZN27TestHexIO_testJunkByteCountC2Ev:0000000000000000 _ZN27TestHexIO_testJunkByteCountC1Ev
     /tmp/ccd0lf5W.s:1992   .bss:00000000000000c0 testHexIO_testJunkByteCountInstance
     /tmp/ccd0lf5W.s:1997   .bss:00000000000000f8 adderHexIO_testJunkByteCount
     /tmp/ccd0lf5W.s:2009   .text:0000000000000dc0 _ZNK27TestHexIO_testJunkByteCount7RunImplEv
     /tmp/ccd0lf5W.s:2262   .text._ZN25TestHexIO_testJunkAddrMsbC2Ev:0000000000000000 _ZN25TestHexIO_testJunkAddrMsbC2Ev
     /tmp/ccd0lf5W.s:9019   .rodata._ZTV25TestHexIO_testJunkAddrMsb:0000000000000000 _ZTV25TestHexIO_testJunkAddrMsb
     /tmp/ccd0lf5W.s:2262   .text._ZN25TestHexIO_testJunkAddrMsbC2Ev:0000000000000000 _ZN25TestHexIO_testJunkAddrMsbC1Ev
     /tmp/ccd0lf5W.s:2299   .bss:0000000000000100 testHexIO_testJunkAddrMsbInstance
     /tmp/ccd0lf5W.s:2304   .bss:0000000000000138 adderHexIO_testJunkAddrMsb
     /tmp/ccd0lf5W.s:2316   .text:0000000000000fac _ZNK25TestHexIO_testJunkAddrMsb7RunImplEv
     /tmp/ccd0lf5W.s:2569   .text._ZN25TestHexIO_testJunkAddrLsbC2Ev:0000000000000000 _ZN25TestHexIO_testJunkAddrLsbC2Ev
     /tmp/ccd0lf5W.s:8940   .rodata._ZTV25TestHexIO_testJunkAddrLsb:0000000000000000 _ZTV25TestHexIO_testJunkAddrLsb
     /tmp/ccd0lf5W.s:2569   .text._ZN25TestHexIO_testJunkAddrLsbC2Ev:0000000000000000 _ZN25TestHexIO_testJunkAddrLsbC1Ev
     /tmp/ccd0lf5W.s:2606   .bss:0000000000000140 testHexIO_testJunkAddrLsbInstance
     /tmp/ccd0lf5W.s:2611   .bss:0000000000000178 adderHexIO_testJunkAddrLsb
     /tmp/ccd0lf5W.s:2623   .text:0000000000001198 _ZNK25TestHexIO_testJunkAddrLsb7RunImplEv
     /tmp/ccd0lf5W.s:2876   .text._ZN25TestHexIO_testJunkRecTypeC2Ev:0000000000000000 _ZN25TestHexIO_testJunkRecTypeC2Ev
     /tmp/ccd0lf5W.s:8861   .rodata._ZTV25TestHexIO_testJunkRecType:0000000000000000 _ZTV25TestHexIO_testJunkRecType
     /tmp/ccd0lf5W.s:2876   .text._ZN25TestHexIO_testJunkRecTypeC2Ev:0000000000000000 _ZN25TestHexIO_testJunkRecTypeC1Ev
     /tmp/ccd0lf5W.s:2913   .bss:0000000000000180 testHexIO_testJunkRecTypeInstance
     /tmp/ccd0lf5W.s:2918   .bss:00000000000001b8 adderHexIO_testJunkRecType
     /tmp/ccd0lf5W.s:2930   .text:0000000000001384 _ZNK25TestHexIO_testJunkRecType7RunImplEv
     /tmp/ccd0lf5W.s:3183   .text._ZN26TestHexIO_testJunkDataByteC2Ev:0000000000000000 _ZN26TestHexIO_testJunkDataByteC2Ev
     /tmp/ccd0lf5W.s:8782   .rodata._ZTV26TestHexIO_testJunkDataByte:0000000000000000 _ZTV26TestHexIO_testJunkDataByte
     /tmp/ccd0lf5W.s:3183   .text._ZN26TestHexIO_testJunkDataByteC2Ev:0000000000000000 _ZN26TestHexIO_testJunkDataByteC1Ev
     /tmp/ccd0lf5W.s:3220   .bss:00000000000001c0 testHexIO_testJunkDataByteInstance
     /tmp/ccd0lf5W.s:3225   .bss:00000000000001f8 adderHexIO_testJunkDataByte
     /tmp/ccd0lf5W.s:3237   .text:0000000000001570 _ZNK26TestHexIO_testJunkDataByte7RunImplEv
     /tmp/ccd0lf5W.s:3490   .text._ZN26TestHexIO_testJunkChecksumC2Ev:0000000000000000 _ZN26TestHexIO_testJunkChecksumC2Ev
     /tmp/ccd0lf5W.s:8703   .rodata._ZTV26TestHexIO_testJunkChecksum:0000000000000000 _ZTV26TestHexIO_testJunkChecksum
     /tmp/ccd0lf5W.s:3490   .text._ZN26TestHexIO_testJunkChecksumC2Ev:0000000000000000 _ZN26TestHexIO_testJunkChecksumC1Ev
     /tmp/ccd0lf5W.s:3527   .bss:0000000000000200 testHexIO_testJunkChecksumInstance
     /tmp/ccd0lf5W.s:3532   .bss:0000000000000238 adderHexIO_testJunkChecksum
     /tmp/ccd0lf5W.s:3544   .text:000000000000175c _ZNK26TestHexIO_testJunkChecksum7RunImplEv
     /tmp/ccd0lf5W.s:3797   .text._ZN25TestHexIO_testBadChecksumC2Ev:0000000000000000 _ZN25TestHexIO_testBadChecksumC2Ev
     /tmp/ccd0lf5W.s:8624   .rodata._ZTV25TestHexIO_testBadChecksum:0000000000000000 _ZTV25TestHexIO_testBadChecksum
     /tmp/ccd0lf5W.s:3797   .text._ZN25TestHexIO_testBadChecksumC2Ev:0000000000000000 _ZN25TestHexIO_testBadChecksumC1Ev
     /tmp/ccd0lf5W.s:3834   .bss:0000000000000240 testHexIO_testBadChecksumInstance
     /tmp/ccd0lf5W.s:3839   .bss:0000000000000278 adderHexIO_testBadChecksum
     /tmp/ccd0lf5W.s:3851   .text:0000000000001948 _ZNK25TestHexIO_testBadChecksum7RunImplEv
     /tmp/ccd0lf5W.s:4104   .text._ZN25TestHexIO_testCorruptLineC2Ev:0000000000000000 _ZN25TestHexIO_testCorruptLineC2Ev
     /tmp/ccd0lf5W.s:8545   .rodata._ZTV25TestHexIO_testCorruptLine:0000000000000000 _ZTV25TestHexIO_testCorruptLine
     /tmp/ccd0lf5W.s:4104   .text._ZN25TestHexIO_testCorruptLineC2Ev:0000000000000000 _ZN25TestHexIO_testCorruptLineC1Ev
     /tmp/ccd0lf5W.s:4141   .bss:0000000000000280 testHexIO_testCorruptLineInstance
     /tmp/ccd0lf5W.s:4146   .bss:00000000000002b8 adderHexIO_testCorruptLine
     /tmp/ccd0lf5W.s:4158   .text:0000000000001b34 _ZNK25TestHexIO_testCorruptLine7RunImplEv
     /tmp/ccd0lf5W.s:4433   .text:0000000000001d1f _Z13testRoundTripPKcz
     /tmp/ccd0lf5W.s:7477   .text._ZNSt4fposI11__mbstate_tEC2Ev:0000000000000000 _ZNSt4fposI11__mbstate_tEC1Ev
     /tmp/ccd0lf5W.s:7508   .text._ZN8UnitTest5CheckIbEEbT_:0000000000000000 _ZN8UnitTest5CheckIbEEbT_
     /tmp/ccd0lf5W.s:7532   .text._ZNKSt4fposI11__mbstate_tEcvlEv:0000000000000000 _ZNKSt4fposI11__mbstate_tEcvlEv
     /tmp/ccd0lf5W.s:7554   .text._ZN8UnitTest15CheckArrayEqualIPKcS2_EEvRNS_11TestResultsERKT_RKT0_iRKNS_11TestDetailsE:0000000000000000 _ZN8UnitTest15CheckArrayEqualIPKcS2_EEvRNS_11TestResultsERKT_RKT0_iRKNS_11TestDetailsE
     /tmp/ccd0lf5W.s:7782   .text._ZN8UnitTest10CheckEqualIjjEEvRNS_11TestResultsERKT_RKT0_RKNS_11TestDetailsE:0000000000000000 _ZN8UnitTest10CheckEqualIjjEEvRNS_11TestResultsERKT_RKT0_RKNS_11TestDetailsE
     /tmp/ccd0lf5W.s:7927   .text._ZN8UnitTest15CheckArrayEqualIPhS1_EEvRNS_11TestResultsERKT_RKT0_iRKNS_11TestDetailsE:0000000000000000 _ZN8UnitTest15CheckArrayEqualIPhS1_EEvRNS_11TestResultsERKT_RKT0_iRKNS_11TestDetailsE
     /tmp/ccd0lf5W.s:5759   .text._ZN23TestHexIO_testRoundTripC2Ev:0000000000000000 _ZN23TestHexIO_testRoundTripC2Ev
     /tmp/ccd0lf5W.s:8466   .rodata._ZTV23TestHexIO_testRoundTrip:0000000000000000 _ZTV23TestHexIO_testRoundTrip
     /tmp/ccd0lf5W.s:5759   .text._ZN23TestHexIO_testRoundTripC2Ev:0000000000000000 _ZN23TestHexIO_testRoundTripC1Ev
     /tmp/ccd0lf5W.s:5796   .bss:00000000000002c0 testHexIO_testRoundTripInstance
     /tmp/ccd0lf5W.s:5801   .bss:00000000000002f8 adderHexIO_testRoundTrip
     /tmp/ccd0lf5W.s:5855   .text:0000000000002afe _ZNK23TestHexIO_testRoundTrip7RunImplEv
     /tmp/ccd0lf5W.s:5929   .text:0000000000002bd7 _Z18testDeriveWriteMapPKcS0_
     /tmp/ccd0lf5W.s:8155   .text._ZN8UnitTest15CheckArrayEqualIPKcPhEEvRNS_11TestResultsERKT_RKT0_iRKNS_11TestDetailsE:0000000000000000 _ZN8UnitTest15CheckArrayEqualIPKcPhEEvRNS_11TestResultsERKT_RKT0_iRKNS_11TestDetailsE
     /tmp/ccd0lf5W.s:6528   .text._ZN28TestHexIO_testDeriveWriteMapC2Ev:0000000000000000 _ZN28TestHexIO_testDeriveWriteMapC2Ev
     /tmp/ccd0lf5W.s:8387   .rodata._ZTV28TestHexIO_testDeriveWriteMap:0000000000000000 _ZTV28TestHexIO_testDeriveWriteMap
     /tmp/ccd0lf5W.s:6528   .text._ZN28TestHexIO_testDeriveWriteMapC2Ev:0000000000000000 _ZN28TestHexIO_testDeriveWriteMapC1Ev
     /tmp/ccd0lf5W.s:6565   .bss:0000000000000300 testHexIO_testDeriveWriteMapInstance
     /tmp/ccd0lf5W.s:6570   .bss:0000000000000338 adderHexIO_testDeriveWriteMap
     /tmp/ccd0lf5W.s:6585   .text:00000000000030fc _ZNK28TestHexIO_testDeriveWriteMap7RunImplEv
     /tmp/ccd0lf5W.s:6615   .text._ZN8UnitTest15MemoryOutStreamD1Ev:0000000000000000 _ZN8UnitTest15MemoryOutStreamD1Ev
     /tmp/ccd0lf5W.s:6743   .text._ZN8UnitTest15MemoryOutStreamD1Ev:00000000000000c8 _ZTv0_n24_N8UnitTest15MemoryOutStreamD1Ev
     /tmp/ccd0lf5W.s:6757   .text._ZN8UnitTest15MemoryOutStreamD0Ev:0000000000000000 _ZN8UnitTest15MemoryOutStreamD0Ev
     /tmp/ccd0lf5W.s:6784   .text._ZN8UnitTest15MemoryOutStreamD0Ev:0000000000000026 _ZTv0_n24_N8UnitTest15MemoryOutStreamD0Ev
     /tmp/ccd0lf5W.s:7477   .text._ZNSt4fposI11__mbstate_tEC2Ev:0000000000000000 _ZNSt4fposI11__mbstate_tEC2Ev
     /tmp/ccd0lf5W.s:9476   .rodata._ZTI28TestHexIO_testDeriveWriteMap:0000000000000000 _ZTI28TestHexIO_testDeriveWriteMap
     /tmp/ccd0lf5W.s:8397   .text._ZN28TestHexIO_testDeriveWriteMapD2Ev:0000000000000000 _ZN28TestHexIO_testDeriveWriteMapD1Ev
     /tmp/ccd0lf5W.s:8437   .text._ZN28TestHexIO_testDeriveWriteMapD0Ev:0000000000000000 _ZN28TestHexIO_testDeriveWriteMapD0Ev
     /tmp/ccd0lf5W.s:8397   .text._ZN28TestHexIO_testDeriveWriteMapD2Ev:0000000000000000 _ZN28TestHexIO_testDeriveWriteMapD2Ev
     /tmp/ccd0lf5W.s:9492   .rodata._ZTI23TestHexIO_testRoundTrip:0000000000000000 _ZTI23TestHexIO_testRoundTrip
     /tmp/ccd0lf5W.s:8476   .text._ZN23TestHexIO_testRoundTripD2Ev:0000000000000000 _ZN23TestHexIO_testRoundTripD1Ev
     /tmp/ccd0lf5W.s:8516   .text._ZN23TestHexIO_testRoundTripD0Ev:0000000000000000 _ZN23TestHexIO_testRoundTripD0Ev
     /tmp/ccd0lf5W.s:8476   .text._ZN23TestHexIO_testRoundTripD2Ev:0000000000000000 _ZN23TestHexIO_testRoundTripD2Ev
     /tmp/ccd0lf5W.s:9508   .rodata._ZTI25TestHexIO_testCorruptLine:0000000000000000 _ZTI25TestHexIO_testCorruptLine
     /tmp/ccd0lf5W.s:8555   .text._ZN25TestHexIO_testCorruptLineD2Ev:0000000000000000 _ZN25TestHexIO_testCorruptLineD1Ev
     /tmp/ccd0lf5W.s:8595   .text._ZN25TestHexIO_testCorruptLineD0Ev:0000000000000000 _ZN25TestHexIO_testCorruptLineD0Ev
     /tmp/ccd0lf5W.s:8555   .text._ZN25TestHexIO_testCorruptLineD2Ev:0000000000000000 _ZN25TestHexIO_testCorruptLineD2Ev
     /tmp/ccd0lf5W.s:9524   .rodata._ZTI25TestHexIO_testBadChecksum:0000000000000000 _ZTI25TestHexIO_testBadChecksum
     /tmp/ccd0lf5W.s:8634   .text._ZN25TestHexIO_testBadChecksumD2Ev:0000000000000000 _ZN25TestHexIO_testBadChecksumD1Ev
     /tmp/ccd0lf5W.s:8674   .text._ZN25TestHexIO_testBadChecksumD0Ev:0000000000000000 _ZN25TestHexIO_testBadChecksumD0Ev
     /tmp/ccd0lf5W.s:8634   .text._ZN25TestHexIO_testBadChecksumD2Ev:0000000000000000 _ZN25TestHexIO_testBadChecksumD2Ev
     /tmp/ccd0lf5W.s:9540   .rodata._ZTI26TestHexIO_testJunkChecksum:0000000000000000 _ZTI26TestHexIO_testJunkChecksum
     /tmp/ccd0lf5W.s:8713   .text._ZN26TestHexIO_testJunkChecksumD2Ev:0000000000000000 _ZN26TestHexIO_testJunkChecksumD1Ev
     /tmp/ccd0lf5W.s:8753   .text._ZN26TestHexIO_testJunkChecksumD0Ev:0000000000000000 _ZN26TestHexIO_testJunkChecksumD0Ev
     /tmp/ccd0lf5W.s:8713   .text._ZN26TestHexIO_testJunkChecksumD2Ev:0000000000000000 _ZN26TestHexIO_testJunkChecksumD2Ev
     /tmp/ccd0lf5W.s:9556   .rodata._ZTI26TestHexIO_testJunkDataByte:0000000000000000 _ZTI26TestHexIO_testJunkDataByte
     /tmp/ccd0lf5W.s:8792   .text._ZN26TestHexIO_testJunkDataByteD2Ev:0000000000000000 _ZN26TestHexIO_testJunkDataByteD1Ev
     /tmp/ccd0lf5W.s:8832   .text._ZN26TestHexIO_testJunkDataByteD0Ev:0000000000000000 _ZN26TestHexIO_testJunkDataByteD0Ev
     /tmp/ccd0lf5W.s:8792   .text._ZN26TestHexIO_testJunkDataByteD2Ev:0000000000000000 _ZN26TestHexIO_testJunkDataByteD2Ev
     /tmp/ccd0lf5W.s:9572   .rodata._ZTI25TestHexIO_testJunkRecType:0000000000000000 _ZTI25TestHexIO_testJunkRecType
     /tmp/ccd0lf5W.s:8871   .text._ZN25TestHexIO_testJunkRecTypeD2Ev:0000000000000000 _ZN25TestHexIO_testJunkRecTypeD1Ev
     /tmp/ccd0lf5W.s:8911   .text._ZN25TestHexIO_testJunkRecTypeD0Ev:0000000000000000 _ZN25TestHexIO_testJunkRecTypeD0Ev
     /tmp/ccd0lf5W.s:8871   .text._ZN25TestHexIO_testJunkRecTypeD2Ev:0000000000000000 _ZN25TestHexIO_testJunkRecTypeD2Ev
     /tmp/ccd0lf5W.s:9588   .rodata._ZTI25TestHexIO_testJunkAddrLsb:0000000000000000 _ZTI25TestHexIO_testJunkAddrLsb
     /tmp/ccd0lf5W.s:8950   .text._ZN25TestHexIO_testJunkAddrLsbD2Ev:0000000000000000 _ZN25TestHexIO_testJunkAddrLsbD1Ev
     /tmp/ccd0lf5W.s:8990   .text._ZN25TestHexIO_testJunkAddrLsbD0Ev:0000000000000000 _ZN25TestHexIO_testJunkAddrLsbD0Ev
     /tmp/ccd0lf5W.s:8950   .text._ZN25TestHexIO_testJunkAddrLsbD2Ev:0000000000000000 _ZN25TestHexIO_testJunkAddrLsbD2Ev
     /tmp/ccd0lf5W.s:9604   .rodata._ZTI25TestHexIO_testJunkAddrMsb:0000000000000000 _ZTI25TestHexIO_testJunkAddrMsb
     /tmp/ccd0lf5W.s:9029   .text._ZN25TestHexIO_testJunkAddrMsbD2Ev:0000000000000000 _ZN25TestHexIO_testJunkAddrMsbD1Ev
     /tmp/ccd0lf5W.s:9069   .text._ZN25TestHexIO_testJunkAddrMsbD0Ev:0000000000000000 _ZN25TestHexIO_testJunkAddrMsbD0Ev
     /tmp/ccd0lf5W.s:9029   .text._ZN25TestHexIO_testJunkAddrMsbD2Ev:0000000000000000 _ZN25TestHexIO_testJunkAddrMsbD2Ev
     /tmp/ccd0lf5W.s:9620   .rodata._ZTI27TestHexIO_testJunkByteCount:0000000000000000 _ZTI27TestHexIO_testJunkByteCount
     /tmp/ccd0lf5W.s:9108   .text._ZN27TestHexIO_testJunkByteCountD2Ev:0000000000000000 _ZN27TestHexIO_testJunkByteCountD1Ev
     /tmp/ccd0lf5W.s:9148   .text._ZN27TestHexIO_testJunkByteCountD0Ev:0000000000000000 _ZN27TestHexIO_testJunkByteCountD0Ev
     /tmp/ccd0lf5W.s:9108   .text._ZN27TestHexIO_testJunkByteCountD2Ev:0000000000000000 _ZN27TestHexIO_testJunkByteCountD2Ev
     /tmp/ccd0lf5W.s:9636   .rodata._ZTI27TestHexIO_testJunkStartCode:0000000000000000 _ZTI27TestHexIO_testJunkStartCode
     /tmp/ccd0lf5W.s:9187   .text._ZN27TestHexIO_testJunkStartCodeD2Ev:0000000000000000 _ZN27TestHexIO_testJunkStartCodeD1Ev
     /tmp/ccd0lf5W.s:9227   .text._ZN27TestHexIO_testJunkStartCodeD0Ev:0000000000000000 _ZN27TestHexIO_testJunkStartCodeD0Ev
     /tmp/ccd0lf5W.s:9187   .text._ZN27TestHexIO_testJunkStartCodeD2Ev:0000000000000000 _ZN27TestHexIO_testJunkStartCodeD2Ev
     /tmp/ccd0lf5W.s:9652   .rodata._ZTI22TestHexIO_testValidEOF:0000000000000000 _ZTI22TestHexIO_testValidEOF
     /tmp/ccd0lf5W.s:9266   .text._ZN22TestHexIO_testValidEOFD2Ev:0000000000000000 _ZN22TestHexIO_testValidEOFD1Ev
     /tmp/ccd0lf5W.s:9306   .text._ZN22TestHexIO_testValidEOFD0Ev:0000000000000000 _ZN22TestHexIO_testValidEOFD0Ev
     /tmp/ccd0lf5W.s:9266   .text._ZN22TestHexIO_testValidEOFD2Ev:0000000000000000 _ZN22TestHexIO_testValidEOFD2Ev
     /tmp/ccd0lf5W.s:9668   .rodata._ZTI27TestHexIO_testValidDataLine:0000000000000000 _ZTI27TestHexIO_testValidDataLine
     /tmp/ccd0lf5W.s:9345   .text._ZN27TestHexIO_testValidDataLineD2Ev:0000000000000000 _ZN27TestHexIO_testValidDataLineD1Ev
     /tmp/ccd0lf5W.s:9385   .text._ZN27TestHexIO_testValidDataLineD0Ev:0000000000000000 _ZN27TestHexIO_testValidDataLineD0Ev
     /tmp/ccd0lf5W.s:9345   .text._ZN27TestHexIO_testValidDataLineD2Ev:0000000000000000 _ZN27TestHexIO_testValidDataLineD2Ev
     /tmp/ccd0lf5W.s:9691   .rodata._ZTIN8UnitTest15MemoryOutStreamE:0000000000000000 _ZTIN8UnitTest15MemoryOutStreamE
     /tmp/ccd0lf5W.s:9443   .rodata._ZTCN8UnitTest15MemoryOutStreamE0_St19basic_ostringstreamIcSt11char_traitsIcESaIcEE:0000000000000000 _ZTCN8UnitTest15MemoryOutStreamE0_St19basic_ostringstreamIcSt11char_traitsIcESaIcEE
     /tmp/ccd0lf5W.s:9460   .rodata._ZTCN8UnitTest15MemoryOutStreamE0_So:0000000000000000 _ZTCN8UnitTest15MemoryOutStreamE0_So
     /tmp/ccd0lf5W.s:9485   .rodata._ZTS28TestHexIO_testDeriveWriteMap:0000000000000000 _ZTS28TestHexIO_testDeriveWriteMap
     /tmp/ccd0lf5W.s:9501   .rodata._ZTS23TestHexIO_testRoundTrip:0000000000000000 _ZTS23TestHexIO_testRoundTrip
     /tmp/ccd0lf5W.s:9517   .rodata._ZTS25TestHexIO_testCorruptLine:0000000000000000 _ZTS25TestHexIO_testCorruptLine
     /tmp/ccd0lf5W.s:9533   .rodata._ZTS25TestHexIO_testBadChecksum:0000000000000000 _ZTS25TestHexIO_testBadChecksum
     /tmp/ccd0lf5W.s:9549   .rodata._ZTS26TestHexIO_testJunkChecksum:0000000000000000 _ZTS26TestHexIO_testJunkChecksum
     /tmp/ccd0lf5W.s:9565   .rodata._ZTS26TestHexIO_testJunkDataByte:0000000000000000 _ZTS26TestHexIO_testJunkDataByte
     /tmp/ccd0lf5W.s:9581   .rodata._ZTS25TestHexIO_testJunkRecType:0000000000000000 _ZTS25TestHexIO_testJunkRecType
     /tmp/ccd0lf5W.s:9597   .rodata._ZTS25TestHexIO_testJunkAddrLsb:0000000000000000 _ZTS25TestHexIO_testJunkAddrLsb
     /tmp/ccd0lf5W.s:9613   .rodata._ZTS25TestHexIO_testJunkAddrMsb:0000000000000000 _ZTS25TestHexIO_testJunkAddrMsb
     /tmp/ccd0lf5W.s:9629   .rodata._ZTS27TestHexIO_testJunkByteCount:0000000000000000 _ZTS27TestHexIO_testJunkByteCount
     /tmp/ccd0lf5W.s:9645   .rodata._ZTS27TestHexIO_testJunkStartCode:0000000000000000 _ZTS27TestHexIO_testJunkStartCode
     /tmp/ccd0lf5W.s:9661   .rodata._ZTS22TestHexIO_testValidEOF:0000000000000000 _ZTS22TestHexIO_testValidEOF
     /tmp/ccd0lf5W.s:9677   .rodata._ZTS27TestHexIO_testValidDataLine:0000000000000000 _ZTS27TestHexIO_testValidDataLine
     /tmp/ccd0lf5W.s:9684   .rodata._ZTSN8UnitTest15MemoryOutStreamE:0000000000000000 _ZTSN8UnitTest15MemoryOutStreamE
     /tmp/ccd0lf5W.s:9697   .text:0000000000003128 _Z41__static_initialization_and_destruction_0ii
     /tmp/ccd0lf5W.s:9880   .text:0000000000003400 _GLOBAL__sub_I_testHexIO_testValidDataLineInstance
     /tmp/ccd0lf5W.s:9906   .rodata:0000000000000cb8 _ZZL18__gthread_active_pvE20__gthread_active_ptr
                           .group:0000000000000000 _ZN27TestHexIO_testValidDataLineC5Ev
                           .group:0000000000000000 _ZN22TestHexIO_testValidEOFC5Ev
                           .group:0000000000000000 _ZN27TestHexIO_testJunkStartCodeC5Ev
                           .group:0000000000000000 _ZN27TestHexIO_testJunkByteCountC5Ev
                           .group:0000000000000000 _ZN25TestHexIO_testJunkAddrMsbC5Ev
                           .group:0000000000000000 _ZN25TestHexIO_testJunkAddrLsbC5Ev
                           .group:0000000000000000 _ZN25TestHexIO_testJunkRecTypeC5Ev
                           .group:0000000000000000 _ZN26TestHexIO_testJunkDataByteC5Ev
                           .group:0000000000000000 _ZN26TestHexIO_testJunkChecksumC5Ev
                           .group:0000000000000000 _ZN25TestHexIO_testBadChecksumC5Ev
                           .group:0000000000000000 _ZN25TestHexIO_testCorruptLineC5Ev
                           .group:0000000000000000 _ZN23TestHexIO_testRoundTripC5Ev
                           .group:0000000000000000 _ZN28TestHexIO_testDeriveWriteMapC5Ev
                           .group:0000000000000000 _ZNSt4fposI11__mbstate_tEC5Ev
                           .group:0000000000000000 _ZN28TestHexIO_testDeriveWriteMapD5Ev
                           .group:0000000000000000 _ZN23TestHexIO_testRoundTripD5Ev
                           .group:0000000000000000 _ZN25TestHexIO_testCorruptLineD5Ev
                           .group:0000000000000000 _ZN25TestHexIO_testBadChecksumD5Ev
                           .group:0000000000000000 _ZN26TestHexIO_testJunkChecksumD5Ev
                           .group:0000000000000000 _ZN26TestHexIO_testJunkDataByteD5Ev
                           .group:0000000000000000 _ZN25TestHexIO_testJunkRecTypeD5Ev
                           .group:0000000000000000 _ZN25TestHexIO_testJunkAddrLsbD5Ev
                           .group:0000000000000000 _ZN25TestHexIO_testJunkAddrMsbD5Ev
                           .group:0000000000000000 _ZN27TestHexIO_testJunkByteCountD5Ev
                           .group:0000000000000000 _ZN27TestHexIO_testJunkStartCodeD5Ev
                           .group:0000000000000000 _ZN22TestHexIO_testValidEOFD5Ev
                           .group:0000000000000000 _ZN27TestHexIO_testValidDataLineD5Ev

UNDEFINED SYMBOLS
__gxx_personality_v0
_ZNSt9basic_iosIcSt11char_traitsIcEEC2Ev
_ZNSt19basic_ostringstreamIcSt11char_traitsIcESaIcEEC2ESt13_Ios_Openmode
_ZNSsC1Ev
_ZNSt19basic_ostringstreamIcSt11char_traitsIcESaIcEED2Ev
_ZNSt9basic_iosIcSt11char_traitsIcEED2Ev
_Unwind_Resume
_ZN8UnitTest4TestC2EPKcS2_S2_i
bufInitialise
_ZN8UnitTest11CurrentTest7DetailsEv
_ZN8UnitTest11TestDetailsC1ERKS0_i
_ZN8UnitTest11CurrentTest7ResultsEv
bufProcessLine
bufDestroy
__cxa_end_catch
__cxa_begin_catch
_ZN8UnitTest11TestResults13OnTestFailureERKNS_11TestDetailsEPKc
__stack_chk_fail
_ZNSspLEPKc
_ZNSspLEc
bufWriteToIntelHexFile
_ZNSt14basic_ifstreamIcSt11char_traitsIcEEC1Ev
_ZNSt14basic_ifstreamIcSt11char_traitsIcEE4openEPKcSt13_Ios_Openmode
_ZNSt14basic_ifstreamIcSt11char_traitsIcEE7is_openEv
_ZNSi5tellgEv
_ZNKSs4sizeEv
_Znam
_ZNSi5seekgElSt12_Ios_Seekdir
_ZNSi4readEPcl
_ZNSt14basic_ifstreamIcSt11char_traitsIcEE5closeEv
_ZNKSs5c_strEv
bufReadFromIntelHexFile
_ZNSt14basic_ifstreamIcSt11char_traitsIcEED1Ev
_ZNSsD1Ev
strlen
bufWriteBlock
bufDeriveMask
_ZdlPv
_ZStlsISt11char_traitsIcEERSt13basic_ostreamIcT_ES5_PKc
_ZNSolsEi
_ZNK8UnitTest15MemoryOutStream7GetTextEv
_ZStlsISt11char_traitsIcEERSt13basic_ostreamIcT_ES5_h
_ZNSolsEm
_ZNSolsEj
_ZStlsISt11char_traitsIcEERSt13basic_ostreamIcT_ES5_c
_ZN8UnitTest4TestD2Ev
_ZTISt19basic_ostringstreamIcSt11char_traitsIcESaIcEE
_ZTISo
_ZTVN10__cxxabiv120__si_class_type_infoE
_ZTIN8UnitTest4TestE
__dso_handle
__cxa_atexit
_ZN8UnitTest4Test11GetTestListEv
_ZN8UnitTest9ListAdderC1ERNS_8TestListEPNS_4TestE
__pthread_key_create
