   1              		.file	"testError.cpp"
   2              		.text
   3              	.Ltext0:
   4              		.section	.rodata
   5              	.LC0:
   6 0000 44656661 		.string	"DefaultSuite"
   6      756C7453 
   6      75697465 
   6      00
   7              		.section	.text._ZN13UnitTestSuite12GetSuiteNameEv,"axG",@progbits,_ZN13UnitTestSuite12GetSuiteName
   8              		.weak	_ZN13UnitTestSuite12GetSuiteNameEv
  10              	_ZN13UnitTestSuite12GetSuiteNameEv:
  11              	.LFB0:
  12              		.file 1 "/home/asoreyh/Dropbox/projects/lago/lago-software/acqua/brc/lago/makestuff/libs/libutpp/T
   1:/home/asoreyh/Dropbox/projects/lago/lago-software/acqua/brc/lago/makestuff/libs/libutpp/TestSuite.h **** #ifndef UNITTEST_TESTSUITE_H
   2:/home/asoreyh/Dropbox/projects/lago/lago-software/acqua/brc/lago/makestuff/libs/libutpp/TestSuite.h **** #define UNITTEST_TESTSUITE_H
   3:/home/asoreyh/Dropbox/projects/lago/lago-software/acqua/brc/lago/makestuff/libs/libutpp/TestSuite.h **** 
   4:/home/asoreyh/Dropbox/projects/lago/lago-software/acqua/brc/lago/makestuff/libs/libutpp/TestSuite.h **** namespace UnitTestSuite {
   5:/home/asoreyh/Dropbox/projects/lago/lago-software/acqua/brc/lago/makestuff/libs/libutpp/TestSuite.h **** 
   6:/home/asoreyh/Dropbox/projects/lago/lago-software/acqua/brc/lago/makestuff/libs/libutpp/TestSuite.h ****     inline char const* GetSuiteName ()
   7:/home/asoreyh/Dropbox/projects/lago/lago-software/acqua/brc/lago/makestuff/libs/libutpp/TestSuite.h ****     {
  13              		.loc 1 7 0
  14              		.cfi_startproc
  15 0000 55       		pushq	%rbp
  16              		.cfi_def_cfa_offset 16
  17              		.cfi_offset 6, -16
  18 0001 4889E5   		movq	%rsp, %rbp
  19              		.cfi_def_cfa_register 6
   8:/home/asoreyh/Dropbox/projects/lago/lago-software/acqua/brc/lago/makestuff/libs/libutpp/TestSuite.h ****         return "DefaultSuite";
  20              		.loc 1 8 0
  21 0004 B8000000 		movl	$.LC0, %eax
  21      00
   9:/home/asoreyh/Dropbox/projects/lago/lago-software/acqua/brc/lago/makestuff/libs/libutpp/TestSuite.h ****     }
  22              		.loc 1 9 0
  23 0009 5D       		popq	%rbp
  24              		.cfi_def_cfa 7, 8
  25 000a C3       		ret
  26              		.cfi_endproc
  27              	.LFE0:
  29              		.globl	buf
  30              		.bss
  31              		.align 64
  34              	buf:
  35 0000 00000000 		.zero	1024
  35      00000000 
  35      00000000 
  35      00000000 
  35      00000000 
  36              		.text
  37              		.globl	_Z7fillBufic
  39              	_Z7fillBufic:
  40              	.LFB1069:
  41              		.file 2 "testError.cpp"
   1:testError.cpp **** /*
   2:testError.cpp ****  * Copyright (C) 2009-2012 Chris McClelland
   3:testError.cpp ****  *
   4:testError.cpp ****  * This program is free software: you can redistribute it and/or modify
   5:testError.cpp ****  * it under the terms of the GNU Lesser General Public License as published by
   6:testError.cpp ****  * the Free Software Foundation, either version 3 of the License, or
   7:testError.cpp ****  * (at your option) any later version.
   8:testError.cpp ****  *
   9:testError.cpp ****  * This program is distributed in the hope that it will be useful,
  10:testError.cpp ****  * but WITHOUT ANY WARRANTY; without even the implied warranty of
  11:testError.cpp ****  * MERCHANTABILITY or FITNESS FOR A PARTICULAR PURPOSE.  See the
  12:testError.cpp ****  * GNU Lesser General Public License for more details.
  13:testError.cpp ****  *
  14:testError.cpp ****  * You should have received a copy of the GNU Lesser General Public License
  15:testError.cpp ****  * along with this program.  If not, see <http://www.gnu.org/licenses/>.
  16:testError.cpp ****  */
  17:testError.cpp **** #include <UnitTest++.h>
  18:testError.cpp **** #include <stdio.h>
  19:testError.cpp **** #include <stdlib.h>
  20:testError.cpp **** #include <string.h>
  21:testError.cpp **** #include <errno.h>
  22:testError.cpp **** #include "../liberror.h"
  23:testError.cpp **** 
  24:testError.cpp **** char buf[1024];
  25:testError.cpp **** 
  26:testError.cpp **** void fillBuf(int count, char value) {
  42              		.loc 2 26 0
  43              		.cfi_startproc
  44 0000 55       		pushq	%rbp
  45              		.cfi_def_cfa_offset 16
  46              		.cfi_offset 6, -16
  47 0001 4889E5   		movq	%rsp, %rbp
  48              		.cfi_def_cfa_register 6
  49 0004 897DEC   		movl	%edi, -20(%rbp)
  50 0007 89F0     		movl	%esi, %eax
  51 0009 8845E8   		movb	%al, -24(%rbp)
  52              	.LBB2:
  27:testError.cpp **** 	int i = 0;
  53              		.loc 2 27 0
  54 000c C745FC00 		movl	$0, -4(%rbp)
  54      000000
  28:testError.cpp **** 	while ( i < count ) {
  55              		.loc 2 28 0
  56 0013 EB15     		jmp	.L4
  57              	.L5:
  29:testError.cpp **** 		buf[i++] = value;
  58              		.loc 2 29 0
  59 0015 8B45FC   		movl	-4(%rbp), %eax
  60 0018 8D5001   		leal	1(%rax), %edx
  61 001b 8955FC   		movl	%edx, -4(%rbp)
  62 001e 4898     		cltq
  63 0020 0FB655E8 		movzbl	-24(%rbp), %edx
  64 0024 88900000 		movb	%dl, buf(%rax)
  64      0000
  65              	.L4:
  28:testError.cpp **** 	while ( i < count ) {
  66              		.loc 2 28 0
  67 002a 8B45FC   		movl	-4(%rbp), %eax
  68 002d 3B45EC   		cmpl	-20(%rbp), %eax
  69 0030 7CE3     		jl	.L5
  30:testError.cpp **** 	}
  31:testError.cpp **** 	buf[i++] = '\0';
  70              		.loc 2 31 0
  71 0032 8B45FC   		movl	-4(%rbp), %eax
  72 0035 8D5001   		leal	1(%rax), %edx
  73 0038 8955FC   		movl	%edx, -4(%rbp)
  74 003b 4898     		cltq
  75 003d C6800000 		movb	$0, buf(%rax)
  75      000000
  32:testError.cpp **** 	while ( i < 1024 ) {
  76              		.loc 2 32 0
  77 0044 EB12     		jmp	.L6
  78              	.L7:
  33:testError.cpp **** 		buf[i++] = '.';
  79              		.loc 2 33 0
  80 0046 8B45FC   		movl	-4(%rbp), %eax
  81 0049 8D5001   		leal	1(%rax), %edx
  82 004c 8955FC   		movl	%edx, -4(%rbp)
  83 004f 4898     		cltq
  84 0051 C6800000 		movb	$46, buf(%rax)
  84      00002E
  85              	.L6:
  32:testError.cpp **** 	while ( i < 1024 ) {
  86              		.loc 2 32 0
  87 0058 817DFCFF 		cmpl	$1023, -4(%rbp)
  87      030000
  88 005f 7EE5     		jle	.L7
  89              	.LBE2:
  34:testError.cpp **** 	}
  35:testError.cpp **** }
  90              		.loc 2 35 0
  91 0061 5D       		popq	%rbp
  92              		.cfi_def_cfa 7, 8
  93 0062 C3       		ret
  94              		.cfi_endproc
  95              	.LFE1069:
  97              		.section	.rodata
  98              	.LC1:
  99 000d 74657374 		.string	"testError.cpp"
  99      4572726F 
  99      722E6370 
  99      7000
 100              	.LC2:
 101 001b 4572726F 		.string	"Error_testNullRender"
 101      725F7465 
 101      73744E75 
 101      6C6C5265 
 101      6E646572 
 102              		.section	.text._ZN24TestError_testNullRenderC2Ev,"axG",@progbits,_ZN24TestError_testNullRenderC5Ev
 103              		.align 2
 104              		.weak	_ZN24TestError_testNullRenderC2Ev
 106              	_ZN24TestError_testNullRenderC2Ev:
 107              	.LFB1071:
  36:testError.cpp **** 
  37:testError.cpp **** TEST(Error_testNullRender) {
 108              		.loc 2 37 0
 109              		.cfi_startproc
 110 0000 55       		pushq	%rbp
 111              		.cfi_def_cfa_offset 16
 112              		.cfi_offset 6, -16
 113 0001 4889E5   		movq	%rsp, %rbp
 114              		.cfi_def_cfa_register 6
 115 0004 4883EC10 		subq	$16, %rsp
 116 0008 48897DF8 		movq	%rdi, -8(%rbp)
 117              	.LBB3:
 118              		.loc 2 37 0
 119 000c E8000000 		call	_ZN13UnitTestSuite12GetSuiteNameEv
 119      00
 120 0011 4889C2   		movq	%rax, %rdx
 121 0014 488B45F8 		movq	-8(%rbp), %rax
 122 0018 41B82500 		movl	$37, %r8d
 122      0000
 123 001e B9000000 		movl	$.LC1, %ecx
 123      00
 124 0023 BE000000 		movl	$.LC2, %esi
 124      00
 125 0028 4889C7   		movq	%rax, %rdi
 126 002b E8000000 		call	_ZN8UnitTest4TestC2EPKcS2_S2_i
 126      00
 127 0030 488B45F8 		movq	-8(%rbp), %rax
 128 0034 48C70000 		movq	$_ZTV24TestError_testNullRender+16, (%rax)
 128      000000
 129              	.LBE3:
 130 003b C9       		leave
 131              		.cfi_def_cfa 7, 8
 132 003c C3       		ret
 133              		.cfi_endproc
 134              	.LFE1071:
 136              		.weak	_ZN24TestError_testNullRenderC1Ev
 137              		.set	_ZN24TestError_testNullRenderC1Ev,_ZN24TestError_testNullRenderC2Ev
 138              		.globl	testError_testNullRenderInstance
 139              		.bss
 140              		.align 32
 143              	testError_testNullRenderInstance:
 144 0400 00000000 		.zero	56
 144      00000000 
 144      00000000 
 144      00000000 
 144      00000000 
 145              		.globl	adderError_testNullRender
 148              	adderError_testNullRender:
 149 0438 00       		.zero	1
 150              		.text
 151 0063 90       		.align 2
 152              		.globl	_ZNK24TestError_testNullRender7RunImplEv
 154              	_ZNK24TestError_testNullRender7RunImplEv:
 155              	.LFB1073:
 156              		.loc 2 37 0
 157              		.cfi_startproc
 158 0064 55       		pushq	%rbp
 159              		.cfi_def_cfa_offset 16
 160              		.cfi_offset 6, -16
 161 0065 4889E5   		movq	%rsp, %rbp
 162              		.cfi_def_cfa_register 6
 163 0068 4883EC10 		subq	$16, %rsp
 164 006c 48897DF8 		movq	%rdi, -8(%rbp)
  38:testError.cpp **** 	fillBuf(16, 'A');
 165              		.loc 2 38 0
 166 0070 BE410000 		movl	$65, %esi
 166      00
 167 0075 BF100000 		movl	$16, %edi
 167      00
 168 007a E8000000 		call	_Z7fillBufic
 168      00
  39:testError.cpp **** 	errRender(NULL, buf);
 169              		.loc 2 39 0
 170 007f BE000000 		movl	$buf, %esi
 170      00
 171 0084 BF000000 		movl	$0, %edi
 171      00
 172 0089 B8000000 		movl	$0, %eax
 172      00
 173 008e E8000000 		call	errRender
 173      00
  40:testError.cpp **** }
 174              		.loc 2 40 0
 175 0093 C9       		leave
 176              		.cfi_def_cfa 7, 8
 177 0094 C3       		ret
 178              		.cfi_endproc
 179              	.LFE1073:
 181              		.section	.rodata
 182              	.LC3:
 183 0030 4572726F 		.string	"Error_testRender"
 183      725F7465 
 183      73745265 
 183      6E646572 
 183      00
 184              		.section	.text._ZN20TestError_testRenderC2Ev,"axG",@progbits,_ZN20TestError_testRenderC5Ev,comdat
 185              		.align 2
 186              		.weak	_ZN20TestError_testRenderC2Ev
 188              	_ZN20TestError_testRenderC2Ev:
 189              	.LFB1075:
  41:testError.cpp **** 
  42:testError.cpp **** TEST(Error_testRender) {
 190              		.loc 2 42 0
 191              		.cfi_startproc
 192 0000 55       		pushq	%rbp
 193              		.cfi_def_cfa_offset 16
 194              		.cfi_offset 6, -16
 195 0001 4889E5   		movq	%rsp, %rbp
 196              		.cfi_def_cfa_register 6
 197 0004 4883EC10 		subq	$16, %rsp
 198 0008 48897DF8 		movq	%rdi, -8(%rbp)
 199              	.LBB4:
 200              		.loc 2 42 0
 201 000c E8000000 		call	_ZN13UnitTestSuite12GetSuiteNameEv
 201      00
 202 0011 4889C2   		movq	%rax, %rdx
 203 0014 488B45F8 		movq	-8(%rbp), %rax
 204 0018 41B82A00 		movl	$42, %r8d
 204      0000
 205 001e B9000000 		movl	$.LC1, %ecx
 205      00
 206 0023 BE000000 		movl	$.LC3, %esi
 206      00
 207 0028 4889C7   		movq	%rax, %rdi
 208 002b E8000000 		call	_ZN8UnitTest4TestC2EPKcS2_S2_i
 208      00
 209 0030 488B45F8 		movq	-8(%rbp), %rax
 210 0034 48C70000 		movq	$_ZTV20TestError_testRender+16, (%rax)
 210      000000
 211              	.LBE4:
 212 003b C9       		leave
 213              		.cfi_def_cfa 7, 8
 214 003c C3       		ret
 215              		.cfi_endproc
 216              	.LFE1075:
 218              		.weak	_ZN20TestError_testRenderC1Ev
 219              		.set	_ZN20TestError_testRenderC1Ev,_ZN20TestError_testRenderC2Ev
 220              		.globl	testError_testRenderInstance
 221              		.bss
 222 0439 00000000 		.align 32
 222      000000
 225              	testError_testRenderInstance:
 226 0440 00000000 		.zero	56
 226      00000000 
 226      00000000 
 226      00000000 
 226      00000000 
 227              		.globl	adderError_testRender
 230              	adderError_testRender:
 231 0478 00       		.zero	1
 232              		.section	.rodata
 233 0041 00000000 		.align 8
 233      000000
 234              	.LC4:
 235 0048 556E6861 		.string	"Unhandled exception in CHECK_EQUAL(buf, error)"
 235      6E646C65 
 235      64206578 
 235      63657074 
 235      696F6E20 
 236              		.text
 237 0095 90       		.align 2
 238              		.globl	_ZNK20TestError_testRender7RunImplEv
 240              	_ZNK20TestError_testRender7RunImplEv:
 241              	.LFB1077:
 242              		.loc 2 42 0
 243              		.cfi_startproc
 244              		.cfi_personality 0x3,__gxx_personality_v0
 245              		.cfi_lsda 0x3,.LLSDA1077
 246 0096 55       		pushq	%rbp
 247              		.cfi_def_cfa_offset 16
 248              		.cfi_offset 6, -16
 249 0097 4889E5   		movq	%rsp, %rbp
 250              		.cfi_def_cfa_register 6
 251 009a 53       		pushq	%rbx
 252 009b 4883EC58 		subq	$88, %rsp
 253              		.cfi_offset 3, -24
 254 009f 48897DA8 		movq	%rdi, -88(%rbp)
 255              		.loc 2 42 0
 256 00a3 64488B04 		movq	%fs:40, %rax
 256      25280000 
 256      00
 257 00ac 488945E8 		movq	%rax, -24(%rbp)
 258 00b0 31C0     		xorl	%eax, %eax
 259              	.LBB5:
  43:testError.cpp **** 	int i;
  44:testError.cpp **** 	const char *error;
  45:testError.cpp **** 	for ( i = 500; i < 516; i++ ) {
 260              		.loc 2 45 0
 261 00b2 C745B4F4 		movl	$500, -76(%rbp)
 261      010000
 262 00b9 EB74     		jmp	.L12
 263              	.L13:
  46:testError.cpp **** 		fillBuf(i, 'A');
 264              		.loc 2 46 0
 265 00bb 8B45B4   		movl	-76(%rbp), %eax
 266 00be BE410000 		movl	$65, %esi
 266      00
 267 00c3 89C7     		movl	%eax, %edi
 268 00c5 E8000000 		call	_Z7fillBufic
 268      00
  47:testError.cpp **** 		errRender(&error, buf);
 269              		.loc 2 47 0
 270 00ca 488D45B8 		leaq	-72(%rbp), %rax
 271 00ce BE000000 		movl	$buf, %esi
 271      00
 272 00d3 4889C7   		movq	%rax, %rdi
 273 00d6 B8000000 		movl	$0, %eax
 273      00
 274              	.LEHB0:
 275 00db E8000000 		call	errRender
 275      00
 276              	.LEHE0:
 277              	.LEHB1:
  48:testError.cpp **** 		CHECK_EQUAL(buf, error);
 278              		.loc 2 48 0
 279 00e0 E8000000 		call	_ZN8UnitTest11CurrentTest7DetailsEv
 279      00
 280 00e5 488B08   		movq	(%rax), %rcx
 281 00e8 488D45C0 		leaq	-64(%rbp), %rax
 282 00ec BA300000 		movl	$48, %edx
 282      00
 283 00f1 4889CE   		movq	%rcx, %rsi
 284 00f4 4889C7   		movq	%rax, %rdi
 285 00f7 E8000000 		call	_ZN8UnitTest11TestDetailsC1ERKS0_i
 285      00
 286              		.loc 2 48 0 is_stmt 0 discriminator 2
 287 00fc 488B5DB8 		movq	-72(%rbp), %rbx
 288 0100 E8000000 		call	_ZN8UnitTest11CurrentTest7ResultsEv
 288      00
 289 0105 488B00   		movq	(%rax), %rax
 290 0108 488D55C0 		leaq	-64(%rbp), %rdx
 291 010c 4889D1   		movq	%rdx, %rcx
 292 010f 4889DA   		movq	%rbx, %rdx
 293 0112 BE000000 		movl	$buf, %esi
 293      00
 294 0117 4889C7   		movq	%rax, %rdi
 295 011a E8000000 		call	_ZN8UnitTest10CheckEqualERNS_11TestResultsEPcPKcRKNS_11TestDetailsE
 295      00
 296              	.LEHE1:
 297              	.L16:
  49:testError.cpp **** 		errFree(error);
 298              		.loc 2 49 0 is_stmt 1
 299 011f 488B45B8 		movq	-72(%rbp), %rax
 300 0123 4889C7   		movq	%rax, %rdi
 301              	.LEHB2:
 302 0126 E8000000 		call	errFree
 302      00
 303              	.LEHE2:
  45:testError.cpp **** 		fillBuf(i, 'A');
 304              		.loc 2 45 0
 305 012b 8345B401 		addl	$1, -76(%rbp)
 306              	.L12:
  45:testError.cpp **** 		fillBuf(i, 'A');
 307              		.loc 2 45 0 is_stmt 0 discriminator 1
 308 012f 817DB403 		cmpl	$515, -76(%rbp)
 308      020000
 309 0136 7E83     		jle	.L13
 310              	.LBE5:
  50:testError.cpp **** 	}
  51:testError.cpp **** }
 311              		.loc 2 51 0 is_stmt 1
 312 0138 488B45E8 		movq	-24(%rbp), %rax
 313 013c 64483304 		xorq	%fs:40, %rax
 313      25280000 
 313      00
 314 0145 7464     		je	.L17
 315 0147 EB5D     		jmp	.L20
 316              	.L19:
 317 0149 4889C3   		movq	%rax, %rbx
 318              	.LBB6:
  48:testError.cpp **** 		errFree(error);
 319              		.loc 2 48 0
 320 014c E8000000 		call	__cxa_end_catch
 320      00
 321 0151 4889D8   		movq	%rbx, %rax
 322 0154 4889C7   		movq	%rax, %rdi
 323              	.LEHB3:
 324 0157 E8000000 		call	_Unwind_Resume
 324      00
 325              	.LEHE3:
 326              	.L18:
 327 015c 4889C7   		movq	%rax, %rdi
 328 015f E8000000 		call	__cxa_begin_catch
 328      00
 329              	.LEHB4:
 330 0164 E8000000 		call	_ZN8UnitTest11CurrentTest7DetailsEv
 330      00
 331 0169 488B08   		movq	(%rax), %rcx
 332 016c 488D45C0 		leaq	-64(%rbp), %rax
 333 0170 BA300000 		movl	$48, %edx
 333      00
 334 0175 4889CE   		movq	%rcx, %rsi
 335 0178 4889C7   		movq	%rax, %rdi
 336 017b E8000000 		call	_ZN8UnitTest11TestDetailsC1ERKS0_i
 336      00
  48:testError.cpp **** 		errFree(error);
 337              		.loc 2 48 0 is_stmt 0 discriminator 10
 338 0180 E8000000 		call	_ZN8UnitTest11CurrentTest7ResultsEv
 338      00
 339 0185 488B00   		movq	(%rax), %rax
 340 0188 488D4DC0 		leaq	-64(%rbp), %rcx
 341 018c BA000000 		movl	$.LC4, %edx
 341      00
 342 0191 4889CE   		movq	%rcx, %rsi
 343 0194 4889C7   		movq	%rax, %rdi
 344 0197 E8000000 		call	_ZN8UnitTest11TestResults13OnTestFailureERKNS_11TestDetailsEPKc
 344      00
 345              	.LEHE4:
 346              	.LEHB5:
  48:testError.cpp **** 		errFree(error);
 347              		.loc 2 48 0 discriminator 14
 348 019c E8000000 		call	__cxa_end_catch
 348      00
 349              	.LEHE5:
 350 01a1 E979FFFF 		jmp	.L16
 350      FF
 351              	.L20:
 352              	.LBE6:
 353              		.loc 2 51 0 is_stmt 1
 354 01a6 E8000000 		call	__stack_chk_fail
 354      00
 355              	.L17:
 356 01ab 4883C458 		addq	$88, %rsp
 357 01af 5B       		popq	%rbx
 358 01b0 5D       		popq	%rbp
 359              		.cfi_def_cfa 7, 8
 360 01b1 C3       		ret
 361              		.cfi_endproc
 362              	.LFE1077:
 363              		.globl	__gxx_personality_v0
 364              		.section	.gcc_except_table,"a",@progbits
 365              		.align 4
 366              	.LLSDA1077:
 367 0000 FF       		.byte	0xff
 368 0001 03       		.byte	0x3
 369 0002 29       		.uleb128 .LLSDATT1077-.LLSDATTD1077
 370              	.LLSDATTD1077:
 371 0003 01       		.byte	0x1
 372 0004 1E       		.uleb128 .LLSDACSE1077-.LLSDACSB1077
 373              	.LLSDACSB1077:
 374 0005 45       		.uleb128 .LEHB0-.LFB1077
 375 0006 05       		.uleb128 .LEHE0-.LEHB0
 376 0007 00       		.uleb128 0
 377 0008 00       		.uleb128 0
 378 0009 4A       		.uleb128 .LEHB1-.LFB1077
 379 000a 3F       		.uleb128 .LEHE1-.LEHB1
 380 000b C601     		.uleb128 .L18-.LFB1077
 381 000d 01       		.uleb128 0x1
 382 000e 9001     		.uleb128 .LEHB2-.LFB1077
 383 0010 05       		.uleb128 .LEHE2-.LEHB2
 384 0011 00       		.uleb128 0
 385 0012 00       		.uleb128 0
 386 0013 C101     		.uleb128 .LEHB3-.LFB1077
 387 0015 05       		.uleb128 .LEHE3-.LEHB3
 388 0016 00       		.uleb128 0
 389 0017 00       		.uleb128 0
 390 0018 CE01     		.uleb128 .LEHB4-.LFB1077
 391 001a 38       		.uleb128 .LEHE4-.LEHB4
 392 001b B301     		.uleb128 .L19-.LFB1077
 393 001d 00       		.uleb128 0
 394 001e 8602     		.uleb128 .LEHB5-.LFB1077
 395 0020 05       		.uleb128 .LEHE5-.LEHB5
 396 0021 00       		.uleb128 0
 397 0022 00       		.uleb128 0
 398              	.LLSDACSE1077:
 399 0023 01       		.byte	0x1
 400 0024 00       		.byte	0
 401 0025 000000   		.align 4
 402 0028 00000000 		.long	0
 403              	
 404              	.LLSDATT1077:
 405              		.text
 407              		.section	.rodata
 408              	.LC5:
 409 0077 4572726F 		.string	"Error_testNullStdRender"
 409      725F7465 
 409      73744E75 
 409      6C6C5374 
 409      6452656E 
 410              		.section	.text._ZN27TestError_testNullStdRenderC2Ev,"axG",@progbits,_ZN27TestError_testNullStdRend
 411              		.align 2
 412              		.weak	_ZN27TestError_testNullStdRenderC2Ev
 414              	_ZN27TestError_testNullStdRenderC2Ev:
 415              	.LFB1079:
  52:testError.cpp **** 
  53:testError.cpp **** TEST(Error_testNullStdRender) {
 416              		.loc 2 53 0
 417              		.cfi_startproc
 418 0000 55       		pushq	%rbp
 419              		.cfi_def_cfa_offset 16
 420              		.cfi_offset 6, -16
 421 0001 4889E5   		movq	%rsp, %rbp
 422              		.cfi_def_cfa_register 6
 423 0004 4883EC10 		subq	$16, %rsp
 424 0008 48897DF8 		movq	%rdi, -8(%rbp)
 425              	.LBB7:
 426              		.loc 2 53 0
 427 000c E8000000 		call	_ZN13UnitTestSuite12GetSuiteNameEv
 427      00
 428 0011 4889C2   		movq	%rax, %rdx
 429 0014 488B45F8 		movq	-8(%rbp), %rax
 430 0018 41B83500 		movl	$53, %r8d
 430      0000
 431 001e B9000000 		movl	$.LC1, %ecx
 431      00
 432 0023 BE000000 		movl	$.LC5, %esi
 432      00
 433 0028 4889C7   		movq	%rax, %rdi
 434 002b E8000000 		call	_ZN8UnitTest4TestC2EPKcS2_S2_i
 434      00
 435 0030 488B45F8 		movq	-8(%rbp), %rax
 436 0034 48C70000 		movq	$_ZTV27TestError_testNullStdRender+16, (%rax)
 436      000000
 437              	.LBE7:
 438 003b C9       		leave
 439              		.cfi_def_cfa 7, 8
 440 003c C3       		ret
 441              		.cfi_endproc
 442              	.LFE1079:
 444              		.weak	_ZN27TestError_testNullStdRenderC1Ev
 445              		.set	_ZN27TestError_testNullStdRenderC1Ev,_ZN27TestError_testNullStdRenderC2Ev
 446              		.globl	testError_testNullStdRenderInstance
 447              		.bss
 448 0479 00000000 		.align 32
 448      000000
 451              	testError_testNullStdRenderInstance:
 452 0480 00000000 		.zero	56
 452      00000000 
 452      00000000 
 452      00000000 
 452      00000000 
 453              		.globl	adderError_testNullStdRender
 456              	adderError_testNullStdRender:
 457 04b8 00       		.zero	1
 458              		.text
 459              		.align 2
 460              		.globl	_ZNK27TestError_testNullStdRender7RunImplEv
 462              	_ZNK27TestError_testNullStdRender7RunImplEv:
 463              	.LFB1081:
 464              		.loc 2 53 0
 465              		.cfi_startproc
 466 01b2 55       		pushq	%rbp
 467              		.cfi_def_cfa_offset 16
 468              		.cfi_offset 6, -16
 469 01b3 4889E5   		movq	%rsp, %rbp
 470              		.cfi_def_cfa_register 6
 471 01b6 4883EC10 		subq	$16, %rsp
 472 01ba 48897DF8 		movq	%rdi, -8(%rbp)
  54:testError.cpp **** 	fillBuf(16, 'A');
 473              		.loc 2 54 0
 474 01be BE410000 		movl	$65, %esi
 474      00
 475 01c3 BF100000 		movl	$16, %edi
 475      00
 476 01c8 E8000000 		call	_Z7fillBufic
 476      00
  55:testError.cpp **** 	errRenderStd(NULL);
 477              		.loc 2 55 0
 478 01cd BF000000 		movl	$0, %edi
 478      00
 479 01d2 E8000000 		call	errRenderStd
 479      00
  56:testError.cpp **** }
 480              		.loc 2 56 0
 481 01d7 C9       		leave
 482              		.cfi_def_cfa 7, 8
 483 01d8 C3       		ret
 484              		.cfi_endproc
 485              	.LFE1081:
 487              		.section	.rodata
 488              	.LC6:
 489 008f 4572726F 		.string	"Error_testStdRender"
 489      725F7465 
 489      73745374 
 489      6452656E 
 489      64657200 
 490              		.section	.text._ZN23TestError_testStdRenderC2Ev,"axG",@progbits,_ZN23TestError_testStdRenderC5Ev,c
 491              		.align 2
 492              		.weak	_ZN23TestError_testStdRenderC2Ev
 494              	_ZN23TestError_testStdRenderC2Ev:
 495              	.LFB1083:
  57:testError.cpp **** 
  58:testError.cpp **** TEST(Error_testStdRender) {
 496              		.loc 2 58 0
 497              		.cfi_startproc
 498 0000 55       		pushq	%rbp
 499              		.cfi_def_cfa_offset 16
 500              		.cfi_offset 6, -16
 501 0001 4889E5   		movq	%rsp, %rbp
 502              		.cfi_def_cfa_register 6
 503 0004 4883EC10 		subq	$16, %rsp
 504 0008 48897DF8 		movq	%rdi, -8(%rbp)
 505              	.LBB8:
 506              		.loc 2 58 0
 507 000c E8000000 		call	_ZN13UnitTestSuite12GetSuiteNameEv
 507      00
 508 0011 4889C2   		movq	%rax, %rdx
 509 0014 488B45F8 		movq	-8(%rbp), %rax
 510 0018 41B83A00 		movl	$58, %r8d
 510      0000
 511 001e B9000000 		movl	$.LC1, %ecx
 511      00
 512 0023 BE000000 		movl	$.LC6, %esi
 512      00
 513 0028 4889C7   		movq	%rax, %rdi
 514 002b E8000000 		call	_ZN8UnitTest4TestC2EPKcS2_S2_i
 514      00
 515 0030 488B45F8 		movq	-8(%rbp), %rax
 516 0034 48C70000 		movq	$_ZTV23TestError_testStdRender+16, (%rax)
 516      000000
 517              	.LBE8:
 518 003b C9       		leave
 519              		.cfi_def_cfa 7, 8
 520 003c C3       		ret
 521              		.cfi_endproc
 522              	.LFE1083:
 524              		.weak	_ZN23TestError_testStdRenderC1Ev
 525              		.set	_ZN23TestError_testStdRenderC1Ev,_ZN23TestError_testStdRenderC2Ev
 526              		.globl	testError_testStdRenderInstance
 527              		.bss
 528 04b9 00000000 		.align 32
 528      000000
 531              	testError_testStdRenderInstance:
 532 04c0 00000000 		.zero	56
 532      00000000 
 532      00000000 
 532      00000000 
 532      00000000 
 533              		.globl	adderError_testStdRender
 536              	adderError_testStdRender:
 537 04f8 00       		.zero	1
 538              		.section	.rodata
 539              	.LC7:
 540 00a3 7200     		.string	"r"
 541              	.LC8:
 542 00a5 6E6F6E45 		.string	"nonExistentFile.txt"
 542      78697374 
 542      656E7446 
 542      696C652E 
 542      74787400 
 543              	.LC9:
 544 00b9 216600   		.string	"!f"
 545 00bc 00000000 		.align 8
 546              	.LC10:
 547 00c0 556E6861 		.string	"Unhandled exception in CHECK(!f)"
 547      6E646C65 
 547      64206578 
 547      63657074 
 547      696F6E20 
 548 00e1 00000000 		.align 8
 548      000000
 549              	.LC11:
 550 00e8 556E6861 		.string	"Unhandled exception in CHECK_EQUAL(expected, error)"
 550      6E646C65 
 550      64206578 
 550      63657074 
 550      696F6E20 
 551              		.text
 552 01d9 90       		.align 2
 553              		.globl	_ZNK23TestError_testStdRender7RunImplEv
 555              	_ZNK23TestError_testStdRender7RunImplEv:
 556              	.LFB1085:
 557              		.loc 2 58 0
 558              		.cfi_startproc
 559              		.cfi_personality 0x3,__gxx_personality_v0
 560              		.cfi_lsda 0x3,.LLSDA1085
 561 01da 55       		pushq	%rbp
 562              		.cfi_def_cfa_offset 16
 563              		.cfi_offset 6, -16
 564 01db 4889E5   		movq	%rsp, %rbp
 565              		.cfi_def_cfa_register 6
 566 01de 53       		pushq	%rbx
 567 01df 4883EC68 		subq	$104, %rsp
 568              		.cfi_offset 3, -24
 569 01e3 48897D98 		movq	%rdi, -104(%rbp)
 570              		.loc 2 58 0
 571 01e7 64488B04 		movq	%fs:40, %rax
 571      25280000 
 571      00
 572 01f0 488945E8 		movq	%rax, -24(%rbp)
 573 01f4 31C0     		xorl	%eax, %eax
 574              	.LBB9:
  59:testError.cpp **** 	const char *error, *expected;
  60:testError.cpp **** 	FILE *f;
  61:testError.cpp **** 	f = fopen("nonExistentFile.txt", "r");
 575              		.loc 2 61 0
 576 01f6 BE000000 		movl	$.LC7, %esi
 576      00
 577 01fb BF000000 		movl	$.LC8, %edi
 577      00
 578              	.LEHB6:
 579 0200 E8000000 		call	fopen
 579      00
 580              	.LEHE6:
 581 0205 488945B0 		movq	%rax, -80(%rbp)
  62:testError.cpp **** 	CHECK(!f);
 582              		.loc 2 62 0
 583 0209 48837DB0 		cmpq	$0, -80(%rbp)
 583      00
 584 020e 0F94C0   		sete	%al
 585 0211 0FB6C0   		movzbl	%al, %eax
 586 0214 89C7     		movl	%eax, %edi
 587 0216 E8000000 		call	_ZN8UnitTest5CheckIbEEbT_
 587      00
 588 021b 83F001   		xorl	$1, %eax
 589 021e 84C0     		testb	%al, %al
 590 0220 7438     		je	.L25
 591              	.LEHB7:
 592              		.loc 2 62 0 is_stmt 0 discriminator 1
 593 0222 E8000000 		call	_ZN8UnitTest11CurrentTest7DetailsEv
 593      00
 594 0227 488B08   		movq	(%rax), %rcx
 595 022a 488D45C0 		leaq	-64(%rbp), %rax
 596 022e BA3E0000 		movl	$62, %edx
 596      00
 597 0233 4889CE   		movq	%rcx, %rsi
 598 0236 4889C7   		movq	%rax, %rdi
 599 0239 E8000000 		call	_ZN8UnitTest11TestDetailsC1ERKS0_i
 599      00
 600              		.loc 2 62 0 discriminator 3
 601 023e E8000000 		call	_ZN8UnitTest11CurrentTest7ResultsEv
 601      00
 602 0243 488B00   		movq	(%rax), %rax
 603 0246 488D4DC0 		leaq	-64(%rbp), %rcx
 604 024a BA000000 		movl	$.LC9, %edx
 604      00
 605 024f 4889CE   		movq	%rcx, %rsi
 606 0252 4889C7   		movq	%rax, %rdi
 607 0255 E8000000 		call	_ZN8UnitTest11TestResults13OnTestFailureERKNS_11TestDetailsEPKc
 607      00
 608              	.LEHE7:
 609              	.L25:
  63:testError.cpp **** 	errRenderStd(&error);
 610              		.loc 2 63 0 is_stmt 1
 611 025a 488D45A8 		leaq	-88(%rbp), %rax
 612 025e 4889C7   		movq	%rax, %rdi
 613              	.LEHB8:
 614 0261 E8000000 		call	errRenderStd
 614      00
  64:testError.cpp **** 	f = fopen("nonExistentFile.txt", "r");
 615              		.loc 2 64 0
 616 0266 BE000000 		movl	$.LC7, %esi
 616      00
 617 026b BF000000 		movl	$.LC8, %edi
 617      00
 618 0270 E8000000 		call	fopen
 618      00
 619              	.LEHE8:
 620 0275 488945B0 		movq	%rax, -80(%rbp)
  65:testError.cpp **** 	CHECK(!f);
 621              		.loc 2 65 0
 622 0279 48837DB0 		cmpq	$0, -80(%rbp)
 622      00
 623 027e 0F94C0   		sete	%al
 624 0281 0FB6C0   		movzbl	%al, %eax
 625 0284 89C7     		movl	%eax, %edi
 626 0286 E8000000 		call	_ZN8UnitTest5CheckIbEEbT_
 626      00
 627 028b 83F001   		xorl	$1, %eax
 628 028e 84C0     		testb	%al, %al
 629 0290 7438     		je	.L26
 630              	.LEHB9:
 631              		.loc 2 65 0 is_stmt 0 discriminator 1
 632 0292 E8000000 		call	_ZN8UnitTest11CurrentTest7DetailsEv
 632      00
 633 0297 488B08   		movq	(%rax), %rcx
 634 029a 488D45C0 		leaq	-64(%rbp), %rax
 635 029e BA410000 		movl	$65, %edx
 635      00
 636 02a3 4889CE   		movq	%rcx, %rsi
 637 02a6 4889C7   		movq	%rax, %rdi
 638 02a9 E8000000 		call	_ZN8UnitTest11TestDetailsC1ERKS0_i
 638      00
 639              		.loc 2 65 0 discriminator 3
 640 02ae E8000000 		call	_ZN8UnitTest11CurrentTest7ResultsEv
 640      00
 641 02b3 488B00   		movq	(%rax), %rax
 642 02b6 488D4DC0 		leaq	-64(%rbp), %rcx
 643 02ba BA000000 		movl	$.LC9, %edx
 643      00
 644 02bf 4889CE   		movq	%rcx, %rsi
 645 02c2 4889C7   		movq	%rax, %rdi
 646 02c5 E8000000 		call	_ZN8UnitTest11TestResults13OnTestFailureERKNS_11TestDetailsEPKc
 646      00
 647              	.LEHE9:
 648              	.L26:
  66:testError.cpp **** 	expected = strerror(errno);
 649              		.loc 2 66 0 is_stmt 1
 650 02ca E8000000 		call	__errno_location
 650      00
 651 02cf 8B00     		movl	(%rax), %eax
 652 02d1 89C7     		movl	%eax, %edi
 653 02d3 E8000000 		call	strerror
 653      00
 654 02d8 488945B8 		movq	%rax, -72(%rbp)
 655              	.LEHB10:
  67:testError.cpp **** 	CHECK_EQUAL(expected, error);
 656              		.loc 2 67 0
 657 02dc E8000000 		call	_ZN8UnitTest11CurrentTest7DetailsEv
 657      00
 658 02e1 488B08   		movq	(%rax), %rcx
 659 02e4 488D45C0 		leaq	-64(%rbp), %rax
 660 02e8 BA430000 		movl	$67, %edx
 660      00
 661 02ed 4889CE   		movq	%rcx, %rsi
 662 02f0 4889C7   		movq	%rax, %rdi
 663 02f3 E8000000 		call	_ZN8UnitTest11TestDetailsC1ERKS0_i
 663      00
 664              		.loc 2 67 0 is_stmt 0 discriminator 2
 665 02f8 488B5DA8 		movq	-88(%rbp), %rbx
 666 02fc E8000000 		call	_ZN8UnitTest11CurrentTest7ResultsEv
 666      00
 667 0301 488B00   		movq	(%rax), %rax
 668 0304 488D55C0 		leaq	-64(%rbp), %rdx
 669 0308 488B75B8 		movq	-72(%rbp), %rsi
 670 030c 4889D1   		movq	%rdx, %rcx
 671 030f 4889DA   		movq	%rbx, %rdx
 672 0312 4889C7   		movq	%rax, %rdi
 673 0315 E8000000 		call	_ZN8UnitTest10CheckEqualERNS_11TestResultsEPKcS3_RKNS_11TestDetailsE
 673      00
 674              	.LEHE10:
 675              	.L33:
  68:testError.cpp **** 	errFree(error);
 676              		.loc 2 68 0 is_stmt 1
 677 031a 488B45A8 		movq	-88(%rbp), %rax
 678 031e 4889C7   		movq	%rax, %rdi
 679              	.LEHB11:
 680 0321 E8000000 		call	errFree
 680      00
 681              	.LEHE11:
 682              	.LBE9:
  69:testError.cpp **** }
 683              		.loc 2 69 0
 684 0326 488B45E8 		movq	-24(%rbp), %rax
 685 032a 64483304 		xorq	%fs:40, %rax
 685      25280000 
 685      00
 686 0333 0F842101 		je	.L34
 686      0000
 687 0339 E9170100 		jmp	.L41
 687      00
 688              	.L36:
 689 033e 4889C3   		movq	%rax, %rbx
 690              	.LBB10:
  62:testError.cpp **** 	errRenderStd(&error);
 691              		.loc 2 62 0
 692 0341 E8000000 		call	__cxa_end_catch
 692      00
 693 0346 4889D8   		movq	%rbx, %rax
 694 0349 4889C7   		movq	%rax, %rdi
 695              	.LEHB12:
 696 034c E8000000 		call	_Unwind_Resume
 696      00
 697              	.LEHE12:
 698              	.L35:
 699 0351 4889C7   		movq	%rax, %rdi
 700 0354 E8000000 		call	__cxa_begin_catch
 700      00
 701              	.LEHB13:
 702 0359 E8000000 		call	_ZN8UnitTest11CurrentTest7DetailsEv
 702      00
 703 035e 488B08   		movq	(%rax), %rcx
 704 0361 488D45C0 		leaq	-64(%rbp), %rax
 705 0365 BA3E0000 		movl	$62, %edx
 705      00
 706 036a 4889CE   		movq	%rcx, %rsi
 707 036d 4889C7   		movq	%rax, %rdi
 708 0370 E8000000 		call	_ZN8UnitTest11TestDetailsC1ERKS0_i
 708      00
  62:testError.cpp **** 	errRenderStd(&error);
 709              		.loc 2 62 0 is_stmt 0 discriminator 11
 710 0375 E8000000 		call	_ZN8UnitTest11CurrentTest7ResultsEv
 710      00
 711 037a 488B00   		movq	(%rax), %rax
 712 037d 488D4DC0 		leaq	-64(%rbp), %rcx
 713 0381 BA000000 		movl	$.LC10, %edx
 713      00
 714 0386 4889CE   		movq	%rcx, %rsi
 715 0389 4889C7   		movq	%rax, %rdi
 716 038c E8000000 		call	_ZN8UnitTest11TestResults13OnTestFailureERKNS_11TestDetailsEPKc
 716      00
 717              	.LEHE13:
 718              	.LEHB14:
  62:testError.cpp **** 	errRenderStd(&error);
 719              		.loc 2 62 0 discriminator 15
 720 0391 E8000000 		call	__cxa_end_catch
 720      00
 721              	.LEHE14:
 722 0396 E9BFFEFF 		jmp	.L25
 722      FF
 723              	.L38:
 724 039b 4889C3   		movq	%rax, %rbx
  65:testError.cpp **** 	expected = strerror(errno);
 725              		.loc 2 65 0 is_stmt 1
 726 039e E8000000 		call	__cxa_end_catch
 726      00
 727 03a3 4889D8   		movq	%rbx, %rax
 728 03a6 4889C7   		movq	%rax, %rdi
 729              	.LEHB15:
 730 03a9 E8000000 		call	_Unwind_Resume
 730      00
 731              	.LEHE15:
 732              	.L37:
 733 03ae 4889C7   		movq	%rax, %rdi
 734 03b1 E8000000 		call	__cxa_begin_catch
 734      00
 735              	.LEHB16:
 736 03b6 E8000000 		call	_ZN8UnitTest11CurrentTest7DetailsEv
 736      00
 737 03bb 488B08   		movq	(%rax), %rcx
 738 03be 488D45C0 		leaq	-64(%rbp), %rax
 739 03c2 BA410000 		movl	$65, %edx
 739      00
 740 03c7 4889CE   		movq	%rcx, %rsi
 741 03ca 4889C7   		movq	%rax, %rdi
 742 03cd E8000000 		call	_ZN8UnitTest11TestDetailsC1ERKS0_i
 742      00
  65:testError.cpp **** 	expected = strerror(errno);
 743              		.loc 2 65 0 is_stmt 0 discriminator 11
 744 03d2 E8000000 		call	_ZN8UnitTest11CurrentTest7ResultsEv
 744      00
 745 03d7 488B00   		movq	(%rax), %rax
 746 03da 488D4DC0 		leaq	-64(%rbp), %rcx
 747 03de BA000000 		movl	$.LC10, %edx
 747      00
 748 03e3 4889CE   		movq	%rcx, %rsi
 749 03e6 4889C7   		movq	%rax, %rdi
 750 03e9 E8000000 		call	_ZN8UnitTest11TestResults13OnTestFailureERKNS_11TestDetailsEPKc
 750      00
 751              	.LEHE16:
 752              	.LEHB17:
  65:testError.cpp **** 	expected = strerror(errno);
 753              		.loc 2 65 0 discriminator 15
 754 03ee E8000000 		call	__cxa_end_catch
 754      00
 755              	.LEHE17:
 756 03f3 E9D2FEFF 		jmp	.L26
 756      FF
 757              	.L40:
 758 03f8 4889C3   		movq	%rax, %rbx
  67:testError.cpp **** 	errFree(error);
 759              		.loc 2 67 0 is_stmt 1
 760 03fb E8000000 		call	__cxa_end_catch
 760      00
 761 0400 4889D8   		movq	%rbx, %rax
 762 0403 4889C7   		movq	%rax, %rdi
 763              	.LEHB18:
 764 0406 E8000000 		call	_Unwind_Resume
 764      00
 765              	.LEHE18:
 766              	.L39:
 767 040b 4889C7   		movq	%rax, %rdi
 768 040e E8000000 		call	__cxa_begin_catch
 768      00
 769              	.LEHB19:
 770 0413 E8000000 		call	_ZN8UnitTest11CurrentTest7DetailsEv
 770      00
 771 0418 488B08   		movq	(%rax), %rcx
 772 041b 488D45C0 		leaq	-64(%rbp), %rax
 773 041f BA430000 		movl	$67, %edx
 773      00
 774 0424 4889CE   		movq	%rcx, %rsi
 775 0427 4889C7   		movq	%rax, %rdi
 776 042a E8000000 		call	_ZN8UnitTest11TestDetailsC1ERKS0_i
 776      00
  67:testError.cpp **** 	errFree(error);
 777              		.loc 2 67 0 is_stmt 0 discriminator 10
 778 042f E8000000 		call	_ZN8UnitTest11CurrentTest7ResultsEv
 778      00
 779 0434 488B00   		movq	(%rax), %rax
 780 0437 488D4DC0 		leaq	-64(%rbp), %rcx
 781 043b BA000000 		movl	$.LC11, %edx
 781      00
 782 0440 4889CE   		movq	%rcx, %rsi
 783 0443 4889C7   		movq	%rax, %rdi
 784 0446 E8000000 		call	_ZN8UnitTest11TestResults13OnTestFailureERKNS_11TestDetailsEPKc
 784      00
 785              	.LEHE19:
 786              	.LEHB20:
  67:testError.cpp **** 	errFree(error);
 787              		.loc 2 67 0 discriminator 14
 788 044b E8000000 		call	__cxa_end_catch
 788      00
 789              	.LEHE20:
 790 0450 E9C5FEFF 		jmp	.L33
 790      FF
 791              	.L41:
 792              	.LBE10:
 793              		.loc 2 69 0 is_stmt 1
 794 0455 E8000000 		call	__stack_chk_fail
 794      00
 795              	.L34:
 796 045a 4883C468 		addq	$104, %rsp
 797 045e 5B       		popq	%rbx
 798 045f 5D       		popq	%rbp
 799              		.cfi_def_cfa 7, 8
 800 0460 C3       		ret
 801              		.cfi_endproc
 802              	.LFE1085:
 803              		.section	.gcc_except_table
 804              		.align 4
 805              	.LLSDA1085:
 806 002c FF       		.byte	0xff
 807 002d 03       		.byte	0x3
 808 002e 59       		.uleb128 .LLSDATT1085-.LLSDATTD1085
 809              	.LLSDATTD1085:
 810 002f 01       		.byte	0x1
 811 0030 4F       		.uleb128 .LLSDACSE1085-.LLSDACSB1085
 812              	.LLSDACSB1085:
 813 0031 26       		.uleb128 .LEHB6-.LFB1085
 814 0032 05       		.uleb128 .LEHE6-.LEHB6
 815 0033 00       		.uleb128 0
 816 0034 00       		.uleb128 0
 817 0035 48       		.uleb128 .LEHB7-.LFB1085
 818 0036 38       		.uleb128 .LEHE7-.LEHB7
 819 0037 F702     		.uleb128 .L35-.LFB1085
 820 0039 01       		.uleb128 0x1
 821 003a 8701     		.uleb128 .LEHB8-.LFB1085
 822 003c 14       		.uleb128 .LEHE8-.LEHB8
 823 003d 00       		.uleb128 0
 824 003e 00       		.uleb128 0
 825 003f B801     		.uleb128 .LEHB9-.LFB1085
 826 0041 38       		.uleb128 .LEHE9-.LEHB9
 827 0042 D403     		.uleb128 .L37-.LFB1085
 828 0044 01       		.uleb128 0x1
 829 0045 8202     		.uleb128 .LEHB10-.LFB1085
 830 0047 3E       		.uleb128 .LEHE10-.LEHB10
 831 0048 B104     		.uleb128 .L39-.LFB1085
 832 004a 01       		.uleb128 0x1
 833 004b C702     		.uleb128 .LEHB11-.LFB1085
 834 004d 05       		.uleb128 .LEHE11-.LEHB11
 835 004e 00       		.uleb128 0
 836 004f 00       		.uleb128 0
 837 0050 F202     		.uleb128 .LEHB12-.LFB1085
 838 0052 05       		.uleb128 .LEHE12-.LEHB12
 839 0053 00       		.uleb128 0
 840 0054 00       		.uleb128 0
 841 0055 FF02     		.uleb128 .LEHB13-.LFB1085
 842 0057 38       		.uleb128 .LEHE13-.LEHB13
 843 0058 E402     		.uleb128 .L36-.LFB1085
 844 005a 00       		.uleb128 0
 845 005b B703     		.uleb128 .LEHB14-.LFB1085
 846 005d 05       		.uleb128 .LEHE14-.LEHB14
 847 005e 00       		.uleb128 0
 848 005f 00       		.uleb128 0
 849 0060 CF03     		.uleb128 .LEHB15-.LFB1085
 850 0062 05       		.uleb128 .LEHE15-.LEHB15
 851 0063 00       		.uleb128 0
 852 0064 00       		.uleb128 0
 853 0065 DC03     		.uleb128 .LEHB16-.LFB1085
 854 0067 38       		.uleb128 .LEHE16-.LEHB16
 855 0068 C103     		.uleb128 .L38-.LFB1085
 856 006a 00       		.uleb128 0
 857 006b 9404     		.uleb128 .LEHB17-.LFB1085
 858 006d 05       		.uleb128 .LEHE17-.LEHB17
 859 006e 00       		.uleb128 0
 860 006f 00       		.uleb128 0
 861 0070 AC04     		.uleb128 .LEHB18-.LFB1085
 862 0072 05       		.uleb128 .LEHE18-.LEHB18
 863 0073 00       		.uleb128 0
 864 0074 00       		.uleb128 0
 865 0075 B904     		.uleb128 .LEHB19-.LFB1085
 866 0077 38       		.uleb128 .LEHE19-.LEHB19
 867 0078 9E04     		.uleb128 .L40-.LFB1085
 868 007a 00       		.uleb128 0
 869 007b F104     		.uleb128 .LEHB20-.LFB1085
 870 007d 05       		.uleb128 .LEHE20-.LEHB20
 871 007e 00       		.uleb128 0
 872 007f 00       		.uleb128 0
 873              	.LLSDACSE1085:
 874 0080 01       		.byte	0x1
 875 0081 00       		.byte	0
 876 0082 0000     		.align 4
 877 0084 00000000 		.long	0
 878              	
 879              	.LLSDATT1085:
 880              		.text
 882              		.section	.text._ZN8UnitTest5CheckIbEEbT_,"axG",@progbits,_ZN8UnitTest5CheckIbEEbT_,comdat
 883              		.weak	_ZN8UnitTest5CheckIbEEbT_
 885              	_ZN8UnitTest5CheckIbEEbT_:
 886              	.LFB1113:
 887              		.file 3 "/home/asoreyh/Dropbox/projects/lago/lago-software/acqua/brc/lago/makestuff/libs/libutpp/C
   1:/home/asoreyh/Dropbox/projects/lago/lago-software/acqua/brc/lago/makestuff/libs/libutpp/Checks.h **** #ifndef UNITTEST_CHECKS_H
   2:/home/asoreyh/Dropbox/projects/lago/lago-software/acqua/brc/lago/makestuff/libs/libutpp/Checks.h **** #define UNITTEST_CHECKS_H
   3:/home/asoreyh/Dropbox/projects/lago/lago-software/acqua/brc/lago/makestuff/libs/libutpp/Checks.h **** 
   4:/home/asoreyh/Dropbox/projects/lago/lago-software/acqua/brc/lago/makestuff/libs/libutpp/Checks.h **** #include "Config.h"
   5:/home/asoreyh/Dropbox/projects/lago/lago-software/acqua/brc/lago/makestuff/libs/libutpp/Checks.h **** #include "TestResults.h"
   6:/home/asoreyh/Dropbox/projects/lago/lago-software/acqua/brc/lago/makestuff/libs/libutpp/Checks.h **** #include "MemoryOutStream.h"
   7:/home/asoreyh/Dropbox/projects/lago/lago-software/acqua/brc/lago/makestuff/libs/libutpp/Checks.h **** 
   8:/home/asoreyh/Dropbox/projects/lago/lago-software/acqua/brc/lago/makestuff/libs/libutpp/Checks.h **** namespace UnitTest {
   9:/home/asoreyh/Dropbox/projects/lago/lago-software/acqua/brc/lago/makestuff/libs/libutpp/Checks.h **** 
  10:/home/asoreyh/Dropbox/projects/lago/lago-software/acqua/brc/lago/makestuff/libs/libutpp/Checks.h **** 
  11:/home/asoreyh/Dropbox/projects/lago/lago-software/acqua/brc/lago/makestuff/libs/libutpp/Checks.h **** template< typename Value >
  12:/home/asoreyh/Dropbox/projects/lago/lago-software/acqua/brc/lago/makestuff/libs/libutpp/Checks.h **** bool Check(Value const value)
 888              		.loc 3 12 0
 889              		.cfi_startproc
 890 0000 55       		pushq	%rbp
 891              		.cfi_def_cfa_offset 16
 892              		.cfi_offset 6, -16
 893 0001 4889E5   		movq	%rsp, %rbp
 894              		.cfi_def_cfa_register 6
 895 0004 89F8     		movl	%edi, %eax
 896 0006 8845FC   		movb	%al, -4(%rbp)
  13:/home/asoreyh/Dropbox/projects/lago/lago-software/acqua/brc/lago/makestuff/libs/libutpp/Checks.h **** {
  14:/home/asoreyh/Dropbox/projects/lago/lago-software/acqua/brc/lago/makestuff/libs/libutpp/Checks.h ****     return !!value; // doing double negative to avoid silly VS warnings
 897              		.loc 3 14 0
 898 0009 0FB645FC 		movzbl	-4(%rbp), %eax
  15:/home/asoreyh/Dropbox/projects/lago/lago-software/acqua/brc/lago/makestuff/libs/libutpp/Checks.h **** }
 899              		.loc 3 15 0
 900 000d 5D       		popq	%rbp
 901              		.cfi_def_cfa 7, 8
 902 000e C3       		ret
 903              		.cfi_endproc
 904              	.LFE1113:
 906              		.weak	_ZTV23TestError_testStdRender
 907              		.section	.rodata._ZTV23TestError_testStdRender,"aG",@progbits,_ZTV23TestError_testStdRender,comdat
 908              		.align 32
 911              	_ZTV23TestError_testStdRender:
 912 0000 00000000 		.quad	0
 912      00000000 
 913 0008 00000000 		.quad	_ZTI23TestError_testStdRender
 913      00000000 
 914 0010 00000000 		.quad	_ZN23TestError_testStdRenderD1Ev
 914      00000000 
 915 0018 00000000 		.quad	_ZN23TestError_testStdRenderD0Ev
 915      00000000 
 916 0020 00000000 		.quad	_ZNK23TestError_testStdRender7RunImplEv
 916      00000000 
 917              		.section	.text._ZN23TestError_testStdRenderD2Ev,"axG",@progbits,_ZN23TestError_testStdRenderD5Ev,c
 918              		.align 2
 919              		.weak	_ZN23TestError_testStdRenderD2Ev
 921              	_ZN23TestError_testStdRenderD2Ev:
 922              	.LFB1160:
  58:testError.cpp **** 	const char *error, *expected;
 923              		.loc 2 58 0
 924              		.cfi_startproc
 925 0000 55       		pushq	%rbp
 926              		.cfi_def_cfa_offset 16
 927              		.cfi_offset 6, -16
 928 0001 4889E5   		movq	%rsp, %rbp
 929              		.cfi_def_cfa_register 6
 930 0004 4883EC10 		subq	$16, %rsp
 931 0008 48897DF8 		movq	%rdi, -8(%rbp)
 932              	.LBB11:
  58:testError.cpp **** 	const char *error, *expected;
 933              		.loc 2 58 0
 934 000c 488B45F8 		movq	-8(%rbp), %rax
 935 0010 48C70000 		movq	$_ZTV23TestError_testStdRender+16, (%rax)
 935      000000
 936 0017 488B45F8 		movq	-8(%rbp), %rax
 937 001b 4889C7   		movq	%rax, %rdi
 938 001e E8000000 		call	_ZN8UnitTest4TestD2Ev
 938      00
 939              	.LBE11:
 940 0023 B8000000 		movl	$0, %eax
 940      00
 941 0028 85C0     		testl	%eax, %eax
 942 002a 740C     		je	.L44
  58:testError.cpp **** 	const char *error, *expected;
 943              		.loc 2 58 0 is_stmt 0 discriminator 4
 944 002c 488B45F8 		movq	-8(%rbp), %rax
 945 0030 4889C7   		movq	%rax, %rdi
 946 0033 E8000000 		call	_ZdlPv
 946      00
 947              	.L44:
  58:testError.cpp **** 	const char *error, *expected;
 948              		.loc 2 58 0
 949 0038 C9       		leave
 950              		.cfi_def_cfa 7, 8
 951 0039 C3       		ret
 952              		.cfi_endproc
 953              	.LFE1160:
 955              		.weak	_ZN23TestError_testStdRenderD1Ev
 956              		.set	_ZN23TestError_testStdRenderD1Ev,_ZN23TestError_testStdRenderD2Ev
 957              		.section	.text._ZN23TestError_testStdRenderD0Ev,"axG",@progbits,_ZN23TestError_testStdRenderD5Ev,c
 958              		.align 2
 959              		.weak	_ZN23TestError_testStdRenderD0Ev
 961              	_ZN23TestError_testStdRenderD0Ev:
 962              	.LFB1162:
  58:testError.cpp **** 	const char *error, *expected;
 963              		.loc 2 58 0 is_stmt 1
 964              		.cfi_startproc
 965 0000 55       		pushq	%rbp
 966              		.cfi_def_cfa_offset 16
 967              		.cfi_offset 6, -16
 968 0001 4889E5   		movq	%rsp, %rbp
 969              		.cfi_def_cfa_register 6
 970 0004 4883EC10 		subq	$16, %rsp
 971 0008 48897DF8 		movq	%rdi, -8(%rbp)
  58:testError.cpp **** 	const char *error, *expected;
 972              		.loc 2 58 0
 973 000c 488B45F8 		movq	-8(%rbp), %rax
 974 0010 4889C7   		movq	%rax, %rdi
 975 0013 E8000000 		call	_ZN23TestError_testStdRenderD1Ev
 975      00
 976 0018 488B45F8 		movq	-8(%rbp), %rax
 977 001c 4889C7   		movq	%rax, %rdi
 978 001f E8000000 		call	_ZdlPv
 978      00
 979 0024 C9       		leave
 980              		.cfi_def_cfa 7, 8
 981 0025 C3       		ret
 982              		.cfi_endproc
 983              	.LFE1162:
 985              		.weak	_ZTV27TestError_testNullStdRender
 986              		.section	.rodata._ZTV27TestError_testNullStdRender,"aG",@progbits,_ZTV27TestError_testNullStdRende
 987              		.align 32
 990              	_ZTV27TestError_testNullStdRender:
 991 0000 00000000 		.quad	0
 991      00000000 
 992 0008 00000000 		.quad	_ZTI27TestError_testNullStdRender
 992      00000000 
 993 0010 00000000 		.quad	_ZN27TestError_testNullStdRenderD1Ev
 993      00000000 
 994 0018 00000000 		.quad	_ZN27TestError_testNullStdRenderD0Ev
 994      00000000 
 995 0020 00000000 		.quad	_ZNK27TestError_testNullStdRender7RunImplEv
 995      00000000 
 996              		.section	.text._ZN27TestError_testNullStdRenderD2Ev,"axG",@progbits,_ZN27TestError_testNullStdRend
 997              		.align 2
 998              		.weak	_ZN27TestError_testNullStdRenderD2Ev
 1000              	_ZN27TestError_testNullStdRenderD2Ev:
 1001              	.LFB1164:
  53:testError.cpp **** 	fillBuf(16, 'A');
 1002              		.loc 2 53 0
 1003              		.cfi_startproc
 1004 0000 55       		pushq	%rbp
 1005              		.cfi_def_cfa_offset 16
 1006              		.cfi_offset 6, -16
 1007 0001 4889E5   		movq	%rsp, %rbp
 1008              		.cfi_def_cfa_register 6
 1009 0004 4883EC10 		subq	$16, %rsp
 1010 0008 48897DF8 		movq	%rdi, -8(%rbp)
 1011              	.LBB12:
  53:testError.cpp **** 	fillBuf(16, 'A');
 1012              		.loc 2 53 0
 1013 000c 488B45F8 		movq	-8(%rbp), %rax
 1014 0010 48C70000 		movq	$_ZTV27TestError_testNullStdRender+16, (%rax)
 1014      000000
 1015 0017 488B45F8 		movq	-8(%rbp), %rax
 1016 001b 4889C7   		movq	%rax, %rdi
 1017 001e E8000000 		call	_ZN8UnitTest4TestD2Ev
 1017      00
 1018              	.LBE12:
 1019 0023 B8000000 		movl	$0, %eax
 1019      00
 1020 0028 85C0     		testl	%eax, %eax
 1021 002a 740C     		je	.L49
  53:testError.cpp **** 	fillBuf(16, 'A');
 1022              		.loc 2 53 0 is_stmt 0 discriminator 4
 1023 002c 488B45F8 		movq	-8(%rbp), %rax
 1024 0030 4889C7   		movq	%rax, %rdi
 1025 0033 E8000000 		call	_ZdlPv
 1025      00
 1026              	.L49:
  53:testError.cpp **** 	fillBuf(16, 'A');
 1027              		.loc 2 53 0
 1028 0038 C9       		leave
 1029              		.cfi_def_cfa 7, 8
 1030 0039 C3       		ret
 1031              		.cfi_endproc
 1032              	.LFE1164:
 1034              		.weak	_ZN27TestError_testNullStdRenderD1Ev
 1035              		.set	_ZN27TestError_testNullStdRenderD1Ev,_ZN27TestError_testNullStdRenderD2Ev
 1036              		.section	.text._ZN27TestError_testNullStdRenderD0Ev,"axG",@progbits,_ZN27TestError_testNullStdRend
 1037              		.align 2
 1038              		.weak	_ZN27TestError_testNullStdRenderD0Ev
 1040              	_ZN27TestError_testNullStdRenderD0Ev:
 1041              	.LFB1166:
  53:testError.cpp **** 	fillBuf(16, 'A');
 1042              		.loc 2 53 0 is_stmt 1
 1043              		.cfi_startproc
 1044 0000 55       		pushq	%rbp
 1045              		.cfi_def_cfa_offset 16
 1046              		.cfi_offset 6, -16
 1047 0001 4889E5   		movq	%rsp, %rbp
 1048              		.cfi_def_cfa_register 6
 1049 0004 4883EC10 		subq	$16, %rsp
 1050 0008 48897DF8 		movq	%rdi, -8(%rbp)
  53:testError.cpp **** 	fillBuf(16, 'A');
 1051              		.loc 2 53 0
 1052 000c 488B45F8 		movq	-8(%rbp), %rax
 1053 0010 4889C7   		movq	%rax, %rdi
 1054 0013 E8000000 		call	_ZN27TestError_testNullStdRenderD1Ev
 1054      00
 1055 0018 488B45F8 		movq	-8(%rbp), %rax
 1056 001c 4889C7   		movq	%rax, %rdi
 1057 001f E8000000 		call	_ZdlPv
 1057      00
 1058 0024 C9       		leave
 1059              		.cfi_def_cfa 7, 8
 1060 0025 C3       		ret
 1061              		.cfi_endproc
 1062              	.LFE1166:
 1064              		.weak	_ZTV20TestError_testRender
 1065              		.section	.rodata._ZTV20TestError_testRender,"aG",@progbits,_ZTV20TestError_testRender,comdat
 1066              		.align 32
 1069              	_ZTV20TestError_testRender:
 1070 0000 00000000 		.quad	0
 1070      00000000 
 1071 0008 00000000 		.quad	_ZTI20TestError_testRender
 1071      00000000 
 1072 0010 00000000 		.quad	_ZN20TestError_testRenderD1Ev
 1072      00000000 
 1073 0018 00000000 		.quad	_ZN20TestError_testRenderD0Ev
 1073      00000000 
 1074 0020 00000000 		.quad	_ZNK20TestError_testRender7RunImplEv
 1074      00000000 
 1075              		.section	.text._ZN20TestError_testRenderD2Ev,"axG",@progbits,_ZN20TestError_testRenderD5Ev,comdat
 1076              		.align 2
 1077              		.weak	_ZN20TestError_testRenderD2Ev
 1079              	_ZN20TestError_testRenderD2Ev:
 1080              	.LFB1168:
  42:testError.cpp **** 	int i;
 1081              		.loc 2 42 0
 1082              		.cfi_startproc
 1083 0000 55       		pushq	%rbp
 1084              		.cfi_def_cfa_offset 16
 1085              		.cfi_offset 6, -16
 1086 0001 4889E5   		movq	%rsp, %rbp
 1087              		.cfi_def_cfa_register 6
 1088 0004 4883EC10 		subq	$16, %rsp
 1089 0008 48897DF8 		movq	%rdi, -8(%rbp)
 1090              	.LBB13:
  42:testError.cpp **** 	int i;
 1091              		.loc 2 42 0
 1092 000c 488B45F8 		movq	-8(%rbp), %rax
 1093 0010 48C70000 		movq	$_ZTV20TestError_testRender+16, (%rax)
 1093      000000
 1094 0017 488B45F8 		movq	-8(%rbp), %rax
 1095 001b 4889C7   		movq	%rax, %rdi
 1096 001e E8000000 		call	_ZN8UnitTest4TestD2Ev
 1096      00
 1097              	.LBE13:
 1098 0023 B8000000 		movl	$0, %eax
 1098      00
 1099 0028 85C0     		testl	%eax, %eax
 1100 002a 740C     		je	.L54
  42:testError.cpp **** 	int i;
 1101              		.loc 2 42 0 is_stmt 0 discriminator 4
 1102 002c 488B45F8 		movq	-8(%rbp), %rax
 1103 0030 4889C7   		movq	%rax, %rdi
 1104 0033 E8000000 		call	_ZdlPv
 1104      00
 1105              	.L54:
  42:testError.cpp **** 	int i;
 1106              		.loc 2 42 0
 1107 0038 C9       		leave
 1108              		.cfi_def_cfa 7, 8
 1109 0039 C3       		ret
 1110              		.cfi_endproc
 1111              	.LFE1168:
 1113              		.weak	_ZN20TestError_testRenderD1Ev
 1114              		.set	_ZN20TestError_testRenderD1Ev,_ZN20TestError_testRenderD2Ev
 1115              		.section	.text._ZN20TestError_testRenderD0Ev,"axG",@progbits,_ZN20TestError_testRenderD5Ev,comdat
 1116              		.align 2
 1117              		.weak	_ZN20TestError_testRenderD0Ev
 1119              	_ZN20TestError_testRenderD0Ev:
 1120              	.LFB1170:
  42:testError.cpp **** 	int i;
 1121              		.loc 2 42 0 is_stmt 1
 1122              		.cfi_startproc
 1123 0000 55       		pushq	%rbp
 1124              		.cfi_def_cfa_offset 16
 1125              		.cfi_offset 6, -16
 1126 0001 4889E5   		movq	%rsp, %rbp
 1127              		.cfi_def_cfa_register 6
 1128 0004 4883EC10 		subq	$16, %rsp
 1129 0008 48897DF8 		movq	%rdi, -8(%rbp)
  42:testError.cpp **** 	int i;
 1130              		.loc 2 42 0
 1131 000c 488B45F8 		movq	-8(%rbp), %rax
 1132 0010 4889C7   		movq	%rax, %rdi
 1133 0013 E8000000 		call	_ZN20TestError_testRenderD1Ev
 1133      00
 1134 0018 488B45F8 		movq	-8(%rbp), %rax
 1135 001c 4889C7   		movq	%rax, %rdi
 1136 001f E8000000 		call	_ZdlPv
 1136      00
 1137 0024 C9       		leave
 1138              		.cfi_def_cfa 7, 8
 1139 0025 C3       		ret
 1140              		.cfi_endproc
 1141              	.LFE1170:
 1143              		.weak	_ZTV24TestError_testNullRender
 1144              		.section	.rodata._ZTV24TestError_testNullRender,"aG",@progbits,_ZTV24TestError_testNullRender,comd
 1145              		.align 32
 1148              	_ZTV24TestError_testNullRender:
 1149 0000 00000000 		.quad	0
 1149      00000000 
 1150 0008 00000000 		.quad	_ZTI24TestError_testNullRender
 1150      00000000 
 1151 0010 00000000 		.quad	_ZN24TestError_testNullRenderD1Ev
 1151      00000000 
 1152 0018 00000000 		.quad	_ZN24TestError_testNullRenderD0Ev
 1152      00000000 
 1153 0020 00000000 		.quad	_ZNK24TestError_testNullRender7RunImplEv
 1153      00000000 
 1154              		.section	.text._ZN24TestError_testNullRenderD2Ev,"axG",@progbits,_ZN24TestError_testNullRenderD5Ev
 1155              		.align 2
 1156              		.weak	_ZN24TestError_testNullRenderD2Ev
 1158              	_ZN24TestError_testNullRenderD2Ev:
 1159              	.LFB1172:
  37:testError.cpp **** 	fillBuf(16, 'A');
 1160              		.loc 2 37 0
 1161              		.cfi_startproc
 1162 0000 55       		pushq	%rbp
 1163              		.cfi_def_cfa_offset 16
 1164              		.cfi_offset 6, -16
 1165 0001 4889E5   		movq	%rsp, %rbp
 1166              		.cfi_def_cfa_register 6
 1167 0004 4883EC10 		subq	$16, %rsp
 1168 0008 48897DF8 		movq	%rdi, -8(%rbp)
 1169              	.LBB14:
  37:testError.cpp **** 	fillBuf(16, 'A');
 1170              		.loc 2 37 0
 1171 000c 488B45F8 		movq	-8(%rbp), %rax
 1172 0010 48C70000 		movq	$_ZTV24TestError_testNullRender+16, (%rax)
 1172      000000
 1173 0017 488B45F8 		movq	-8(%rbp), %rax
 1174 001b 4889C7   		movq	%rax, %rdi
 1175 001e E8000000 		call	_ZN8UnitTest4TestD2Ev
 1175      00
 1176              	.LBE14:
 1177 0023 B8000000 		movl	$0, %eax
 1177      00
 1178 0028 85C0     		testl	%eax, %eax
 1179 002a 740C     		je	.L59
  37:testError.cpp **** 	fillBuf(16, 'A');
 1180              		.loc 2 37 0 is_stmt 0 discriminator 4
 1181 002c 488B45F8 		movq	-8(%rbp), %rax
 1182 0030 4889C7   		movq	%rax, %rdi
 1183 0033 E8000000 		call	_ZdlPv
 1183      00
 1184              	.L59:
  37:testError.cpp **** 	fillBuf(16, 'A');
 1185              		.loc 2 37 0
 1186 0038 C9       		leave
 1187              		.cfi_def_cfa 7, 8
 1188 0039 C3       		ret
 1189              		.cfi_endproc
 1190              	.LFE1172:
 1192              		.weak	_ZN24TestError_testNullRenderD1Ev
 1193              		.set	_ZN24TestError_testNullRenderD1Ev,_ZN24TestError_testNullRenderD2Ev
 1194              		.section	.text._ZN24TestError_testNullRenderD0Ev,"axG",@progbits,_ZN24TestError_testNullRenderD5Ev
 1195              		.align 2
 1196              		.weak	_ZN24TestError_testNullRenderD0Ev
 1198              	_ZN24TestError_testNullRenderD0Ev:
 1199              	.LFB1174:
  37:testError.cpp **** 	fillBuf(16, 'A');
 1200              		.loc 2 37 0 is_stmt 1
 1201              		.cfi_startproc
 1202 0000 55       		pushq	%rbp
 1203              		.cfi_def_cfa_offset 16
 1204              		.cfi_offset 6, -16
 1205 0001 4889E5   		movq	%rsp, %rbp
 1206              		.cfi_def_cfa_register 6
 1207 0004 4883EC10 		subq	$16, %rsp
 1208 0008 48897DF8 		movq	%rdi, -8(%rbp)
  37:testError.cpp **** 	fillBuf(16, 'A');
 1209              		.loc 2 37 0
 1210 000c 488B45F8 		movq	-8(%rbp), %rax
 1211 0010 4889C7   		movq	%rax, %rdi
 1212 0013 E8000000 		call	_ZN24TestError_testNullRenderD1Ev
 1212      00
 1213 0018 488B45F8 		movq	-8(%rbp), %rax
 1214 001c 4889C7   		movq	%rax, %rdi
 1215 001f E8000000 		call	_ZdlPv
 1215      00
 1216 0024 C9       		leave
 1217              		.cfi_def_cfa 7, 8
 1218 0025 C3       		ret
 1219              		.cfi_endproc
 1220              	.LFE1174:
 1222              		.weak	_ZTI23TestError_testStdRender
 1223              		.section	.rodata._ZTI23TestError_testStdRender,"aG",@progbits,_ZTI23TestError_testStdRender,comdat
 1224              		.align 16
 1227              	_ZTI23TestError_testStdRender:
 1228 0000 00000000 		.quad	_ZTVN10__cxxabiv120__si_class_type_infoE+16
 1228      00000000 
 1229 0008 00000000 		.quad	_ZTS23TestError_testStdRender
 1229      00000000 
 1230 0010 00000000 		.quad	_ZTIN8UnitTest4TestE
 1230      00000000 
 1231              		.weak	_ZTS23TestError_testStdRender
 1232              		.section	.rodata._ZTS23TestError_testStdRender,"aG",@progbits,_ZTS23TestError_testStdRender,comdat
 1233              		.align 16
 1236              	_ZTS23TestError_testStdRender:
 1237 0000 32335465 		.string	"23TestError_testStdRender"
 1237      73744572 
 1237      726F725F 
 1237      74657374 
 1237      53746452 
 1238              		.weak	_ZTI27TestError_testNullStdRender
 1239              		.section	.rodata._ZTI27TestError_testNullStdRender,"aG",@progbits,_ZTI27TestError_testNullStdRende
 1240              		.align 16
 1243              	_ZTI27TestError_testNullStdRender:
 1244 0000 00000000 		.quad	_ZTVN10__cxxabiv120__si_class_type_infoE+16
 1244      00000000 
 1245 0008 00000000 		.quad	_ZTS27TestError_testNullStdRender
 1245      00000000 
 1246 0010 00000000 		.quad	_ZTIN8UnitTest4TestE
 1246      00000000 
 1247              		.weak	_ZTS27TestError_testNullStdRender
 1248              		.section	.rodata._ZTS27TestError_testNullStdRender,"aG",@progbits,_ZTS27TestError_testNullStdRende
 1249              		.align 16
 1252              	_ZTS27TestError_testNullStdRender:
 1253 0000 32375465 		.string	"27TestError_testNullStdRender"
 1253      73744572 
 1253      726F725F 
 1253      74657374 
 1253      4E756C6C 
 1254              		.weak	_ZTI20TestError_testRender
 1255              		.section	.rodata._ZTI20TestError_testRender,"aG",@progbits,_ZTI20TestError_testRender,comdat
 1256              		.align 16
 1259              	_ZTI20TestError_testRender:
 1260 0000 00000000 		.quad	_ZTVN10__cxxabiv120__si_class_type_infoE+16
 1260      00000000 
 1261 0008 00000000 		.quad	_ZTS20TestError_testRender
 1261      00000000 
 1262 0010 00000000 		.quad	_ZTIN8UnitTest4TestE
 1262      00000000 
 1263              		.weak	_ZTS20TestError_testRender
 1264              		.section	.rodata._ZTS20TestError_testRender,"aG",@progbits,_ZTS20TestError_testRender,comdat
 1265              		.align 16
 1268              	_ZTS20TestError_testRender:
 1269 0000 32305465 		.string	"20TestError_testRender"
 1269      73744572 
 1269      726F725F 
 1269      74657374 
 1269      52656E64 
 1270              		.weak	_ZTI24TestError_testNullRender
 1271              		.section	.rodata._ZTI24TestError_testNullRender,"aG",@progbits,_ZTI24TestError_testNullRender,comd
 1272              		.align 16
 1275              	_ZTI24TestError_testNullRender:
 1276 0000 00000000 		.quad	_ZTVN10__cxxabiv120__si_class_type_infoE+16
 1276      00000000 
 1277 0008 00000000 		.quad	_ZTS24TestError_testNullRender
 1277      00000000 
 1278 0010 00000000 		.quad	_ZTIN8UnitTest4TestE
 1278      00000000 
 1279              		.weak	_ZTS24TestError_testNullRender
 1280              		.section	.rodata._ZTS24TestError_testNullRender,"aG",@progbits,_ZTS24TestError_testNullRender,comd
 1281              		.align 16
 1284              	_ZTS24TestError_testNullRender:
 1285 0000 32345465 		.string	"24TestError_testNullRender"
 1285      73744572 
 1285      726F725F 
 1285      74657374 
 1285      4E756C6C 
 1286              		.text
 1288              	_Z41__static_initialization_and_destruction_0ii:
 1289              	.LFB1179:
 1290              		.loc 2 69 0
 1291              		.cfi_startproc
 1292 0461 55       		pushq	%rbp
 1293              		.cfi_def_cfa_offset 16
 1294              		.cfi_offset 6, -16
 1295 0462 4889E5   		movq	%rsp, %rbp
 1296              		.cfi_def_cfa_register 6
 1297 0465 4883EC10 		subq	$16, %rsp
 1298 0469 897DFC   		movl	%edi, -4(%rbp)
 1299 046c 8975F8   		movl	%esi, -8(%rbp)
 1300              		.loc 2 69 0
 1301 046f 837DFC01 		cmpl	$1, -4(%rbp)
 1302 0473 0F85E100 		jne	.L64
 1302      0000
 1303              		.loc 2 69 0 is_stmt 0 discriminator 1
 1304 0479 817DF8FF 		cmpl	$65535, -8(%rbp)
 1304      FF0000
 1305 0480 0F85D400 		jne	.L64
 1305      0000
  37:testError.cpp **** 	fillBuf(16, 'A');
 1306              		.loc 2 37 0 is_stmt 1
 1307 0486 BF000000 		movl	$testError_testNullRenderInstance, %edi
 1307      00
 1308 048b E8000000 		call	_ZN24TestError_testNullRenderC1Ev
 1308      00
 1309 0490 BA000000 		movl	$__dso_handle, %edx
 1309      00
 1310 0495 BE000000 		movl	$testError_testNullRenderInstance, %esi
 1310      00
 1311 049a BF000000 		movl	$_ZN24TestError_testNullRenderD1Ev, %edi
 1311      00
 1312 049f E8000000 		call	__cxa_atexit
 1312      00
 1313 04a4 E8000000 		call	_ZN8UnitTest4Test11GetTestListEv
 1313      00
 1314 04a9 BA000000 		movl	$testError_testNullRenderInstance, %edx
 1314      00
 1315 04ae 4889C6   		movq	%rax, %rsi
 1316 04b1 BF000000 		movl	$adderError_testNullRender, %edi
 1316      00
 1317 04b6 E8000000 		call	_ZN8UnitTest9ListAdderC1ERNS_8TestListEPNS_4TestE
 1317      00
  42:testError.cpp **** 	int i;
 1318              		.loc 2 42 0
 1319 04bb BF000000 		movl	$testError_testRenderInstance, %edi
 1319      00
 1320 04c0 E8000000 		call	_ZN20TestError_testRenderC1Ev
 1320      00
 1321 04c5 BA000000 		movl	$__dso_handle, %edx
 1321      00
 1322 04ca BE000000 		movl	$testError_testRenderInstance, %esi
 1322      00
 1323 04cf BF000000 		movl	$_ZN20TestError_testRenderD1Ev, %edi
 1323      00
 1324 04d4 E8000000 		call	__cxa_atexit
 1324      00
 1325 04d9 E8000000 		call	_ZN8UnitTest4Test11GetTestListEv
 1325      00
 1326 04de BA000000 		movl	$testError_testRenderInstance, %edx
 1326      00
 1327 04e3 4889C6   		movq	%rax, %rsi
 1328 04e6 BF000000 		movl	$adderError_testRender, %edi
 1328      00
 1329 04eb E8000000 		call	_ZN8UnitTest9ListAdderC1ERNS_8TestListEPNS_4TestE
 1329      00
  53:testError.cpp **** 	fillBuf(16, 'A');
 1330              		.loc 2 53 0
 1331 04f0 BF000000 		movl	$testError_testNullStdRenderInstance, %edi
 1331      00
 1332 04f5 E8000000 		call	_ZN27TestError_testNullStdRenderC1Ev
 1332      00
 1333 04fa BA000000 		movl	$__dso_handle, %edx
 1333      00
 1334 04ff BE000000 		movl	$testError_testNullStdRenderInstance, %esi
 1334      00
 1335 0504 BF000000 		movl	$_ZN27TestError_testNullStdRenderD1Ev, %edi
 1335      00
 1336 0509 E8000000 		call	__cxa_atexit
 1336      00
 1337 050e E8000000 		call	_ZN8UnitTest4Test11GetTestListEv
 1337      00
 1338 0513 BA000000 		movl	$testError_testNullStdRenderInstance, %edx
 1338      00
 1339 0518 4889C6   		movq	%rax, %rsi
 1340 051b BF000000 		movl	$adderError_testNullStdRender, %edi
 1340      00
 1341 0520 E8000000 		call	_ZN8UnitTest9ListAdderC1ERNS_8TestListEPNS_4TestE
 1341      00
  58:testError.cpp **** 	const char *error, *expected;
 1342              		.loc 2 58 0
 1343 0525 BF000000 		movl	$testError_testStdRenderInstance, %edi
 1343      00
 1344 052a E8000000 		call	_ZN23TestError_testStdRenderC1Ev
 1344      00
 1345 052f BA000000 		movl	$__dso_handle, %edx
 1345      00
 1346 0534 BE000000 		movl	$testError_testStdRenderInstance, %esi
 1346      00
 1347 0539 BF000000 		movl	$_ZN23TestError_testStdRenderD1Ev, %edi
 1347      00
 1348 053e E8000000 		call	__cxa_atexit
 1348      00
 1349 0543 E8000000 		call	_ZN8UnitTest4Test11GetTestListEv
 1349      00
 1350 0548 BA000000 		movl	$testError_testStdRenderInstance, %edx
 1350      00
 1351 054d 4889C6   		movq	%rax, %rsi
 1352 0550 BF000000 		movl	$adderError_testStdRender, %edi
 1352      00
 1353 0555 E8000000 		call	_ZN8UnitTest9ListAdderC1ERNS_8TestListEPNS_4TestE
 1353      00
 1354              	.L64:
 1355              		.loc 2 69 0
 1356 055a C9       		leave
 1357              		.cfi_def_cfa 7, 8
 1358 055b C3       		ret
 1359              		.cfi_endproc
 1360              	.LFE1179:
 1363              	_GLOBAL__sub_I_buf:
 1364              	.LFB1180:
 1365              		.loc 2 69 0
 1366              		.cfi_startproc
 1367 055c 55       		pushq	%rbp
 1368              		.cfi_def_cfa_offset 16
 1369              		.cfi_offset 6, -16
 1370 055d 4889E5   		movq	%rsp, %rbp
 1371              		.cfi_def_cfa_register 6
 1372              		.loc 2 69 0
 1373 0560 BEFFFF00 		movl	$65535, %esi
 1373      00
 1374 0565 BF010000 		movl	$1, %edi
 1374      00
 1375 056a E8F2FEFF 		call	_Z41__static_initialization_and_destruction_0ii
 1375      FF
 1376 056f 5D       		popq	%rbp
 1377              		.cfi_def_cfa 7, 8
 1378 0570 C3       		ret
 1379              		.cfi_endproc
 1380              	.LFE1180:
 1382              		.section	.init_array,"aw"
 1383              		.align 8
 1384 0000 00000000 		.quad	_GLOBAL__sub_I_buf
 1384      00000000 
 1385              		.text
 1386              	.Letext0:
 1387              		.file 4 "/home/asoreyh/Dropbox/projects/lago/lago-software/acqua/brc/lago/makestuff/libs/libutpp/T
 1388              		.file 5 "/usr/include/libio.h"
 1389              		.file 6 "/usr/include/stdio.h"
 1390              		.file 7 "<built-in>"
 1391              		.file 8 "/usr/lib/gcc/x86_64-linux-gnu/4.9/include/stddef.h"
 1392              		.file 9 "/usr/include/wchar.h"
 1393              		.file 10 "/usr/include/c++/4.9/cwchar"
 1394              		.file 11 "/usr/include/x86_64-linux-gnu/c++/4.9/bits/c++config.h"
 1395              		.file 12 "/usr/include/c++/4.9/clocale"
 1396              		.file 13 "/usr/include/c++/4.9/cwctype"
 1397              		.file 14 "/usr/include/time.h"
 1398              		.file 15 "/home/asoreyh/Dropbox/projects/lago/lago-software/acqua/brc/lago/makestuff/libs/libutpp/
 1399              		.file 16 "/usr/include/c++/4.9/debug/debug.h"
 1400              		.file 17 "/usr/include/c++/4.9/bits/predefined_ops.h"
 1401              		.file 18 "/usr/include/c++/4.9/ext/new_allocator.h"
 1402              		.file 19 "/usr/include/c++/4.9/ext/numeric_traits.h"
 1403              		.file 20 "/usr/include/locale.h"
 1404              		.file 21 "/usr/include/x86_64-linux-gnu/bits/types.h"
 1405              		.file 22 "/usr/include/wctype.h"
DEFINED SYMBOLS
                            *ABS*:0000000000000000 testError.cpp
     /tmp/cc0maOYx.s:10     .text._ZN13UnitTestSuite12GetSuiteNameEv:0000000000000000 _ZN13UnitTestSuite12GetSuiteNameEv
     /tmp/cc0maOYx.s:34     .bss:0000000000000000 buf
     /tmp/cc0maOYx.s:39     .text:0000000000000000 _Z7fillBufic
     /tmp/cc0maOYx.s:106    .text._ZN24TestError_testNullRenderC2Ev:0000000000000000 _ZN24TestError_testNullRenderC2Ev
     /tmp/cc0maOYx.s:1148   .rodata._ZTV24TestError_testNullRender:0000000000000000 _ZTV24TestError_testNullRender
     /tmp/cc0maOYx.s:106    .text._ZN24TestError_testNullRenderC2Ev:0000000000000000 _ZN24TestError_testNullRenderC1Ev
     /tmp/cc0maOYx.s:143    .bss:0000000000000400 testError_testNullRenderInstance
     /tmp/cc0maOYx.s:148    .bss:0000000000000438 adderError_testNullRender
     /tmp/cc0maOYx.s:154    .text:0000000000000064 _ZNK24TestError_testNullRender7RunImplEv
     /tmp/cc0maOYx.s:188    .text._ZN20TestError_testRenderC2Ev:0000000000000000 _ZN20TestError_testRenderC2Ev
     /tmp/cc0maOYx.s:1069   .rodata._ZTV20TestError_testRender:0000000000000000 _ZTV20TestError_testRender
     /tmp/cc0maOYx.s:188    .text._ZN20TestError_testRenderC2Ev:0000000000000000 _ZN20TestError_testRenderC1Ev
     /tmp/cc0maOYx.s:225    .bss:0000000000000440 testError_testRenderInstance
     /tmp/cc0maOYx.s:230    .bss:0000000000000478 adderError_testRender
     /tmp/cc0maOYx.s:240    .text:0000000000000096 _ZNK20TestError_testRender7RunImplEv
     /tmp/cc0maOYx.s:414    .text._ZN27TestError_testNullStdRenderC2Ev:0000000000000000 _ZN27TestError_testNullStdRenderC2Ev
     /tmp/cc0maOYx.s:990    .rodata._ZTV27TestError_testNullStdRender:0000000000000000 _ZTV27TestError_testNullStdRender
     /tmp/cc0maOYx.s:414    .text._ZN27TestError_testNullStdRenderC2Ev:0000000000000000 _ZN27TestError_testNullStdRenderC1Ev
     /tmp/cc0maOYx.s:451    .bss:0000000000000480 testError_testNullStdRenderInstance
     /tmp/cc0maOYx.s:456    .bss:00000000000004b8 adderError_testNullStdRender
     /tmp/cc0maOYx.s:462    .text:00000000000001b2 _ZNK27TestError_testNullStdRender7RunImplEv
     /tmp/cc0maOYx.s:494    .text._ZN23TestError_testStdRenderC2Ev:0000000000000000 _ZN23TestError_testStdRenderC2Ev
     /tmp/cc0maOYx.s:911    .rodata._ZTV23TestError_testStdRender:0000000000000000 _ZTV23TestError_testStdRender
     /tmp/cc0maOYx.s:494    .text._ZN23TestError_testStdRenderC2Ev:0000000000000000 _ZN23TestError_testStdRenderC1Ev
     /tmp/cc0maOYx.s:531    .bss:00000000000004c0 testError_testStdRenderInstance
     /tmp/cc0maOYx.s:536    .bss:00000000000004f8 adderError_testStdRender
     /tmp/cc0maOYx.s:555    .text:00000000000001da _ZNK23TestError_testStdRender7RunImplEv
     /tmp/cc0maOYx.s:885    .text._ZN8UnitTest5CheckIbEEbT_:0000000000000000 _ZN8UnitTest5CheckIbEEbT_
     /tmp/cc0maOYx.s:1227   .rodata._ZTI23TestError_testStdRender:0000000000000000 _ZTI23TestError_testStdRender
     /tmp/cc0maOYx.s:921    .text._ZN23TestError_testStdRenderD2Ev:0000000000000000 _ZN23TestError_testStdRenderD1Ev
     /tmp/cc0maOYx.s:961    .text._ZN23TestError_testStdRenderD0Ev:0000000000000000 _ZN23TestError_testStdRenderD0Ev
     /tmp/cc0maOYx.s:921    .text._ZN23TestError_testStdRenderD2Ev:0000000000000000 _ZN23TestError_testStdRenderD2Ev
     /tmp/cc0maOYx.s:1243   .rodata._ZTI27TestError_testNullStdRender:0000000000000000 _ZTI27TestError_testNullStdRender
     /tmp/cc0maOYx.s:1000   .text._ZN27TestError_testNullStdRenderD2Ev:0000000000000000 _ZN27TestError_testNullStdRenderD1Ev
     /tmp/cc0maOYx.s:1040   .text._ZN27TestError_testNullStdRenderD0Ev:0000000000000000 _ZN27TestError_testNullStdRenderD0Ev
     /tmp/cc0maOYx.s:1000   .text._ZN27TestError_testNullStdRenderD2Ev:0000000000000000 _ZN27TestError_testNullStdRenderD2Ev
     /tmp/cc0maOYx.s:1259   .rodata._ZTI20TestError_testRender:0000000000000000 _ZTI20TestError_testRender
     /tmp/cc0maOYx.s:1079   .text._ZN20TestError_testRenderD2Ev:0000000000000000 _ZN20TestError_testRenderD1Ev
     /tmp/cc0maOYx.s:1119   .text._ZN20TestError_testRenderD0Ev:0000000000000000 _ZN20TestError_testRenderD0Ev
     /tmp/cc0maOYx.s:1079   .text._ZN20TestError_testRenderD2Ev:0000000000000000 _ZN20TestError_testRenderD2Ev
     /tmp/cc0maOYx.s:1275   .rodata._ZTI24TestError_testNullRender:0000000000000000 _ZTI24TestError_testNullRender
     /tmp/cc0maOYx.s:1158   .text._ZN24TestError_testNullRenderD2Ev:0000000000000000 _ZN24TestError_testNullRenderD1Ev
     /tmp/cc0maOYx.s:1198   .text._ZN24TestError_testNullRenderD0Ev:0000000000000000 _ZN24TestError_testNullRenderD0Ev
     /tmp/cc0maOYx.s:1158   .text._ZN24TestError_testNullRenderD2Ev:0000000000000000 _ZN24TestError_testNullRenderD2Ev
     /tmp/cc0maOYx.s:1236   .rodata._ZTS23TestError_testStdRender:0000000000000000 _ZTS23TestError_testStdRender
     /tmp/cc0maOYx.s:1252   .rodata._ZTS27TestError_testNullStdRender:0000000000000000 _ZTS27TestError_testNullStdRender
     /tmp/cc0maOYx.s:1268   .rodata._ZTS20TestError_testRender:0000000000000000 _ZTS20TestError_testRender
     /tmp/cc0maOYx.s:1284   .rodata._ZTS24TestError_testNullRender:0000000000000000 _ZTS24TestError_testNullRender
     /tmp/cc0maOYx.s:1288   .text:0000000000000461 _Z41__static_initialization_and_destruction_0ii
     /tmp/cc0maOYx.s:1363   .text:000000000000055c _GLOBAL__sub_I_buf
                           .group:0000000000000000 _ZN24TestError_testNullRenderC5Ev
                           .group:0000000000000000 _ZN20TestError_testRenderC5Ev
                           .group:0000000000000000 _ZN27TestError_testNullStdRenderC5Ev
                           .group:0000000000000000 _ZN23TestError_testStdRenderC5Ev
                           .group:0000000000000000 _ZN23TestError_testStdRenderD5Ev
                           .group:0000000000000000 _ZN27TestError_testNullStdRenderD5Ev
                           .group:0000000000000000 _ZN20TestError_testRenderD5Ev
                           .group:0000000000000000 _ZN24TestError_testNullRenderD5Ev

UNDEFINED SYMBOLS
_ZN8UnitTest4TestC2EPKcS2_S2_i
errRender
__gxx_personality_v0
_ZN8UnitTest11CurrentTest7DetailsEv
_ZN8UnitTest11TestDetailsC1ERKS0_i
_ZN8UnitTest11CurrentTest7ResultsEv
_ZN8UnitTest10CheckEqualERNS_11TestResultsEPcPKcRKNS_11TestDetailsE
errFree
__cxa_end_catch
_Unwind_Resume
__cxa_begin_catch
_ZN8UnitTest11TestResults13OnTestFailureERKNS_11TestDetailsEPKc
__stack_chk_fail
errRenderStd
fopen
__errno_location
strerror
_ZN8UnitTest10CheckEqualERNS_11TestResultsEPKcS3_RKNS_11TestDetailsE
_ZN8UnitTest4TestD2Ev
_ZdlPv
_ZTVN10__cxxabiv120__si_class_type_infoE
_ZTIN8UnitTest4TestE
__dso_handle
__cxa_atexit
_ZN8UnitTest4Test11GetTestListEv
_ZN8UnitTest9ListAdderC1ERNS_8TestListEPNS_4TestE
