   1              		.file	"testCore.cpp"
   2              		.text
   3              		.section	.text._ZN17TestCore_testSwapD2Ev,"axG",@progbits,_ZN17TestCore_testSwapD5Ev,comdat
   4              		.align 2
   5              		.p2align 4
   6              		.weak	_ZN17TestCore_testSwapD2Ev
   8              	_ZN17TestCore_testSwapD2Ev:
   9              	.LFB1490:
  10              		.cfi_startproc
  11 0000 F30F1EFA 		endbr64
  12 0004 488D0500 		leaq	16+_ZTV17TestCore_testSwap(%rip), %rax
  12      000000
  13 000b 488907   		movq	%rax, (%rdi)
  14 000e E9000000 		jmp	_ZN8UnitTest4TestD2Ev@PLT
  14      00
  15              		.cfi_endproc
  16              	.LFE1490:
  18              		.weak	_ZN17TestCore_testSwapD1Ev
  19              		.set	_ZN17TestCore_testSwapD1Ev,_ZN17TestCore_testSwapD2Ev
  20              		.section	.text._ZN17TestCore_testSwapD0Ev,"axG",@progbits,_ZN17TestCore_testSwapD5Ev,comdat
  21              		.align 2
  22              		.p2align 4
  23              		.weak	_ZN17TestCore_testSwapD0Ev
  25              	_ZN17TestCore_testSwapD0Ev:
  26              	.LFB1492:
  27              		.cfi_startproc
  28              		.cfi_personality 0x9b,DW.ref.__gxx_personality_v0
  29              		.cfi_lsda 0x1b,.LLSDA1492
  30 0000 F30F1EFA 		endbr64
  31 0004 55       		pushq	%rbp
  32              		.cfi_def_cfa_offset 16
  33              		.cfi_offset 6, -16
  34 0005 488D0500 		leaq	16+_ZTV17TestCore_testSwap(%rip), %rax
  34      000000
  35 000c 53       		pushq	%rbx
  36              		.cfi_def_cfa_offset 24
  37              		.cfi_offset 3, -24
  38 000d 4889FB   		movq	%rdi, %rbx
  39 0010 4883EC08 		subq	$8, %rsp
  40              		.cfi_def_cfa_offset 32
  41 0014 488907   		movq	%rax, (%rdi)
  42              	.LEHB0:
  43 0017 E8000000 		call	_ZN8UnitTest4TestD2Ev@PLT
  43      00
  44              	.LEHE0:
  45 001c 4883C408 		addq	$8, %rsp
  46              		.cfi_remember_state
  47              		.cfi_def_cfa_offset 24
  48 0020 4889DF   		movq	%rbx, %rdi
  49 0023 5B       		popq	%rbx
  50              		.cfi_def_cfa_offset 16
  51 0024 5D       		popq	%rbp
  52              		.cfi_def_cfa_offset 8
  53 0025 E9000000 		jmp	_ZdlPv@PLT
  53      00
  54              	.L5:
  55              		.cfi_restore_state
  56 002a F30F1EFA 		endbr64
  57 002e 4889C5   		movq	%rax, %rbp
  58              	.L4:
  59 0031 4889DF   		movq	%rbx, %rdi
  60 0034 E8000000 		call	_ZdlPv@PLT
  60      00
  61 0039 4889EF   		movq	%rbp, %rdi
  62              	.LEHB1:
  63 003c E8000000 		call	_Unwind_Resume@PLT
  63      00
  64              	.LEHE1:
  65              		.cfi_endproc
  66              	.LFE1492:
  67              		.globl	__gxx_personality_v0
  68              		.section	.gcc_except_table._ZN17TestCore_testSwapD0Ev,"aG",@progbits,_ZN17TestCore_testSwapD5Ev,co
  69              	.LLSDA1492:
  70 0000 FF       		.byte	0xff
  71 0001 FF       		.byte	0xff
  72 0002 01       		.byte	0x1
  73 0003 08       		.uleb128 .LLSDACSE1492-.LLSDACSB1492
  74              	.LLSDACSB1492:
  75 0004 17       		.uleb128 .LEHB0-.LFB1492
  76 0005 05       		.uleb128 .LEHE0-.LEHB0
  77 0006 2A       		.uleb128 .L5-.LFB1492
  78 0007 00       		.uleb128 0
  79 0008 3C       		.uleb128 .LEHB1-.LFB1492
  80 0009 05       		.uleb128 .LEHE1-.LEHB1
  81 000a 00       		.uleb128 0
  82 000b 00       		.uleb128 0
  83              	.LLSDACSE1492:
  84              		.section	.text._ZN17TestCore_testSwapD0Ev,"axG",@progbits,_ZN17TestCore_testSwapD5Ev,comdat
  86              		.section	.text._ZN28TestCore_testAssignNoReallocD2Ev,"axG",@progbits,_ZN28TestCore_testAssignNoRea
  87              		.align 2
  88              		.p2align 4
  89              		.weak	_ZN28TestCore_testAssignNoReallocD2Ev
  91              	_ZN28TestCore_testAssignNoReallocD2Ev:
  92              	.LFB1494:
  93              		.cfi_startproc
  94 0000 F30F1EFA 		endbr64
  95 0004 488D0500 		leaq	16+_ZTV28TestCore_testAssignNoRealloc(%rip), %rax
  95      000000
  96 000b 488907   		movq	%rax, (%rdi)
  97 000e E9000000 		jmp	_ZN8UnitTest4TestD2Ev@PLT
  97      00
  98              		.cfi_endproc
  99              	.LFE1494:
 101              		.weak	_ZN28TestCore_testAssignNoReallocD1Ev
 102              		.set	_ZN28TestCore_testAssignNoReallocD1Ev,_ZN28TestCore_testAssignNoReallocD2Ev
 103              		.section	.text._ZN28TestCore_testAssignNoReallocD0Ev,"axG",@progbits,_ZN28TestCore_testAssignNoRea
 104              		.align 2
 105              		.p2align 4
 106              		.weak	_ZN28TestCore_testAssignNoReallocD0Ev
 108              	_ZN28TestCore_testAssignNoReallocD0Ev:
 109              	.LFB1496:
 110              		.cfi_startproc
 111              		.cfi_personality 0x9b,DW.ref.__gxx_personality_v0
 112              		.cfi_lsda 0x1b,.LLSDA1496
 113 0000 F30F1EFA 		endbr64
 114 0004 55       		pushq	%rbp
 115              		.cfi_def_cfa_offset 16
 116              		.cfi_offset 6, -16
 117 0005 488D0500 		leaq	16+_ZTV28TestCore_testAssignNoRealloc(%rip), %rax
 117      000000
 118 000c 53       		pushq	%rbx
 119              		.cfi_def_cfa_offset 24
 120              		.cfi_offset 3, -24
 121 000d 4889FB   		movq	%rdi, %rbx
 122 0010 4883EC08 		subq	$8, %rsp
 123              		.cfi_def_cfa_offset 32
 124 0014 488907   		movq	%rax, (%rdi)
 125              	.LEHB2:
 126 0017 E8000000 		call	_ZN8UnitTest4TestD2Ev@PLT
 126      00
 127              	.LEHE2:
 128 001c 4883C408 		addq	$8, %rsp
 129              		.cfi_remember_state
 130              		.cfi_def_cfa_offset 24
 131 0020 4889DF   		movq	%rbx, %rdi
 132 0023 5B       		popq	%rbx
 133              		.cfi_def_cfa_offset 16
 134 0024 5D       		popq	%rbp
 135              		.cfi_def_cfa_offset 8
 136 0025 E9000000 		jmp	_ZdlPv@PLT
 136      00
 137              	.L10:
 138              		.cfi_restore_state
 139 002a F30F1EFA 		endbr64
 140 002e 4889C5   		movq	%rax, %rbp
 141              	.L9:
 142 0031 4889DF   		movq	%rbx, %rdi
 143 0034 E8000000 		call	_ZdlPv@PLT
 143      00
 144 0039 4889EF   		movq	%rbp, %rdi
 145              	.LEHB3:
 146 003c E8000000 		call	_Unwind_Resume@PLT
 146      00
 147              	.LEHE3:
 148              		.cfi_endproc
 149              	.LFE1496:
 150              		.section	.gcc_except_table._ZN28TestCore_testAssignNoReallocD0Ev,"aG",@progbits,_ZN28TestCore_test
 151              	.LLSDA1496:
 152 0000 FF       		.byte	0xff
 153 0001 FF       		.byte	0xff
 154 0002 01       		.byte	0x1
 155 0003 08       		.uleb128 .LLSDACSE1496-.LLSDACSB1496
 156              	.LLSDACSB1496:
 157 0004 17       		.uleb128 .LEHB2-.LFB1496
 158 0005 05       		.uleb128 .LEHE2-.LEHB2
 159 0006 2A       		.uleb128 .L10-.LFB1496
 160 0007 00       		.uleb128 0
 161 0008 3C       		.uleb128 .LEHB3-.LFB1496
 162 0009 05       		.uleb128 .LEHE3-.LEHB3
 163 000a 00       		.uleb128 0
 164 000b 00       		.uleb128 0
 165              	.LLSDACSE1496:
 166              		.section	.text._ZN28TestCore_testAssignNoReallocD0Ev,"axG",@progbits,_ZN28TestCore_testAssignNoRea
 168              		.section	.text._ZN26TestCore_testAssignReallocD2Ev,"axG",@progbits,_ZN26TestCore_testAssignRealloc
 169              		.align 2
 170              		.p2align 4
 171              		.weak	_ZN26TestCore_testAssignReallocD2Ev
 173              	_ZN26TestCore_testAssignReallocD2Ev:
 174              	.LFB1498:
 175              		.cfi_startproc
 176 0000 F30F1EFA 		endbr64
 177 0004 488D0500 		leaq	16+_ZTV26TestCore_testAssignRealloc(%rip), %rax
 177      000000
 178 000b 488907   		movq	%rax, (%rdi)
 179 000e E9000000 		jmp	_ZN8UnitTest4TestD2Ev@PLT
 179      00
 180              		.cfi_endproc
 181              	.LFE1498:
 183              		.weak	_ZN26TestCore_testAssignReallocD1Ev
 184              		.set	_ZN26TestCore_testAssignReallocD1Ev,_ZN26TestCore_testAssignReallocD2Ev
 185              		.section	.text._ZN26TestCore_testAssignReallocD0Ev,"axG",@progbits,_ZN26TestCore_testAssignRealloc
 186              		.align 2
 187              		.p2align 4
 188              		.weak	_ZN26TestCore_testAssignReallocD0Ev
 190              	_ZN26TestCore_testAssignReallocD0Ev:
 191              	.LFB1500:
 192              		.cfi_startproc
 193              		.cfi_personality 0x9b,DW.ref.__gxx_personality_v0
 194              		.cfi_lsda 0x1b,.LLSDA1500
 195 0000 F30F1EFA 		endbr64
 196 0004 55       		pushq	%rbp
 197              		.cfi_def_cfa_offset 16
 198              		.cfi_offset 6, -16
 199 0005 488D0500 		leaq	16+_ZTV26TestCore_testAssignRealloc(%rip), %rax
 199      000000
 200 000c 53       		pushq	%rbx
 201              		.cfi_def_cfa_offset 24
 202              		.cfi_offset 3, -24
 203 000d 4889FB   		movq	%rdi, %rbx
 204 0010 4883EC08 		subq	$8, %rsp
 205              		.cfi_def_cfa_offset 32
 206 0014 488907   		movq	%rax, (%rdi)
 207              	.LEHB4:
 208 0017 E8000000 		call	_ZN8UnitTest4TestD2Ev@PLT
 208      00
 209              	.LEHE4:
 210 001c 4883C408 		addq	$8, %rsp
 211              		.cfi_remember_state
 212              		.cfi_def_cfa_offset 24
 213 0020 4889DF   		movq	%rbx, %rdi
 214 0023 5B       		popq	%rbx
 215              		.cfi_def_cfa_offset 16
 216 0024 5D       		popq	%rbp
 217              		.cfi_def_cfa_offset 8
 218 0025 E9000000 		jmp	_ZdlPv@PLT
 218      00
 219              	.L15:
 220              		.cfi_restore_state
 221 002a F30F1EFA 		endbr64
 222 002e 4889C5   		movq	%rax, %rbp
 223              	.L14:
 224 0031 4889DF   		movq	%rbx, %rdi
 225 0034 E8000000 		call	_ZdlPv@PLT
 225      00
 226 0039 4889EF   		movq	%rbp, %rdi
 227              	.LEHB5:
 228 003c E8000000 		call	_Unwind_Resume@PLT
 228      00
 229              	.LEHE5:
 230              		.cfi_endproc
 231              	.LFE1500:
 232              		.section	.gcc_except_table._ZN26TestCore_testAssignReallocD0Ev,"aG",@progbits,_ZN26TestCore_testAs
 233              	.LLSDA1500:
 234 0000 FF       		.byte	0xff
 235 0001 FF       		.byte	0xff
 236 0002 01       		.byte	0x1
 237 0003 08       		.uleb128 .LLSDACSE1500-.LLSDACSB1500
 238              	.LLSDACSB1500:
 239 0004 17       		.uleb128 .LEHB4-.LFB1500
 240 0005 05       		.uleb128 .LEHE4-.LEHB4
 241 0006 2A       		.uleb128 .L15-.LFB1500
 242 0007 00       		.uleb128 0
 243 0008 3C       		.uleb128 .LEHB5-.LFB1500
 244 0009 05       		.uleb128 .LEHE5-.LEHB5
 245 000a 00       		.uleb128 0
 246 000b 00       		.uleb128 0
 247              	.LLSDACSE1500:
 248              		.section	.text._ZN26TestCore_testAssignReallocD0Ev,"axG",@progbits,_ZN26TestCore_testAssignRealloc
 250              		.section	.text._ZN26TestCore_testCopyConstructD2Ev,"axG",@progbits,_ZN26TestCore_testCopyConstruct
 251              		.align 2
 252              		.p2align 4
 253              		.weak	_ZN26TestCore_testCopyConstructD2Ev
 255              	_ZN26TestCore_testCopyConstructD2Ev:
 256              	.LFB1502:
 257              		.cfi_startproc
 258 0000 F30F1EFA 		endbr64
 259 0004 488D0500 		leaq	16+_ZTV26TestCore_testCopyConstruct(%rip), %rax
 259      000000
 260 000b 488907   		movq	%rax, (%rdi)
 261 000e E9000000 		jmp	_ZN8UnitTest4TestD2Ev@PLT
 261      00
 262              		.cfi_endproc
 263              	.LFE1502:
 265              		.weak	_ZN26TestCore_testCopyConstructD1Ev
 266              		.set	_ZN26TestCore_testCopyConstructD1Ev,_ZN26TestCore_testCopyConstructD2Ev
 267              		.section	.text._ZN26TestCore_testCopyConstructD0Ev,"axG",@progbits,_ZN26TestCore_testCopyConstruct
 268              		.align 2
 269              		.p2align 4
 270              		.weak	_ZN26TestCore_testCopyConstructD0Ev
 272              	_ZN26TestCore_testCopyConstructD0Ev:
 273              	.LFB1504:
 274              		.cfi_startproc
 275              		.cfi_personality 0x9b,DW.ref.__gxx_personality_v0
 276              		.cfi_lsda 0x1b,.LLSDA1504
 277 0000 F30F1EFA 		endbr64
 278 0004 55       		pushq	%rbp
 279              		.cfi_def_cfa_offset 16
 280              		.cfi_offset 6, -16
 281 0005 488D0500 		leaq	16+_ZTV26TestCore_testCopyConstruct(%rip), %rax
 281      000000
 282 000c 53       		pushq	%rbx
 283              		.cfi_def_cfa_offset 24
 284              		.cfi_offset 3, -24
 285 000d 4889FB   		movq	%rdi, %rbx
 286 0010 4883EC08 		subq	$8, %rsp
 287              		.cfi_def_cfa_offset 32
 288 0014 488907   		movq	%rax, (%rdi)
 289              	.LEHB6:
 290 0017 E8000000 		call	_ZN8UnitTest4TestD2Ev@PLT
 290      00
 291              	.LEHE6:
 292 001c 4883C408 		addq	$8, %rsp
 293              		.cfi_remember_state
 294              		.cfi_def_cfa_offset 24
 295 0020 4889DF   		movq	%rbx, %rdi
 296 0023 5B       		popq	%rbx
 297              		.cfi_def_cfa_offset 16
 298 0024 5D       		popq	%rbp
 299              		.cfi_def_cfa_offset 8
 300 0025 E9000000 		jmp	_ZdlPv@PLT
 300      00
 301              	.L20:
 302              		.cfi_restore_state
 303 002a F30F1EFA 		endbr64
 304 002e 4889C5   		movq	%rax, %rbp
 305              	.L19:
 306 0031 4889DF   		movq	%rbx, %rdi
 307 0034 E8000000 		call	_ZdlPv@PLT
 307      00
 308 0039 4889EF   		movq	%rbp, %rdi
 309              	.LEHB7:
 310 003c E8000000 		call	_Unwind_Resume@PLT
 310      00
 311              	.LEHE7:
 312              		.cfi_endproc
 313              	.LFE1504:
 314              		.section	.gcc_except_table._ZN26TestCore_testCopyConstructD0Ev,"aG",@progbits,_ZN26TestCore_testCo
 315              	.LLSDA1504:
 316 0000 FF       		.byte	0xff
 317 0001 FF       		.byte	0xff
 318 0002 01       		.byte	0x1
 319 0003 08       		.uleb128 .LLSDACSE1504-.LLSDACSB1504
 320              	.LLSDACSB1504:
 321 0004 17       		.uleb128 .LEHB6-.LFB1504
 322 0005 05       		.uleb128 .LEHE6-.LEHB6
 323 0006 2A       		.uleb128 .L20-.LFB1504
 324 0007 00       		.uleb128 0
 325 0008 3C       		.uleb128 .LEHB7-.LFB1504
 326 0009 05       		.uleb128 .LEHE7-.LEHB7
 327 000a 00       		.uleb128 0
 328 000b 00       		.uleb128 0
 329              	.LLSDACSE1504:
 330              		.section	.text._ZN26TestCore_testCopyConstructD0Ev,"axG",@progbits,_ZN26TestCore_testCopyConstruct
 332              		.section	.text._ZN23TestCore_testZeroLengthD2Ev,"axG",@progbits,_ZN23TestCore_testZeroLengthD5Ev,c
 333              		.align 2
 334              		.p2align 4
 335              		.weak	_ZN23TestCore_testZeroLengthD2Ev
 337              	_ZN23TestCore_testZeroLengthD2Ev:
 338              	.LFB1506:
 339              		.cfi_startproc
 340 0000 F30F1EFA 		endbr64
 341 0004 488D0500 		leaq	16+_ZTV23TestCore_testZeroLength(%rip), %rax
 341      000000
 342 000b 488907   		movq	%rax, (%rdi)
 343 000e E9000000 		jmp	_ZN8UnitTest4TestD2Ev@PLT
 343      00
 344              		.cfi_endproc
 345              	.LFE1506:
 347              		.weak	_ZN23TestCore_testZeroLengthD1Ev
 348              		.set	_ZN23TestCore_testZeroLengthD1Ev,_ZN23TestCore_testZeroLengthD2Ev
 349              		.section	.text._ZN23TestCore_testZeroLengthD0Ev,"axG",@progbits,_ZN23TestCore_testZeroLengthD5Ev,c
 350              		.align 2
 351              		.p2align 4
 352              		.weak	_ZN23TestCore_testZeroLengthD0Ev
 354              	_ZN23TestCore_testZeroLengthD0Ev:
 355              	.LFB1508:
 356              		.cfi_startproc
 357              		.cfi_personality 0x9b,DW.ref.__gxx_personality_v0
 358              		.cfi_lsda 0x1b,.LLSDA1508
 359 0000 F30F1EFA 		endbr64
 360 0004 55       		pushq	%rbp
 361              		.cfi_def_cfa_offset 16
 362              		.cfi_offset 6, -16
 363 0005 488D0500 		leaq	16+_ZTV23TestCore_testZeroLength(%rip), %rax
 363      000000
 364 000c 53       		pushq	%rbx
 365              		.cfi_def_cfa_offset 24
 366              		.cfi_offset 3, -24
 367 000d 4889FB   		movq	%rdi, %rbx
 368 0010 4883EC08 		subq	$8, %rsp
 369              		.cfi_def_cfa_offset 32
 370 0014 488907   		movq	%rax, (%rdi)
 371              	.LEHB8:
 372 0017 E8000000 		call	_ZN8UnitTest4TestD2Ev@PLT
 372      00
 373              	.LEHE8:
 374 001c 4883C408 		addq	$8, %rsp
 375              		.cfi_remember_state
 376              		.cfi_def_cfa_offset 24
 377 0020 4889DF   		movq	%rbx, %rdi
 378 0023 5B       		popq	%rbx
 379              		.cfi_def_cfa_offset 16
 380 0024 5D       		popq	%rbp
 381              		.cfi_def_cfa_offset 8
 382 0025 E9000000 		jmp	_ZdlPv@PLT
 382      00
 383              	.L25:
 384              		.cfi_restore_state
 385 002a F30F1EFA 		endbr64
 386 002e 4889C5   		movq	%rax, %rbp
 387              	.L24:
 388 0031 4889DF   		movq	%rbx, %rdi
 389 0034 E8000000 		call	_ZdlPv@PLT
 389      00
 390 0039 4889EF   		movq	%rbp, %rdi
 391              	.LEHB9:
 392 003c E8000000 		call	_Unwind_Resume@PLT
 392      00
 393              	.LEHE9:
 394              		.cfi_endproc
 395              	.LFE1508:
 396              		.section	.gcc_except_table._ZN23TestCore_testZeroLengthD0Ev,"aG",@progbits,_ZN23TestCore_testZeroL
 397              	.LLSDA1508:
 398 0000 FF       		.byte	0xff
 399 0001 FF       		.byte	0xff
 400 0002 01       		.byte	0x1
 401 0003 08       		.uleb128 .LLSDACSE1508-.LLSDACSB1508
 402              	.LLSDACSB1508:
 403 0004 17       		.uleb128 .LEHB8-.LFB1508
 404 0005 05       		.uleb128 .LEHE8-.LEHB8
 405 0006 2A       		.uleb128 .L25-.LFB1508
 406 0007 00       		.uleb128 0
 407 0008 3C       		.uleb128 .LEHB9-.LFB1508
 408 0009 05       		.uleb128 .LEHE9-.LEHB9
 409 000a 00       		.uleb128 0
 410 000b 00       		.uleb128 0
 411              	.LLSDACSE1508:
 412              		.section	.text._ZN23TestCore_testZeroLengthD0Ev,"axG",@progbits,_ZN23TestCore_testZeroLengthD5Ev,c
 414              		.section	.text._ZN33TestCore_testStraddledWriteLongBED2Ev,"axG",@progbits,_ZN33TestCore_testStradd
 415              		.align 2
 416              		.p2align 4
 417              		.weak	_ZN33TestCore_testStraddledWriteLongBED2Ev
 419              	_ZN33TestCore_testStraddledWriteLongBED2Ev:
 420              	.LFB1510:
 421              		.cfi_startproc
 422 0000 F30F1EFA 		endbr64
 423 0004 488D0500 		leaq	16+_ZTV33TestCore_testStraddledWriteLongBE(%rip), %rax
 423      000000
 424 000b 488907   		movq	%rax, (%rdi)
 425 000e E9000000 		jmp	_ZN8UnitTest4TestD2Ev@PLT
 425      00
 426              		.cfi_endproc
 427              	.LFE1510:
 429              		.weak	_ZN33TestCore_testStraddledWriteLongBED1Ev
 430              		.set	_ZN33TestCore_testStraddledWriteLongBED1Ev,_ZN33TestCore_testStraddledWriteLongBED2Ev
 431              		.section	.text._ZN33TestCore_testStraddledWriteLongBED0Ev,"axG",@progbits,_ZN33TestCore_testStradd
 432              		.align 2
 433              		.p2align 4
 434              		.weak	_ZN33TestCore_testStraddledWriteLongBED0Ev
 436              	_ZN33TestCore_testStraddledWriteLongBED0Ev:
 437              	.LFB1512:
 438              		.cfi_startproc
 439              		.cfi_personality 0x9b,DW.ref.__gxx_personality_v0
 440              		.cfi_lsda 0x1b,.LLSDA1512
 441 0000 F30F1EFA 		endbr64
 442 0004 55       		pushq	%rbp
 443              		.cfi_def_cfa_offset 16
 444              		.cfi_offset 6, -16
 445 0005 488D0500 		leaq	16+_ZTV33TestCore_testStraddledWriteLongBE(%rip), %rax
 445      000000
 446 000c 53       		pushq	%rbx
 447              		.cfi_def_cfa_offset 24
 448              		.cfi_offset 3, -24
 449 000d 4889FB   		movq	%rdi, %rbx
 450 0010 4883EC08 		subq	$8, %rsp
 451              		.cfi_def_cfa_offset 32
 452 0014 488907   		movq	%rax, (%rdi)
 453              	.LEHB10:
 454 0017 E8000000 		call	_ZN8UnitTest4TestD2Ev@PLT
 454      00
 455              	.LEHE10:
 456 001c 4883C408 		addq	$8, %rsp
 457              		.cfi_remember_state
 458              		.cfi_def_cfa_offset 24
 459 0020 4889DF   		movq	%rbx, %rdi
 460 0023 5B       		popq	%rbx
 461              		.cfi_def_cfa_offset 16
 462 0024 5D       		popq	%rbp
 463              		.cfi_def_cfa_offset 8
 464 0025 E9000000 		jmp	_ZdlPv@PLT
 464      00
 465              	.L30:
 466              		.cfi_restore_state
 467 002a F30F1EFA 		endbr64
 468 002e 4889C5   		movq	%rax, %rbp
 469              	.L29:
 470 0031 4889DF   		movq	%rbx, %rdi
 471 0034 E8000000 		call	_ZdlPv@PLT
 471      00
 472 0039 4889EF   		movq	%rbp, %rdi
 473              	.LEHB11:
 474 003c E8000000 		call	_Unwind_Resume@PLT
 474      00
 475              	.LEHE11:
 476              		.cfi_endproc
 477              	.LFE1512:
 478              		.section	.gcc_except_table._ZN33TestCore_testStraddledWriteLongBED0Ev,"aG",@progbits,_ZN33TestCore
 479              	.LLSDA1512:
 480 0000 FF       		.byte	0xff
 481 0001 FF       		.byte	0xff
 482 0002 01       		.byte	0x1
 483 0003 08       		.uleb128 .LLSDACSE1512-.LLSDACSB1512
 484              	.LLSDACSB1512:
 485 0004 17       		.uleb128 .LEHB10-.LFB1512
 486 0005 05       		.uleb128 .LEHE10-.LEHB10
 487 0006 2A       		.uleb128 .L30-.LFB1512
 488 0007 00       		.uleb128 0
 489 0008 3C       		.uleb128 .LEHB11-.LFB1512
 490 0009 05       		.uleb128 .LEHE11-.LEHB11
 491 000a 00       		.uleb128 0
 492 000b 00       		.uleb128 0
 493              	.LLSDACSE1512:
 494              		.section	.text._ZN33TestCore_testStraddledWriteLongBED0Ev,"axG",@progbits,_ZN33TestCore_testStradd
 496              		.section	.text._ZN31TestCore_testOutsideWriteLongBED2Ev,"axG",@progbits,_ZN31TestCore_testOutsideW
 497              		.align 2
 498              		.p2align 4
 499              		.weak	_ZN31TestCore_testOutsideWriteLongBED2Ev
 501              	_ZN31TestCore_testOutsideWriteLongBED2Ev:
 502              	.LFB1514:
 503              		.cfi_startproc
 504 0000 F30F1EFA 		endbr64
 505 0004 488D0500 		leaq	16+_ZTV31TestCore_testOutsideWriteLongBE(%rip), %rax
 505      000000
 506 000b 488907   		movq	%rax, (%rdi)
 507 000e E9000000 		jmp	_ZN8UnitTest4TestD2Ev@PLT
 507      00
 508              		.cfi_endproc
 509              	.LFE1514:
 511              		.weak	_ZN31TestCore_testOutsideWriteLongBED1Ev
 512              		.set	_ZN31TestCore_testOutsideWriteLongBED1Ev,_ZN31TestCore_testOutsideWriteLongBED2Ev
 513              		.section	.text._ZN31TestCore_testOutsideWriteLongBED0Ev,"axG",@progbits,_ZN31TestCore_testOutsideW
 514              		.align 2
 515              		.p2align 4
 516              		.weak	_ZN31TestCore_testOutsideWriteLongBED0Ev
 518              	_ZN31TestCore_testOutsideWriteLongBED0Ev:
 519              	.LFB1516:
 520              		.cfi_startproc
 521              		.cfi_personality 0x9b,DW.ref.__gxx_personality_v0
 522              		.cfi_lsda 0x1b,.LLSDA1516
 523 0000 F30F1EFA 		endbr64
 524 0004 55       		pushq	%rbp
 525              		.cfi_def_cfa_offset 16
 526              		.cfi_offset 6, -16
 527 0005 488D0500 		leaq	16+_ZTV31TestCore_testOutsideWriteLongBE(%rip), %rax
 527      000000
 528 000c 53       		pushq	%rbx
 529              		.cfi_def_cfa_offset 24
 530              		.cfi_offset 3, -24
 531 000d 4889FB   		movq	%rdi, %rbx
 532 0010 4883EC08 		subq	$8, %rsp
 533              		.cfi_def_cfa_offset 32
 534 0014 488907   		movq	%rax, (%rdi)
 535              	.LEHB12:
 536 0017 E8000000 		call	_ZN8UnitTest4TestD2Ev@PLT
 536      00
 537              	.LEHE12:
 538 001c 4883C408 		addq	$8, %rsp
 539              		.cfi_remember_state
 540              		.cfi_def_cfa_offset 24
 541 0020 4889DF   		movq	%rbx, %rdi
 542 0023 5B       		popq	%rbx
 543              		.cfi_def_cfa_offset 16
 544 0024 5D       		popq	%rbp
 545              		.cfi_def_cfa_offset 8
 546 0025 E9000000 		jmp	_ZdlPv@PLT
 546      00
 547              	.L35:
 548              		.cfi_restore_state
 549 002a F30F1EFA 		endbr64
 550 002e 4889C5   		movq	%rax, %rbp
 551              	.L34:
 552 0031 4889DF   		movq	%rbx, %rdi
 553 0034 E8000000 		call	_ZdlPv@PLT
 553      00
 554 0039 4889EF   		movq	%rbp, %rdi
 555              	.LEHB13:
 556 003c E8000000 		call	_Unwind_Resume@PLT
 556      00
 557              	.LEHE13:
 558              		.cfi_endproc
 559              	.LFE1516:
 560              		.section	.gcc_except_table._ZN31TestCore_testOutsideWriteLongBED0Ev,"aG",@progbits,_ZN31TestCore_t
 561              	.LLSDA1516:
 562 0000 FF       		.byte	0xff
 563 0001 FF       		.byte	0xff
 564 0002 01       		.byte	0x1
 565 0003 08       		.uleb128 .LLSDACSE1516-.LLSDACSB1516
 566              	.LLSDACSB1516:
 567 0004 17       		.uleb128 .LEHB12-.LFB1516
 568 0005 05       		.uleb128 .LEHE12-.LEHB12
 569 0006 2A       		.uleb128 .L35-.LFB1516
 570 0007 00       		.uleb128 0
 571 0008 3C       		.uleb128 .LEHB13-.LFB1516
 572 0009 05       		.uleb128 .LEHE13-.LEHB13
 573 000a 00       		.uleb128 0
 574 000b 00       		.uleb128 0
 575              	.LLSDACSE1516:
 576              		.section	.text._ZN31TestCore_testOutsideWriteLongBED0Ev,"axG",@progbits,_ZN31TestCore_testOutsideW
 578              		.section	.text._ZN30TestCore_testInsideWriteLongBED2Ev,"axG",@progbits,_ZN30TestCore_testInsideWri
 579              		.align 2
 580              		.p2align 4
 581              		.weak	_ZN30TestCore_testInsideWriteLongBED2Ev
 583              	_ZN30TestCore_testInsideWriteLongBED2Ev:
 584              	.LFB1518:
 585              		.cfi_startproc
 586 0000 F30F1EFA 		endbr64
 587 0004 488D0500 		leaq	16+_ZTV30TestCore_testInsideWriteLongBE(%rip), %rax
 587      000000
 588 000b 488907   		movq	%rax, (%rdi)
 589 000e E9000000 		jmp	_ZN8UnitTest4TestD2Ev@PLT
 589      00
 590              		.cfi_endproc
 591              	.LFE1518:
 593              		.weak	_ZN30TestCore_testInsideWriteLongBED1Ev
 594              		.set	_ZN30TestCore_testInsideWriteLongBED1Ev,_ZN30TestCore_testInsideWriteLongBED2Ev
 595              		.section	.text._ZN30TestCore_testInsideWriteLongBED0Ev,"axG",@progbits,_ZN30TestCore_testInsideWri
 596              		.align 2
 597              		.p2align 4
 598              		.weak	_ZN30TestCore_testInsideWriteLongBED0Ev
 600              	_ZN30TestCore_testInsideWriteLongBED0Ev:
 601              	.LFB1520:
 602              		.cfi_startproc
 603              		.cfi_personality 0x9b,DW.ref.__gxx_personality_v0
 604              		.cfi_lsda 0x1b,.LLSDA1520
 605 0000 F30F1EFA 		endbr64
 606 0004 55       		pushq	%rbp
 607              		.cfi_def_cfa_offset 16
 608              		.cfi_offset 6, -16
 609 0005 488D0500 		leaq	16+_ZTV30TestCore_testInsideWriteLongBE(%rip), %rax
 609      000000
 610 000c 53       		pushq	%rbx
 611              		.cfi_def_cfa_offset 24
 612              		.cfi_offset 3, -24
 613 000d 4889FB   		movq	%rdi, %rbx
 614 0010 4883EC08 		subq	$8, %rsp
 615              		.cfi_def_cfa_offset 32
 616 0014 488907   		movq	%rax, (%rdi)
 617              	.LEHB14:
 618 0017 E8000000 		call	_ZN8UnitTest4TestD2Ev@PLT
 618      00
 619              	.LEHE14:
 620 001c 4883C408 		addq	$8, %rsp
 621              		.cfi_remember_state
 622              		.cfi_def_cfa_offset 24
 623 0020 4889DF   		movq	%rbx, %rdi
 624 0023 5B       		popq	%rbx
 625              		.cfi_def_cfa_offset 16
 626 0024 5D       		popq	%rbp
 627              		.cfi_def_cfa_offset 8
 628 0025 E9000000 		jmp	_ZdlPv@PLT
 628      00
 629              	.L40:
 630              		.cfi_restore_state
 631 002a F30F1EFA 		endbr64
 632 002e 4889C5   		movq	%rax, %rbp
 633              	.L39:
 634 0031 4889DF   		movq	%rbx, %rdi
 635 0034 E8000000 		call	_ZdlPv@PLT
 635      00
 636 0039 4889EF   		movq	%rbp, %rdi
 637              	.LEHB15:
 638 003c E8000000 		call	_Unwind_Resume@PLT
 638      00
 639              	.LEHE15:
 640              		.cfi_endproc
 641              	.LFE1520:
 642              		.section	.gcc_except_table._ZN30TestCore_testInsideWriteLongBED0Ev,"aG",@progbits,_ZN30TestCore_te
 643              	.LLSDA1520:
 644 0000 FF       		.byte	0xff
 645 0001 FF       		.byte	0xff
 646 0002 01       		.byte	0x1
 647 0003 08       		.uleb128 .LLSDACSE1520-.LLSDACSB1520
 648              	.LLSDACSB1520:
 649 0004 17       		.uleb128 .LEHB14-.LFB1520
 650 0005 05       		.uleb128 .LEHE14-.LEHB14
 651 0006 2A       		.uleb128 .L40-.LFB1520
 652 0007 00       		.uleb128 0
 653 0008 3C       		.uleb128 .LEHB15-.LFB1520
 654 0009 05       		.uleb128 .LEHE15-.LEHB15
 655 000a 00       		.uleb128 0
 656 000b 00       		.uleb128 0
 657              	.LLSDACSE1520:
 658              		.section	.text._ZN30TestCore_testInsideWriteLongBED0Ev,"axG",@progbits,_ZN30TestCore_testInsideWri
 660              		.section	.text._ZN33TestCore_testStraddledWriteLongLED2Ev,"axG",@progbits,_ZN33TestCore_testStradd
 661              		.align 2
 662              		.p2align 4
 663              		.weak	_ZN33TestCore_testStraddledWriteLongLED2Ev
 665              	_ZN33TestCore_testStraddledWriteLongLED2Ev:
 666              	.LFB1522:
 667              		.cfi_startproc
 668 0000 F30F1EFA 		endbr64
 669 0004 488D0500 		leaq	16+_ZTV33TestCore_testStraddledWriteLongLE(%rip), %rax
 669      000000
 670 000b 488907   		movq	%rax, (%rdi)
 671 000e E9000000 		jmp	_ZN8UnitTest4TestD2Ev@PLT
 671      00
 672              		.cfi_endproc
 673              	.LFE1522:
 675              		.weak	_ZN33TestCore_testStraddledWriteLongLED1Ev
 676              		.set	_ZN33TestCore_testStraddledWriteLongLED1Ev,_ZN33TestCore_testStraddledWriteLongLED2Ev
 677              		.section	.text._ZN33TestCore_testStraddledWriteLongLED0Ev,"axG",@progbits,_ZN33TestCore_testStradd
 678              		.align 2
 679              		.p2align 4
 680              		.weak	_ZN33TestCore_testStraddledWriteLongLED0Ev
 682              	_ZN33TestCore_testStraddledWriteLongLED0Ev:
 683              	.LFB1524:
 684              		.cfi_startproc
 685              		.cfi_personality 0x9b,DW.ref.__gxx_personality_v0
 686              		.cfi_lsda 0x1b,.LLSDA1524
 687 0000 F30F1EFA 		endbr64
 688 0004 55       		pushq	%rbp
 689              		.cfi_def_cfa_offset 16
 690              		.cfi_offset 6, -16
 691 0005 488D0500 		leaq	16+_ZTV33TestCore_testStraddledWriteLongLE(%rip), %rax
 691      000000
 692 000c 53       		pushq	%rbx
 693              		.cfi_def_cfa_offset 24
 694              		.cfi_offset 3, -24
 695 000d 4889FB   		movq	%rdi, %rbx
 696 0010 4883EC08 		subq	$8, %rsp
 697              		.cfi_def_cfa_offset 32
 698 0014 488907   		movq	%rax, (%rdi)
 699              	.LEHB16:
 700 0017 E8000000 		call	_ZN8UnitTest4TestD2Ev@PLT
 700      00
 701              	.LEHE16:
 702 001c 4883C408 		addq	$8, %rsp
 703              		.cfi_remember_state
 704              		.cfi_def_cfa_offset 24
 705 0020 4889DF   		movq	%rbx, %rdi
 706 0023 5B       		popq	%rbx
 707              		.cfi_def_cfa_offset 16
 708 0024 5D       		popq	%rbp
 709              		.cfi_def_cfa_offset 8
 710 0025 E9000000 		jmp	_ZdlPv@PLT
 710      00
 711              	.L45:
 712              		.cfi_restore_state
 713 002a F30F1EFA 		endbr64
 714 002e 4889C5   		movq	%rax, %rbp
 715              	.L44:
 716 0031 4889DF   		movq	%rbx, %rdi
 717 0034 E8000000 		call	_ZdlPv@PLT
 717      00
 718 0039 4889EF   		movq	%rbp, %rdi
 719              	.LEHB17:
 720 003c E8000000 		call	_Unwind_Resume@PLT
 720      00
 721              	.LEHE17:
 722              		.cfi_endproc
 723              	.LFE1524:
 724              		.section	.gcc_except_table._ZN33TestCore_testStraddledWriteLongLED0Ev,"aG",@progbits,_ZN33TestCore
 725              	.LLSDA1524:
 726 0000 FF       		.byte	0xff
 727 0001 FF       		.byte	0xff
 728 0002 01       		.byte	0x1
 729 0003 08       		.uleb128 .LLSDACSE1524-.LLSDACSB1524
 730              	.LLSDACSB1524:
 731 0004 17       		.uleb128 .LEHB16-.LFB1524
 732 0005 05       		.uleb128 .LEHE16-.LEHB16
 733 0006 2A       		.uleb128 .L45-.LFB1524
 734 0007 00       		.uleb128 0
 735 0008 3C       		.uleb128 .LEHB17-.LFB1524
 736 0009 05       		.uleb128 .LEHE17-.LEHB17
 737 000a 00       		.uleb128 0
 738 000b 00       		.uleb128 0
 739              	.LLSDACSE1524:
 740              		.section	.text._ZN33TestCore_testStraddledWriteLongLED0Ev,"axG",@progbits,_ZN33TestCore_testStradd
 742              		.section	.text._ZN31TestCore_testOutsideWriteLongLED2Ev,"axG",@progbits,_ZN31TestCore_testOutsideW
 743              		.align 2
 744              		.p2align 4
 745              		.weak	_ZN31TestCore_testOutsideWriteLongLED2Ev
 747              	_ZN31TestCore_testOutsideWriteLongLED2Ev:
 748              	.LFB1526:
 749              		.cfi_startproc
 750 0000 F30F1EFA 		endbr64
 751 0004 488D0500 		leaq	16+_ZTV31TestCore_testOutsideWriteLongLE(%rip), %rax
 751      000000
 752 000b 488907   		movq	%rax, (%rdi)
 753 000e E9000000 		jmp	_ZN8UnitTest4TestD2Ev@PLT
 753      00
 754              		.cfi_endproc
 755              	.LFE1526:
 757              		.weak	_ZN31TestCore_testOutsideWriteLongLED1Ev
 758              		.set	_ZN31TestCore_testOutsideWriteLongLED1Ev,_ZN31TestCore_testOutsideWriteLongLED2Ev
 759              		.section	.text._ZN31TestCore_testOutsideWriteLongLED0Ev,"axG",@progbits,_ZN31TestCore_testOutsideW
 760              		.align 2
 761              		.p2align 4
 762              		.weak	_ZN31TestCore_testOutsideWriteLongLED0Ev
 764              	_ZN31TestCore_testOutsideWriteLongLED0Ev:
 765              	.LFB1528:
 766              		.cfi_startproc
 767              		.cfi_personality 0x9b,DW.ref.__gxx_personality_v0
 768              		.cfi_lsda 0x1b,.LLSDA1528
 769 0000 F30F1EFA 		endbr64
 770 0004 55       		pushq	%rbp
 771              		.cfi_def_cfa_offset 16
 772              		.cfi_offset 6, -16
 773 0005 488D0500 		leaq	16+_ZTV31TestCore_testOutsideWriteLongLE(%rip), %rax
 773      000000
 774 000c 53       		pushq	%rbx
 775              		.cfi_def_cfa_offset 24
 776              		.cfi_offset 3, -24
 777 000d 4889FB   		movq	%rdi, %rbx
 778 0010 4883EC08 		subq	$8, %rsp
 779              		.cfi_def_cfa_offset 32
 780 0014 488907   		movq	%rax, (%rdi)
 781              	.LEHB18:
 782 0017 E8000000 		call	_ZN8UnitTest4TestD2Ev@PLT
 782      00
 783              	.LEHE18:
 784 001c 4883C408 		addq	$8, %rsp
 785              		.cfi_remember_state
 786              		.cfi_def_cfa_offset 24
 787 0020 4889DF   		movq	%rbx, %rdi
 788 0023 5B       		popq	%rbx
 789              		.cfi_def_cfa_offset 16
 790 0024 5D       		popq	%rbp
 791              		.cfi_def_cfa_offset 8
 792 0025 E9000000 		jmp	_ZdlPv@PLT
 792      00
 793              	.L50:
 794              		.cfi_restore_state
 795 002a F30F1EFA 		endbr64
 796 002e 4889C5   		movq	%rax, %rbp
 797              	.L49:
 798 0031 4889DF   		movq	%rbx, %rdi
 799 0034 E8000000 		call	_ZdlPv@PLT
 799      00
 800 0039 4889EF   		movq	%rbp, %rdi
 801              	.LEHB19:
 802 003c E8000000 		call	_Unwind_Resume@PLT
 802      00
 803              	.LEHE19:
 804              		.cfi_endproc
 805              	.LFE1528:
 806              		.section	.gcc_except_table._ZN31TestCore_testOutsideWriteLongLED0Ev,"aG",@progbits,_ZN31TestCore_t
 807              	.LLSDA1528:
 808 0000 FF       		.byte	0xff
 809 0001 FF       		.byte	0xff
 810 0002 01       		.byte	0x1
 811 0003 08       		.uleb128 .LLSDACSE1528-.LLSDACSB1528
 812              	.LLSDACSB1528:
 813 0004 17       		.uleb128 .LEHB18-.LFB1528
 814 0005 05       		.uleb128 .LEHE18-.LEHB18
 815 0006 2A       		.uleb128 .L50-.LFB1528
 816 0007 00       		.uleb128 0
 817 0008 3C       		.uleb128 .LEHB19-.LFB1528
 818 0009 05       		.uleb128 .LEHE19-.LEHB19
 819 000a 00       		.uleb128 0
 820 000b 00       		.uleb128 0
 821              	.LLSDACSE1528:
 822              		.section	.text._ZN31TestCore_testOutsideWriteLongLED0Ev,"axG",@progbits,_ZN31TestCore_testOutsideW
 824              		.section	.text._ZN30TestCore_testInsideWriteLongLED2Ev,"axG",@progbits,_ZN30TestCore_testInsideWri
 825              		.align 2
 826              		.p2align 4
 827              		.weak	_ZN30TestCore_testInsideWriteLongLED2Ev
 829              	_ZN30TestCore_testInsideWriteLongLED2Ev:
 830              	.LFB1530:
 831              		.cfi_startproc
 832 0000 F30F1EFA 		endbr64
 833 0004 488D0500 		leaq	16+_ZTV30TestCore_testInsideWriteLongLE(%rip), %rax
 833      000000
 834 000b 488907   		movq	%rax, (%rdi)
 835 000e E9000000 		jmp	_ZN8UnitTest4TestD2Ev@PLT
 835      00
 836              		.cfi_endproc
 837              	.LFE1530:
 839              		.weak	_ZN30TestCore_testInsideWriteLongLED1Ev
 840              		.set	_ZN30TestCore_testInsideWriteLongLED1Ev,_ZN30TestCore_testInsideWriteLongLED2Ev
 841              		.section	.text._ZN30TestCore_testInsideWriteLongLED0Ev,"axG",@progbits,_ZN30TestCore_testInsideWri
 842              		.align 2
 843              		.p2align 4
 844              		.weak	_ZN30TestCore_testInsideWriteLongLED0Ev
 846              	_ZN30TestCore_testInsideWriteLongLED0Ev:
 847              	.LFB1532:
 848              		.cfi_startproc
 849              		.cfi_personality 0x9b,DW.ref.__gxx_personality_v0
 850              		.cfi_lsda 0x1b,.LLSDA1532
 851 0000 F30F1EFA 		endbr64
 852 0004 55       		pushq	%rbp
 853              		.cfi_def_cfa_offset 16
 854              		.cfi_offset 6, -16
 855 0005 488D0500 		leaq	16+_ZTV30TestCore_testInsideWriteLongLE(%rip), %rax
 855      000000
 856 000c 53       		pushq	%rbx
 857              		.cfi_def_cfa_offset 24
 858              		.cfi_offset 3, -24
 859 000d 4889FB   		movq	%rdi, %rbx
 860 0010 4883EC08 		subq	$8, %rsp
 861              		.cfi_def_cfa_offset 32
 862 0014 488907   		movq	%rax, (%rdi)
 863              	.LEHB20:
 864 0017 E8000000 		call	_ZN8UnitTest4TestD2Ev@PLT
 864      00
 865              	.LEHE20:
 866 001c 4883C408 		addq	$8, %rsp
 867              		.cfi_remember_state
 868              		.cfi_def_cfa_offset 24
 869 0020 4889DF   		movq	%rbx, %rdi
 870 0023 5B       		popq	%rbx
 871              		.cfi_def_cfa_offset 16
 872 0024 5D       		popq	%rbp
 873              		.cfi_def_cfa_offset 8
 874 0025 E9000000 		jmp	_ZdlPv@PLT
 874      00
 875              	.L55:
 876              		.cfi_restore_state
 877 002a F30F1EFA 		endbr64
 878 002e 4889C5   		movq	%rax, %rbp
 879              	.L54:
 880 0031 4889DF   		movq	%rbx, %rdi
 881 0034 E8000000 		call	_ZdlPv@PLT
 881      00
 882 0039 4889EF   		movq	%rbp, %rdi
 883              	.LEHB21:
 884 003c E8000000 		call	_Unwind_Resume@PLT
 884      00
 885              	.LEHE21:
 886              		.cfi_endproc
 887              	.LFE1532:
 888              		.section	.gcc_except_table._ZN30TestCore_testInsideWriteLongLED0Ev,"aG",@progbits,_ZN30TestCore_te
 889              	.LLSDA1532:
 890 0000 FF       		.byte	0xff
 891 0001 FF       		.byte	0xff
 892 0002 01       		.byte	0x1
 893 0003 08       		.uleb128 .LLSDACSE1532-.LLSDACSB1532
 894              	.LLSDACSB1532:
 895 0004 17       		.uleb128 .LEHB20-.LFB1532
 896 0005 05       		.uleb128 .LEHE20-.LEHB20
 897 0006 2A       		.uleb128 .L55-.LFB1532
 898 0007 00       		.uleb128 0
 899 0008 3C       		.uleb128 .LEHB21-.LFB1532
 900 0009 05       		.uleb128 .LEHE21-.LEHB21
 901 000a 00       		.uleb128 0
 902 000b 00       		.uleb128 0
 903              	.LLSDACSE1532:
 904              		.section	.text._ZN30TestCore_testInsideWriteLongLED0Ev,"axG",@progbits,_ZN30TestCore_testInsideWri
 906              		.section	.text._ZN33TestCore_testStraddledWriteWordBED2Ev,"axG",@progbits,_ZN33TestCore_testStradd
 907              		.align 2
 908              		.p2align 4
 909              		.weak	_ZN33TestCore_testStraddledWriteWordBED2Ev
 911              	_ZN33TestCore_testStraddledWriteWordBED2Ev:
 912              	.LFB1534:
 913              		.cfi_startproc
 914 0000 F30F1EFA 		endbr64
 915 0004 488D0500 		leaq	16+_ZTV33TestCore_testStraddledWriteWordBE(%rip), %rax
 915      000000
 916 000b 488907   		movq	%rax, (%rdi)
 917 000e E9000000 		jmp	_ZN8UnitTest4TestD2Ev@PLT
 917      00
 918              		.cfi_endproc
 919              	.LFE1534:
 921              		.weak	_ZN33TestCore_testStraddledWriteWordBED1Ev
 922              		.set	_ZN33TestCore_testStraddledWriteWordBED1Ev,_ZN33TestCore_testStraddledWriteWordBED2Ev
 923              		.section	.text._ZN33TestCore_testStraddledWriteWordBED0Ev,"axG",@progbits,_ZN33TestCore_testStradd
 924              		.align 2
 925              		.p2align 4
 926              		.weak	_ZN33TestCore_testStraddledWriteWordBED0Ev
 928              	_ZN33TestCore_testStraddledWriteWordBED0Ev:
 929              	.LFB1536:
 930              		.cfi_startproc
 931              		.cfi_personality 0x9b,DW.ref.__gxx_personality_v0
 932              		.cfi_lsda 0x1b,.LLSDA1536
 933 0000 F30F1EFA 		endbr64
 934 0004 55       		pushq	%rbp
 935              		.cfi_def_cfa_offset 16
 936              		.cfi_offset 6, -16
 937 0005 488D0500 		leaq	16+_ZTV33TestCore_testStraddledWriteWordBE(%rip), %rax
 937      000000
 938 000c 53       		pushq	%rbx
 939              		.cfi_def_cfa_offset 24
 940              		.cfi_offset 3, -24
 941 000d 4889FB   		movq	%rdi, %rbx
 942 0010 4883EC08 		subq	$8, %rsp
 943              		.cfi_def_cfa_offset 32
 944 0014 488907   		movq	%rax, (%rdi)
 945              	.LEHB22:
 946 0017 E8000000 		call	_ZN8UnitTest4TestD2Ev@PLT
 946      00
 947              	.LEHE22:
 948 001c 4883C408 		addq	$8, %rsp
 949              		.cfi_remember_state
 950              		.cfi_def_cfa_offset 24
 951 0020 4889DF   		movq	%rbx, %rdi
 952 0023 5B       		popq	%rbx
 953              		.cfi_def_cfa_offset 16
 954 0024 5D       		popq	%rbp
 955              		.cfi_def_cfa_offset 8
 956 0025 E9000000 		jmp	_ZdlPv@PLT
 956      00
 957              	.L60:
 958              		.cfi_restore_state
 959 002a F30F1EFA 		endbr64
 960 002e 4889C5   		movq	%rax, %rbp
 961              	.L59:
 962 0031 4889DF   		movq	%rbx, %rdi
 963 0034 E8000000 		call	_ZdlPv@PLT
 963      00
 964 0039 4889EF   		movq	%rbp, %rdi
 965              	.LEHB23:
 966 003c E8000000 		call	_Unwind_Resume@PLT
 966      00
 967              	.LEHE23:
 968              		.cfi_endproc
 969              	.LFE1536:
 970              		.section	.gcc_except_table._ZN33TestCore_testStraddledWriteWordBED0Ev,"aG",@progbits,_ZN33TestCore
 971              	.LLSDA1536:
 972 0000 FF       		.byte	0xff
 973 0001 FF       		.byte	0xff
 974 0002 01       		.byte	0x1
 975 0003 08       		.uleb128 .LLSDACSE1536-.LLSDACSB1536
 976              	.LLSDACSB1536:
 977 0004 17       		.uleb128 .LEHB22-.LFB1536
 978 0005 05       		.uleb128 .LEHE22-.LEHB22
 979 0006 2A       		.uleb128 .L60-.LFB1536
 980 0007 00       		.uleb128 0
 981 0008 3C       		.uleb128 .LEHB23-.LFB1536
 982 0009 05       		.uleb128 .LEHE23-.LEHB23
 983 000a 00       		.uleb128 0
 984 000b 00       		.uleb128 0
 985              	.LLSDACSE1536:
 986              		.section	.text._ZN33TestCore_testStraddledWriteWordBED0Ev,"axG",@progbits,_ZN33TestCore_testStradd
 988              		.section	.text._ZN31TestCore_testOutsideWriteWordBED2Ev,"axG",@progbits,_ZN31TestCore_testOutsideW
 989              		.align 2
 990              		.p2align 4
 991              		.weak	_ZN31TestCore_testOutsideWriteWordBED2Ev
 993              	_ZN31TestCore_testOutsideWriteWordBED2Ev:
 994              	.LFB1538:
 995              		.cfi_startproc
 996 0000 F30F1EFA 		endbr64
 997 0004 488D0500 		leaq	16+_ZTV31TestCore_testOutsideWriteWordBE(%rip), %rax
 997      000000
 998 000b 488907   		movq	%rax, (%rdi)
 999 000e E9000000 		jmp	_ZN8UnitTest4TestD2Ev@PLT
 999      00
 1000              		.cfi_endproc
 1001              	.LFE1538:
 1003              		.weak	_ZN31TestCore_testOutsideWriteWordBED1Ev
 1004              		.set	_ZN31TestCore_testOutsideWriteWordBED1Ev,_ZN31TestCore_testOutsideWriteWordBED2Ev
 1005              		.section	.text._ZN31TestCore_testOutsideWriteWordBED0Ev,"axG",@progbits,_ZN31TestCore_testOutsideW
 1006              		.align 2
 1007              		.p2align 4
 1008              		.weak	_ZN31TestCore_testOutsideWriteWordBED0Ev
 1010              	_ZN31TestCore_testOutsideWriteWordBED0Ev:
 1011              	.LFB1540:
 1012              		.cfi_startproc
 1013              		.cfi_personality 0x9b,DW.ref.__gxx_personality_v0
 1014              		.cfi_lsda 0x1b,.LLSDA1540
 1015 0000 F30F1EFA 		endbr64
 1016 0004 55       		pushq	%rbp
 1017              		.cfi_def_cfa_offset 16
 1018              		.cfi_offset 6, -16
 1019 0005 488D0500 		leaq	16+_ZTV31TestCore_testOutsideWriteWordBE(%rip), %rax
 1019      000000
 1020 000c 53       		pushq	%rbx
 1021              		.cfi_def_cfa_offset 24
 1022              		.cfi_offset 3, -24
 1023 000d 4889FB   		movq	%rdi, %rbx
 1024 0010 4883EC08 		subq	$8, %rsp
 1025              		.cfi_def_cfa_offset 32
 1026 0014 488907   		movq	%rax, (%rdi)
 1027              	.LEHB24:
 1028 0017 E8000000 		call	_ZN8UnitTest4TestD2Ev@PLT
 1028      00
 1029              	.LEHE24:
 1030 001c 4883C408 		addq	$8, %rsp
 1031              		.cfi_remember_state
 1032              		.cfi_def_cfa_offset 24
 1033 0020 4889DF   		movq	%rbx, %rdi
 1034 0023 5B       		popq	%rbx
 1035              		.cfi_def_cfa_offset 16
 1036 0024 5D       		popq	%rbp
 1037              		.cfi_def_cfa_offset 8
 1038 0025 E9000000 		jmp	_ZdlPv@PLT
 1038      00
 1039              	.L65:
 1040              		.cfi_restore_state
 1041 002a F30F1EFA 		endbr64
 1042 002e 4889C5   		movq	%rax, %rbp
 1043              	.L64:
 1044 0031 4889DF   		movq	%rbx, %rdi
 1045 0034 E8000000 		call	_ZdlPv@PLT
 1045      00
 1046 0039 4889EF   		movq	%rbp, %rdi
 1047              	.LEHB25:
 1048 003c E8000000 		call	_Unwind_Resume@PLT
 1048      00
 1049              	.LEHE25:
 1050              		.cfi_endproc
 1051              	.LFE1540:
 1052              		.section	.gcc_except_table._ZN31TestCore_testOutsideWriteWordBED0Ev,"aG",@progbits,_ZN31TestCore_t
 1053              	.LLSDA1540:
 1054 0000 FF       		.byte	0xff
 1055 0001 FF       		.byte	0xff
 1056 0002 01       		.byte	0x1
 1057 0003 08       		.uleb128 .LLSDACSE1540-.LLSDACSB1540
 1058              	.LLSDACSB1540:
 1059 0004 17       		.uleb128 .LEHB24-.LFB1540
 1060 0005 05       		.uleb128 .LEHE24-.LEHB24
 1061 0006 2A       		.uleb128 .L65-.LFB1540
 1062 0007 00       		.uleb128 0
 1063 0008 3C       		.uleb128 .LEHB25-.LFB1540
 1064 0009 05       		.uleb128 .LEHE25-.LEHB25
 1065 000a 00       		.uleb128 0
 1066 000b 00       		.uleb128 0
 1067              	.LLSDACSE1540:
 1068              		.section	.text._ZN31TestCore_testOutsideWriteWordBED0Ev,"axG",@progbits,_ZN31TestCore_testOutsideW
 1070              		.section	.text._ZN30TestCore_testInsideWriteWordBED2Ev,"axG",@progbits,_ZN30TestCore_testInsideWri
 1071              		.align 2
 1072              		.p2align 4
 1073              		.weak	_ZN30TestCore_testInsideWriteWordBED2Ev
 1075              	_ZN30TestCore_testInsideWriteWordBED2Ev:
 1076              	.LFB1542:
 1077              		.cfi_startproc
 1078 0000 F30F1EFA 		endbr64
 1079 0004 488D0500 		leaq	16+_ZTV30TestCore_testInsideWriteWordBE(%rip), %rax
 1079      000000
 1080 000b 488907   		movq	%rax, (%rdi)
 1081 000e E9000000 		jmp	_ZN8UnitTest4TestD2Ev@PLT
 1081      00
 1082              		.cfi_endproc
 1083              	.LFE1542:
 1085              		.weak	_ZN30TestCore_testInsideWriteWordBED1Ev
 1086              		.set	_ZN30TestCore_testInsideWriteWordBED1Ev,_ZN30TestCore_testInsideWriteWordBED2Ev
 1087              		.section	.text._ZN30TestCore_testInsideWriteWordBED0Ev,"axG",@progbits,_ZN30TestCore_testInsideWri
 1088              		.align 2
 1089              		.p2align 4
 1090              		.weak	_ZN30TestCore_testInsideWriteWordBED0Ev
 1092              	_ZN30TestCore_testInsideWriteWordBED0Ev:
 1093              	.LFB1544:
 1094              		.cfi_startproc
 1095              		.cfi_personality 0x9b,DW.ref.__gxx_personality_v0
 1096              		.cfi_lsda 0x1b,.LLSDA1544
 1097 0000 F30F1EFA 		endbr64
 1098 0004 55       		pushq	%rbp
 1099              		.cfi_def_cfa_offset 16
 1100              		.cfi_offset 6, -16
 1101 0005 488D0500 		leaq	16+_ZTV30TestCore_testInsideWriteWordBE(%rip), %rax
 1101      000000
 1102 000c 53       		pushq	%rbx
 1103              		.cfi_def_cfa_offset 24
 1104              		.cfi_offset 3, -24
 1105 000d 4889FB   		movq	%rdi, %rbx
 1106 0010 4883EC08 		subq	$8, %rsp
 1107              		.cfi_def_cfa_offset 32
 1108 0014 488907   		movq	%rax, (%rdi)
 1109              	.LEHB26:
 1110 0017 E8000000 		call	_ZN8UnitTest4TestD2Ev@PLT
 1110      00
 1111              	.LEHE26:
 1112 001c 4883C408 		addq	$8, %rsp
 1113              		.cfi_remember_state
 1114              		.cfi_def_cfa_offset 24
 1115 0020 4889DF   		movq	%rbx, %rdi
 1116 0023 5B       		popq	%rbx
 1117              		.cfi_def_cfa_offset 16
 1118 0024 5D       		popq	%rbp
 1119              		.cfi_def_cfa_offset 8
 1120 0025 E9000000 		jmp	_ZdlPv@PLT
 1120      00
 1121              	.L70:
 1122              		.cfi_restore_state
 1123 002a F30F1EFA 		endbr64
 1124 002e 4889C5   		movq	%rax, %rbp
 1125              	.L69:
 1126 0031 4889DF   		movq	%rbx, %rdi
 1127 0034 E8000000 		call	_ZdlPv@PLT
 1127      00
 1128 0039 4889EF   		movq	%rbp, %rdi
 1129              	.LEHB27:
 1130 003c E8000000 		call	_Unwind_Resume@PLT
 1130      00
 1131              	.LEHE27:
 1132              		.cfi_endproc
 1133              	.LFE1544:
 1134              		.section	.gcc_except_table._ZN30TestCore_testInsideWriteWordBED0Ev,"aG",@progbits,_ZN30TestCore_te
 1135              	.LLSDA1544:
 1136 0000 FF       		.byte	0xff
 1137 0001 FF       		.byte	0xff
 1138 0002 01       		.byte	0x1
 1139 0003 08       		.uleb128 .LLSDACSE1544-.LLSDACSB1544
 1140              	.LLSDACSB1544:
 1141 0004 17       		.uleb128 .LEHB26-.LFB1544
 1142 0005 05       		.uleb128 .LEHE26-.LEHB26
 1143 0006 2A       		.uleb128 .L70-.LFB1544
 1144 0007 00       		.uleb128 0
 1145 0008 3C       		.uleb128 .LEHB27-.LFB1544
 1146 0009 05       		.uleb128 .LEHE27-.LEHB27
 1147 000a 00       		.uleb128 0
 1148 000b 00       		.uleb128 0
 1149              	.LLSDACSE1544:
 1150              		.section	.text._ZN30TestCore_testInsideWriteWordBED0Ev,"axG",@progbits,_ZN30TestCore_testInsideWri
 1152              		.section	.text._ZN33TestCore_testStraddledWriteWordLED2Ev,"axG",@progbits,_ZN33TestCore_testStradd
 1153              		.align 2
 1154              		.p2align 4
 1155              		.weak	_ZN33TestCore_testStraddledWriteWordLED2Ev
 1157              	_ZN33TestCore_testStraddledWriteWordLED2Ev:
 1158              	.LFB1546:
 1159              		.cfi_startproc
 1160 0000 F30F1EFA 		endbr64
 1161 0004 488D0500 		leaq	16+_ZTV33TestCore_testStraddledWriteWordLE(%rip), %rax
 1161      000000
 1162 000b 488907   		movq	%rax, (%rdi)
 1163 000e E9000000 		jmp	_ZN8UnitTest4TestD2Ev@PLT
 1163      00
 1164              		.cfi_endproc
 1165              	.LFE1546:
 1167              		.weak	_ZN33TestCore_testStraddledWriteWordLED1Ev
 1168              		.set	_ZN33TestCore_testStraddledWriteWordLED1Ev,_ZN33TestCore_testStraddledWriteWordLED2Ev
 1169              		.section	.text._ZN33TestCore_testStraddledWriteWordLED0Ev,"axG",@progbits,_ZN33TestCore_testStradd
 1170              		.align 2
 1171              		.p2align 4
 1172              		.weak	_ZN33TestCore_testStraddledWriteWordLED0Ev
 1174              	_ZN33TestCore_testStraddledWriteWordLED0Ev:
 1175              	.LFB1548:
 1176              		.cfi_startproc
 1177              		.cfi_personality 0x9b,DW.ref.__gxx_personality_v0
 1178              		.cfi_lsda 0x1b,.LLSDA1548
 1179 0000 F30F1EFA 		endbr64
 1180 0004 55       		pushq	%rbp
 1181              		.cfi_def_cfa_offset 16
 1182              		.cfi_offset 6, -16
 1183 0005 488D0500 		leaq	16+_ZTV33TestCore_testStraddledWriteWordLE(%rip), %rax
 1183      000000
 1184 000c 53       		pushq	%rbx
 1185              		.cfi_def_cfa_offset 24
 1186              		.cfi_offset 3, -24
 1187 000d 4889FB   		movq	%rdi, %rbx
 1188 0010 4883EC08 		subq	$8, %rsp
 1189              		.cfi_def_cfa_offset 32
 1190 0014 488907   		movq	%rax, (%rdi)
 1191              	.LEHB28:
 1192 0017 E8000000 		call	_ZN8UnitTest4TestD2Ev@PLT
 1192      00
 1193              	.LEHE28:
 1194 001c 4883C408 		addq	$8, %rsp
 1195              		.cfi_remember_state
 1196              		.cfi_def_cfa_offset 24
 1197 0020 4889DF   		movq	%rbx, %rdi
 1198 0023 5B       		popq	%rbx
 1199              		.cfi_def_cfa_offset 16
 1200 0024 5D       		popq	%rbp
 1201              		.cfi_def_cfa_offset 8
 1202 0025 E9000000 		jmp	_ZdlPv@PLT
 1202      00
 1203              	.L75:
 1204              		.cfi_restore_state
 1205 002a F30F1EFA 		endbr64
 1206 002e 4889C5   		movq	%rax, %rbp
 1207              	.L74:
 1208 0031 4889DF   		movq	%rbx, %rdi
 1209 0034 E8000000 		call	_ZdlPv@PLT
 1209      00
 1210 0039 4889EF   		movq	%rbp, %rdi
 1211              	.LEHB29:
 1212 003c E8000000 		call	_Unwind_Resume@PLT
 1212      00
 1213              	.LEHE29:
 1214              		.cfi_endproc
 1215              	.LFE1548:
 1216              		.section	.gcc_except_table._ZN33TestCore_testStraddledWriteWordLED0Ev,"aG",@progbits,_ZN33TestCore
 1217              	.LLSDA1548:
 1218 0000 FF       		.byte	0xff
 1219 0001 FF       		.byte	0xff
 1220 0002 01       		.byte	0x1
 1221 0003 08       		.uleb128 .LLSDACSE1548-.LLSDACSB1548
 1222              	.LLSDACSB1548:
 1223 0004 17       		.uleb128 .LEHB28-.LFB1548
 1224 0005 05       		.uleb128 .LEHE28-.LEHB28
 1225 0006 2A       		.uleb128 .L75-.LFB1548
 1226 0007 00       		.uleb128 0
 1227 0008 3C       		.uleb128 .LEHB29-.LFB1548
 1228 0009 05       		.uleb128 .LEHE29-.LEHB29
 1229 000a 00       		.uleb128 0
 1230 000b 00       		.uleb128 0
 1231              	.LLSDACSE1548:
 1232              		.section	.text._ZN33TestCore_testStraddledWriteWordLED0Ev,"axG",@progbits,_ZN33TestCore_testStradd
 1234              		.section	.text._ZN31TestCore_testOutsideWriteWordLED2Ev,"axG",@progbits,_ZN31TestCore_testOutsideW
 1235              		.align 2
 1236              		.p2align 4
 1237              		.weak	_ZN31TestCore_testOutsideWriteWordLED2Ev
 1239              	_ZN31TestCore_testOutsideWriteWordLED2Ev:
 1240              	.LFB1550:
 1241              		.cfi_startproc
 1242 0000 F30F1EFA 		endbr64
 1243 0004 488D0500 		leaq	16+_ZTV31TestCore_testOutsideWriteWordLE(%rip), %rax
 1243      000000
 1244 000b 488907   		movq	%rax, (%rdi)
 1245 000e E9000000 		jmp	_ZN8UnitTest4TestD2Ev@PLT
 1245      00
 1246              		.cfi_endproc
 1247              	.LFE1550:
 1249              		.weak	_ZN31TestCore_testOutsideWriteWordLED1Ev
 1250              		.set	_ZN31TestCore_testOutsideWriteWordLED1Ev,_ZN31TestCore_testOutsideWriteWordLED2Ev
 1251              		.section	.text._ZN31TestCore_testOutsideWriteWordLED0Ev,"axG",@progbits,_ZN31TestCore_testOutsideW
 1252              		.align 2
 1253              		.p2align 4
 1254              		.weak	_ZN31TestCore_testOutsideWriteWordLED0Ev
 1256              	_ZN31TestCore_testOutsideWriteWordLED0Ev:
 1257              	.LFB1552:
 1258              		.cfi_startproc
 1259              		.cfi_personality 0x9b,DW.ref.__gxx_personality_v0
 1260              		.cfi_lsda 0x1b,.LLSDA1552
 1261 0000 F30F1EFA 		endbr64
 1262 0004 55       		pushq	%rbp
 1263              		.cfi_def_cfa_offset 16
 1264              		.cfi_offset 6, -16
 1265 0005 488D0500 		leaq	16+_ZTV31TestCore_testOutsideWriteWordLE(%rip), %rax
 1265      000000
 1266 000c 53       		pushq	%rbx
 1267              		.cfi_def_cfa_offset 24
 1268              		.cfi_offset 3, -24
 1269 000d 4889FB   		movq	%rdi, %rbx
 1270 0010 4883EC08 		subq	$8, %rsp
 1271              		.cfi_def_cfa_offset 32
 1272 0014 488907   		movq	%rax, (%rdi)
 1273              	.LEHB30:
 1274 0017 E8000000 		call	_ZN8UnitTest4TestD2Ev@PLT
 1274      00
 1275              	.LEHE30:
 1276 001c 4883C408 		addq	$8, %rsp
 1277              		.cfi_remember_state
 1278              		.cfi_def_cfa_offset 24
 1279 0020 4889DF   		movq	%rbx, %rdi
 1280 0023 5B       		popq	%rbx
 1281              		.cfi_def_cfa_offset 16
 1282 0024 5D       		popq	%rbp
 1283              		.cfi_def_cfa_offset 8
 1284 0025 E9000000 		jmp	_ZdlPv@PLT
 1284      00
 1285              	.L80:
 1286              		.cfi_restore_state
 1287 002a F30F1EFA 		endbr64
 1288 002e 4889C5   		movq	%rax, %rbp
 1289              	.L79:
 1290 0031 4889DF   		movq	%rbx, %rdi
 1291 0034 E8000000 		call	_ZdlPv@PLT
 1291      00
 1292 0039 4889EF   		movq	%rbp, %rdi
 1293              	.LEHB31:
 1294 003c E8000000 		call	_Unwind_Resume@PLT
 1294      00
 1295              	.LEHE31:
 1296              		.cfi_endproc
 1297              	.LFE1552:
 1298              		.section	.gcc_except_table._ZN31TestCore_testOutsideWriteWordLED0Ev,"aG",@progbits,_ZN31TestCore_t
 1299              	.LLSDA1552:
 1300 0000 FF       		.byte	0xff
 1301 0001 FF       		.byte	0xff
 1302 0002 01       		.byte	0x1
 1303 0003 08       		.uleb128 .LLSDACSE1552-.LLSDACSB1552
 1304              	.LLSDACSB1552:
 1305 0004 17       		.uleb128 .LEHB30-.LFB1552
 1306 0005 05       		.uleb128 .LEHE30-.LEHB30
 1307 0006 2A       		.uleb128 .L80-.LFB1552
 1308 0007 00       		.uleb128 0
 1309 0008 3C       		.uleb128 .LEHB31-.LFB1552
 1310 0009 05       		.uleb128 .LEHE31-.LEHB31
 1311 000a 00       		.uleb128 0
 1312 000b 00       		.uleb128 0
 1313              	.LLSDACSE1552:
 1314              		.section	.text._ZN31TestCore_testOutsideWriteWordLED0Ev,"axG",@progbits,_ZN31TestCore_testOutsideW
 1316              		.section	.text._ZN30TestCore_testInsideWriteWordLED2Ev,"axG",@progbits,_ZN30TestCore_testInsideWri
 1317              		.align 2
 1318              		.p2align 4
 1319              		.weak	_ZN30TestCore_testInsideWriteWordLED2Ev
 1321              	_ZN30TestCore_testInsideWriteWordLED2Ev:
 1322              	.LFB1554:
 1323              		.cfi_startproc
 1324 0000 F30F1EFA 		endbr64
 1325 0004 488D0500 		leaq	16+_ZTV30TestCore_testInsideWriteWordLE(%rip), %rax
 1325      000000
 1326 000b 488907   		movq	%rax, (%rdi)
 1327 000e E9000000 		jmp	_ZN8UnitTest4TestD2Ev@PLT
 1327      00
 1328              		.cfi_endproc
 1329              	.LFE1554:
 1331              		.weak	_ZN30TestCore_testInsideWriteWordLED1Ev
 1332              		.set	_ZN30TestCore_testInsideWriteWordLED1Ev,_ZN30TestCore_testInsideWriteWordLED2Ev
 1333              		.section	.text._ZN30TestCore_testInsideWriteWordLED0Ev,"axG",@progbits,_ZN30TestCore_testInsideWri
 1334              		.align 2
 1335              		.p2align 4
 1336              		.weak	_ZN30TestCore_testInsideWriteWordLED0Ev
 1338              	_ZN30TestCore_testInsideWriteWordLED0Ev:
 1339              	.LFB1556:
 1340              		.cfi_startproc
 1341              		.cfi_personality 0x9b,DW.ref.__gxx_personality_v0
 1342              		.cfi_lsda 0x1b,.LLSDA1556
 1343 0000 F30F1EFA 		endbr64
 1344 0004 55       		pushq	%rbp
 1345              		.cfi_def_cfa_offset 16
 1346              		.cfi_offset 6, -16
 1347 0005 488D0500 		leaq	16+_ZTV30TestCore_testInsideWriteWordLE(%rip), %rax
 1347      000000
 1348 000c 53       		pushq	%rbx
 1349              		.cfi_def_cfa_offset 24
 1350              		.cfi_offset 3, -24
 1351 000d 4889FB   		movq	%rdi, %rbx
 1352 0010 4883EC08 		subq	$8, %rsp
 1353              		.cfi_def_cfa_offset 32
 1354 0014 488907   		movq	%rax, (%rdi)
 1355              	.LEHB32:
 1356 0017 E8000000 		call	_ZN8UnitTest4TestD2Ev@PLT
 1356      00
 1357              	.LEHE32:
 1358 001c 4883C408 		addq	$8, %rsp
 1359              		.cfi_remember_state
 1360              		.cfi_def_cfa_offset 24
 1361 0020 4889DF   		movq	%rbx, %rdi
 1362 0023 5B       		popq	%rbx
 1363              		.cfi_def_cfa_offset 16
 1364 0024 5D       		popq	%rbp
 1365              		.cfi_def_cfa_offset 8
 1366 0025 E9000000 		jmp	_ZdlPv@PLT
 1366      00
 1367              	.L85:
 1368              		.cfi_restore_state
 1369 002a F30F1EFA 		endbr64
 1370 002e 4889C5   		movq	%rax, %rbp
 1371              	.L84:
 1372 0031 4889DF   		movq	%rbx, %rdi
 1373 0034 E8000000 		call	_ZdlPv@PLT
 1373      00
 1374 0039 4889EF   		movq	%rbp, %rdi
 1375              	.LEHB33:
 1376 003c E8000000 		call	_Unwind_Resume@PLT
 1376      00
 1377              	.LEHE33:
 1378              		.cfi_endproc
 1379              	.LFE1556:
 1380              		.section	.gcc_except_table._ZN30TestCore_testInsideWriteWordLED0Ev,"aG",@progbits,_ZN30TestCore_te
 1381              	.LLSDA1556:
 1382 0000 FF       		.byte	0xff
 1383 0001 FF       		.byte	0xff
 1384 0002 01       		.byte	0x1
 1385 0003 08       		.uleb128 .LLSDACSE1556-.LLSDACSB1556
 1386              	.LLSDACSB1556:
 1387 0004 17       		.uleb128 .LEHB32-.LFB1556
 1388 0005 05       		.uleb128 .LEHE32-.LEHB32
 1389 0006 2A       		.uleb128 .L85-.LFB1556
 1390 0007 00       		.uleb128 0
 1391 0008 3C       		.uleb128 .LEHB33-.LFB1556
 1392 0009 05       		.uleb128 .LEHE33-.LEHB33
 1393 000a 00       		.uleb128 0
 1394 000b 00       		.uleb128 0
 1395              	.LLSDACSE1556:
 1396              		.section	.text._ZN30TestCore_testInsideWriteWordLED0Ev,"axG",@progbits,_ZN30TestCore_testInsideWri
 1398              		.section	.text._ZN32TestCore_testStraddledWriteConstD2Ev,"axG",@progbits,_ZN32TestCore_testStraddl
 1399              		.align 2
 1400              		.p2align 4
 1401              		.weak	_ZN32TestCore_testStraddledWriteConstD2Ev
 1403              	_ZN32TestCore_testStraddledWriteConstD2Ev:
 1404              	.LFB1558:
 1405              		.cfi_startproc
 1406 0000 F30F1EFA 		endbr64
 1407 0004 488D0500 		leaq	16+_ZTV32TestCore_testStraddledWriteConst(%rip), %rax
 1407      000000
 1408 000b 488907   		movq	%rax, (%rdi)
 1409 000e E9000000 		jmp	_ZN8UnitTest4TestD2Ev@PLT
 1409      00
 1410              		.cfi_endproc
 1411              	.LFE1558:
 1413              		.weak	_ZN32TestCore_testStraddledWriteConstD1Ev
 1414              		.set	_ZN32TestCore_testStraddledWriteConstD1Ev,_ZN32TestCore_testStraddledWriteConstD2Ev
 1415              		.section	.text._ZN32TestCore_testStraddledWriteConstD0Ev,"axG",@progbits,_ZN32TestCore_testStraddl
 1416              		.align 2
 1417              		.p2align 4
 1418              		.weak	_ZN32TestCore_testStraddledWriteConstD0Ev
 1420              	_ZN32TestCore_testStraddledWriteConstD0Ev:
 1421              	.LFB1560:
 1422              		.cfi_startproc
 1423              		.cfi_personality 0x9b,DW.ref.__gxx_personality_v0
 1424              		.cfi_lsda 0x1b,.LLSDA1560
 1425 0000 F30F1EFA 		endbr64
 1426 0004 55       		pushq	%rbp
 1427              		.cfi_def_cfa_offset 16
 1428              		.cfi_offset 6, -16
 1429 0005 488D0500 		leaq	16+_ZTV32TestCore_testStraddledWriteConst(%rip), %rax
 1429      000000
 1430 000c 53       		pushq	%rbx
 1431              		.cfi_def_cfa_offset 24
 1432              		.cfi_offset 3, -24
 1433 000d 4889FB   		movq	%rdi, %rbx
 1434 0010 4883EC08 		subq	$8, %rsp
 1435              		.cfi_def_cfa_offset 32
 1436 0014 488907   		movq	%rax, (%rdi)
 1437              	.LEHB34:
 1438 0017 E8000000 		call	_ZN8UnitTest4TestD2Ev@PLT
 1438      00
 1439              	.LEHE34:
 1440 001c 4883C408 		addq	$8, %rsp
 1441              		.cfi_remember_state
 1442              		.cfi_def_cfa_offset 24
 1443 0020 4889DF   		movq	%rbx, %rdi
 1444 0023 5B       		popq	%rbx
 1445              		.cfi_def_cfa_offset 16
 1446 0024 5D       		popq	%rbp
 1447              		.cfi_def_cfa_offset 8
 1448 0025 E9000000 		jmp	_ZdlPv@PLT
 1448      00
 1449              	.L90:
 1450              		.cfi_restore_state
 1451 002a F30F1EFA 		endbr64
 1452 002e 4889C5   		movq	%rax, %rbp
 1453              	.L89:
 1454 0031 4889DF   		movq	%rbx, %rdi
 1455 0034 E8000000 		call	_ZdlPv@PLT
 1455      00
 1456 0039 4889EF   		movq	%rbp, %rdi
 1457              	.LEHB35:
 1458 003c E8000000 		call	_Unwind_Resume@PLT
 1458      00
 1459              	.LEHE35:
 1460              		.cfi_endproc
 1461              	.LFE1560:
 1462              		.section	.gcc_except_table._ZN32TestCore_testStraddledWriteConstD0Ev,"aG",@progbits,_ZN32TestCore_
 1463              	.LLSDA1560:
 1464 0000 FF       		.byte	0xff
 1465 0001 FF       		.byte	0xff
 1466 0002 01       		.byte	0x1
 1467 0003 08       		.uleb128 .LLSDACSE1560-.LLSDACSB1560
 1468              	.LLSDACSB1560:
 1469 0004 17       		.uleb128 .LEHB34-.LFB1560
 1470 0005 05       		.uleb128 .LEHE34-.LEHB34
 1471 0006 2A       		.uleb128 .L90-.LFB1560
 1472 0007 00       		.uleb128 0
 1473 0008 3C       		.uleb128 .LEHB35-.LFB1560
 1474 0009 05       		.uleb128 .LEHE35-.LEHB35
 1475 000a 00       		.uleb128 0
 1476 000b 00       		.uleb128 0
 1477              	.LLSDACSE1560:
 1478              		.section	.text._ZN32TestCore_testStraddledWriteConstD0Ev,"axG",@progbits,_ZN32TestCore_testStraddl
 1480              		.section	.text._ZN30TestCore_testOutsideWriteConstD2Ev,"axG",@progbits,_ZN30TestCore_testOutsideWr
 1481              		.align 2
 1482              		.p2align 4
 1483              		.weak	_ZN30TestCore_testOutsideWriteConstD2Ev
 1485              	_ZN30TestCore_testOutsideWriteConstD2Ev:
 1486              	.LFB1562:
 1487              		.cfi_startproc
 1488 0000 F30F1EFA 		endbr64
 1489 0004 488D0500 		leaq	16+_ZTV30TestCore_testOutsideWriteConst(%rip), %rax
 1489      000000
 1490 000b 488907   		movq	%rax, (%rdi)
 1491 000e E9000000 		jmp	_ZN8UnitTest4TestD2Ev@PLT
 1491      00
 1492              		.cfi_endproc
 1493              	.LFE1562:
 1495              		.weak	_ZN30TestCore_testOutsideWriteConstD1Ev
 1496              		.set	_ZN30TestCore_testOutsideWriteConstD1Ev,_ZN30TestCore_testOutsideWriteConstD2Ev
 1497              		.section	.text._ZN30TestCore_testOutsideWriteConstD0Ev,"axG",@progbits,_ZN30TestCore_testOutsideWr
 1498              		.align 2
 1499              		.p2align 4
 1500              		.weak	_ZN30TestCore_testOutsideWriteConstD0Ev
 1502              	_ZN30TestCore_testOutsideWriteConstD0Ev:
 1503              	.LFB1564:
 1504              		.cfi_startproc
 1505              		.cfi_personality 0x9b,DW.ref.__gxx_personality_v0
 1506              		.cfi_lsda 0x1b,.LLSDA1564
 1507 0000 F30F1EFA 		endbr64
 1508 0004 55       		pushq	%rbp
 1509              		.cfi_def_cfa_offset 16
 1510              		.cfi_offset 6, -16
 1511 0005 488D0500 		leaq	16+_ZTV30TestCore_testOutsideWriteConst(%rip), %rax
 1511      000000
 1512 000c 53       		pushq	%rbx
 1513              		.cfi_def_cfa_offset 24
 1514              		.cfi_offset 3, -24
 1515 000d 4889FB   		movq	%rdi, %rbx
 1516 0010 4883EC08 		subq	$8, %rsp
 1517              		.cfi_def_cfa_offset 32
 1518 0014 488907   		movq	%rax, (%rdi)
 1519              	.LEHB36:
 1520 0017 E8000000 		call	_ZN8UnitTest4TestD2Ev@PLT
 1520      00
 1521              	.LEHE36:
 1522 001c 4883C408 		addq	$8, %rsp
 1523              		.cfi_remember_state
 1524              		.cfi_def_cfa_offset 24
 1525 0020 4889DF   		movq	%rbx, %rdi
 1526 0023 5B       		popq	%rbx
 1527              		.cfi_def_cfa_offset 16
 1528 0024 5D       		popq	%rbp
 1529              		.cfi_def_cfa_offset 8
 1530 0025 E9000000 		jmp	_ZdlPv@PLT
 1530      00
 1531              	.L95:
 1532              		.cfi_restore_state
 1533 002a F30F1EFA 		endbr64
 1534 002e 4889C5   		movq	%rax, %rbp
 1535              	.L94:
 1536 0031 4889DF   		movq	%rbx, %rdi
 1537 0034 E8000000 		call	_ZdlPv@PLT
 1537      00
 1538 0039 4889EF   		movq	%rbp, %rdi
 1539              	.LEHB37:
 1540 003c E8000000 		call	_Unwind_Resume@PLT
 1540      00
 1541              	.LEHE37:
 1542              		.cfi_endproc
 1543              	.LFE1564:
 1544              		.section	.gcc_except_table._ZN30TestCore_testOutsideWriteConstD0Ev,"aG",@progbits,_ZN30TestCore_te
 1545              	.LLSDA1564:
 1546 0000 FF       		.byte	0xff
 1547 0001 FF       		.byte	0xff
 1548 0002 01       		.byte	0x1
 1549 0003 08       		.uleb128 .LLSDACSE1564-.LLSDACSB1564
 1550              	.LLSDACSB1564:
 1551 0004 17       		.uleb128 .LEHB36-.LFB1564
 1552 0005 05       		.uleb128 .LEHE36-.LEHB36
 1553 0006 2A       		.uleb128 .L95-.LFB1564
 1554 0007 00       		.uleb128 0
 1555 0008 3C       		.uleb128 .LEHB37-.LFB1564
 1556 0009 05       		.uleb128 .LEHE37-.LEHB37
 1557 000a 00       		.uleb128 0
 1558 000b 00       		.uleb128 0
 1559              	.LLSDACSE1564:
 1560              		.section	.text._ZN30TestCore_testOutsideWriteConstD0Ev,"axG",@progbits,_ZN30TestCore_testOutsideWr
 1562              		.section	.text._ZN29TestCore_testInsideWriteConstD2Ev,"axG",@progbits,_ZN29TestCore_testInsideWrit
 1563              		.align 2
 1564              		.p2align 4
 1565              		.weak	_ZN29TestCore_testInsideWriteConstD2Ev
 1567              	_ZN29TestCore_testInsideWriteConstD2Ev:
 1568              	.LFB1566:
 1569              		.cfi_startproc
 1570 0000 F30F1EFA 		endbr64
 1571 0004 488D0500 		leaq	16+_ZTV29TestCore_testInsideWriteConst(%rip), %rax
 1571      000000
 1572 000b 488907   		movq	%rax, (%rdi)
 1573 000e E9000000 		jmp	_ZN8UnitTest4TestD2Ev@PLT
 1573      00
 1574              		.cfi_endproc
 1575              	.LFE1566:
 1577              		.weak	_ZN29TestCore_testInsideWriteConstD1Ev
 1578              		.set	_ZN29TestCore_testInsideWriteConstD1Ev,_ZN29TestCore_testInsideWriteConstD2Ev
 1579              		.section	.text._ZN29TestCore_testInsideWriteConstD0Ev,"axG",@progbits,_ZN29TestCore_testInsideWrit
 1580              		.align 2
 1581              		.p2align 4
 1582              		.weak	_ZN29TestCore_testInsideWriteConstD0Ev
 1584              	_ZN29TestCore_testInsideWriteConstD0Ev:
 1585              	.LFB1568:
 1586              		.cfi_startproc
 1587              		.cfi_personality 0x9b,DW.ref.__gxx_personality_v0
 1588              		.cfi_lsda 0x1b,.LLSDA1568
 1589 0000 F30F1EFA 		endbr64
 1590 0004 55       		pushq	%rbp
 1591              		.cfi_def_cfa_offset 16
 1592              		.cfi_offset 6, -16
 1593 0005 488D0500 		leaq	16+_ZTV29TestCore_testInsideWriteConst(%rip), %rax
 1593      000000
 1594 000c 53       		pushq	%rbx
 1595              		.cfi_def_cfa_offset 24
 1596              		.cfi_offset 3, -24
 1597 000d 4889FB   		movq	%rdi, %rbx
 1598 0010 4883EC08 		subq	$8, %rsp
 1599              		.cfi_def_cfa_offset 32
 1600 0014 488907   		movq	%rax, (%rdi)
 1601              	.LEHB38:
 1602 0017 E8000000 		call	_ZN8UnitTest4TestD2Ev@PLT
 1602      00
 1603              	.LEHE38:
 1604 001c 4883C408 		addq	$8, %rsp
 1605              		.cfi_remember_state
 1606              		.cfi_def_cfa_offset 24
 1607 0020 4889DF   		movq	%rbx, %rdi
 1608 0023 5B       		popq	%rbx
 1609              		.cfi_def_cfa_offset 16
 1610 0024 5D       		popq	%rbp
 1611              		.cfi_def_cfa_offset 8
 1612 0025 E9000000 		jmp	_ZdlPv@PLT
 1612      00
 1613              	.L100:
 1614              		.cfi_restore_state
 1615 002a F30F1EFA 		endbr64
 1616 002e 4889C5   		movq	%rax, %rbp
 1617              	.L99:
 1618 0031 4889DF   		movq	%rbx, %rdi
 1619 0034 E8000000 		call	_ZdlPv@PLT
 1619      00
 1620 0039 4889EF   		movq	%rbp, %rdi
 1621              	.LEHB39:
 1622 003c E8000000 		call	_Unwind_Resume@PLT
 1622      00
 1623              	.LEHE39:
 1624              		.cfi_endproc
 1625              	.LFE1568:
 1626              		.section	.gcc_except_table._ZN29TestCore_testInsideWriteConstD0Ev,"aG",@progbits,_ZN29TestCore_tes
 1627              	.LLSDA1568:
 1628 0000 FF       		.byte	0xff
 1629 0001 FF       		.byte	0xff
 1630 0002 01       		.byte	0x1
 1631 0003 08       		.uleb128 .LLSDACSE1568-.LLSDACSB1568
 1632              	.LLSDACSB1568:
 1633 0004 17       		.uleb128 .LEHB38-.LFB1568
 1634 0005 05       		.uleb128 .LEHE38-.LEHB38
 1635 0006 2A       		.uleb128 .L100-.LFB1568
 1636 0007 00       		.uleb128 0
 1637 0008 3C       		.uleb128 .LEHB39-.LFB1568
 1638 0009 05       		.uleb128 .LEHE39-.LEHB39
 1639 000a 00       		.uleb128 0
 1640 000b 00       		.uleb128 0
 1641              	.LLSDACSE1568:
 1642              		.section	.text._ZN29TestCore_testInsideWriteConstD0Ev,"axG",@progbits,_ZN29TestCore_testInsideWrit
 1644              		.section	.text._ZN32TestCore_testStraddledWriteBlockD2Ev,"axG",@progbits,_ZN32TestCore_testStraddl
 1645              		.align 2
 1646              		.p2align 4
 1647              		.weak	_ZN32TestCore_testStraddledWriteBlockD2Ev
 1649              	_ZN32TestCore_testStraddledWriteBlockD2Ev:
 1650              	.LFB1570:
 1651              		.cfi_startproc
 1652 0000 F30F1EFA 		endbr64
 1653 0004 488D0500 		leaq	16+_ZTV32TestCore_testStraddledWriteBlock(%rip), %rax
 1653      000000
 1654 000b 488907   		movq	%rax, (%rdi)
 1655 000e E9000000 		jmp	_ZN8UnitTest4TestD2Ev@PLT
 1655      00
 1656              		.cfi_endproc
 1657              	.LFE1570:
 1659              		.weak	_ZN32TestCore_testStraddledWriteBlockD1Ev
 1660              		.set	_ZN32TestCore_testStraddledWriteBlockD1Ev,_ZN32TestCore_testStraddledWriteBlockD2Ev
 1661              		.section	.text._ZN32TestCore_testStraddledWriteBlockD0Ev,"axG",@progbits,_ZN32TestCore_testStraddl
 1662              		.align 2
 1663              		.p2align 4
 1664              		.weak	_ZN32TestCore_testStraddledWriteBlockD0Ev
 1666              	_ZN32TestCore_testStraddledWriteBlockD0Ev:
 1667              	.LFB1572:
 1668              		.cfi_startproc
 1669              		.cfi_personality 0x9b,DW.ref.__gxx_personality_v0
 1670              		.cfi_lsda 0x1b,.LLSDA1572
 1671 0000 F30F1EFA 		endbr64
 1672 0004 55       		pushq	%rbp
 1673              		.cfi_def_cfa_offset 16
 1674              		.cfi_offset 6, -16
 1675 0005 488D0500 		leaq	16+_ZTV32TestCore_testStraddledWriteBlock(%rip), %rax
 1675      000000
 1676 000c 53       		pushq	%rbx
 1677              		.cfi_def_cfa_offset 24
 1678              		.cfi_offset 3, -24
 1679 000d 4889FB   		movq	%rdi, %rbx
 1680 0010 4883EC08 		subq	$8, %rsp
 1681              		.cfi_def_cfa_offset 32
 1682 0014 488907   		movq	%rax, (%rdi)
 1683              	.LEHB40:
 1684 0017 E8000000 		call	_ZN8UnitTest4TestD2Ev@PLT
 1684      00
 1685              	.LEHE40:
 1686 001c 4883C408 		addq	$8, %rsp
 1687              		.cfi_remember_state
 1688              		.cfi_def_cfa_offset 24
 1689 0020 4889DF   		movq	%rbx, %rdi
 1690 0023 5B       		popq	%rbx
 1691              		.cfi_def_cfa_offset 16
 1692 0024 5D       		popq	%rbp
 1693              		.cfi_def_cfa_offset 8
 1694 0025 E9000000 		jmp	_ZdlPv@PLT
 1694      00
 1695              	.L105:
 1696              		.cfi_restore_state
 1697 002a F30F1EFA 		endbr64
 1698 002e 4889C5   		movq	%rax, %rbp
 1699              	.L104:
 1700 0031 4889DF   		movq	%rbx, %rdi
 1701 0034 E8000000 		call	_ZdlPv@PLT
 1701      00
 1702 0039 4889EF   		movq	%rbp, %rdi
 1703              	.LEHB41:
 1704 003c E8000000 		call	_Unwind_Resume@PLT
 1704      00
 1705              	.LEHE41:
 1706              		.cfi_endproc
 1707              	.LFE1572:
 1708              		.section	.gcc_except_table._ZN32TestCore_testStraddledWriteBlockD0Ev,"aG",@progbits,_ZN32TestCore_
 1709              	.LLSDA1572:
 1710 0000 FF       		.byte	0xff
 1711 0001 FF       		.byte	0xff
 1712 0002 01       		.byte	0x1
 1713 0003 08       		.uleb128 .LLSDACSE1572-.LLSDACSB1572
 1714              	.LLSDACSB1572:
 1715 0004 17       		.uleb128 .LEHB40-.LFB1572
 1716 0005 05       		.uleb128 .LEHE40-.LEHB40
 1717 0006 2A       		.uleb128 .L105-.LFB1572
 1718 0007 00       		.uleb128 0
 1719 0008 3C       		.uleb128 .LEHB41-.LFB1572
 1720 0009 05       		.uleb128 .LEHE41-.LEHB41
 1721 000a 00       		.uleb128 0
 1722 000b 00       		.uleb128 0
 1723              	.LLSDACSE1572:
 1724              		.section	.text._ZN32TestCore_testStraddledWriteBlockD0Ev,"axG",@progbits,_ZN32TestCore_testStraddl
 1726              		.section	.text._ZN30TestCore_testOutsideWriteBlockD2Ev,"axG",@progbits,_ZN30TestCore_testOutsideWr
 1727              		.align 2
 1728              		.p2align 4
 1729              		.weak	_ZN30TestCore_testOutsideWriteBlockD2Ev
 1731              	_ZN30TestCore_testOutsideWriteBlockD2Ev:
 1732              	.LFB1574:
 1733              		.cfi_startproc
 1734 0000 F30F1EFA 		endbr64
 1735 0004 488D0500 		leaq	16+_ZTV30TestCore_testOutsideWriteBlock(%rip), %rax
 1735      000000
 1736 000b 488907   		movq	%rax, (%rdi)
 1737 000e E9000000 		jmp	_ZN8UnitTest4TestD2Ev@PLT
 1737      00
 1738              		.cfi_endproc
 1739              	.LFE1574:
 1741              		.weak	_ZN30TestCore_testOutsideWriteBlockD1Ev
 1742              		.set	_ZN30TestCore_testOutsideWriteBlockD1Ev,_ZN30TestCore_testOutsideWriteBlockD2Ev
 1743              		.section	.text._ZN30TestCore_testOutsideWriteBlockD0Ev,"axG",@progbits,_ZN30TestCore_testOutsideWr
 1744              		.align 2
 1745              		.p2align 4
 1746              		.weak	_ZN30TestCore_testOutsideWriteBlockD0Ev
 1748              	_ZN30TestCore_testOutsideWriteBlockD0Ev:
 1749              	.LFB1576:
 1750              		.cfi_startproc
 1751              		.cfi_personality 0x9b,DW.ref.__gxx_personality_v0
 1752              		.cfi_lsda 0x1b,.LLSDA1576
 1753 0000 F30F1EFA 		endbr64
 1754 0004 55       		pushq	%rbp
 1755              		.cfi_def_cfa_offset 16
 1756              		.cfi_offset 6, -16
 1757 0005 488D0500 		leaq	16+_ZTV30TestCore_testOutsideWriteBlock(%rip), %rax
 1757      000000
 1758 000c 53       		pushq	%rbx
 1759              		.cfi_def_cfa_offset 24
 1760              		.cfi_offset 3, -24
 1761 000d 4889FB   		movq	%rdi, %rbx
 1762 0010 4883EC08 		subq	$8, %rsp
 1763              		.cfi_def_cfa_offset 32
 1764 0014 488907   		movq	%rax, (%rdi)
 1765              	.LEHB42:
 1766 0017 E8000000 		call	_ZN8UnitTest4TestD2Ev@PLT
 1766      00
 1767              	.LEHE42:
 1768 001c 4883C408 		addq	$8, %rsp
 1769              		.cfi_remember_state
 1770              		.cfi_def_cfa_offset 24
 1771 0020 4889DF   		movq	%rbx, %rdi
 1772 0023 5B       		popq	%rbx
 1773              		.cfi_def_cfa_offset 16
 1774 0024 5D       		popq	%rbp
 1775              		.cfi_def_cfa_offset 8
 1776 0025 E9000000 		jmp	_ZdlPv@PLT
 1776      00
 1777              	.L110:
 1778              		.cfi_restore_state
 1779 002a F30F1EFA 		endbr64
 1780 002e 4889C5   		movq	%rax, %rbp
 1781              	.L109:
 1782 0031 4889DF   		movq	%rbx, %rdi
 1783 0034 E8000000 		call	_ZdlPv@PLT
 1783      00
 1784 0039 4889EF   		movq	%rbp, %rdi
 1785              	.LEHB43:
 1786 003c E8000000 		call	_Unwind_Resume@PLT
 1786      00
 1787              	.LEHE43:
 1788              		.cfi_endproc
 1789              	.LFE1576:
 1790              		.section	.gcc_except_table._ZN30TestCore_testOutsideWriteBlockD0Ev,"aG",@progbits,_ZN30TestCore_te
 1791              	.LLSDA1576:
 1792 0000 FF       		.byte	0xff
 1793 0001 FF       		.byte	0xff
 1794 0002 01       		.byte	0x1
 1795 0003 08       		.uleb128 .LLSDACSE1576-.LLSDACSB1576
 1796              	.LLSDACSB1576:
 1797 0004 17       		.uleb128 .LEHB42-.LFB1576
 1798 0005 05       		.uleb128 .LEHE42-.LEHB42
 1799 0006 2A       		.uleb128 .L110-.LFB1576
 1800 0007 00       		.uleb128 0
 1801 0008 3C       		.uleb128 .LEHB43-.LFB1576
 1802 0009 05       		.uleb128 .LEHE43-.LEHB43
 1803 000a 00       		.uleb128 0
 1804 000b 00       		.uleb128 0
 1805              	.LLSDACSE1576:
 1806              		.section	.text._ZN30TestCore_testOutsideWriteBlockD0Ev,"axG",@progbits,_ZN30TestCore_testOutsideWr
 1808              		.section	.text._ZN29TestCore_testInsideWriteBlockD2Ev,"axG",@progbits,_ZN29TestCore_testInsideWrit
 1809              		.align 2
 1810              		.p2align 4
 1811              		.weak	_ZN29TestCore_testInsideWriteBlockD2Ev
 1813              	_ZN29TestCore_testInsideWriteBlockD2Ev:
 1814              	.LFB1578:
 1815              		.cfi_startproc
 1816 0000 F30F1EFA 		endbr64
 1817 0004 488D0500 		leaq	16+_ZTV29TestCore_testInsideWriteBlock(%rip), %rax
 1817      000000
 1818 000b 488907   		movq	%rax, (%rdi)
 1819 000e E9000000 		jmp	_ZN8UnitTest4TestD2Ev@PLT
 1819      00
 1820              		.cfi_endproc
 1821              	.LFE1578:
 1823              		.weak	_ZN29TestCore_testInsideWriteBlockD1Ev
 1824              		.set	_ZN29TestCore_testInsideWriteBlockD1Ev,_ZN29TestCore_testInsideWriteBlockD2Ev
 1825              		.section	.text._ZN29TestCore_testInsideWriteBlockD0Ev,"axG",@progbits,_ZN29TestCore_testInsideWrit
 1826              		.align 2
 1827              		.p2align 4
 1828              		.weak	_ZN29TestCore_testInsideWriteBlockD0Ev
 1830              	_ZN29TestCore_testInsideWriteBlockD0Ev:
 1831              	.LFB1580:
 1832              		.cfi_startproc
 1833              		.cfi_personality 0x9b,DW.ref.__gxx_personality_v0
 1834              		.cfi_lsda 0x1b,.LLSDA1580
 1835 0000 F30F1EFA 		endbr64
 1836 0004 55       		pushq	%rbp
 1837              		.cfi_def_cfa_offset 16
 1838              		.cfi_offset 6, -16
 1839 0005 488D0500 		leaq	16+_ZTV29TestCore_testInsideWriteBlock(%rip), %rax
 1839      000000
 1840 000c 53       		pushq	%rbx
 1841              		.cfi_def_cfa_offset 24
 1842              		.cfi_offset 3, -24
 1843 000d 4889FB   		movq	%rdi, %rbx
 1844 0010 4883EC08 		subq	$8, %rsp
 1845              		.cfi_def_cfa_offset 32
 1846 0014 488907   		movq	%rax, (%rdi)
 1847              	.LEHB44:
 1848 0017 E8000000 		call	_ZN8UnitTest4TestD2Ev@PLT
 1848      00
 1849              	.LEHE44:
 1850 001c 4883C408 		addq	$8, %rsp
 1851              		.cfi_remember_state
 1852              		.cfi_def_cfa_offset 24
 1853 0020 4889DF   		movq	%rbx, %rdi
 1854 0023 5B       		popq	%rbx
 1855              		.cfi_def_cfa_offset 16
 1856 0024 5D       		popq	%rbp
 1857              		.cfi_def_cfa_offset 8
 1858 0025 E9000000 		jmp	_ZdlPv@PLT
 1858      00
 1859              	.L115:
 1860              		.cfi_restore_state
 1861 002a F30F1EFA 		endbr64
 1862 002e 4889C5   		movq	%rax, %rbp
 1863              	.L114:
 1864 0031 4889DF   		movq	%rbx, %rdi
 1865 0034 E8000000 		call	_ZdlPv@PLT
 1865      00
 1866 0039 4889EF   		movq	%rbp, %rdi
 1867              	.LEHB45:
 1868 003c E8000000 		call	_Unwind_Resume@PLT
 1868      00
 1869              	.LEHE45:
 1870              		.cfi_endproc
 1871              	.LFE1580:
 1872              		.section	.gcc_except_table._ZN29TestCore_testInsideWriteBlockD0Ev,"aG",@progbits,_ZN29TestCore_tes
 1873              	.LLSDA1580:
 1874 0000 FF       		.byte	0xff
 1875 0001 FF       		.byte	0xff
 1876 0002 01       		.byte	0x1
 1877 0003 08       		.uleb128 .LLSDACSE1580-.LLSDACSB1580
 1878              	.LLSDACSB1580:
 1879 0004 17       		.uleb128 .LEHB44-.LFB1580
 1880 0005 05       		.uleb128 .LEHE44-.LEHB44
 1881 0006 2A       		.uleb128 .L115-.LFB1580
 1882 0007 00       		.uleb128 0
 1883 0008 3C       		.uleb128 .LEHB45-.LFB1580
 1884 0009 05       		.uleb128 .LEHE45-.LEHB45
 1885 000a 00       		.uleb128 0
 1886 000b 00       		.uleb128 0
 1887              	.LLSDACSE1580:
 1888              		.section	.text._ZN29TestCore_testInsideWriteBlockD0Ev,"axG",@progbits,_ZN29TestCore_testInsideWrit
 1890              		.section	.text._ZN28TestCore_testHugeAppendConstD2Ev,"axG",@progbits,_ZN28TestCore_testHugeAppendC
 1891              		.align 2
 1892              		.p2align 4
 1893              		.weak	_ZN28TestCore_testHugeAppendConstD2Ev
 1895              	_ZN28TestCore_testHugeAppendConstD2Ev:
 1896              	.LFB1582:
 1897              		.cfi_startproc
 1898 0000 F30F1EFA 		endbr64
 1899 0004 488D0500 		leaq	16+_ZTV28TestCore_testHugeAppendConst(%rip), %rax
 1899      000000
 1900 000b 488907   		movq	%rax, (%rdi)
 1901 000e E9000000 		jmp	_ZN8UnitTest4TestD2Ev@PLT
 1901      00
 1902              		.cfi_endproc
 1903              	.LFE1582:
 1905              		.weak	_ZN28TestCore_testHugeAppendConstD1Ev
 1906              		.set	_ZN28TestCore_testHugeAppendConstD1Ev,_ZN28TestCore_testHugeAppendConstD2Ev
 1907              		.section	.text._ZN28TestCore_testHugeAppendConstD0Ev,"axG",@progbits,_ZN28TestCore_testHugeAppendC
 1908              		.align 2
 1909              		.p2align 4
 1910              		.weak	_ZN28TestCore_testHugeAppendConstD0Ev
 1912              	_ZN28TestCore_testHugeAppendConstD0Ev:
 1913              	.LFB1584:
 1914              		.cfi_startproc
 1915              		.cfi_personality 0x9b,DW.ref.__gxx_personality_v0
 1916              		.cfi_lsda 0x1b,.LLSDA1584
 1917 0000 F30F1EFA 		endbr64
 1918 0004 55       		pushq	%rbp
 1919              		.cfi_def_cfa_offset 16
 1920              		.cfi_offset 6, -16
 1921 0005 488D0500 		leaq	16+_ZTV28TestCore_testHugeAppendConst(%rip), %rax
 1921      000000
 1922 000c 53       		pushq	%rbx
 1923              		.cfi_def_cfa_offset 24
 1924              		.cfi_offset 3, -24
 1925 000d 4889FB   		movq	%rdi, %rbx
 1926 0010 4883EC08 		subq	$8, %rsp
 1927              		.cfi_def_cfa_offset 32
 1928 0014 488907   		movq	%rax, (%rdi)
 1929              	.LEHB46:
 1930 0017 E8000000 		call	_ZN8UnitTest4TestD2Ev@PLT
 1930      00
 1931              	.LEHE46:
 1932 001c 4883C408 		addq	$8, %rsp
 1933              		.cfi_remember_state
 1934              		.cfi_def_cfa_offset 24
 1935 0020 4889DF   		movq	%rbx, %rdi
 1936 0023 5B       		popq	%rbx
 1937              		.cfi_def_cfa_offset 16
 1938 0024 5D       		popq	%rbp
 1939              		.cfi_def_cfa_offset 8
 1940 0025 E9000000 		jmp	_ZdlPv@PLT
 1940      00
 1941              	.L120:
 1942              		.cfi_restore_state
 1943 002a F30F1EFA 		endbr64
 1944 002e 4889C5   		movq	%rax, %rbp
 1945              	.L119:
 1946 0031 4889DF   		movq	%rbx, %rdi
 1947 0034 E8000000 		call	_ZdlPv@PLT
 1947      00
 1948 0039 4889EF   		movq	%rbp, %rdi
 1949              	.LEHB47:
 1950 003c E8000000 		call	_Unwind_Resume@PLT
 1950      00
 1951              	.LEHE47:
 1952              		.cfi_endproc
 1953              	.LFE1584:
 1954              		.section	.gcc_except_table._ZN28TestCore_testHugeAppendConstD0Ev,"aG",@progbits,_ZN28TestCore_test
 1955              	.LLSDA1584:
 1956 0000 FF       		.byte	0xff
 1957 0001 FF       		.byte	0xff
 1958 0002 01       		.byte	0x1
 1959 0003 08       		.uleb128 .LLSDACSE1584-.LLSDACSB1584
 1960              	.LLSDACSB1584:
 1961 0004 17       		.uleb128 .LEHB46-.LFB1584
 1962 0005 05       		.uleb128 .LEHE46-.LEHB46
 1963 0006 2A       		.uleb128 .L120-.LFB1584
 1964 0007 00       		.uleb128 0
 1965 0008 3C       		.uleb128 .LEHB47-.LFB1584
 1966 0009 05       		.uleb128 .LEHE47-.LEHB47
 1967 000a 00       		.uleb128 0
 1968 000b 00       		.uleb128 0
 1969              	.LLSDACSE1584:
 1970              		.section	.text._ZN28TestCore_testHugeAppendConstD0Ev,"axG",@progbits,_ZN28TestCore_testHugeAppendC
 1972              		.section	.text._ZN33TestCore_testVeryLargeAppendConstD2Ev,"axG",@progbits,_ZN33TestCore_testVeryLa
 1973              		.align 2
 1974              		.p2align 4
 1975              		.weak	_ZN33TestCore_testVeryLargeAppendConstD2Ev
 1977              	_ZN33TestCore_testVeryLargeAppendConstD2Ev:
 1978              	.LFB1586:
 1979              		.cfi_startproc
 1980 0000 F30F1EFA 		endbr64
 1981 0004 488D0500 		leaq	16+_ZTV33TestCore_testVeryLargeAppendConst(%rip), %rax
 1981      000000
 1982 000b 488907   		movq	%rax, (%rdi)
 1983 000e E9000000 		jmp	_ZN8UnitTest4TestD2Ev@PLT
 1983      00
 1984              		.cfi_endproc
 1985              	.LFE1586:
 1987              		.weak	_ZN33TestCore_testVeryLargeAppendConstD1Ev
 1988              		.set	_ZN33TestCore_testVeryLargeAppendConstD1Ev,_ZN33TestCore_testVeryLargeAppendConstD2Ev
 1989              		.section	.text._ZN33TestCore_testVeryLargeAppendConstD0Ev,"axG",@progbits,_ZN33TestCore_testVeryLa
 1990              		.align 2
 1991              		.p2align 4
 1992              		.weak	_ZN33TestCore_testVeryLargeAppendConstD0Ev
 1994              	_ZN33TestCore_testVeryLargeAppendConstD0Ev:
 1995              	.LFB1588:
 1996              		.cfi_startproc
 1997              		.cfi_personality 0x9b,DW.ref.__gxx_personality_v0
 1998              		.cfi_lsda 0x1b,.LLSDA1588
 1999 0000 F30F1EFA 		endbr64
 2000 0004 55       		pushq	%rbp
 2001              		.cfi_def_cfa_offset 16
 2002              		.cfi_offset 6, -16
 2003 0005 488D0500 		leaq	16+_ZTV33TestCore_testVeryLargeAppendConst(%rip), %rax
 2003      000000
 2004 000c 53       		pushq	%rbx
 2005              		.cfi_def_cfa_offset 24
 2006              		.cfi_offset 3, -24
 2007 000d 4889FB   		movq	%rdi, %rbx
 2008 0010 4883EC08 		subq	$8, %rsp
 2009              		.cfi_def_cfa_offset 32
 2010 0014 488907   		movq	%rax, (%rdi)
 2011              	.LEHB48:
 2012 0017 E8000000 		call	_ZN8UnitTest4TestD2Ev@PLT
 2012      00
 2013              	.LEHE48:
 2014 001c 4883C408 		addq	$8, %rsp
 2015              		.cfi_remember_state
 2016              		.cfi_def_cfa_offset 24
 2017 0020 4889DF   		movq	%rbx, %rdi
 2018 0023 5B       		popq	%rbx
 2019              		.cfi_def_cfa_offset 16
 2020 0024 5D       		popq	%rbp
 2021              		.cfi_def_cfa_offset 8
 2022 0025 E9000000 		jmp	_ZdlPv@PLT
 2022      00
 2023              	.L125:
 2024              		.cfi_restore_state
 2025 002a F30F1EFA 		endbr64
 2026 002e 4889C5   		movq	%rax, %rbp
 2027              	.L124:
 2028 0031 4889DF   		movq	%rbx, %rdi
 2029 0034 E8000000 		call	_ZdlPv@PLT
 2029      00
 2030 0039 4889EF   		movq	%rbp, %rdi
 2031              	.LEHB49:
 2032 003c E8000000 		call	_Unwind_Resume@PLT
 2032      00
 2033              	.LEHE49:
 2034              		.cfi_endproc
 2035              	.LFE1588:
 2036              		.section	.gcc_except_table._ZN33TestCore_testVeryLargeAppendConstD0Ev,"aG",@progbits,_ZN33TestCore
 2037              	.LLSDA1588:
 2038 0000 FF       		.byte	0xff
 2039 0001 FF       		.byte	0xff
 2040 0002 01       		.byte	0x1
 2041 0003 08       		.uleb128 .LLSDACSE1588-.LLSDACSB1588
 2042              	.LLSDACSB1588:
 2043 0004 17       		.uleb128 .LEHB48-.LFB1588
 2044 0005 05       		.uleb128 .LEHE48-.LEHB48
 2045 0006 2A       		.uleb128 .L125-.LFB1588
 2046 0007 00       		.uleb128 0
 2047 0008 3C       		.uleb128 .LEHB49-.LFB1588
 2048 0009 05       		.uleb128 .LEHE49-.LEHB49
 2049 000a 00       		.uleb128 0
 2050 000b 00       		.uleb128 0
 2051              	.LLSDACSE1588:
 2052              		.section	.text._ZN33TestCore_testVeryLargeAppendConstD0Ev,"axG",@progbits,_ZN33TestCore_testVeryLa
 2054              		.section	.text._ZN29TestCore_testLargeAppendConstD2Ev,"axG",@progbits,_ZN29TestCore_testLargeAppen
 2055              		.align 2
 2056              		.p2align 4
 2057              		.weak	_ZN29TestCore_testLargeAppendConstD2Ev
 2059              	_ZN29TestCore_testLargeAppendConstD2Ev:
 2060              	.LFB1590:
 2061              		.cfi_startproc
 2062 0000 F30F1EFA 		endbr64
 2063 0004 488D0500 		leaq	16+_ZTV29TestCore_testLargeAppendConst(%rip), %rax
 2063      000000
 2064 000b 488907   		movq	%rax, (%rdi)
 2065 000e E9000000 		jmp	_ZN8UnitTest4TestD2Ev@PLT
 2065      00
 2066              		.cfi_endproc
 2067              	.LFE1590:
 2069              		.weak	_ZN29TestCore_testLargeAppendConstD1Ev
 2070              		.set	_ZN29TestCore_testLargeAppendConstD1Ev,_ZN29TestCore_testLargeAppendConstD2Ev
 2071              		.section	.text._ZN29TestCore_testLargeAppendConstD0Ev,"axG",@progbits,_ZN29TestCore_testLargeAppen
 2072              		.align 2
 2073              		.p2align 4
 2074              		.weak	_ZN29TestCore_testLargeAppendConstD0Ev
 2076              	_ZN29TestCore_testLargeAppendConstD0Ev:
 2077              	.LFB1592:
 2078              		.cfi_startproc
 2079              		.cfi_personality 0x9b,DW.ref.__gxx_personality_v0
 2080              		.cfi_lsda 0x1b,.LLSDA1592
 2081 0000 F30F1EFA 		endbr64
 2082 0004 55       		pushq	%rbp
 2083              		.cfi_def_cfa_offset 16
 2084              		.cfi_offset 6, -16
 2085 0005 488D0500 		leaq	16+_ZTV29TestCore_testLargeAppendConst(%rip), %rax
 2085      000000
 2086 000c 53       		pushq	%rbx
 2087              		.cfi_def_cfa_offset 24
 2088              		.cfi_offset 3, -24
 2089 000d 4889FB   		movq	%rdi, %rbx
 2090 0010 4883EC08 		subq	$8, %rsp
 2091              		.cfi_def_cfa_offset 32
 2092 0014 488907   		movq	%rax, (%rdi)
 2093              	.LEHB50:
 2094 0017 E8000000 		call	_ZN8UnitTest4TestD2Ev@PLT
 2094      00
 2095              	.LEHE50:
 2096 001c 4883C408 		addq	$8, %rsp
 2097              		.cfi_remember_state
 2098              		.cfi_def_cfa_offset 24
 2099 0020 4889DF   		movq	%rbx, %rdi
 2100 0023 5B       		popq	%rbx
 2101              		.cfi_def_cfa_offset 16
 2102 0024 5D       		popq	%rbp
 2103              		.cfi_def_cfa_offset 8
 2104 0025 E9000000 		jmp	_ZdlPv@PLT
 2104      00
 2105              	.L130:
 2106              		.cfi_restore_state
 2107 002a F30F1EFA 		endbr64
 2108 002e 4889C5   		movq	%rax, %rbp
 2109              	.L129:
 2110 0031 4889DF   		movq	%rbx, %rdi
 2111 0034 E8000000 		call	_ZdlPv@PLT
 2111      00
 2112 0039 4889EF   		movq	%rbp, %rdi
 2113              	.LEHB51:
 2114 003c E8000000 		call	_Unwind_Resume@PLT
 2114      00
 2115              	.LEHE51:
 2116              		.cfi_endproc
 2117              	.LFE1592:
 2118              		.section	.gcc_except_table._ZN29TestCore_testLargeAppendConstD0Ev,"aG",@progbits,_ZN29TestCore_tes
 2119              	.LLSDA1592:
 2120 0000 FF       		.byte	0xff
 2121 0001 FF       		.byte	0xff
 2122 0002 01       		.byte	0x1
 2123 0003 08       		.uleb128 .LLSDACSE1592-.LLSDACSB1592
 2124              	.LLSDACSB1592:
 2125 0004 17       		.uleb128 .LEHB50-.LFB1592
 2126 0005 05       		.uleb128 .LEHE50-.LEHB50
 2127 0006 2A       		.uleb128 .L130-.LFB1592
 2128 0007 00       		.uleb128 0
 2129 0008 3C       		.uleb128 .LEHB51-.LFB1592
 2130 0009 05       		.uleb128 .LEHE51-.LEHB51
 2131 000a 00       		.uleb128 0
 2132 000b 00       		.uleb128 0
 2133              	.LLSDACSE1592:
 2134              		.section	.text._ZN29TestCore_testLargeAppendConstD0Ev,"axG",@progbits,_ZN29TestCore_testLargeAppen
 2136              		.section	.text._ZN32TestCore_testCapacityAppendConstD2Ev,"axG",@progbits,_ZN32TestCore_testCapacit
 2137              		.align 2
 2138              		.p2align 4
 2139              		.weak	_ZN32TestCore_testCapacityAppendConstD2Ev
 2141              	_ZN32TestCore_testCapacityAppendConstD2Ev:
 2142              	.LFB1594:
 2143              		.cfi_startproc
 2144 0000 F30F1EFA 		endbr64
 2145 0004 488D0500 		leaq	16+_ZTV32TestCore_testCapacityAppendConst(%rip), %rax
 2145      000000
 2146 000b 488907   		movq	%rax, (%rdi)
 2147 000e E9000000 		jmp	_ZN8UnitTest4TestD2Ev@PLT
 2147      00
 2148              		.cfi_endproc
 2149              	.LFE1594:
 2151              		.weak	_ZN32TestCore_testCapacityAppendConstD1Ev
 2152              		.set	_ZN32TestCore_testCapacityAppendConstD1Ev,_ZN32TestCore_testCapacityAppendConstD2Ev
 2153              		.section	.text._ZN32TestCore_testCapacityAppendConstD0Ev,"axG",@progbits,_ZN32TestCore_testCapacit
 2154              		.align 2
 2155              		.p2align 4
 2156              		.weak	_ZN32TestCore_testCapacityAppendConstD0Ev
 2158              	_ZN32TestCore_testCapacityAppendConstD0Ev:
 2159              	.LFB1596:
 2160              		.cfi_startproc
 2161              		.cfi_personality 0x9b,DW.ref.__gxx_personality_v0
 2162              		.cfi_lsda 0x1b,.LLSDA1596
 2163 0000 F30F1EFA 		endbr64
 2164 0004 55       		pushq	%rbp
 2165              		.cfi_def_cfa_offset 16
 2166              		.cfi_offset 6, -16
 2167 0005 488D0500 		leaq	16+_ZTV32TestCore_testCapacityAppendConst(%rip), %rax
 2167      000000
 2168 000c 53       		pushq	%rbx
 2169              		.cfi_def_cfa_offset 24
 2170              		.cfi_offset 3, -24
 2171 000d 4889FB   		movq	%rdi, %rbx
 2172 0010 4883EC08 		subq	$8, %rsp
 2173              		.cfi_def_cfa_offset 32
 2174 0014 488907   		movq	%rax, (%rdi)
 2175              	.LEHB52:
 2176 0017 E8000000 		call	_ZN8UnitTest4TestD2Ev@PLT
 2176      00
 2177              	.LEHE52:
 2178 001c 4883C408 		addq	$8, %rsp
 2179              		.cfi_remember_state
 2180              		.cfi_def_cfa_offset 24
 2181 0020 4889DF   		movq	%rbx, %rdi
 2182 0023 5B       		popq	%rbx
 2183              		.cfi_def_cfa_offset 16
 2184 0024 5D       		popq	%rbp
 2185              		.cfi_def_cfa_offset 8
 2186 0025 E9000000 		jmp	_ZdlPv@PLT
 2186      00
 2187              	.L135:
 2188              		.cfi_restore_state
 2189 002a F30F1EFA 		endbr64
 2190 002e 4889C5   		movq	%rax, %rbp
 2191              	.L134:
 2192 0031 4889DF   		movq	%rbx, %rdi
 2193 0034 E8000000 		call	_ZdlPv@PLT
 2193      00
 2194 0039 4889EF   		movq	%rbp, %rdi
 2195              	.LEHB53:
 2196 003c E8000000 		call	_Unwind_Resume@PLT
 2196      00
 2197              	.LEHE53:
 2198              		.cfi_endproc
 2199              	.LFE1596:
 2200              		.section	.gcc_except_table._ZN32TestCore_testCapacityAppendConstD0Ev,"aG",@progbits,_ZN32TestCore_
 2201              	.LLSDA1596:
 2202 0000 FF       		.byte	0xff
 2203 0001 FF       		.byte	0xff
 2204 0002 01       		.byte	0x1
 2205 0003 08       		.uleb128 .LLSDACSE1596-.LLSDACSB1596
 2206              	.LLSDACSB1596:
 2207 0004 17       		.uleb128 .LEHB52-.LFB1596
 2208 0005 05       		.uleb128 .LEHE52-.LEHB52
 2209 0006 2A       		.uleb128 .L135-.LFB1596
 2210 0007 00       		.uleb128 0
 2211 0008 3C       		.uleb128 .LEHB53-.LFB1596
 2212 0009 05       		.uleb128 .LEHE53-.LEHB53
 2213 000a 00       		.uleb128 0
 2214 000b 00       		.uleb128 0
 2215              	.LLSDACSE1596:
 2216              		.section	.text._ZN32TestCore_testCapacityAppendConstD0Ev,"axG",@progbits,_ZN32TestCore_testCapacit
 2218              		.section	.text._ZN29TestCore_testSmallAppendConstD2Ev,"axG",@progbits,_ZN29TestCore_testSmallAppen
 2219              		.align 2
 2220              		.p2align 4
 2221              		.weak	_ZN29TestCore_testSmallAppendConstD2Ev
 2223              	_ZN29TestCore_testSmallAppendConstD2Ev:
 2224              	.LFB1598:
 2225              		.cfi_startproc
 2226 0000 F30F1EFA 		endbr64
 2227 0004 488D0500 		leaq	16+_ZTV29TestCore_testSmallAppendConst(%rip), %rax
 2227      000000
 2228 000b 488907   		movq	%rax, (%rdi)
 2229 000e E9000000 		jmp	_ZN8UnitTest4TestD2Ev@PLT
 2229      00
 2230              		.cfi_endproc
 2231              	.LFE1598:
 2233              		.weak	_ZN29TestCore_testSmallAppendConstD1Ev
 2234              		.set	_ZN29TestCore_testSmallAppendConstD1Ev,_ZN29TestCore_testSmallAppendConstD2Ev
 2235              		.section	.text._ZN29TestCore_testSmallAppendConstD0Ev,"axG",@progbits,_ZN29TestCore_testSmallAppen
 2236              		.align 2
 2237              		.p2align 4
 2238              		.weak	_ZN29TestCore_testSmallAppendConstD0Ev
 2240              	_ZN29TestCore_testSmallAppendConstD0Ev:
 2241              	.LFB1600:
 2242              		.cfi_startproc
 2243              		.cfi_personality 0x9b,DW.ref.__gxx_personality_v0
 2244              		.cfi_lsda 0x1b,.LLSDA1600
 2245 0000 F30F1EFA 		endbr64
 2246 0004 55       		pushq	%rbp
 2247              		.cfi_def_cfa_offset 16
 2248              		.cfi_offset 6, -16
 2249 0005 488D0500 		leaq	16+_ZTV29TestCore_testSmallAppendConst(%rip), %rax
 2249      000000
 2250 000c 53       		pushq	%rbx
 2251              		.cfi_def_cfa_offset 24
 2252              		.cfi_offset 3, -24
 2253 000d 4889FB   		movq	%rdi, %rbx
 2254 0010 4883EC08 		subq	$8, %rsp
 2255              		.cfi_def_cfa_offset 32
 2256 0014 488907   		movq	%rax, (%rdi)
 2257              	.LEHB54:
 2258 0017 E8000000 		call	_ZN8UnitTest4TestD2Ev@PLT
 2258      00
 2259              	.LEHE54:
 2260 001c 4883C408 		addq	$8, %rsp
 2261              		.cfi_remember_state
 2262              		.cfi_def_cfa_offset 24
 2263 0020 4889DF   		movq	%rbx, %rdi
 2264 0023 5B       		popq	%rbx
 2265              		.cfi_def_cfa_offset 16
 2266 0024 5D       		popq	%rbp
 2267              		.cfi_def_cfa_offset 8
 2268 0025 E9000000 		jmp	_ZdlPv@PLT
 2268      00
 2269              	.L140:
 2270              		.cfi_restore_state
 2271 002a F30F1EFA 		endbr64
 2272 002e 4889C5   		movq	%rax, %rbp
 2273              	.L139:
 2274 0031 4889DF   		movq	%rbx, %rdi
 2275 0034 E8000000 		call	_ZdlPv@PLT
 2275      00
 2276 0039 4889EF   		movq	%rbp, %rdi
 2277              	.LEHB55:
 2278 003c E8000000 		call	_Unwind_Resume@PLT
 2278      00
 2279              	.LEHE55:
 2280              		.cfi_endproc
 2281              	.LFE1600:
 2282              		.section	.gcc_except_table._ZN29TestCore_testSmallAppendConstD0Ev,"aG",@progbits,_ZN29TestCore_tes
 2283              	.LLSDA1600:
 2284 0000 FF       		.byte	0xff
 2285 0001 FF       		.byte	0xff
 2286 0002 01       		.byte	0x1
 2287 0003 08       		.uleb128 .LLSDACSE1600-.LLSDACSB1600
 2288              	.LLSDACSB1600:
 2289 0004 17       		.uleb128 .LEHB54-.LFB1600
 2290 0005 05       		.uleb128 .LEHE54-.LEHB54
 2291 0006 2A       		.uleb128 .L140-.LFB1600
 2292 0007 00       		.uleb128 0
 2293 0008 3C       		.uleb128 .LEHB55-.LFB1600
 2294 0009 05       		.uleb128 .LEHE55-.LEHB55
 2295 000a 00       		.uleb128 0
 2296 000b 00       		.uleb128 0
 2297              	.LLSDACSE1600:
 2298              		.section	.text._ZN29TestCore_testSmallAppendConstD0Ev,"axG",@progbits,_ZN29TestCore_testSmallAppen
 2300              		.section	.text._ZN33TestCore_testVeryLargeAppendZerosD2Ev,"axG",@progbits,_ZN33TestCore_testVeryLa
 2301              		.align 2
 2302              		.p2align 4
 2303              		.weak	_ZN33TestCore_testVeryLargeAppendZerosD2Ev
 2305              	_ZN33TestCore_testVeryLargeAppendZerosD2Ev:
 2306              	.LFB1602:
 2307              		.cfi_startproc
 2308 0000 F30F1EFA 		endbr64
 2309 0004 488D0500 		leaq	16+_ZTV33TestCore_testVeryLargeAppendZeros(%rip), %rax
 2309      000000
 2310 000b 488907   		movq	%rax, (%rdi)
 2311 000e E9000000 		jmp	_ZN8UnitTest4TestD2Ev@PLT
 2311      00
 2312              		.cfi_endproc
 2313              	.LFE1602:
 2315              		.weak	_ZN33TestCore_testVeryLargeAppendZerosD1Ev
 2316              		.set	_ZN33TestCore_testVeryLargeAppendZerosD1Ev,_ZN33TestCore_testVeryLargeAppendZerosD2Ev
 2317              		.section	.text._ZN33TestCore_testVeryLargeAppendZerosD0Ev,"axG",@progbits,_ZN33TestCore_testVeryLa
 2318              		.align 2
 2319              		.p2align 4
 2320              		.weak	_ZN33TestCore_testVeryLargeAppendZerosD0Ev
 2322              	_ZN33TestCore_testVeryLargeAppendZerosD0Ev:
 2323              	.LFB1604:
 2324              		.cfi_startproc
 2325              		.cfi_personality 0x9b,DW.ref.__gxx_personality_v0
 2326              		.cfi_lsda 0x1b,.LLSDA1604
 2327 0000 F30F1EFA 		endbr64
 2328 0004 55       		pushq	%rbp
 2329              		.cfi_def_cfa_offset 16
 2330              		.cfi_offset 6, -16
 2331 0005 488D0500 		leaq	16+_ZTV33TestCore_testVeryLargeAppendZeros(%rip), %rax
 2331      000000
 2332 000c 53       		pushq	%rbx
 2333              		.cfi_def_cfa_offset 24
 2334              		.cfi_offset 3, -24
 2335 000d 4889FB   		movq	%rdi, %rbx
 2336 0010 4883EC08 		subq	$8, %rsp
 2337              		.cfi_def_cfa_offset 32
 2338 0014 488907   		movq	%rax, (%rdi)
 2339              	.LEHB56:
 2340 0017 E8000000 		call	_ZN8UnitTest4TestD2Ev@PLT
 2340      00
 2341              	.LEHE56:
 2342 001c 4883C408 		addq	$8, %rsp
 2343              		.cfi_remember_state
 2344              		.cfi_def_cfa_offset 24
 2345 0020 4889DF   		movq	%rbx, %rdi
 2346 0023 5B       		popq	%rbx
 2347              		.cfi_def_cfa_offset 16
 2348 0024 5D       		popq	%rbp
 2349              		.cfi_def_cfa_offset 8
 2350 0025 E9000000 		jmp	_ZdlPv@PLT
 2350      00
 2351              	.L145:
 2352              		.cfi_restore_state
 2353 002a F30F1EFA 		endbr64
 2354 002e 4889C5   		movq	%rax, %rbp
 2355              	.L144:
 2356 0031 4889DF   		movq	%rbx, %rdi
 2357 0034 E8000000 		call	_ZdlPv@PLT
 2357      00
 2358 0039 4889EF   		movq	%rbp, %rdi
 2359              	.LEHB57:
 2360 003c E8000000 		call	_Unwind_Resume@PLT
 2360      00
 2361              	.LEHE57:
 2362              		.cfi_endproc
 2363              	.LFE1604:
 2364              		.section	.gcc_except_table._ZN33TestCore_testVeryLargeAppendZerosD0Ev,"aG",@progbits,_ZN33TestCore
 2365              	.LLSDA1604:
 2366 0000 FF       		.byte	0xff
 2367 0001 FF       		.byte	0xff
 2368 0002 01       		.byte	0x1
 2369 0003 08       		.uleb128 .LLSDACSE1604-.LLSDACSB1604
 2370              	.LLSDACSB1604:
 2371 0004 17       		.uleb128 .LEHB56-.LFB1604
 2372 0005 05       		.uleb128 .LEHE56-.LEHB56
 2373 0006 2A       		.uleb128 .L145-.LFB1604
 2374 0007 00       		.uleb128 0
 2375 0008 3C       		.uleb128 .LEHB57-.LFB1604
 2376 0009 05       		.uleb128 .LEHE57-.LEHB57
 2377 000a 00       		.uleb128 0
 2378 000b 00       		.uleb128 0
 2379              	.LLSDACSE1604:
 2380              		.section	.text._ZN33TestCore_testVeryLargeAppendZerosD0Ev,"axG",@progbits,_ZN33TestCore_testVeryLa
 2382              		.section	.text._ZN29TestCore_testLargeAppendZerosD2Ev,"axG",@progbits,_ZN29TestCore_testLargeAppen
 2383              		.align 2
 2384              		.p2align 4
 2385              		.weak	_ZN29TestCore_testLargeAppendZerosD2Ev
 2387              	_ZN29TestCore_testLargeAppendZerosD2Ev:
 2388              	.LFB1606:
 2389              		.cfi_startproc
 2390 0000 F30F1EFA 		endbr64
 2391 0004 488D0500 		leaq	16+_ZTV29TestCore_testLargeAppendZeros(%rip), %rax
 2391      000000
 2392 000b 488907   		movq	%rax, (%rdi)
 2393 000e E9000000 		jmp	_ZN8UnitTest4TestD2Ev@PLT
 2393      00
 2394              		.cfi_endproc
 2395              	.LFE1606:
 2397              		.weak	_ZN29TestCore_testLargeAppendZerosD1Ev
 2398              		.set	_ZN29TestCore_testLargeAppendZerosD1Ev,_ZN29TestCore_testLargeAppendZerosD2Ev
 2399              		.section	.text._ZN29TestCore_testLargeAppendZerosD0Ev,"axG",@progbits,_ZN29TestCore_testLargeAppen
 2400              		.align 2
 2401              		.p2align 4
 2402              		.weak	_ZN29TestCore_testLargeAppendZerosD0Ev
 2404              	_ZN29TestCore_testLargeAppendZerosD0Ev:
 2405              	.LFB1608:
 2406              		.cfi_startproc
 2407              		.cfi_personality 0x9b,DW.ref.__gxx_personality_v0
 2408              		.cfi_lsda 0x1b,.LLSDA1608
 2409 0000 F30F1EFA 		endbr64
 2410 0004 55       		pushq	%rbp
 2411              		.cfi_def_cfa_offset 16
 2412              		.cfi_offset 6, -16
 2413 0005 488D0500 		leaq	16+_ZTV29TestCore_testLargeAppendZeros(%rip), %rax
 2413      000000
 2414 000c 53       		pushq	%rbx
 2415              		.cfi_def_cfa_offset 24
 2416              		.cfi_offset 3, -24
 2417 000d 4889FB   		movq	%rdi, %rbx
 2418 0010 4883EC08 		subq	$8, %rsp
 2419              		.cfi_def_cfa_offset 32
 2420 0014 488907   		movq	%rax, (%rdi)
 2421              	.LEHB58:
 2422 0017 E8000000 		call	_ZN8UnitTest4TestD2Ev@PLT
 2422      00
 2423              	.LEHE58:
 2424 001c 4883C408 		addq	$8, %rsp
 2425              		.cfi_remember_state
 2426              		.cfi_def_cfa_offset 24
 2427 0020 4889DF   		movq	%rbx, %rdi
 2428 0023 5B       		popq	%rbx
 2429              		.cfi_def_cfa_offset 16
 2430 0024 5D       		popq	%rbp
 2431              		.cfi_def_cfa_offset 8
 2432 0025 E9000000 		jmp	_ZdlPv@PLT
 2432      00
 2433              	.L150:
 2434              		.cfi_restore_state
 2435 002a F30F1EFA 		endbr64
 2436 002e 4889C5   		movq	%rax, %rbp
 2437              	.L149:
 2438 0031 4889DF   		movq	%rbx, %rdi
 2439 0034 E8000000 		call	_ZdlPv@PLT
 2439      00
 2440 0039 4889EF   		movq	%rbp, %rdi
 2441              	.LEHB59:
 2442 003c E8000000 		call	_Unwind_Resume@PLT
 2442      00
 2443              	.LEHE59:
 2444              		.cfi_endproc
 2445              	.LFE1608:
 2446              		.section	.gcc_except_table._ZN29TestCore_testLargeAppendZerosD0Ev,"aG",@progbits,_ZN29TestCore_tes
 2447              	.LLSDA1608:
 2448 0000 FF       		.byte	0xff
 2449 0001 FF       		.byte	0xff
 2450 0002 01       		.byte	0x1
 2451 0003 08       		.uleb128 .LLSDACSE1608-.LLSDACSB1608
 2452              	.LLSDACSB1608:
 2453 0004 17       		.uleb128 .LEHB58-.LFB1608
 2454 0005 05       		.uleb128 .LEHE58-.LEHB58
 2455 0006 2A       		.uleb128 .L150-.LFB1608
 2456 0007 00       		.uleb128 0
 2457 0008 3C       		.uleb128 .LEHB59-.LFB1608
 2458 0009 05       		.uleb128 .LEHE59-.LEHB59
 2459 000a 00       		.uleb128 0
 2460 000b 00       		.uleb128 0
 2461              	.LLSDACSE1608:
 2462              		.section	.text._ZN29TestCore_testLargeAppendZerosD0Ev,"axG",@progbits,_ZN29TestCore_testLargeAppen
 2464              		.section	.text._ZN32TestCore_testCapacityAppendZerosD2Ev,"axG",@progbits,_ZN32TestCore_testCapacit
 2465              		.align 2
 2466              		.p2align 4
 2467              		.weak	_ZN32TestCore_testCapacityAppendZerosD2Ev
 2469              	_ZN32TestCore_testCapacityAppendZerosD2Ev:
 2470              	.LFB1610:
 2471              		.cfi_startproc
 2472 0000 F30F1EFA 		endbr64
 2473 0004 488D0500 		leaq	16+_ZTV32TestCore_testCapacityAppendZeros(%rip), %rax
 2473      000000
 2474 000b 488907   		movq	%rax, (%rdi)
 2475 000e E9000000 		jmp	_ZN8UnitTest4TestD2Ev@PLT
 2475      00
 2476              		.cfi_endproc
 2477              	.LFE1610:
 2479              		.weak	_ZN32TestCore_testCapacityAppendZerosD1Ev
 2480              		.set	_ZN32TestCore_testCapacityAppendZerosD1Ev,_ZN32TestCore_testCapacityAppendZerosD2Ev
 2481              		.section	.text._ZN32TestCore_testCapacityAppendZerosD0Ev,"axG",@progbits,_ZN32TestCore_testCapacit
 2482              		.align 2
 2483              		.p2align 4
 2484              		.weak	_ZN32TestCore_testCapacityAppendZerosD0Ev
 2486              	_ZN32TestCore_testCapacityAppendZerosD0Ev:
 2487              	.LFB1612:
 2488              		.cfi_startproc
 2489              		.cfi_personality 0x9b,DW.ref.__gxx_personality_v0
 2490              		.cfi_lsda 0x1b,.LLSDA1612
 2491 0000 F30F1EFA 		endbr64
 2492 0004 55       		pushq	%rbp
 2493              		.cfi_def_cfa_offset 16
 2494              		.cfi_offset 6, -16
 2495 0005 488D0500 		leaq	16+_ZTV32TestCore_testCapacityAppendZeros(%rip), %rax
 2495      000000
 2496 000c 53       		pushq	%rbx
 2497              		.cfi_def_cfa_offset 24
 2498              		.cfi_offset 3, -24
 2499 000d 4889FB   		movq	%rdi, %rbx
 2500 0010 4883EC08 		subq	$8, %rsp
 2501              		.cfi_def_cfa_offset 32
 2502 0014 488907   		movq	%rax, (%rdi)
 2503              	.LEHB60:
 2504 0017 E8000000 		call	_ZN8UnitTest4TestD2Ev@PLT
 2504      00
 2505              	.LEHE60:
 2506 001c 4883C408 		addq	$8, %rsp
 2507              		.cfi_remember_state
 2508              		.cfi_def_cfa_offset 24
 2509 0020 4889DF   		movq	%rbx, %rdi
 2510 0023 5B       		popq	%rbx
 2511              		.cfi_def_cfa_offset 16
 2512 0024 5D       		popq	%rbp
 2513              		.cfi_def_cfa_offset 8
 2514 0025 E9000000 		jmp	_ZdlPv@PLT
 2514      00
 2515              	.L155:
 2516              		.cfi_restore_state
 2517 002a F30F1EFA 		endbr64
 2518 002e 4889C5   		movq	%rax, %rbp
 2519              	.L154:
 2520 0031 4889DF   		movq	%rbx, %rdi
 2521 0034 E8000000 		call	_ZdlPv@PLT
 2521      00
 2522 0039 4889EF   		movq	%rbp, %rdi
 2523              	.LEHB61:
 2524 003c E8000000 		call	_Unwind_Resume@PLT
 2524      00
 2525              	.LEHE61:
 2526              		.cfi_endproc
 2527              	.LFE1612:
 2528              		.section	.gcc_except_table._ZN32TestCore_testCapacityAppendZerosD0Ev,"aG",@progbits,_ZN32TestCore_
 2529              	.LLSDA1612:
 2530 0000 FF       		.byte	0xff
 2531 0001 FF       		.byte	0xff
 2532 0002 01       		.byte	0x1
 2533 0003 08       		.uleb128 .LLSDACSE1612-.LLSDACSB1612
 2534              	.LLSDACSB1612:
 2535 0004 17       		.uleb128 .LEHB60-.LFB1612
 2536 0005 05       		.uleb128 .LEHE60-.LEHB60
 2537 0006 2A       		.uleb128 .L155-.LFB1612
 2538 0007 00       		.uleb128 0
 2539 0008 3C       		.uleb128 .LEHB61-.LFB1612
 2540 0009 05       		.uleb128 .LEHE61-.LEHB61
 2541 000a 00       		.uleb128 0
 2542 000b 00       		.uleb128 0
 2543              	.LLSDACSE1612:
 2544              		.section	.text._ZN32TestCore_testCapacityAppendZerosD0Ev,"axG",@progbits,_ZN32TestCore_testCapacit
 2546              		.section	.text._ZN29TestCore_testSmallAppendZerosD2Ev,"axG",@progbits,_ZN29TestCore_testSmallAppen
 2547              		.align 2
 2548              		.p2align 4
 2549              		.weak	_ZN29TestCore_testSmallAppendZerosD2Ev
 2551              	_ZN29TestCore_testSmallAppendZerosD2Ev:
 2552              	.LFB1614:
 2553              		.cfi_startproc
 2554 0000 F30F1EFA 		endbr64
 2555 0004 488D0500 		leaq	16+_ZTV29TestCore_testSmallAppendZeros(%rip), %rax
 2555      000000
 2556 000b 488907   		movq	%rax, (%rdi)
 2557 000e E9000000 		jmp	_ZN8UnitTest4TestD2Ev@PLT
 2557      00
 2558              		.cfi_endproc
 2559              	.LFE1614:
 2561              		.weak	_ZN29TestCore_testSmallAppendZerosD1Ev
 2562              		.set	_ZN29TestCore_testSmallAppendZerosD1Ev,_ZN29TestCore_testSmallAppendZerosD2Ev
 2563              		.section	.text._ZN29TestCore_testSmallAppendZerosD0Ev,"axG",@progbits,_ZN29TestCore_testSmallAppen
 2564              		.align 2
 2565              		.p2align 4
 2566              		.weak	_ZN29TestCore_testSmallAppendZerosD0Ev
 2568              	_ZN29TestCore_testSmallAppendZerosD0Ev:
 2569              	.LFB1616:
 2570              		.cfi_startproc
 2571              		.cfi_personality 0x9b,DW.ref.__gxx_personality_v0
 2572              		.cfi_lsda 0x1b,.LLSDA1616
 2573 0000 F30F1EFA 		endbr64
 2574 0004 55       		pushq	%rbp
 2575              		.cfi_def_cfa_offset 16
 2576              		.cfi_offset 6, -16
 2577 0005 488D0500 		leaq	16+_ZTV29TestCore_testSmallAppendZeros(%rip), %rax
 2577      000000
 2578 000c 53       		pushq	%rbx
 2579              		.cfi_def_cfa_offset 24
 2580              		.cfi_offset 3, -24
 2581 000d 4889FB   		movq	%rdi, %rbx
 2582 0010 4883EC08 		subq	$8, %rsp
 2583              		.cfi_def_cfa_offset 32
 2584 0014 488907   		movq	%rax, (%rdi)
 2585              	.LEHB62:
 2586 0017 E8000000 		call	_ZN8UnitTest4TestD2Ev@PLT
 2586      00
 2587              	.LEHE62:
 2588 001c 4883C408 		addq	$8, %rsp
 2589              		.cfi_remember_state
 2590              		.cfi_def_cfa_offset 24
 2591 0020 4889DF   		movq	%rbx, %rdi
 2592 0023 5B       		popq	%rbx
 2593              		.cfi_def_cfa_offset 16
 2594 0024 5D       		popq	%rbp
 2595              		.cfi_def_cfa_offset 8
 2596 0025 E9000000 		jmp	_ZdlPv@PLT
 2596      00
 2597              	.L160:
 2598              		.cfi_restore_state
 2599 002a F30F1EFA 		endbr64
 2600 002e 4889C5   		movq	%rax, %rbp
 2601              	.L159:
 2602 0031 4889DF   		movq	%rbx, %rdi
 2603 0034 E8000000 		call	_ZdlPv@PLT
 2603      00
 2604 0039 4889EF   		movq	%rbp, %rdi
 2605              	.LEHB63:
 2606 003c E8000000 		call	_Unwind_Resume@PLT
 2606      00
 2607              	.LEHE63:
 2608              		.cfi_endproc
 2609              	.LFE1616:
 2610              		.section	.gcc_except_table._ZN29TestCore_testSmallAppendZerosD0Ev,"aG",@progbits,_ZN29TestCore_tes
 2611              	.LLSDA1616:
 2612 0000 FF       		.byte	0xff
 2613 0001 FF       		.byte	0xff
 2614 0002 01       		.byte	0x1
 2615 0003 08       		.uleb128 .LLSDACSE1616-.LLSDACSB1616
 2616              	.LLSDACSB1616:
 2617 0004 17       		.uleb128 .LEHB62-.LFB1616
 2618 0005 05       		.uleb128 .LEHE62-.LEHB62
 2619 0006 2A       		.uleb128 .L160-.LFB1616
 2620 0007 00       		.uleb128 0
 2621 0008 3C       		.uleb128 .LEHB63-.LFB1616
 2622 0009 05       		.uleb128 .LEHE63-.LEHB63
 2623 000a 00       		.uleb128 0
 2624 000b 00       		.uleb128 0
 2625              	.LLSDACSE1616:
 2626              		.section	.text._ZN29TestCore_testSmallAppendZerosD0Ev,"axG",@progbits,_ZN29TestCore_testSmallAppen
 2628              		.section	.text._ZN25TestCore_testAppendLongBED2Ev,"axG",@progbits,_ZN25TestCore_testAppendLongBED5
 2629              		.align 2
 2630              		.p2align 4
 2631              		.weak	_ZN25TestCore_testAppendLongBED2Ev
 2633              	_ZN25TestCore_testAppendLongBED2Ev:
 2634              	.LFB1618:
 2635              		.cfi_startproc
 2636 0000 F30F1EFA 		endbr64
 2637 0004 488D0500 		leaq	16+_ZTV25TestCore_testAppendLongBE(%rip), %rax
 2637      000000
 2638 000b 488907   		movq	%rax, (%rdi)
 2639 000e E9000000 		jmp	_ZN8UnitTest4TestD2Ev@PLT
 2639      00
 2640              		.cfi_endproc
 2641              	.LFE1618:
 2643              		.weak	_ZN25TestCore_testAppendLongBED1Ev
 2644              		.set	_ZN25TestCore_testAppendLongBED1Ev,_ZN25TestCore_testAppendLongBED2Ev
 2645              		.section	.text._ZN25TestCore_testAppendLongBED0Ev,"axG",@progbits,_ZN25TestCore_testAppendLongBED5
 2646              		.align 2
 2647              		.p2align 4
 2648              		.weak	_ZN25TestCore_testAppendLongBED0Ev
 2650              	_ZN25TestCore_testAppendLongBED0Ev:
 2651              	.LFB1620:
 2652              		.cfi_startproc
 2653              		.cfi_personality 0x9b,DW.ref.__gxx_personality_v0
 2654              		.cfi_lsda 0x1b,.LLSDA1620
 2655 0000 F30F1EFA 		endbr64
 2656 0004 55       		pushq	%rbp
 2657              		.cfi_def_cfa_offset 16
 2658              		.cfi_offset 6, -16
 2659 0005 488D0500 		leaq	16+_ZTV25TestCore_testAppendLongBE(%rip), %rax
 2659      000000
 2660 000c 53       		pushq	%rbx
 2661              		.cfi_def_cfa_offset 24
 2662              		.cfi_offset 3, -24
 2663 000d 4889FB   		movq	%rdi, %rbx
 2664 0010 4883EC08 		subq	$8, %rsp
 2665              		.cfi_def_cfa_offset 32
 2666 0014 488907   		movq	%rax, (%rdi)
 2667              	.LEHB64:
 2668 0017 E8000000 		call	_ZN8UnitTest4TestD2Ev@PLT
 2668      00
 2669              	.LEHE64:
 2670 001c 4883C408 		addq	$8, %rsp
 2671              		.cfi_remember_state
 2672              		.cfi_def_cfa_offset 24
 2673 0020 4889DF   		movq	%rbx, %rdi
 2674 0023 5B       		popq	%rbx
 2675              		.cfi_def_cfa_offset 16
 2676 0024 5D       		popq	%rbp
 2677              		.cfi_def_cfa_offset 8
 2678 0025 E9000000 		jmp	_ZdlPv@PLT
 2678      00
 2679              	.L165:
 2680              		.cfi_restore_state
 2681 002a F30F1EFA 		endbr64
 2682 002e 4889C5   		movq	%rax, %rbp
 2683              	.L164:
 2684 0031 4889DF   		movq	%rbx, %rdi
 2685 0034 E8000000 		call	_ZdlPv@PLT
 2685      00
 2686 0039 4889EF   		movq	%rbp, %rdi
 2687              	.LEHB65:
 2688 003c E8000000 		call	_Unwind_Resume@PLT
 2688      00
 2689              	.LEHE65:
 2690              		.cfi_endproc
 2691              	.LFE1620:
 2692              		.section	.gcc_except_table._ZN25TestCore_testAppendLongBED0Ev,"aG",@progbits,_ZN25TestCore_testApp
 2693              	.LLSDA1620:
 2694 0000 FF       		.byte	0xff
 2695 0001 FF       		.byte	0xff
 2696 0002 01       		.byte	0x1
 2697 0003 08       		.uleb128 .LLSDACSE1620-.LLSDACSB1620
 2698              	.LLSDACSB1620:
 2699 0004 17       		.uleb128 .LEHB64-.LFB1620
 2700 0005 05       		.uleb128 .LEHE64-.LEHB64
 2701 0006 2A       		.uleb128 .L165-.LFB1620
 2702 0007 00       		.uleb128 0
 2703 0008 3C       		.uleb128 .LEHB65-.LFB1620
 2704 0009 05       		.uleb128 .LEHE65-.LEHB65
 2705 000a 00       		.uleb128 0
 2706 000b 00       		.uleb128 0
 2707              	.LLSDACSE1620:
 2708              		.section	.text._ZN25TestCore_testAppendLongBED0Ev,"axG",@progbits,_ZN25TestCore_testAppendLongBED5
 2710              		.section	.text._ZN25TestCore_testAppendLongLED2Ev,"axG",@progbits,_ZN25TestCore_testAppendLongLED5
 2711              		.align 2
 2712              		.p2align 4
 2713              		.weak	_ZN25TestCore_testAppendLongLED2Ev
 2715              	_ZN25TestCore_testAppendLongLED2Ev:
 2716              	.LFB1622:
 2717              		.cfi_startproc
 2718 0000 F30F1EFA 		endbr64
 2719 0004 488D0500 		leaq	16+_ZTV25TestCore_testAppendLongLE(%rip), %rax
 2719      000000
 2720 000b 488907   		movq	%rax, (%rdi)
 2721 000e E9000000 		jmp	_ZN8UnitTest4TestD2Ev@PLT
 2721      00
 2722              		.cfi_endproc
 2723              	.LFE1622:
 2725              		.weak	_ZN25TestCore_testAppendLongLED1Ev
 2726              		.set	_ZN25TestCore_testAppendLongLED1Ev,_ZN25TestCore_testAppendLongLED2Ev
 2727              		.section	.text._ZN25TestCore_testAppendLongLED0Ev,"axG",@progbits,_ZN25TestCore_testAppendLongLED5
 2728              		.align 2
 2729              		.p2align 4
 2730              		.weak	_ZN25TestCore_testAppendLongLED0Ev
 2732              	_ZN25TestCore_testAppendLongLED0Ev:
 2733              	.LFB1624:
 2734              		.cfi_startproc
 2735              		.cfi_personality 0x9b,DW.ref.__gxx_personality_v0
 2736              		.cfi_lsda 0x1b,.LLSDA1624
 2737 0000 F30F1EFA 		endbr64
 2738 0004 55       		pushq	%rbp
 2739              		.cfi_def_cfa_offset 16
 2740              		.cfi_offset 6, -16
 2741 0005 488D0500 		leaq	16+_ZTV25TestCore_testAppendLongLE(%rip), %rax
 2741      000000
 2742 000c 53       		pushq	%rbx
 2743              		.cfi_def_cfa_offset 24
 2744              		.cfi_offset 3, -24
 2745 000d 4889FB   		movq	%rdi, %rbx
 2746 0010 4883EC08 		subq	$8, %rsp
 2747              		.cfi_def_cfa_offset 32
 2748 0014 488907   		movq	%rax, (%rdi)
 2749              	.LEHB66:
 2750 0017 E8000000 		call	_ZN8UnitTest4TestD2Ev@PLT
 2750      00
 2751              	.LEHE66:
 2752 001c 4883C408 		addq	$8, %rsp
 2753              		.cfi_remember_state
 2754              		.cfi_def_cfa_offset 24
 2755 0020 4889DF   		movq	%rbx, %rdi
 2756 0023 5B       		popq	%rbx
 2757              		.cfi_def_cfa_offset 16
 2758 0024 5D       		popq	%rbp
 2759              		.cfi_def_cfa_offset 8
 2760 0025 E9000000 		jmp	_ZdlPv@PLT
 2760      00
 2761              	.L170:
 2762              		.cfi_restore_state
 2763 002a F30F1EFA 		endbr64
 2764 002e 4889C5   		movq	%rax, %rbp
 2765              	.L169:
 2766 0031 4889DF   		movq	%rbx, %rdi
 2767 0034 E8000000 		call	_ZdlPv@PLT
 2767      00
 2768 0039 4889EF   		movq	%rbp, %rdi
 2769              	.LEHB67:
 2770 003c E8000000 		call	_Unwind_Resume@PLT
 2770      00
 2771              	.LEHE67:
 2772              		.cfi_endproc
 2773              	.LFE1624:
 2774              		.section	.gcc_except_table._ZN25TestCore_testAppendLongLED0Ev,"aG",@progbits,_ZN25TestCore_testApp
 2775              	.LLSDA1624:
 2776 0000 FF       		.byte	0xff
 2777 0001 FF       		.byte	0xff
 2778 0002 01       		.byte	0x1
 2779 0003 08       		.uleb128 .LLSDACSE1624-.LLSDACSB1624
 2780              	.LLSDACSB1624:
 2781 0004 17       		.uleb128 .LEHB66-.LFB1624
 2782 0005 05       		.uleb128 .LEHE66-.LEHB66
 2783 0006 2A       		.uleb128 .L170-.LFB1624
 2784 0007 00       		.uleb128 0
 2785 0008 3C       		.uleb128 .LEHB67-.LFB1624
 2786 0009 05       		.uleb128 .LEHE67-.LEHB67
 2787 000a 00       		.uleb128 0
 2788 000b 00       		.uleb128 0
 2789              	.LLSDACSE1624:
 2790              		.section	.text._ZN25TestCore_testAppendLongLED0Ev,"axG",@progbits,_ZN25TestCore_testAppendLongLED5
 2792              		.section	.text._ZN25TestCore_testAppendWordBED2Ev,"axG",@progbits,_ZN25TestCore_testAppendWordBED5
 2793              		.align 2
 2794              		.p2align 4
 2795              		.weak	_ZN25TestCore_testAppendWordBED2Ev
 2797              	_ZN25TestCore_testAppendWordBED2Ev:
 2798              	.LFB1626:
 2799              		.cfi_startproc
 2800 0000 F30F1EFA 		endbr64
 2801 0004 488D0500 		leaq	16+_ZTV25TestCore_testAppendWordBE(%rip), %rax
 2801      000000
 2802 000b 488907   		movq	%rax, (%rdi)
 2803 000e E9000000 		jmp	_ZN8UnitTest4TestD2Ev@PLT
 2803      00
 2804              		.cfi_endproc
 2805              	.LFE1626:
 2807              		.weak	_ZN25TestCore_testAppendWordBED1Ev
 2808              		.set	_ZN25TestCore_testAppendWordBED1Ev,_ZN25TestCore_testAppendWordBED2Ev
 2809              		.section	.text._ZN25TestCore_testAppendWordBED0Ev,"axG",@progbits,_ZN25TestCore_testAppendWordBED5
 2810              		.align 2
 2811              		.p2align 4
 2812              		.weak	_ZN25TestCore_testAppendWordBED0Ev
 2814              	_ZN25TestCore_testAppendWordBED0Ev:
 2815              	.LFB1628:
 2816              		.cfi_startproc
 2817              		.cfi_personality 0x9b,DW.ref.__gxx_personality_v0
 2818              		.cfi_lsda 0x1b,.LLSDA1628
 2819 0000 F30F1EFA 		endbr64
 2820 0004 55       		pushq	%rbp
 2821              		.cfi_def_cfa_offset 16
 2822              		.cfi_offset 6, -16
 2823 0005 488D0500 		leaq	16+_ZTV25TestCore_testAppendWordBE(%rip), %rax
 2823      000000
 2824 000c 53       		pushq	%rbx
 2825              		.cfi_def_cfa_offset 24
 2826              		.cfi_offset 3, -24
 2827 000d 4889FB   		movq	%rdi, %rbx
 2828 0010 4883EC08 		subq	$8, %rsp
 2829              		.cfi_def_cfa_offset 32
 2830 0014 488907   		movq	%rax, (%rdi)
 2831              	.LEHB68:
 2832 0017 E8000000 		call	_ZN8UnitTest4TestD2Ev@PLT
 2832      00
 2833              	.LEHE68:
 2834 001c 4883C408 		addq	$8, %rsp
 2835              		.cfi_remember_state
 2836              		.cfi_def_cfa_offset 24
 2837 0020 4889DF   		movq	%rbx, %rdi
 2838 0023 5B       		popq	%rbx
 2839              		.cfi_def_cfa_offset 16
 2840 0024 5D       		popq	%rbp
 2841              		.cfi_def_cfa_offset 8
 2842 0025 E9000000 		jmp	_ZdlPv@PLT
 2842      00
 2843              	.L175:
 2844              		.cfi_restore_state
 2845 002a F30F1EFA 		endbr64
 2846 002e 4889C5   		movq	%rax, %rbp
 2847              	.L174:
 2848 0031 4889DF   		movq	%rbx, %rdi
 2849 0034 E8000000 		call	_ZdlPv@PLT
 2849      00
 2850 0039 4889EF   		movq	%rbp, %rdi
 2851              	.LEHB69:
 2852 003c E8000000 		call	_Unwind_Resume@PLT
 2852      00
 2853              	.LEHE69:
 2854              		.cfi_endproc
 2855              	.LFE1628:
 2856              		.section	.gcc_except_table._ZN25TestCore_testAppendWordBED0Ev,"aG",@progbits,_ZN25TestCore_testApp
 2857              	.LLSDA1628:
 2858 0000 FF       		.byte	0xff
 2859 0001 FF       		.byte	0xff
 2860 0002 01       		.byte	0x1
 2861 0003 08       		.uleb128 .LLSDACSE1628-.LLSDACSB1628
 2862              	.LLSDACSB1628:
 2863 0004 17       		.uleb128 .LEHB68-.LFB1628
 2864 0005 05       		.uleb128 .LEHE68-.LEHB68
 2865 0006 2A       		.uleb128 .L175-.LFB1628
 2866 0007 00       		.uleb128 0
 2867 0008 3C       		.uleb128 .LEHB69-.LFB1628
 2868 0009 05       		.uleb128 .LEHE69-.LEHB69
 2869 000a 00       		.uleb128 0
 2870 000b 00       		.uleb128 0
 2871              	.LLSDACSE1628:
 2872              		.section	.text._ZN25TestCore_testAppendWordBED0Ev,"axG",@progbits,_ZN25TestCore_testAppendWordBED5
 2874              		.section	.text._ZN25TestCore_testAppendWordLED2Ev,"axG",@progbits,_ZN25TestCore_testAppendWordLED5
 2875              		.align 2
 2876              		.p2align 4
 2877              		.weak	_ZN25TestCore_testAppendWordLED2Ev
 2879              	_ZN25TestCore_testAppendWordLED2Ev:
 2880              	.LFB1630:
 2881              		.cfi_startproc
 2882 0000 F30F1EFA 		endbr64
 2883 0004 488D0500 		leaq	16+_ZTV25TestCore_testAppendWordLE(%rip), %rax
 2883      000000
 2884 000b 488907   		movq	%rax, (%rdi)
 2885 000e E9000000 		jmp	_ZN8UnitTest4TestD2Ev@PLT
 2885      00
 2886              		.cfi_endproc
 2887              	.LFE1630:
 2889              		.weak	_ZN25TestCore_testAppendWordLED1Ev
 2890              		.set	_ZN25TestCore_testAppendWordLED1Ev,_ZN25TestCore_testAppendWordLED2Ev
 2891              		.section	.text._ZN25TestCore_testAppendWordLED0Ev,"axG",@progbits,_ZN25TestCore_testAppendWordLED5
 2892              		.align 2
 2893              		.p2align 4
 2894              		.weak	_ZN25TestCore_testAppendWordLED0Ev
 2896              	_ZN25TestCore_testAppendWordLED0Ev:
 2897              	.LFB1632:
 2898              		.cfi_startproc
 2899              		.cfi_personality 0x9b,DW.ref.__gxx_personality_v0
 2900              		.cfi_lsda 0x1b,.LLSDA1632
 2901 0000 F30F1EFA 		endbr64
 2902 0004 55       		pushq	%rbp
 2903              		.cfi_def_cfa_offset 16
 2904              		.cfi_offset 6, -16
 2905 0005 488D0500 		leaq	16+_ZTV25TestCore_testAppendWordLE(%rip), %rax
 2905      000000
 2906 000c 53       		pushq	%rbx
 2907              		.cfi_def_cfa_offset 24
 2908              		.cfi_offset 3, -24
 2909 000d 4889FB   		movq	%rdi, %rbx
 2910 0010 4883EC08 		subq	$8, %rsp
 2911              		.cfi_def_cfa_offset 32
 2912 0014 488907   		movq	%rax, (%rdi)
 2913              	.LEHB70:
 2914 0017 E8000000 		call	_ZN8UnitTest4TestD2Ev@PLT
 2914      00
 2915              	.LEHE70:
 2916 001c 4883C408 		addq	$8, %rsp
 2917              		.cfi_remember_state
 2918              		.cfi_def_cfa_offset 24
 2919 0020 4889DF   		movq	%rbx, %rdi
 2920 0023 5B       		popq	%rbx
 2921              		.cfi_def_cfa_offset 16
 2922 0024 5D       		popq	%rbp
 2923              		.cfi_def_cfa_offset 8
 2924 0025 E9000000 		jmp	_ZdlPv@PLT
 2924      00
 2925              	.L180:
 2926              		.cfi_restore_state
 2927 002a F30F1EFA 		endbr64
 2928 002e 4889C5   		movq	%rax, %rbp
 2929              	.L179:
 2930 0031 4889DF   		movq	%rbx, %rdi
 2931 0034 E8000000 		call	_ZdlPv@PLT
 2931      00
 2932 0039 4889EF   		movq	%rbp, %rdi
 2933              	.LEHB71:
 2934 003c E8000000 		call	_Unwind_Resume@PLT
 2934      00
 2935              	.LEHE71:
 2936              		.cfi_endproc
 2937              	.LFE1632:
 2938              		.section	.gcc_except_table._ZN25TestCore_testAppendWordLED0Ev,"aG",@progbits,_ZN25TestCore_testApp
 2939              	.LLSDA1632:
 2940 0000 FF       		.byte	0xff
 2941 0001 FF       		.byte	0xff
 2942 0002 01       		.byte	0x1
 2943 0003 08       		.uleb128 .LLSDACSE1632-.LLSDACSB1632
 2944              	.LLSDACSB1632:
 2945 0004 17       		.uleb128 .LEHB70-.LFB1632
 2946 0005 05       		.uleb128 .LEHE70-.LEHB70
 2947 0006 2A       		.uleb128 .L180-.LFB1632
 2948 0007 00       		.uleb128 0
 2949 0008 3C       		.uleb128 .LEHB71-.LFB1632
 2950 0009 05       		.uleb128 .LEHE71-.LEHB71
 2951 000a 00       		.uleb128 0
 2952 000b 00       		.uleb128 0
 2953              	.LLSDACSE1632:
 2954              		.section	.text._ZN25TestCore_testAppendWordLED0Ev,"axG",@progbits,_ZN25TestCore_testAppendWordLED5
 2956              		.section	.text._ZN23TestCore_testAppendByteD2Ev,"axG",@progbits,_ZN23TestCore_testAppendByteD5Ev,c
 2957              		.align 2
 2958              		.p2align 4
 2959              		.weak	_ZN23TestCore_testAppendByteD2Ev
 2961              	_ZN23TestCore_testAppendByteD2Ev:
 2962              	.LFB1634:
 2963              		.cfi_startproc
 2964 0000 F30F1EFA 		endbr64
 2965 0004 488D0500 		leaq	16+_ZTV23TestCore_testAppendByte(%rip), %rax
 2965      000000
 2966 000b 488907   		movq	%rax, (%rdi)
 2967 000e E9000000 		jmp	_ZN8UnitTest4TestD2Ev@PLT
 2967      00
 2968              		.cfi_endproc
 2969              	.LFE1634:
 2971              		.weak	_ZN23TestCore_testAppendByteD1Ev
 2972              		.set	_ZN23TestCore_testAppendByteD1Ev,_ZN23TestCore_testAppendByteD2Ev
 2973              		.section	.text._ZN23TestCore_testAppendByteD0Ev,"axG",@progbits,_ZN23TestCore_testAppendByteD5Ev,c
 2974              		.align 2
 2975              		.p2align 4
 2976              		.weak	_ZN23TestCore_testAppendByteD0Ev
 2978              	_ZN23TestCore_testAppendByteD0Ev:
 2979              	.LFB1636:
 2980              		.cfi_startproc
 2981              		.cfi_personality 0x9b,DW.ref.__gxx_personality_v0
 2982              		.cfi_lsda 0x1b,.LLSDA1636
 2983 0000 F30F1EFA 		endbr64
 2984 0004 55       		pushq	%rbp
 2985              		.cfi_def_cfa_offset 16
 2986              		.cfi_offset 6, -16
 2987 0005 488D0500 		leaq	16+_ZTV23TestCore_testAppendByte(%rip), %rax
 2987      000000
 2988 000c 53       		pushq	%rbx
 2989              		.cfi_def_cfa_offset 24
 2990              		.cfi_offset 3, -24
 2991 000d 4889FB   		movq	%rdi, %rbx
 2992 0010 4883EC08 		subq	$8, %rsp
 2993              		.cfi_def_cfa_offset 32
 2994 0014 488907   		movq	%rax, (%rdi)
 2995              	.LEHB72:
 2996 0017 E8000000 		call	_ZN8UnitTest4TestD2Ev@PLT
 2996      00
 2997              	.LEHE72:
 2998 001c 4883C408 		addq	$8, %rsp
 2999              		.cfi_remember_state
 3000              		.cfi_def_cfa_offset 24
 3001 0020 4889DF   		movq	%rbx, %rdi
 3002 0023 5B       		popq	%rbx
 3003              		.cfi_def_cfa_offset 16
 3004 0024 5D       		popq	%rbp
 3005              		.cfi_def_cfa_offset 8
 3006 0025 E9000000 		jmp	_ZdlPv@PLT
 3006      00
 3007              	.L185:
 3008              		.cfi_restore_state
 3009 002a F30F1EFA 		endbr64
 3010 002e 4889C5   		movq	%rax, %rbp
 3011              	.L184:
 3012 0031 4889DF   		movq	%rbx, %rdi
 3013 0034 E8000000 		call	_ZdlPv@PLT
 3013      00
 3014 0039 4889EF   		movq	%rbp, %rdi
 3015              	.LEHB73:
 3016 003c E8000000 		call	_Unwind_Resume@PLT
 3016      00
 3017              	.LEHE73:
 3018              		.cfi_endproc
 3019              	.LFE1636:
 3020              		.section	.gcc_except_table._ZN23TestCore_testAppendByteD0Ev,"aG",@progbits,_ZN23TestCore_testAppen
 3021              	.LLSDA1636:
 3022 0000 FF       		.byte	0xff
 3023 0001 FF       		.byte	0xff
 3024 0002 01       		.byte	0x1
 3025 0003 08       		.uleb128 .LLSDACSE1636-.LLSDACSB1636
 3026              	.LLSDACSB1636:
 3027 0004 17       		.uleb128 .LEHB72-.LFB1636
 3028 0005 05       		.uleb128 .LEHE72-.LEHB72
 3029 0006 2A       		.uleb128 .L185-.LFB1636
 3030 0007 00       		.uleb128 0
 3031 0008 3C       		.uleb128 .LEHB73-.LFB1636
 3032 0009 05       		.uleb128 .LEHE73-.LEHB73
 3033 000a 00       		.uleb128 0
 3034 000b 00       		.uleb128 0
 3035              	.LLSDACSE1636:
 3036              		.section	.text._ZN23TestCore_testAppendByteD0Ev,"axG",@progbits,_ZN23TestCore_testAppendByteD5Ev,c
 3038              		.section	.text._ZN39TestCore_testVeryLargeAppendBlockInitFFD2Ev,"axG",@progbits,_ZN39TestCore_test
 3039              		.align 2
 3040              		.p2align 4
 3041              		.weak	_ZN39TestCore_testVeryLargeAppendBlockInitFFD2Ev
 3043              	_ZN39TestCore_testVeryLargeAppendBlockInitFFD2Ev:
 3044              	.LFB1638:
 3045              		.cfi_startproc
 3046 0000 F30F1EFA 		endbr64
 3047 0004 488D0500 		leaq	16+_ZTV39TestCore_testVeryLargeAppendBlockInitFF(%rip), %rax
 3047      000000
 3048 000b 488907   		movq	%rax, (%rdi)
 3049 000e E9000000 		jmp	_ZN8UnitTest4TestD2Ev@PLT
 3049      00
 3050              		.cfi_endproc
 3051              	.LFE1638:
 3053              		.weak	_ZN39TestCore_testVeryLargeAppendBlockInitFFD1Ev
 3054              		.set	_ZN39TestCore_testVeryLargeAppendBlockInitFFD1Ev,_ZN39TestCore_testVeryLargeAppendBlockInitFF
 3055              		.section	.text._ZN39TestCore_testVeryLargeAppendBlockInitFFD0Ev,"axG",@progbits,_ZN39TestCore_test
 3056              		.align 2
 3057              		.p2align 4
 3058              		.weak	_ZN39TestCore_testVeryLargeAppendBlockInitFFD0Ev
 3060              	_ZN39TestCore_testVeryLargeAppendBlockInitFFD0Ev:
 3061              	.LFB1640:
 3062              		.cfi_startproc
 3063              		.cfi_personality 0x9b,DW.ref.__gxx_personality_v0
 3064              		.cfi_lsda 0x1b,.LLSDA1640
 3065 0000 F30F1EFA 		endbr64
 3066 0004 55       		pushq	%rbp
 3067              		.cfi_def_cfa_offset 16
 3068              		.cfi_offset 6, -16
 3069 0005 488D0500 		leaq	16+_ZTV39TestCore_testVeryLargeAppendBlockInitFF(%rip), %rax
 3069      000000
 3070 000c 53       		pushq	%rbx
 3071              		.cfi_def_cfa_offset 24
 3072              		.cfi_offset 3, -24
 3073 000d 4889FB   		movq	%rdi, %rbx
 3074 0010 4883EC08 		subq	$8, %rsp
 3075              		.cfi_def_cfa_offset 32
 3076 0014 488907   		movq	%rax, (%rdi)
 3077              	.LEHB74:
 3078 0017 E8000000 		call	_ZN8UnitTest4TestD2Ev@PLT
 3078      00
 3079              	.LEHE74:
 3080 001c 4883C408 		addq	$8, %rsp
 3081              		.cfi_remember_state
 3082              		.cfi_def_cfa_offset 24
 3083 0020 4889DF   		movq	%rbx, %rdi
 3084 0023 5B       		popq	%rbx
 3085              		.cfi_def_cfa_offset 16
 3086 0024 5D       		popq	%rbp
 3087              		.cfi_def_cfa_offset 8
 3088 0025 E9000000 		jmp	_ZdlPv@PLT
 3088      00
 3089              	.L190:
 3090              		.cfi_restore_state
 3091 002a F30F1EFA 		endbr64
 3092 002e 4889C5   		movq	%rax, %rbp
 3093              	.L189:
 3094 0031 4889DF   		movq	%rbx, %rdi
 3095 0034 E8000000 		call	_ZdlPv@PLT
 3095      00
 3096 0039 4889EF   		movq	%rbp, %rdi
 3097              	.LEHB75:
 3098 003c E8000000 		call	_Unwind_Resume@PLT
 3098      00
 3099              	.LEHE75:
 3100              		.cfi_endproc
 3101              	.LFE1640:
 3102              		.section	.gcc_except_table._ZN39TestCore_testVeryLargeAppendBlockInitFFD0Ev,"aG",@progbits,_ZN39Te
 3103              	.LLSDA1640:
 3104 0000 FF       		.byte	0xff
 3105 0001 FF       		.byte	0xff
 3106 0002 01       		.byte	0x1
 3107 0003 08       		.uleb128 .LLSDACSE1640-.LLSDACSB1640
 3108              	.LLSDACSB1640:
 3109 0004 17       		.uleb128 .LEHB74-.LFB1640
 3110 0005 05       		.uleb128 .LEHE74-.LEHB74
 3111 0006 2A       		.uleb128 .L190-.LFB1640
 3112 0007 00       		.uleb128 0
 3113 0008 3C       		.uleb128 .LEHB75-.LFB1640
 3114 0009 05       		.uleb128 .LEHE75-.LEHB75
 3115 000a 00       		.uleb128 0
 3116 000b 00       		.uleb128 0
 3117              	.LLSDACSE1640:
 3118              		.section	.text._ZN39TestCore_testVeryLargeAppendBlockInitFFD0Ev,"axG",@progbits,_ZN39TestCore_test
 3120              		.section	.text._ZN41TestCore_testVeryLargeAppendBlockInitZeroD2Ev,"axG",@progbits,_ZN41TestCore_te
 3121              		.align 2
 3122              		.p2align 4
 3123              		.weak	_ZN41TestCore_testVeryLargeAppendBlockInitZeroD2Ev
 3125              	_ZN41TestCore_testVeryLargeAppendBlockInitZeroD2Ev:
 3126              	.LFB1642:
 3127              		.cfi_startproc
 3128 0000 F30F1EFA 		endbr64
 3129 0004 488D0500 		leaq	16+_ZTV41TestCore_testVeryLargeAppendBlockInitZero(%rip), %rax
 3129      000000
 3130 000b 488907   		movq	%rax, (%rdi)
 3131 000e E9000000 		jmp	_ZN8UnitTest4TestD2Ev@PLT
 3131      00
 3132              		.cfi_endproc
 3133              	.LFE1642:
 3135              		.weak	_ZN41TestCore_testVeryLargeAppendBlockInitZeroD1Ev
 3136              		.set	_ZN41TestCore_testVeryLargeAppendBlockInitZeroD1Ev,_ZN41TestCore_testVeryLargeAppendBlockInit
 3137              		.section	.text._ZN41TestCore_testVeryLargeAppendBlockInitZeroD0Ev,"axG",@progbits,_ZN41TestCore_te
 3138              		.align 2
 3139              		.p2align 4
 3140              		.weak	_ZN41TestCore_testVeryLargeAppendBlockInitZeroD0Ev
 3142              	_ZN41TestCore_testVeryLargeAppendBlockInitZeroD0Ev:
 3143              	.LFB1644:
 3144              		.cfi_startproc
 3145              		.cfi_personality 0x9b,DW.ref.__gxx_personality_v0
 3146              		.cfi_lsda 0x1b,.LLSDA1644
 3147 0000 F30F1EFA 		endbr64
 3148 0004 55       		pushq	%rbp
 3149              		.cfi_def_cfa_offset 16
 3150              		.cfi_offset 6, -16
 3151 0005 488D0500 		leaq	16+_ZTV41TestCore_testVeryLargeAppendBlockInitZero(%rip), %rax
 3151      000000
 3152 000c 53       		pushq	%rbx
 3153              		.cfi_def_cfa_offset 24
 3154              		.cfi_offset 3, -24
 3155 000d 4889FB   		movq	%rdi, %rbx
 3156 0010 4883EC08 		subq	$8, %rsp
 3157              		.cfi_def_cfa_offset 32
 3158 0014 488907   		movq	%rax, (%rdi)
 3159              	.LEHB76:
 3160 0017 E8000000 		call	_ZN8UnitTest4TestD2Ev@PLT
 3160      00
 3161              	.LEHE76:
 3162 001c 4883C408 		addq	$8, %rsp
 3163              		.cfi_remember_state
 3164              		.cfi_def_cfa_offset 24
 3165 0020 4889DF   		movq	%rbx, %rdi
 3166 0023 5B       		popq	%rbx
 3167              		.cfi_def_cfa_offset 16
 3168 0024 5D       		popq	%rbp
 3169              		.cfi_def_cfa_offset 8
 3170 0025 E9000000 		jmp	_ZdlPv@PLT
 3170      00
 3171              	.L195:
 3172              		.cfi_restore_state
 3173 002a F30F1EFA 		endbr64
 3174 002e 4889C5   		movq	%rax, %rbp
 3175              	.L194:
 3176 0031 4889DF   		movq	%rbx, %rdi
 3177 0034 E8000000 		call	_ZdlPv@PLT
 3177      00
 3178 0039 4889EF   		movq	%rbp, %rdi
 3179              	.LEHB77:
 3180 003c E8000000 		call	_Unwind_Resume@PLT
 3180      00
 3181              	.LEHE77:
 3182              		.cfi_endproc
 3183              	.LFE1644:
 3184              		.section	.gcc_except_table._ZN41TestCore_testVeryLargeAppendBlockInitZeroD0Ev,"aG",@progbits,_ZN41
 3185              	.LLSDA1644:
 3186 0000 FF       		.byte	0xff
 3187 0001 FF       		.byte	0xff
 3188 0002 01       		.byte	0x1
 3189 0003 08       		.uleb128 .LLSDACSE1644-.LLSDACSB1644
 3190              	.LLSDACSB1644:
 3191 0004 17       		.uleb128 .LEHB76-.LFB1644
 3192 0005 05       		.uleb128 .LEHE76-.LEHB76
 3193 0006 2A       		.uleb128 .L195-.LFB1644
 3194 0007 00       		.uleb128 0
 3195 0008 3C       		.uleb128 .LEHB77-.LFB1644
 3196 0009 05       		.uleb128 .LEHE77-.LEHB77
 3197 000a 00       		.uleb128 0
 3198 000b 00       		.uleb128 0
 3199              	.LLSDACSE1644:
 3200              		.section	.text._ZN41TestCore_testVeryLargeAppendBlockInitZeroD0Ev,"axG",@progbits,_ZN41TestCore_te
 3202              		.section	.text._ZN29TestCore_testLargeAppendBlockD2Ev,"axG",@progbits,_ZN29TestCore_testLargeAppen
 3203              		.align 2
 3204              		.p2align 4
 3205              		.weak	_ZN29TestCore_testLargeAppendBlockD2Ev
 3207              	_ZN29TestCore_testLargeAppendBlockD2Ev:
 3208              	.LFB1646:
 3209              		.cfi_startproc
 3210 0000 F30F1EFA 		endbr64
 3211 0004 488D0500 		leaq	16+_ZTV29TestCore_testLargeAppendBlock(%rip), %rax
 3211      000000
 3212 000b 488907   		movq	%rax, (%rdi)
 3213 000e E9000000 		jmp	_ZN8UnitTest4TestD2Ev@PLT
 3213      00
 3214              		.cfi_endproc
 3215              	.LFE1646:
 3217              		.weak	_ZN29TestCore_testLargeAppendBlockD1Ev
 3218              		.set	_ZN29TestCore_testLargeAppendBlockD1Ev,_ZN29TestCore_testLargeAppendBlockD2Ev
 3219              		.section	.text._ZN29TestCore_testLargeAppendBlockD0Ev,"axG",@progbits,_ZN29TestCore_testLargeAppen
 3220              		.align 2
 3221              		.p2align 4
 3222              		.weak	_ZN29TestCore_testLargeAppendBlockD0Ev
 3224              	_ZN29TestCore_testLargeAppendBlockD0Ev:
 3225              	.LFB1648:
 3226              		.cfi_startproc
 3227              		.cfi_personality 0x9b,DW.ref.__gxx_personality_v0
 3228              		.cfi_lsda 0x1b,.LLSDA1648
 3229 0000 F30F1EFA 		endbr64
 3230 0004 55       		pushq	%rbp
 3231              		.cfi_def_cfa_offset 16
 3232              		.cfi_offset 6, -16
 3233 0005 488D0500 		leaq	16+_ZTV29TestCore_testLargeAppendBlock(%rip), %rax
 3233      000000
 3234 000c 53       		pushq	%rbx
 3235              		.cfi_def_cfa_offset 24
 3236              		.cfi_offset 3, -24
 3237 000d 4889FB   		movq	%rdi, %rbx
 3238 0010 4883EC08 		subq	$8, %rsp
 3239              		.cfi_def_cfa_offset 32
 3240 0014 488907   		movq	%rax, (%rdi)
 3241              	.LEHB78:
 3242 0017 E8000000 		call	_ZN8UnitTest4TestD2Ev@PLT
 3242      00
 3243              	.LEHE78:
 3244 001c 4883C408 		addq	$8, %rsp
 3245              		.cfi_remember_state
 3246              		.cfi_def_cfa_offset 24
 3247 0020 4889DF   		movq	%rbx, %rdi
 3248 0023 5B       		popq	%rbx
 3249              		.cfi_def_cfa_offset 16
 3250 0024 5D       		popq	%rbp
 3251              		.cfi_def_cfa_offset 8
 3252 0025 E9000000 		jmp	_ZdlPv@PLT
 3252      00
 3253              	.L200:
 3254              		.cfi_restore_state
 3255 002a F30F1EFA 		endbr64
 3256 002e 4889C5   		movq	%rax, %rbp
 3257              	.L199:
 3258 0031 4889DF   		movq	%rbx, %rdi
 3259 0034 E8000000 		call	_ZdlPv@PLT
 3259      00
 3260 0039 4889EF   		movq	%rbp, %rdi
 3261              	.LEHB79:
 3262 003c E8000000 		call	_Unwind_Resume@PLT
 3262      00
 3263              	.LEHE79:
 3264              		.cfi_endproc
 3265              	.LFE1648:
 3266              		.section	.gcc_except_table._ZN29TestCore_testLargeAppendBlockD0Ev,"aG",@progbits,_ZN29TestCore_tes
 3267              	.LLSDA1648:
 3268 0000 FF       		.byte	0xff
 3269 0001 FF       		.byte	0xff
 3270 0002 01       		.byte	0x1
 3271 0003 08       		.uleb128 .LLSDACSE1648-.LLSDACSB1648
 3272              	.LLSDACSB1648:
 3273 0004 17       		.uleb128 .LEHB78-.LFB1648
 3274 0005 05       		.uleb128 .LEHE78-.LEHB78
 3275 0006 2A       		.uleb128 .L200-.LFB1648
 3276 0007 00       		.uleb128 0
 3277 0008 3C       		.uleb128 .LEHB79-.LFB1648
 3278 0009 05       		.uleb128 .LEHE79-.LEHB79
 3279 000a 00       		.uleb128 0
 3280 000b 00       		.uleb128 0
 3281              	.LLSDACSE1648:
 3282              		.section	.text._ZN29TestCore_testLargeAppendBlockD0Ev,"axG",@progbits,_ZN29TestCore_testLargeAppen
 3284              		.section	.text._ZN32TestCore_testCapacityAppendBlockD2Ev,"axG",@progbits,_ZN32TestCore_testCapacit
 3285              		.align 2
 3286              		.p2align 4
 3287              		.weak	_ZN32TestCore_testCapacityAppendBlockD2Ev
 3289              	_ZN32TestCore_testCapacityAppendBlockD2Ev:
 3290              	.LFB1650:
 3291              		.cfi_startproc
 3292 0000 F30F1EFA 		endbr64
 3293 0004 488D0500 		leaq	16+_ZTV32TestCore_testCapacityAppendBlock(%rip), %rax
 3293      000000
 3294 000b 488907   		movq	%rax, (%rdi)
 3295 000e E9000000 		jmp	_ZN8UnitTest4TestD2Ev@PLT
 3295      00
 3296              		.cfi_endproc
 3297              	.LFE1650:
 3299              		.weak	_ZN32TestCore_testCapacityAppendBlockD1Ev
 3300              		.set	_ZN32TestCore_testCapacityAppendBlockD1Ev,_ZN32TestCore_testCapacityAppendBlockD2Ev
 3301              		.section	.text._ZN32TestCore_testCapacityAppendBlockD0Ev,"axG",@progbits,_ZN32TestCore_testCapacit
 3302              		.align 2
 3303              		.p2align 4
 3304              		.weak	_ZN32TestCore_testCapacityAppendBlockD0Ev
 3306              	_ZN32TestCore_testCapacityAppendBlockD0Ev:
 3307              	.LFB1652:
 3308              		.cfi_startproc
 3309              		.cfi_personality 0x9b,DW.ref.__gxx_personality_v0
 3310              		.cfi_lsda 0x1b,.LLSDA1652
 3311 0000 F30F1EFA 		endbr64
 3312 0004 55       		pushq	%rbp
 3313              		.cfi_def_cfa_offset 16
 3314              		.cfi_offset 6, -16
 3315 0005 488D0500 		leaq	16+_ZTV32TestCore_testCapacityAppendBlock(%rip), %rax
 3315      000000
 3316 000c 53       		pushq	%rbx
 3317              		.cfi_def_cfa_offset 24
 3318              		.cfi_offset 3, -24
 3319 000d 4889FB   		movq	%rdi, %rbx
 3320 0010 4883EC08 		subq	$8, %rsp
 3321              		.cfi_def_cfa_offset 32
 3322 0014 488907   		movq	%rax, (%rdi)
 3323              	.LEHB80:
 3324 0017 E8000000 		call	_ZN8UnitTest4TestD2Ev@PLT
 3324      00
 3325              	.LEHE80:
 3326 001c 4883C408 		addq	$8, %rsp
 3327              		.cfi_remember_state
 3328              		.cfi_def_cfa_offset 24
 3329 0020 4889DF   		movq	%rbx, %rdi
 3330 0023 5B       		popq	%rbx
 3331              		.cfi_def_cfa_offset 16
 3332 0024 5D       		popq	%rbp
 3333              		.cfi_def_cfa_offset 8
 3334 0025 E9000000 		jmp	_ZdlPv@PLT
 3334      00
 3335              	.L205:
 3336              		.cfi_restore_state
 3337 002a F30F1EFA 		endbr64
 3338 002e 4889C5   		movq	%rax, %rbp
 3339              	.L204:
 3340 0031 4889DF   		movq	%rbx, %rdi
 3341 0034 E8000000 		call	_ZdlPv@PLT
 3341      00
 3342 0039 4889EF   		movq	%rbp, %rdi
 3343              	.LEHB81:
 3344 003c E8000000 		call	_Unwind_Resume@PLT
 3344      00
 3345              	.LEHE81:
 3346              		.cfi_endproc
 3347              	.LFE1652:
 3348              		.section	.gcc_except_table._ZN32TestCore_testCapacityAppendBlockD0Ev,"aG",@progbits,_ZN32TestCore_
 3349              	.LLSDA1652:
 3350 0000 FF       		.byte	0xff
 3351 0001 FF       		.byte	0xff
 3352 0002 01       		.byte	0x1
 3353 0003 08       		.uleb128 .LLSDACSE1652-.LLSDACSB1652
 3354              	.LLSDACSB1652:
 3355 0004 17       		.uleb128 .LEHB80-.LFB1652
 3356 0005 05       		.uleb128 .LEHE80-.LEHB80
 3357 0006 2A       		.uleb128 .L205-.LFB1652
 3358 0007 00       		.uleb128 0
 3359 0008 3C       		.uleb128 .LEHB81-.LFB1652
 3360 0009 05       		.uleb128 .LEHE81-.LEHB81
 3361 000a 00       		.uleb128 0
 3362 000b 00       		.uleb128 0
 3363              	.LLSDACSE1652:
 3364              		.section	.text._ZN32TestCore_testCapacityAppendBlockD0Ev,"axG",@progbits,_ZN32TestCore_testCapacit
 3366              		.section	.text._ZN29TestCore_testSmallAppendBlockD2Ev,"axG",@progbits,_ZN29TestCore_testSmallAppen
 3367              		.align 2
 3368              		.p2align 4
 3369              		.weak	_ZN29TestCore_testSmallAppendBlockD2Ev
 3371              	_ZN29TestCore_testSmallAppendBlockD2Ev:
 3372              	.LFB1654:
 3373              		.cfi_startproc
 3374 0000 F30F1EFA 		endbr64
 3375 0004 488D0500 		leaq	16+_ZTV29TestCore_testSmallAppendBlock(%rip), %rax
 3375      000000
 3376 000b 488907   		movq	%rax, (%rdi)
 3377 000e E9000000 		jmp	_ZN8UnitTest4TestD2Ev@PLT
 3377      00
 3378              		.cfi_endproc
 3379              	.LFE1654:
 3381              		.weak	_ZN29TestCore_testSmallAppendBlockD1Ev
 3382              		.set	_ZN29TestCore_testSmallAppendBlockD1Ev,_ZN29TestCore_testSmallAppendBlockD2Ev
 3383              		.section	.text._ZN29TestCore_testSmallAppendBlockD0Ev,"axG",@progbits,_ZN29TestCore_testSmallAppen
 3384              		.align 2
 3385              		.p2align 4
 3386              		.weak	_ZN29TestCore_testSmallAppendBlockD0Ev
 3388              	_ZN29TestCore_testSmallAppendBlockD0Ev:
 3389              	.LFB1656:
 3390              		.cfi_startproc
 3391              		.cfi_personality 0x9b,DW.ref.__gxx_personality_v0
 3392              		.cfi_lsda 0x1b,.LLSDA1656
 3393 0000 F30F1EFA 		endbr64
 3394 0004 55       		pushq	%rbp
 3395              		.cfi_def_cfa_offset 16
 3396              		.cfi_offset 6, -16
 3397 0005 488D0500 		leaq	16+_ZTV29TestCore_testSmallAppendBlock(%rip), %rax
 3397      000000
 3398 000c 53       		pushq	%rbx
 3399              		.cfi_def_cfa_offset 24
 3400              		.cfi_offset 3, -24
 3401 000d 4889FB   		movq	%rdi, %rbx
 3402 0010 4883EC08 		subq	$8, %rsp
 3403              		.cfi_def_cfa_offset 32
 3404 0014 488907   		movq	%rax, (%rdi)
 3405              	.LEHB82:
 3406 0017 E8000000 		call	_ZN8UnitTest4TestD2Ev@PLT
 3406      00
 3407              	.LEHE82:
 3408 001c 4883C408 		addq	$8, %rsp
 3409              		.cfi_remember_state
 3410              		.cfi_def_cfa_offset 24
 3411 0020 4889DF   		movq	%rbx, %rdi
 3412 0023 5B       		popq	%rbx
 3413              		.cfi_def_cfa_offset 16
 3414 0024 5D       		popq	%rbp
 3415              		.cfi_def_cfa_offset 8
 3416 0025 E9000000 		jmp	_ZdlPv@PLT
 3416      00
 3417              	.L210:
 3418              		.cfi_restore_state
 3419 002a F30F1EFA 		endbr64
 3420 002e 4889C5   		movq	%rax, %rbp
 3421              	.L209:
 3422 0031 4889DF   		movq	%rbx, %rdi
 3423 0034 E8000000 		call	_ZdlPv@PLT
 3423      00
 3424 0039 4889EF   		movq	%rbp, %rdi
 3425              	.LEHB83:
 3426 003c E8000000 		call	_Unwind_Resume@PLT
 3426      00
 3427              	.LEHE83:
 3428              		.cfi_endproc
 3429              	.LFE1656:
 3430              		.section	.gcc_except_table._ZN29TestCore_testSmallAppendBlockD0Ev,"aG",@progbits,_ZN29TestCore_tes
 3431              	.LLSDA1656:
 3432 0000 FF       		.byte	0xff
 3433 0001 FF       		.byte	0xff
 3434 0002 01       		.byte	0x1
 3435 0003 08       		.uleb128 .LLSDACSE1656-.LLSDACSB1656
 3436              	.LLSDACSB1656:
 3437 0004 17       		.uleb128 .LEHB82-.LFB1656
 3438 0005 05       		.uleb128 .LEHE82-.LEHB82
 3439 0006 2A       		.uleb128 .L210-.LFB1656
 3440 0007 00       		.uleb128 0
 3441 0008 3C       		.uleb128 .LEHB83-.LFB1656
 3442 0009 05       		.uleb128 .LEHE83-.LEHB83
 3443 000a 00       		.uleb128 0
 3444 000b 00       		.uleb128 0
 3445              	.LLSDACSE1656:
 3446              		.section	.text._ZN29TestCore_testSmallAppendBlockD0Ev,"axG",@progbits,_ZN29TestCore_testSmallAppen
 3448              		.section	.text._ZN25TestCore_testInitialiseFFD2Ev,"axG",@progbits,_ZN25TestCore_testInitialiseFFD5
 3449              		.align 2
 3450              		.p2align 4
 3451              		.weak	_ZN25TestCore_testInitialiseFFD2Ev
 3453              	_ZN25TestCore_testInitialiseFFD2Ev:
 3454              	.LFB1658:
 3455              		.cfi_startproc
 3456 0000 F30F1EFA 		endbr64
 3457 0004 488D0500 		leaq	16+_ZTV25TestCore_testInitialiseFF(%rip), %rax
 3457      000000
 3458 000b 488907   		movq	%rax, (%rdi)
 3459 000e E9000000 		jmp	_ZN8UnitTest4TestD2Ev@PLT
 3459      00
 3460              		.cfi_endproc
 3461              	.LFE1658:
 3463              		.weak	_ZN25TestCore_testInitialiseFFD1Ev
 3464              		.set	_ZN25TestCore_testInitialiseFFD1Ev,_ZN25TestCore_testInitialiseFFD2Ev
 3465              		.section	.text._ZN25TestCore_testInitialiseFFD0Ev,"axG",@progbits,_ZN25TestCore_testInitialiseFFD5
 3466              		.align 2
 3467              		.p2align 4
 3468              		.weak	_ZN25TestCore_testInitialiseFFD0Ev
 3470              	_ZN25TestCore_testInitialiseFFD0Ev:
 3471              	.LFB1660:
 3472              		.cfi_startproc
 3473              		.cfi_personality 0x9b,DW.ref.__gxx_personality_v0
 3474              		.cfi_lsda 0x1b,.LLSDA1660
 3475 0000 F30F1EFA 		endbr64
 3476 0004 55       		pushq	%rbp
 3477              		.cfi_def_cfa_offset 16
 3478              		.cfi_offset 6, -16
 3479 0005 488D0500 		leaq	16+_ZTV25TestCore_testInitialiseFF(%rip), %rax
 3479      000000
 3480 000c 53       		pushq	%rbx
 3481              		.cfi_def_cfa_offset 24
 3482              		.cfi_offset 3, -24
 3483 000d 4889FB   		movq	%rdi, %rbx
 3484 0010 4883EC08 		subq	$8, %rsp
 3485              		.cfi_def_cfa_offset 32
 3486 0014 488907   		movq	%rax, (%rdi)
 3487              	.LEHB84:
 3488 0017 E8000000 		call	_ZN8UnitTest4TestD2Ev@PLT
 3488      00
 3489              	.LEHE84:
 3490 001c 4883C408 		addq	$8, %rsp
 3491              		.cfi_remember_state
 3492              		.cfi_def_cfa_offset 24
 3493 0020 4889DF   		movq	%rbx, %rdi
 3494 0023 5B       		popq	%rbx
 3495              		.cfi_def_cfa_offset 16
 3496 0024 5D       		popq	%rbp
 3497              		.cfi_def_cfa_offset 8
 3498 0025 E9000000 		jmp	_ZdlPv@PLT
 3498      00
 3499              	.L215:
 3500              		.cfi_restore_state
 3501 002a F30F1EFA 		endbr64
 3502 002e 4889C5   		movq	%rax, %rbp
 3503              	.L214:
 3504 0031 4889DF   		movq	%rbx, %rdi
 3505 0034 E8000000 		call	_ZdlPv@PLT
 3505      00
 3506 0039 4889EF   		movq	%rbp, %rdi
 3507              	.LEHB85:
 3508 003c E8000000 		call	_Unwind_Resume@PLT
 3508      00
 3509              	.LEHE85:
 3510              		.cfi_endproc
 3511              	.LFE1660:
 3512              		.section	.gcc_except_table._ZN25TestCore_testInitialiseFFD0Ev,"aG",@progbits,_ZN25TestCore_testIni
 3513              	.LLSDA1660:
 3514 0000 FF       		.byte	0xff
 3515 0001 FF       		.byte	0xff
 3516 0002 01       		.byte	0x1
 3517 0003 08       		.uleb128 .LLSDACSE1660-.LLSDACSB1660
 3518              	.LLSDACSB1660:
 3519 0004 17       		.uleb128 .LEHB84-.LFB1660
 3520 0005 05       		.uleb128 .LEHE84-.LEHB84
 3521 0006 2A       		.uleb128 .L215-.LFB1660
 3522 0007 00       		.uleb128 0
 3523 0008 3C       		.uleb128 .LEHB85-.LFB1660
 3524 0009 05       		.uleb128 .LEHE85-.LEHB85
 3525 000a 00       		.uleb128 0
 3526 000b 00       		.uleb128 0
 3527              	.LLSDACSE1660:
 3528              		.section	.text._ZN25TestCore_testInitialiseFFD0Ev,"axG",@progbits,_ZN25TestCore_testInitialiseFFD5
 3530              		.section	.text._ZN27TestCore_testInitialiseZeroD2Ev,"axG",@progbits,_ZN27TestCore_testInitialiseZe
 3531              		.align 2
 3532              		.p2align 4
 3533              		.weak	_ZN27TestCore_testInitialiseZeroD2Ev
 3535              	_ZN27TestCore_testInitialiseZeroD2Ev:
 3536              	.LFB1662:
 3537              		.cfi_startproc
 3538 0000 F30F1EFA 		endbr64
 3539 0004 488D0500 		leaq	16+_ZTV27TestCore_testInitialiseZero(%rip), %rax
 3539      000000
 3540 000b 488907   		movq	%rax, (%rdi)
 3541 000e E9000000 		jmp	_ZN8UnitTest4TestD2Ev@PLT
 3541      00
 3542              		.cfi_endproc
 3543              	.LFE1662:
 3545              		.weak	_ZN27TestCore_testInitialiseZeroD1Ev
 3546              		.set	_ZN27TestCore_testInitialiseZeroD1Ev,_ZN27TestCore_testInitialiseZeroD2Ev
 3547              		.section	.text._ZN27TestCore_testInitialiseZeroD0Ev,"axG",@progbits,_ZN27TestCore_testInitialiseZe
 3548              		.align 2
 3549              		.p2align 4
 3550              		.weak	_ZN27TestCore_testInitialiseZeroD0Ev
 3552              	_ZN27TestCore_testInitialiseZeroD0Ev:
 3553              	.LFB1664:
 3554              		.cfi_startproc
 3555              		.cfi_personality 0x9b,DW.ref.__gxx_personality_v0
 3556              		.cfi_lsda 0x1b,.LLSDA1664
 3557 0000 F30F1EFA 		endbr64
 3558 0004 55       		pushq	%rbp
 3559              		.cfi_def_cfa_offset 16
 3560              		.cfi_offset 6, -16
 3561 0005 488D0500 		leaq	16+_ZTV27TestCore_testInitialiseZero(%rip), %rax
 3561      000000
 3562 000c 53       		pushq	%rbx
 3563              		.cfi_def_cfa_offset 24
 3564              		.cfi_offset 3, -24
 3565 000d 4889FB   		movq	%rdi, %rbx
 3566 0010 4883EC08 		subq	$8, %rsp
 3567              		.cfi_def_cfa_offset 32
 3568 0014 488907   		movq	%rax, (%rdi)
 3569              	.LEHB86:
 3570 0017 E8000000 		call	_ZN8UnitTest4TestD2Ev@PLT
 3570      00
 3571              	.LEHE86:
 3572 001c 4883C408 		addq	$8, %rsp
 3573              		.cfi_remember_state
 3574              		.cfi_def_cfa_offset 24
 3575 0020 4889DF   		movq	%rbx, %rdi
 3576 0023 5B       		popq	%rbx
 3577              		.cfi_def_cfa_offset 16
 3578 0024 5D       		popq	%rbp
 3579              		.cfi_def_cfa_offset 8
 3580 0025 E9000000 		jmp	_ZdlPv@PLT
 3580      00
 3581              	.L220:
 3582              		.cfi_restore_state
 3583 002a F30F1EFA 		endbr64
 3584 002e 4889C5   		movq	%rax, %rbp
 3585              	.L219:
 3586 0031 4889DF   		movq	%rbx, %rdi
 3587 0034 E8000000 		call	_ZdlPv@PLT
 3587      00
 3588 0039 4889EF   		movq	%rbp, %rdi
 3589              	.LEHB87:
 3590 003c E8000000 		call	_Unwind_Resume@PLT
 3590      00
 3591              	.LEHE87:
 3592              		.cfi_endproc
 3593              	.LFE1664:
 3594              		.section	.gcc_except_table._ZN27TestCore_testInitialiseZeroD0Ev,"aG",@progbits,_ZN27TestCore_testI
 3595              	.LLSDA1664:
 3596 0000 FF       		.byte	0xff
 3597 0001 FF       		.byte	0xff
 3598 0002 01       		.byte	0x1
 3599 0003 08       		.uleb128 .LLSDACSE1664-.LLSDACSB1664
 3600              	.LLSDACSB1664:
 3601 0004 17       		.uleb128 .LEHB86-.LFB1664
 3602 0005 05       		.uleb128 .LEHE86-.LEHB86
 3603 0006 2A       		.uleb128 .L220-.LFB1664
 3604 0007 00       		.uleb128 0
 3605 0008 3C       		.uleb128 .LEHB87-.LFB1664
 3606 0009 05       		.uleb128 .LEHE87-.LEHB87
 3607 000a 00       		.uleb128 0
 3608 000b 00       		.uleb128 0
 3609              	.LLSDACSE1664:
 3610              		.section	.text._ZN27TestCore_testInitialiseZeroD0Ev,"axG",@progbits,_ZN27TestCore_testInitialiseZe
 3612              		.section	.text._ZN8UnitTest15MemoryOutStreamD1Ev,"axG",@progbits,_ZN8UnitTest15MemoryOutStreamD1Ev
 3613              		.align 2
 3614              		.p2align 4
 3615              		.weak	_ZN8UnitTest15MemoryOutStreamD1Ev
 3617              	_ZN8UnitTest15MemoryOutStreamD1Ev:
 3618              	.LFB1425:
 3619              		.cfi_startproc
 3620 0000 F30F1EFA 		endbr64
 3621 0004 488D0500 		leaq	24+_ZTVN8UnitTest15MemoryOutStreamE(%rip), %rax
 3621      000000
 3622 000b 53       		pushq	%rbx
 3623              		.cfi_def_cfa_offset 16
 3624              		.cfi_offset 3, -16
 3625 000c 4889FB   		movq	%rdi, %rbx
 3626 000f 488907   		movq	%rax, (%rdi)
 3627 0012 4883C028 		addq	$40, %rax
 3628 0016 48898790 		movq	%rax, 144(%rdi)
 3628      000000
 3629 001d 488B7F70 		movq	112(%rdi), %rdi
 3630 0021 488D8380 		leaq	128(%rbx), %rax
 3630      000000
 3631 0028 4839C7   		cmpq	%rax, %rdi
 3632 002b 7405     		je	.L223
 3633 002d E8000000 		call	_ZdlPv@PLT
 3633      00
 3634              	.L223:
 3635 0032 488D0500 		leaq	64+_ZTCN8UnitTest15MemoryOutStreamE0_NSt7__cxx1119basic_ostringstreamIcSt11char_traitsIcESaIc
 3635      000000
 3636 0039 488D1500 		leaq	24+_ZTCN8UnitTest15MemoryOutStreamE0_NSt7__cxx1119basic_ostringstreamIcSt11char_traitsIcESaIc
 3636      000000
 3637 0040 488B7B50 		movq	80(%rbx), %rdi
 3638 0044 48898390 		movq	%rax, 144(%rbx)
 3638      000000
 3639 004b 488D0500 		leaq	16+_ZTVNSt7__cxx1115basic_stringbufIcSt11char_traitsIcESaIcEEE(%rip), %rax
 3639      000000
 3640 0052 66480F6E 		movq	%rdx, %xmm0
 3640      C2
 3641 0057 66480F6E 		movq	%rax, %xmm1
 3641      C8
 3642 005c 488D4360 		leaq	96(%rbx), %rax
 3643 0060 660F6CC1 		punpcklqdq	%xmm1, %xmm0
 3644 0064 0F1103   		movups	%xmm0, (%rbx)
 3645 0067 4839C7   		cmpq	%rax, %rdi
 3646 006a 7405     		je	.L224
 3647 006c E8000000 		call	_ZdlPv@PLT
 3647      00
 3648              	.L224:
 3649 0071 488D0500 		leaq	16+_ZTVSt15basic_streambufIcSt11char_traitsIcEE(%rip), %rax
 3649      000000
 3650 0078 488D7B40 		leaq	64(%rbx), %rdi
 3651 007c 48894308 		movq	%rax, 8(%rbx)
 3652 0080 E8000000 		call	_ZNSt6localeD1Ev@PLT
 3652      00
 3653 0085 488D0500 		leaq	24+_ZTCN8UnitTest15MemoryOutStreamE0_So(%rip), %rax
 3653      000000
 3654 008c 488DBB90 		leaq	144(%rbx), %rdi
 3654      000000
 3655 0093 488903   		movq	%rax, (%rbx)
 3656 0096 488D0500 		leaq	16+_ZTVSt9basic_iosIcSt11char_traitsIcEE(%rip), %rax
 3656      000000
 3657 009d 48898390 		movq	%rax, 144(%rbx)
 3657      000000
 3658 00a4 5B       		popq	%rbx
 3659              		.cfi_def_cfa_offset 8
 3660 00a5 E9000000 		jmp	_ZNSt8ios_baseD2Ev@PLT
 3660      00
 3661              		.cfi_endproc
 3662              	.LFE1425:
 3664 00aa 660F1F44 		.p2align 4
 3664      0000
 3665              		.weak	_ZTv0_n24_N8UnitTest15MemoryOutStreamD1Ev
 3667              	_ZTv0_n24_N8UnitTest15MemoryOutStreamD1Ev:
 3668              	.LFB1669:
 3669              		.cfi_startproc
 3670 00b0 F30F1EFA 		endbr64
 3671 00b4 53       		pushq	%rbx
 3672              		.cfi_def_cfa_offset 16
 3673              		.cfi_offset 3, -16
 3674 00b5 488B07   		movq	(%rdi), %rax
 3675 00b8 4889FB   		movq	%rdi, %rbx
 3676 00bb 480358E8 		addq	-24(%rax), %rbx
 3677 00bf 488D0500 		leaq	24+_ZTVN8UnitTest15MemoryOutStreamE(%rip), %rax
 3677      000000
 3678 00c6 488903   		movq	%rax, (%rbx)
 3679 00c9 488B7B70 		movq	112(%rbx), %rdi
 3680 00cd 4883C028 		addq	$40, %rax
 3681 00d1 48898390 		movq	%rax, 144(%rbx)
 3681      000000
 3682 00d8 488D8380 		leaq	128(%rbx), %rax
 3682      000000
 3683 00df 4839C7   		cmpq	%rax, %rdi
 3684 00e2 7405     		je	.L227
 3685 00e4 E8000000 		call	_ZdlPv@PLT
 3685      00
 3686              	.L227:
 3687 00e9 488D0500 		leaq	64+_ZTCN8UnitTest15MemoryOutStreamE0_NSt7__cxx1119basic_ostringstreamIcSt11char_traitsIcESaIc
 3687      000000
 3688 00f0 488D1500 		leaq	24+_ZTCN8UnitTest15MemoryOutStreamE0_NSt7__cxx1119basic_ostringstreamIcSt11char_traitsIcESaIc
 3688      000000
 3689 00f7 488B7B50 		movq	80(%rbx), %rdi
 3690 00fb 48898390 		movq	%rax, 144(%rbx)
 3690      000000
 3691 0102 488D0500 		leaq	16+_ZTVNSt7__cxx1115basic_stringbufIcSt11char_traitsIcESaIcEEE(%rip), %rax
 3691      000000
 3692 0109 66480F6E 		movq	%rdx, %xmm0
 3692      C2
 3693 010e 66480F6E 		movq	%rax, %xmm1
 3693      C8
 3694 0113 488D4360 		leaq	96(%rbx), %rax
 3695 0117 660F6CC1 		punpcklqdq	%xmm1, %xmm0
 3696 011b 0F1103   		movups	%xmm0, (%rbx)
 3697 011e 4839C7   		cmpq	%rax, %rdi
 3698 0121 7405     		je	.L228
 3699 0123 E8000000 		call	_ZdlPv@PLT
 3699      00
 3700              	.L228:
 3701 0128 488D0500 		leaq	16+_ZTVSt15basic_streambufIcSt11char_traitsIcEE(%rip), %rax
 3701      000000
 3702 012f 488D7B40 		leaq	64(%rbx), %rdi
 3703 0133 48894308 		movq	%rax, 8(%rbx)
 3704 0137 E8000000 		call	_ZNSt6localeD1Ev@PLT
 3704      00
 3705 013c 488D0500 		leaq	24+_ZTCN8UnitTest15MemoryOutStreamE0_So(%rip), %rax
 3705      000000
 3706 0143 488DBB90 		leaq	144(%rbx), %rdi
 3706      000000
 3707 014a 488903   		movq	%rax, (%rbx)
 3708 014d 488D0500 		leaq	16+_ZTVSt9basic_iosIcSt11char_traitsIcEE(%rip), %rax
 3708      000000
 3709 0154 48898390 		movq	%rax, 144(%rbx)
 3709      000000
 3710 015b 5B       		popq	%rbx
 3711              		.cfi_def_cfa_offset 8
 3712 015c E9000000 		jmp	_ZNSt8ios_baseD2Ev@PLT
 3712      00
 3713              		.cfi_endproc
 3714              	.LFE1669:
 3716              		.section	.text._ZN8UnitTest15MemoryOutStreamD0Ev,"axG",@progbits,_ZN8UnitTest15MemoryOutStreamD0Ev
 3717              		.align 2
 3718              		.p2align 4
 3719              		.weak	_ZN8UnitTest15MemoryOutStreamD0Ev
 3721              	_ZN8UnitTest15MemoryOutStreamD0Ev:
 3722              	.LFB1426:
 3723              		.cfi_startproc
 3724              		.cfi_personality 0x9b,DW.ref.__gxx_personality_v0
 3725              		.cfi_lsda 0x1b,.LLSDA1426
 3726 0000 F30F1EFA 		endbr64
 3727 0004 55       		pushq	%rbp
 3728              		.cfi_def_cfa_offset 16
 3729              		.cfi_offset 6, -16
 3730 0005 488D0500 		leaq	24+_ZTVN8UnitTest15MemoryOutStreamE(%rip), %rax
 3730      000000
 3731 000c 53       		pushq	%rbx
 3732              		.cfi_def_cfa_offset 24
 3733              		.cfi_offset 3, -24
 3734 000d 4889FB   		movq	%rdi, %rbx
 3735 0010 4883EC08 		subq	$8, %rsp
 3736              		.cfi_def_cfa_offset 32
 3737 0014 488907   		movq	%rax, (%rdi)
 3738 0017 4883C028 		addq	$40, %rax
 3739 001b 48898790 		movq	%rax, 144(%rdi)
 3739      000000
 3740 0022 488B7F70 		movq	112(%rdi), %rdi
 3741 0026 488D8380 		leaq	128(%rbx), %rax
 3741      000000
 3742 002d 4839C7   		cmpq	%rax, %rdi
 3743 0030 7405     		je	.L231
 3744 0032 E8000000 		call	_ZdlPv@PLT
 3744      00
 3745              	.L231:
 3746 0037 488D0500 		leaq	64+_ZTCN8UnitTest15MemoryOutStreamE0_NSt7__cxx1119basic_ostringstreamIcSt11char_traitsIcESaIc
 3746      000000
 3747 003e 488D1500 		leaq	24+_ZTCN8UnitTest15MemoryOutStreamE0_NSt7__cxx1119basic_ostringstreamIcSt11char_traitsIcESaIc
 3747      000000
 3748 0045 488B7B50 		movq	80(%rbx), %rdi
 3749 0049 48898390 		movq	%rax, 144(%rbx)
 3749      000000
 3750 0050 488D0500 		leaq	16+_ZTVNSt7__cxx1115basic_stringbufIcSt11char_traitsIcESaIcEEE(%rip), %rax
 3750      000000
 3751 0057 66480F6E 		movq	%rdx, %xmm0
 3751      C2
 3752 005c 66480F6E 		movq	%rax, %xmm1
 3752      C8
 3753 0061 488D4360 		leaq	96(%rbx), %rax
 3754 0065 660F6CC1 		punpcklqdq	%xmm1, %xmm0
 3755 0069 0F1103   		movups	%xmm0, (%rbx)
 3756 006c 4839C7   		cmpq	%rax, %rdi
 3757 006f 7405     		je	.L232
 3758 0071 E8000000 		call	_ZdlPv@PLT
 3758      00
 3759              	.L232:
 3760 0076 488D0500 		leaq	16+_ZTVSt15basic_streambufIcSt11char_traitsIcEE(%rip), %rax
 3760      000000
 3761 007d 488D7B40 		leaq	64(%rbx), %rdi
 3762 0081 48894308 		movq	%rax, 8(%rbx)
 3763 0085 E8000000 		call	_ZNSt6localeD1Ev@PLT
 3763      00
 3764 008a 488D0500 		leaq	24+_ZTCN8UnitTest15MemoryOutStreamE0_So(%rip), %rax
 3764      000000
 3765 0091 488DBB90 		leaq	144(%rbx), %rdi
 3765      000000
 3766 0098 488903   		movq	%rax, (%rbx)
 3767 009b 488D0500 		leaq	16+_ZTVSt9basic_iosIcSt11char_traitsIcEE(%rip), %rax
 3767      000000
 3768 00a2 48898390 		movq	%rax, 144(%rbx)
 3768      000000
 3769              	.LEHB88:
 3770 00a9 E8000000 		call	_ZNSt8ios_baseD2Ev@PLT
 3770      00
 3771              	.LEHE88:
 3772 00ae 4883C408 		addq	$8, %rsp
 3773              		.cfi_remember_state
 3774              		.cfi_def_cfa_offset 24
 3775 00b2 4889DF   		movq	%rbx, %rdi
 3776 00b5 5B       		popq	%rbx
 3777              		.cfi_def_cfa_offset 16
 3778 00b6 5D       		popq	%rbp
 3779              		.cfi_def_cfa_offset 8
 3780 00b7 E9000000 		jmp	_ZdlPv@PLT
 3780      00
 3781              	.L234:
 3782              		.cfi_restore_state
 3783 00bc F30F1EFA 		endbr64
 3784 00c0 4889C5   		movq	%rax, %rbp
 3785              	.L233:
 3786 00c3 4889DF   		movq	%rbx, %rdi
 3787 00c6 E8000000 		call	_ZdlPv@PLT
 3787      00
 3788 00cb 4889EF   		movq	%rbp, %rdi
 3789              	.LEHB89:
 3790 00ce E8000000 		call	_Unwind_Resume@PLT
 3790      00
 3791              	.LEHE89:
 3792              		.cfi_endproc
 3793              	.LFE1426:
 3794              		.section	.gcc_except_table._ZN8UnitTest15MemoryOutStreamD0Ev,"aG",@progbits,_ZN8UnitTest15MemoryOu
 3795              	.LLSDA1426:
 3796 0000 FF       		.byte	0xff
 3797 0001 FF       		.byte	0xff
 3798 0002 01       		.byte	0x1
 3799 0003 0B       		.uleb128 .LLSDACSE1426-.LLSDACSB1426
 3800              	.LLSDACSB1426:
 3801 0004 A901     		.uleb128 .LEHB88-.LFB1426
 3802 0006 05       		.uleb128 .LEHE88-.LEHB88
 3803 0007 BC01     		.uleb128 .L234-.LFB1426
 3804 0009 00       		.uleb128 0
 3805 000a CE01     		.uleb128 .LEHB89-.LFB1426
 3806 000c 05       		.uleb128 .LEHE89-.LEHB89
 3807 000d 00       		.uleb128 0
 3808 000e 00       		.uleb128 0
 3809              	.LLSDACSE1426:
 3810              		.section	.text._ZN8UnitTest15MemoryOutStreamD0Ev,"axG",@progbits,_ZN8UnitTest15MemoryOutStreamD0Ev
 3812 00d3 66662E0F 		.p2align 4
 3812      1F840000 
 3812      00000066 
 3812      90
 3813              		.weak	_ZTv0_n24_N8UnitTest15MemoryOutStreamD0Ev
 3815              	_ZTv0_n24_N8UnitTest15MemoryOutStreamD0Ev:
 3816              	.LFB1668:
 3817              		.cfi_startproc
 3818              		.cfi_personality 0x9b,DW.ref.__gxx_personality_v0
 3819              		.cfi_lsda 0x1b,.LLSDA1668
 3820 00e0 F30F1EFA 		endbr64
 3821 00e4 55       		pushq	%rbp
 3822              		.cfi_def_cfa_offset 16
 3823              		.cfi_offset 6, -16
 3824 00e5 53       		pushq	%rbx
 3825              		.cfi_def_cfa_offset 24
 3826              		.cfi_offset 3, -24
 3827 00e6 4889FB   		movq	%rdi, %rbx
 3828 00e9 4883EC08 		subq	$8, %rsp
 3829              		.cfi_def_cfa_offset 32
 3830 00ed 488B07   		movq	(%rdi), %rax
 3831 00f0 480358E8 		addq	-24(%rax), %rbx
 3832 00f4 488D0500 		leaq	24+_ZTVN8UnitTest15MemoryOutStreamE(%rip), %rax
 3832      000000
 3833 00fb 488903   		movq	%rax, (%rbx)
 3834 00fe 488B7B70 		movq	112(%rbx), %rdi
 3835 0102 4883C028 		addq	$40, %rax
 3836 0106 48898390 		movq	%rax, 144(%rbx)
 3836      000000
 3837 010d 488D8380 		leaq	128(%rbx), %rax
 3837      000000
 3838 0114 4839C7   		cmpq	%rax, %rdi
 3839 0117 7405     		je	.L237
 3840 0119 E8000000 		call	_ZdlPv@PLT
 3840      00
 3841              	.L237:
 3842 011e 488D0500 		leaq	64+_ZTCN8UnitTest15MemoryOutStreamE0_NSt7__cxx1119basic_ostringstreamIcSt11char_traitsIcESaIc
 3842      000000
 3843 0125 488D1500 		leaq	24+_ZTCN8UnitTest15MemoryOutStreamE0_NSt7__cxx1119basic_ostringstreamIcSt11char_traitsIcESaIc
 3843      000000
 3844 012c 488B7B50 		movq	80(%rbx), %rdi
 3845 0130 48898390 		movq	%rax, 144(%rbx)
 3845      000000
 3846 0137 488D0500 		leaq	16+_ZTVNSt7__cxx1115basic_stringbufIcSt11char_traitsIcESaIcEEE(%rip), %rax
 3846      000000
 3847 013e 66480F6E 		movq	%rdx, %xmm0
 3847      C2
 3848 0143 66480F6E 		movq	%rax, %xmm1
 3848      C8
 3849 0148 488D4360 		leaq	96(%rbx), %rax
 3850 014c 660F6CC1 		punpcklqdq	%xmm1, %xmm0
 3851 0150 0F1103   		movups	%xmm0, (%rbx)
 3852 0153 4839C7   		cmpq	%rax, %rdi
 3853 0156 7405     		je	.L238
 3854 0158 E8000000 		call	_ZdlPv@PLT
 3854      00
 3855              	.L238:
 3856 015d 488D0500 		leaq	16+_ZTVSt15basic_streambufIcSt11char_traitsIcEE(%rip), %rax
 3856      000000
 3857 0164 488D7B40 		leaq	64(%rbx), %rdi
 3858 0168 48894308 		movq	%rax, 8(%rbx)
 3859 016c E8000000 		call	_ZNSt6localeD1Ev@PLT
 3859      00
 3860 0171 488D0500 		leaq	24+_ZTCN8UnitTest15MemoryOutStreamE0_So(%rip), %rax
 3860      000000
 3861 0178 488DBB90 		leaq	144(%rbx), %rdi
 3861      000000
 3862 017f 488903   		movq	%rax, (%rbx)
 3863 0182 488D0500 		leaq	16+_ZTVSt9basic_iosIcSt11char_traitsIcEE(%rip), %rax
 3863      000000
 3864 0189 48898390 		movq	%rax, 144(%rbx)
 3864      000000
 3865              	.LEHB90:
 3866 0190 E8000000 		call	_ZNSt8ios_baseD2Ev@PLT
 3866      00
 3867              	.LEHE90:
 3868 0195 4883C408 		addq	$8, %rsp
 3869              		.cfi_remember_state
 3870              		.cfi_def_cfa_offset 24
 3871 0199 4889DF   		movq	%rbx, %rdi
 3872 019c 5B       		popq	%rbx
 3873              		.cfi_def_cfa_offset 16
 3874 019d 5D       		popq	%rbp
 3875              		.cfi_def_cfa_offset 8
 3876 019e E9000000 		jmp	_ZdlPv@PLT
 3876      00
 3877              	.L240:
 3878              		.cfi_restore_state
 3879 01a3 F30F1EFA 		endbr64
 3880 01a7 4889C5   		movq	%rax, %rbp
 3881              	.L239:
 3882 01aa 4889DF   		movq	%rbx, %rdi
 3883 01ad E8000000 		call	_ZdlPv@PLT
 3883      00
 3884 01b2 4889EF   		movq	%rbp, %rdi
 3885              	.LEHB91:
 3886 01b5 E8000000 		call	_Unwind_Resume@PLT
 3886      00
 3887              	.LEHE91:
 3888              		.cfi_endproc
 3889              	.LFE1668:
 3890              		.section	.gcc_except_table._ZTv0_n24_N8UnitTest15MemoryOutStreamD0Ev,"aG",@progbits,_ZN8UnitTest15
 3891              	.LLSDA1668:
 3892 0000 FF       		.byte	0xff
 3893 0001 FF       		.byte	0xff
 3894 0002 01       		.byte	0x1
 3895 0003 0B       		.uleb128 .LLSDACSE1668-.LLSDACSB1668
 3896              	.LLSDACSB1668:
 3897 0004 B001     		.uleb128 .LEHB90-.LFB1668
 3898 0006 05       		.uleb128 .LEHE90-.LEHB90
 3899 0007 C301     		.uleb128 .L240-.LFB1668
 3900 0009 00       		.uleb128 0
 3901 000a D501     		.uleb128 .LEHB91-.LFB1668
 3902 000c 05       		.uleb128 .LEHE91-.LEHB91
 3903 000d 00       		.uleb128 0
 3904 000e 00       		.uleb128 0
 3905              	.LLSDACSE1668:
 3906              		.section	.text._ZN8UnitTest15MemoryOutStreamD0Ev,"axG",@progbits,_ZN8UnitTest15MemoryOutStreamD0Ev
 3908              		.section	.text._ZNSt7__cxx1115basic_stringbufIcSt11char_traitsIcESaIcEED2Ev,"axG",@progbits,_ZNSt7
 3909              		.align 2
 3910              		.p2align 4
 3911              		.weak	_ZNSt7__cxx1115basic_stringbufIcSt11char_traitsIcESaIcEED2Ev
 3913              	_ZNSt7__cxx1115basic_stringbufIcSt11char_traitsIcESaIcEED2Ev:
 3914              	.LFB1404:
 3915              		.cfi_startproc
 3916 0000 F30F1EFA 		endbr64
 3917 0004 488D0500 		leaq	16+_ZTVNSt7__cxx1115basic_stringbufIcSt11char_traitsIcESaIcEEE(%rip), %rax
 3917      000000
 3918 000b 53       		pushq	%rbx
 3919              		.cfi_def_cfa_offset 16
 3920              		.cfi_offset 3, -16
 3921 000c 4889FB   		movq	%rdi, %rbx
 3922 000f 488907   		movq	%rax, (%rdi)
 3923 0012 488B7F48 		movq	72(%rdi), %rdi
 3924 0016 488D4358 		leaq	88(%rbx), %rax
 3925 001a 4839C7   		cmpq	%rax, %rdi
 3926 001d 7405     		je	.L243
 3927 001f E8000000 		call	_ZdlPv@PLT
 3927      00
 3928              	.L243:
 3929 0024 488D0500 		leaq	16+_ZTVSt15basic_streambufIcSt11char_traitsIcEE(%rip), %rax
 3929      000000
 3930 002b 488D7B38 		leaq	56(%rbx), %rdi
 3931 002f 488903   		movq	%rax, (%rbx)
 3932 0032 5B       		popq	%rbx
 3933              		.cfi_def_cfa_offset 8
 3934 0033 E9000000 		jmp	_ZNSt6localeD1Ev@PLT
 3934      00
 3935              		.cfi_endproc
 3936              	.LFE1404:
 3938              		.weak	_ZNSt7__cxx1115basic_stringbufIcSt11char_traitsIcESaIcEED1Ev
 3939              		.set	_ZNSt7__cxx1115basic_stringbufIcSt11char_traitsIcESaIcEED1Ev,_ZNSt7__cxx1115basic_stringbufIc
 3940              		.section	.rodata.str1.1,"aMS",@progbits,1
 3941              	.LC0:
 3942 0000 45787065 		.string	"Expected "
 3942      63746564 
 3942      2000
 3943              	.LC1:
 3944 000a 20627574 		.string	" but was "
 3944      20776173 
 3944      2000
 3945              		.section	.text.unlikely,"ax",@progbits
 3946              	.LCOLDB5:
 3947              		.text
 3948              	.LHOTB5:
 3949              		.p2align 4
 3951              	_ZN8UnitTest10CheckEqualI12BufferStatusS1_EEvRNS_11TestResultsERKT_RKT0_RKNS_11TestDetailsE.constpr
 3952              	.LFB1673:
 3953              		.cfi_startproc
 3954              		.cfi_personality 0x9b,DW.ref.__gxx_personality_v0
 3955              		.cfi_lsda 0x1b,.LLSDA1673
 3956 0000 4157     		pushq	%r15
 3957              		.cfi_def_cfa_offset 16
 3958              		.cfi_offset 15, -16
 3959 0002 4156     		pushq	%r14
 3960              		.cfi_def_cfa_offset 24
 3961              		.cfi_offset 14, -24
 3962 0004 4155     		pushq	%r13
 3963              		.cfi_def_cfa_offset 32
 3964              		.cfi_offset 13, -32
 3965 0006 4154     		pushq	%r12
 3966              		.cfi_def_cfa_offset 40
 3967              		.cfi_offset 12, -40
 3968 0008 55       		pushq	%rbp
 3969              		.cfi_def_cfa_offset 48
 3970              		.cfi_offset 6, -48
 3971 0009 53       		pushq	%rbx
 3972              		.cfi_def_cfa_offset 56
 3973              		.cfi_offset 3, -56
 3974 000a 4881ECD8 		subq	$472, %rsp
 3974      010000
 3975              		.cfi_def_cfa_offset 528
 3976 0011 48894C24 		movq	%rcx, 24(%rsp)
 3976      18
 3977 0016 8B0A     		movl	(%rdx), %ecx
 3978 0018 48893C24 		movq	%rdi, (%rsp)
 3979 001c 64488B04 		movq	%fs:40, %rax
 3979      25280000 
 3979      00
 3980 0025 48898424 		movq	%rax, 456(%rsp)
 3980      C8010000 
 3981 002d 31C0     		xorl	%eax, %eax
 3982 002f 85C9     		testl	%ecx, %ecx
 3983 0031 752D     		jne	.L261
 3984              	.L245:
 3985 0033 488B8424 		movq	456(%rsp), %rax
 3985      C8010000 
 3986 003b 64482B04 		subq	%fs:40, %rax
 3986      25280000 
 3986      00
 3987 0044 0F855402 		jne	.L262
 3987      0000
 3988 004a 4881C4D8 		addq	$472, %rsp
 3988      010000
 3989              		.cfi_remember_state
 3990              		.cfi_def_cfa_offset 56
 3991 0051 5B       		popq	%rbx
 3992              		.cfi_def_cfa_offset 48
 3993 0052 5D       		popq	%rbp
 3994              		.cfi_def_cfa_offset 40
 3995 0053 415C     		popq	%r12
 3996              		.cfi_def_cfa_offset 32
 3997 0055 415D     		popq	%r13
 3998              		.cfi_def_cfa_offset 24
 3999 0057 415E     		popq	%r14
 4000              		.cfi_def_cfa_offset 16
 4001 0059 415F     		popq	%r15
 4002              		.cfi_def_cfa_offset 8
 4003 005b C3       		ret
 4004 005c 0F1F4000 		.p2align 4,,10
 4005              		.p2align 3
 4006              	.L261:
 4007              		.cfi_restore_state
 4008 0060 4C8DB424 		leaq	192(%rsp), %r14
 4008      C0000000 
 4009 0068 4889F5   		movq	%rsi, %rbp
 4010 006b 4C8D3D00 		leaq	24+_ZTCN8UnitTest15MemoryOutStreamE0_So(%rip), %r15
 4010      000000
 4011 0072 4889D3   		movq	%rdx, %rbx
 4012 0075 4C89F7   		movq	%r14, %rdi
 4013 0078 E8000000 		call	_ZNSt8ios_baseC2Ev@PLT
 4013      00
 4014 007d 31C0     		xorl	%eax, %eax
 4015 007f 660FEFC0 		pxor	%xmm0, %xmm0
 4016 0083 31F6     		xorl	%esi, %esi
 4017 0085 66898424 		movw	%ax, 416(%rsp)
 4017      A0010000 
 4018 008d 4C89F7   		movq	%r14, %rdi
 4019 0090 498D4728 		leaq	40(%r15), %rax
 4020 0094 48C78424 		movq	$0, 408(%rsp)
 4020      98010000 
 4020      00000000 
 4021 00a0 4C897C24 		movq	%r15, 48(%rsp)
 4021      30
 4022 00a5 48898424 		movq	%rax, 192(%rsp)
 4022      C0000000 
 4023 00ad 0F118424 		movups	%xmm0, 424(%rsp)
 4023      A8010000 
 4024 00b5 0F118424 		movups	%xmm0, 440(%rsp)
 4024      B8010000 
 4025              	.LEHB92:
 4026 00bd E8000000 		call	_ZNSt9basic_iosIcSt11char_traitsIcEE4initEPSt15basic_streambufIcS1_E@PLT
 4026      00
 4027              	.LEHE92:
 4028 00c2 F30F7E05 		movq	.LC2(%rip), %xmm0
 4028      00000000 
 4029 00ca 4C8D6424 		leaq	48(%rsp), %r12
 4029      30
 4030 00cf 4C8D6C24 		leaq	56(%rsp), %r13
 4030      38
 4031 00d4 488D0500 		leaq	64+_ZTCN8UnitTest15MemoryOutStreamE0_NSt7__cxx1119basic_ostringstreamIcSt11char_traitsIcESaIc
 4031      000000
 4032 00db 0F160500 		movhps	.LC3(%rip), %xmm0
 4032      000000
 4033 00e2 48898424 		movq	%rax, 192(%rsp)
 4033      C0000000 
 4034 00ea 488D4424 		leaq	112(%rsp), %rax
 4034      70
 4035 00ef 4889C7   		movq	%rax, %rdi
 4036 00f2 0F294424 		movaps	%xmm0, 48(%rsp)
 4036      30
 4037 00f7 660FEFC0 		pxor	%xmm0, %xmm0
 4038 00fb 48894424 		movq	%rax, 40(%rsp)
 4038      28
 4039 0100 0F294424 		movaps	%xmm0, 64(%rsp)
 4039      40
 4040 0105 0F294424 		movaps	%xmm0, 80(%rsp)
 4040      50
 4041 010a 0F294424 		movaps	%xmm0, 96(%rsp)
 4041      60
 4042 010f E8000000 		call	_ZNSt6localeC1Ev@PLT
 4042      00
 4043 0114 488D0500 		leaq	16+_ZTVNSt7__cxx1115basic_stringbufIcSt11char_traitsIcESaIcEEE(%rip), %rax
 4043      000000
 4044 011b 4C89EE   		movq	%r13, %rsi
 4045 011e 48C78424 		movq	$0, 136(%rsp)
 4045      88000000 
 4045      00000000 
 4046 012a 48894424 		movq	%rax, 56(%rsp)
 4046      38
 4047 012f 488D8424 		leaq	144(%rsp), %rax
 4047      90000000 
 4048 0137 48894424 		movq	%rax, 32(%rsp)
 4048      20
 4049 013c 48898424 		movq	%rax, 128(%rsp)
 4049      80000000 
 4050 0144 488B4424 		movq	48(%rsp), %rax
 4050      30
 4051 0149 C6842490 		movb	$0, 144(%rsp)
 4051      00000000 
 4052 0151 488B78E8 		movq	-24(%rax), %rdi
 4053 0155 C7442478 		movl	$16, 120(%rsp)
 4053      10000000 
 4054 015d 4C01E7   		addq	%r12, %rdi
 4055              	.LEHB93:
 4056 0160 E8000000 		call	_ZNSt9basic_iosIcSt11char_traitsIcEE4initEPSt15basic_streambufIcS1_E@PLT
 4056      00
 4057              	.LEHE93:
 4058 0165 488D0500 		leaq	24+_ZTVN8UnitTest15MemoryOutStreamE(%rip), %rax
 4058      000000
 4059 016c BA090000 		movl	$9, %edx
 4059      00
 4060 0171 4C89E7   		movq	%r12, %rdi
 4061 0174 48C78424 		movq	$0, 168(%rsp)
 4061      A8000000 
 4061      00000000 
 4062 0180 48894424 		movq	%rax, 48(%rsp)
 4062      30
 4063 0185 4C8DAC24 		leaq	176(%rsp), %r13
 4063      B0000000 
 4064 018d 4883C028 		addq	$40, %rax
 4065 0191 488D3500 		leaq	.LC0(%rip), %rsi
 4065      000000
 4066 0198 48898424 		movq	%rax, 192(%rsp)
 4066      C0000000 
 4067 01a0 4C89AC24 		movq	%r13, 160(%rsp)
 4067      A0000000 
 4068 01a8 C68424B0 		movb	$0, 176(%rsp)
 4068      00000000 
 4069              	.LEHB94:
 4070 01b0 E8000000 		call	_ZSt16__ostream_insertIcSt11char_traitsIcEERSt13basic_ostreamIT_T0_ES6_PKS3_l@PLT
 4070      00
 4071 01b5 8B7500   		movl	0(%rbp), %esi
 4072 01b8 4C89E7   		movq	%r12, %rdi
 4073 01bb E8000000 		call	_ZNSolsEi@PLT
 4073      00
 4074 01c0 BA090000 		movl	$9, %edx
 4074      00
 4075 01c5 488D3500 		leaq	.LC1(%rip), %rsi
 4075      000000
 4076 01cc 4889C7   		movq	%rax, %rdi
 4077 01cf 4889C5   		movq	%rax, %rbp
 4078 01d2 E8000000 		call	_ZSt16__ostream_insertIcSt11char_traitsIcEERSt13basic_ostreamIT_T0_ES6_PKS3_l@PLT
 4078      00
 4079 01d7 8B33     		movl	(%rbx), %esi
 4080 01d9 4889EF   		movq	%rbp, %rdi
 4081 01dc E8000000 		call	_ZNSolsEi@PLT
 4081      00
 4082 01e1 4C89E7   		movq	%r12, %rdi
 4083 01e4 E8000000 		call	_ZNK8UnitTest15MemoryOutStream7GetTextEv@PLT
 4083      00
 4084 01e9 488B7424 		movq	24(%rsp), %rsi
 4084      18
 4085 01ee 488B3C24 		movq	(%rsp), %rdi
 4086 01f2 4889C2   		movq	%rax, %rdx
 4087 01f5 E8000000 		call	_ZN8UnitTest11TestResults13OnTestFailureERKNS_11TestDetailsEPKc@PLT
 4087      00
 4088              	.LEHE94:
 4089 01fa 488D0500 		leaq	24+_ZTVN8UnitTest15MemoryOutStreamE(%rip), %rax
 4089      000000
 4090 0201 488BBC24 		movq	160(%rsp), %rdi
 4090      A0000000 
 4091 0209 F30F7E05 		movq	.LC2(%rip), %xmm0
 4091      00000000 
 4092 0211 48894424 		movq	%rax, 48(%rsp)
 4092      30
 4093 0216 4883C028 		addq	$40, %rax
 4094 021a 48898424 		movq	%rax, 192(%rsp)
 4094      C0000000 
 4095 0222 0F160500 		movhps	.LC4(%rip), %xmm0
 4095      000000
 4096 0229 4C39EF   		cmpq	%r13, %rdi
 4097 022c 740E     		je	.L251
 4098 022e 0F290424 		movaps	%xmm0, (%rsp)
 4099 0232 E8000000 		call	_ZdlPv@PLT
 4099      00
 4100 0237 660F6F04 		movdqa	(%rsp), %xmm0
 4100      24
 4101              	.L251:
 4102 023c 488D0500 		leaq	64+_ZTCN8UnitTest15MemoryOutStreamE0_NSt7__cxx1119basic_ostringstreamIcSt11char_traitsIcESaIc
 4102      000000
 4103 0243 488BBC24 		movq	128(%rsp), %rdi
 4103      80000000 
 4104 024b 0F294424 		movaps	%xmm0, 48(%rsp)
 4104      30
 4105 0250 48898424 		movq	%rax, 192(%rsp)
 4105      C0000000 
 4106 0258 488B4424 		movq	32(%rsp), %rax
 4106      20
 4107 025d 4839C7   		cmpq	%rax, %rdi
 4108 0260 7405     		je	.L252
 4109 0262 E8000000 		call	_ZdlPv@PLT
 4109      00
 4110              	.L252:
 4111 0267 488B7C24 		movq	40(%rsp), %rdi
 4111      28
 4112 026c 488D0500 		leaq	16+_ZTVSt15basic_streambufIcSt11char_traitsIcEE(%rip), %rax
 4112      000000
 4113 0273 48894424 		movq	%rax, 56(%rsp)
 4113      38
 4114 0278 E8000000 		call	_ZNSt6localeD1Ev@PLT
 4114      00
 4115 027d 488D0500 		leaq	16+_ZTVSt9basic_iosIcSt11char_traitsIcEE(%rip), %rax
 4115      000000
 4116 0284 4C89F7   		movq	%r14, %rdi
 4117 0287 4C897C24 		movq	%r15, 48(%rsp)
 4117      30
 4118 028c 48898424 		movq	%rax, 192(%rsp)
 4118      C0000000 
 4119              	.LEHB95:
 4120 0294 E8000000 		call	_ZNSt8ios_baseD2Ev@PLT
 4120      00
 4121              	.LEHE95:
 4122 0299 E995FDFF 		jmp	.L245
 4122      FF
 4123              	.L262:
 4124 029e E8000000 		call	__stack_chk_fail@PLT
 4124      00
 4125              	.L256:
 4126 02a3 F30F1EFA 		endbr64
 4127 02a7 4889C3   		movq	%rax, %rbx
 4128 02aa E9000000 		jmp	.L249
 4128      00
 4129              	.L257:
 4130 02af F30F1EFA 		endbr64
 4131 02b3 4889C3   		movq	%rax, %rbx
 4132 02b6 E9000000 		jmp	.L248
 4132      00
 4133              	.L255:
 4134 02bb F30F1EFA 		endbr64
 4135 02bf 4889C3   		movq	%rax, %rbx
 4136 02c2 E9000000 		jmp	.L253
 4136      00
 4137              		.section	.gcc_except_table,"a",@progbits
 4138              	.LLSDA1673:
 4139 0000 FF       		.byte	0xff
 4140 0001 FF       		.byte	0xff
 4141 0002 01       		.byte	0x1
 4142 0003 17       		.uleb128 .LLSDACSE1673-.LLSDACSB1673
 4143              	.LLSDACSB1673:
 4144 0004 BD01     		.uleb128 .LEHB92-.LFB1673
 4145 0006 05       		.uleb128 .LEHE92-.LEHB92
 4146 0007 A305     		.uleb128 .L256-.LFB1673
 4147 0009 00       		.uleb128 0
 4148 000a E002     		.uleb128 .LEHB93-.LFB1673
 4149 000c 05       		.uleb128 .LEHE93-.LEHB93
 4150 000d AF05     		.uleb128 .L257-.LFB1673
 4151 000f 00       		.uleb128 0
 4152 0010 B003     		.uleb128 .LEHB94-.LFB1673
 4153 0012 4A       		.uleb128 .LEHE94-.LEHB94
 4154 0013 BB05     		.uleb128 .L255-.LFB1673
 4155 0015 00       		.uleb128 0
 4156 0016 9405     		.uleb128 .LEHB95-.LFB1673
 4157 0018 05       		.uleb128 .LEHE95-.LEHB95
 4158 0019 00       		.uleb128 0
 4159 001a 00       		.uleb128 0
 4160              	.LLSDACSE1673:
 4161              		.text
 4162              		.cfi_endproc
 4163              		.section	.text.unlikely
 4164              		.cfi_startproc
 4165              		.cfi_personality 0x9b,DW.ref.__gxx_personality_v0
 4166              		.cfi_lsda 0x1b,.LLSDAC1673
 4168              	_ZN8UnitTest10CheckEqualI12BufferStatusS1_EEvRNS_11TestResultsERKT_RKT0_RKNS_11TestDetailsE.constpr
 4169              	.LFSB1673:
 4170              	.L248:
 4171              		.cfi_def_cfa_offset 528
 4172              		.cfi_offset 3, -56
 4173              		.cfi_offset 6, -48
 4174              		.cfi_offset 12, -40
 4175              		.cfi_offset 13, -32
 4176              		.cfi_offset 14, -24
 4177              		.cfi_offset 15, -16
 4178 0000 4C89EF   		movq	%r13, %rdi
 4179 0003 E8000000 		call	_ZNSt7__cxx1115basic_stringbufIcSt11char_traitsIcESaIcEED1Ev
 4179      00
 4180 0008 4C897C24 		movq	%r15, 48(%rsp)
 4180      30
 4181              	.L249:
 4182 000d 488D0500 		leaq	16+_ZTVSt9basic_iosIcSt11char_traitsIcEE(%rip), %rax
 4182      000000
 4183 0014 4C89F7   		movq	%r14, %rdi
 4184 0017 48898424 		movq	%rax, 192(%rsp)
 4184      C0000000 
 4185 001f E8000000 		call	_ZNSt8ios_baseD2Ev@PLT
 4185      00
 4186 0024 4889DF   		movq	%rbx, %rdi
 4187              	.LEHB96:
 4188 0027 E8000000 		call	_Unwind_Resume@PLT
 4188      00
 4189              	.LEHE96:
 4190              	.L253:
 4191 002c 4C89E7   		movq	%r12, %rdi
 4192 002f E8000000 		call	_ZN8UnitTest15MemoryOutStreamD1Ev
 4192      00
 4193 0034 4889DF   		movq	%rbx, %rdi
 4194              	.LEHB97:
 4195 0037 E8000000 		call	_Unwind_Resume@PLT
 4195      00
 4196              	.LEHE97:
 4197              		.cfi_endproc
 4198              	.LFE1673:
 4199              		.section	.gcc_except_table
 4200              	.LLSDAC1673:
 4201 001b FF       		.byte	0xff
 4202 001c FF       		.byte	0xff
 4203 001d 01       		.byte	0x1
 4204 001e 08       		.uleb128 .LLSDACSEC1673-.LLSDACSBC1673
 4205              	.LLSDACSBC1673:
 4206 001f 27       		.uleb128 .LEHB96-.LCOLDB5
 4207 0020 05       		.uleb128 .LEHE96-.LEHB96
 4208 0021 00       		.uleb128 0
 4209 0022 00       		.uleb128 0
 4210 0023 37       		.uleb128 .LEHB97-.LCOLDB5
 4211 0024 05       		.uleb128 .LEHE97-.LEHB97
 4212 0025 00       		.uleb128 0
 4213 0026 00       		.uleb128 0
 4214              	.LLSDACSEC1673:
 4215              		.section	.text.unlikely
 4216              		.text
 4218              		.section	.text.unlikely
 4220              	.LCOLDE5:
 4221              		.text
 4222              	.LHOTE5:
 4223              		.section	.rodata.str1.1
 4224              	.LC6:
 4225 0014 45787065 		.string	"Expected [ "
 4225      63746564 
 4225      205B2000 
 4226              	.LC7:
 4227 0020 2000     		.string	" "
 4228              	.LC8:
 4229 0022 5D206275 		.string	"] but was [ "
 4229      74207761 
 4229      73205B20 
 4229      00
 4230              	.LC9:
 4231 002f 5D00     		.string	"]"
 4232              		.section	.text.unlikely
 4233              	.LCOLDB10:
 4234              		.text
 4235              	.LHOTB10:
 4236 02c7 660F1F84 		.p2align 4
 4236      00000000 
 4236      00
 4238              	_ZN8UnitTest15CheckArrayEqualIA8_hPhEEvRNS_11TestResultsERKT_RKT0_iRKNS_11TestDetailsE.constprop.0:
 4239              	.LFB1674:
 4240              		.cfi_startproc
 4241              		.cfi_personality 0x9b,DW.ref.__gxx_personality_v0
 4242              		.cfi_lsda 0x1b,.LLSDA1674
 4243 02d0 4157     		pushq	%r15
 4244              		.cfi_def_cfa_offset 16
 4245              		.cfi_offset 15, -16
 4246 02d2 4156     		pushq	%r14
 4247              		.cfi_def_cfa_offset 24
 4248              		.cfi_offset 14, -24
 4249 02d4 4989CE   		movq	%rcx, %r14
 4250 02d7 4155     		pushq	%r13
 4251              		.cfi_def_cfa_offset 32
 4252              		.cfi_offset 13, -32
 4253 02d9 4154     		pushq	%r12
 4254              		.cfi_def_cfa_offset 40
 4255              		.cfi_offset 12, -40
 4256 02db 4989D4   		movq	%rdx, %r12
 4257 02de 55       		pushq	%rbp
 4258              		.cfi_def_cfa_offset 48
 4259              		.cfi_offset 6, -48
 4260 02df 53       		pushq	%rbx
 4261              		.cfi_def_cfa_offset 56
 4262              		.cfi_offset 3, -56
 4263 02e0 4889F3   		movq	%rsi, %rbx
 4264 02e3 4881ECE8 		subq	$488, %rsp
 4264      010000
 4265              		.cfi_def_cfa_offset 544
 4266 02ea 488B12   		movq	(%rdx), %rdx
 4267 02ed 0FB64E01 		movzbl	1(%rsi), %ecx
 4268 02f1 48893C24 		movq	%rdi, (%rsp)
 4269 02f5 64488B04 		movq	%fs:40, %rax
 4269      25280000 
 4269      00
 4270 02fe 48898424 		movq	%rax, 472(%rsp)
 4270      D8010000 
 4271 0306 31C0     		xorl	%eax, %eax
 4272 0308 0FB64602 		movzbl	2(%rsi), %eax
 4273 030c 384202   		cmpb	%al, 2(%rdx)
 4274 030f 0F94C0   		sete	%al
 4275 0312 384A01   		cmpb	%cl, 1(%rdx)
 4276 0315 0F94C1   		sete	%cl
 4277 0318 21C8     		andl	%ecx, %eax
 4278 031a 0FB60E   		movzbl	(%rsi), %ecx
 4279 031d 380A     		cmpb	%cl, (%rdx)
 4280 031f 0F94C1   		sete	%cl
 4281 0322 21C8     		andl	%ecx, %eax
 4282 0324 0FB64A03 		movzbl	3(%rdx), %ecx
 4283 0328 384E03   		cmpb	%cl, 3(%rsi)
 4284 032b 0F94C1   		sete	%cl
 4285 032e 21C8     		andl	%ecx, %eax
 4286 0330 0FB64A04 		movzbl	4(%rdx), %ecx
 4287 0334 384E04   		cmpb	%cl, 4(%rsi)
 4288 0337 0F94C1   		sete	%cl
 4289 033a 21C8     		andl	%ecx, %eax
 4290 033c 0FB64A05 		movzbl	5(%rdx), %ecx
 4291 0340 384E05   		cmpb	%cl, 5(%rsi)
 4292 0343 0F94C1   		sete	%cl
 4293 0346 21C8     		andl	%ecx, %eax
 4294 0348 0FB64A06 		movzbl	6(%rdx), %ecx
 4295 034c 384E06   		cmpb	%cl, 6(%rsi)
 4296 034f 0F94C1   		sete	%cl
 4297 0352 84C8     		testb	%cl, %al
 4298 0354 743A     		je	.L283
 4299 0356 0FB64207 		movzbl	7(%rdx), %eax
 4300 035a 384607   		cmpb	%al, 7(%rsi)
 4301 035d 7531     		jne	.L283
 4302              	.L263:
 4303 035f 488B8424 		movq	472(%rsp), %rax
 4303      D8010000 
 4304 0367 64482B04 		subq	%fs:40, %rax
 4304      25280000 
 4304      00
 4305 0370 0F853703 		jne	.L292
 4305      0000
 4306 0376 4881C4E8 		addq	$488, %rsp
 4306      010000
 4307              		.cfi_remember_state
 4308              		.cfi_def_cfa_offset 56
 4309 037d 5B       		popq	%rbx
 4310              		.cfi_def_cfa_offset 48
 4311 037e 5D       		popq	%rbp
 4312              		.cfi_def_cfa_offset 40
 4313 037f 415C     		popq	%r12
 4314              		.cfi_def_cfa_offset 32
 4315 0381 415D     		popq	%r13
 4316              		.cfi_def_cfa_offset 24
 4317 0383 415E     		popq	%r14
 4318              		.cfi_def_cfa_offset 16
 4319 0385 415F     		popq	%r15
 4320              		.cfi_def_cfa_offset 8
 4321 0387 C3       		ret
 4322 0388 0F1F8400 		.p2align 4,,10
 4322      00000000 
 4323              		.p2align 3
 4324              	.L283:
 4325              		.cfi_restore_state
 4326 0390 4C8DBC24 		leaq	208(%rsp), %r15
 4326      D0000000 
 4327 0398 4C89FF   		movq	%r15, %rdi
 4328 039b 4C897C24 		movq	%r15, 16(%rsp)
 4328      10
 4329 03a0 E8000000 		call	_ZNSt8ios_baseC2Ev@PLT
 4329      00
 4330 03a5 31C0     		xorl	%eax, %eax
 4331 03a7 660FEFC0 		pxor	%xmm0, %xmm0
 4332 03ab 31F6     		xorl	%esi, %esi
 4333 03ad 66898424 		movw	%ax, 432(%rsp)
 4333      B0010000 
 4334 03b5 488D0500 		leaq	24+_ZTCN8UnitTest15MemoryOutStreamE0_So(%rip), %rax
 4334      000000
 4335 03bc 4C89FF   		movq	%r15, %rdi
 4336 03bf 48894424 		movq	%rax, 64(%rsp)
 4336      40
 4337 03c4 4883C028 		addq	$40, %rax
 4338 03c8 48C78424 		movq	$0, 424(%rsp)
 4338      A8010000 
 4338      00000000 
 4339 03d4 48898424 		movq	%rax, 208(%rsp)
 4339      D0000000 
 4340 03dc 0F118424 		movups	%xmm0, 440(%rsp)
 4340      B8010000 
 4341 03e4 0F118424 		movups	%xmm0, 456(%rsp)
 4341      C8010000 
 4342              	.LEHB98:
 4343 03ec E8000000 		call	_ZNSt9basic_iosIcSt11char_traitsIcEE4initEPSt15basic_streambufIcS1_E@PLT
 4343      00
 4344              	.LEHE98:
 4345 03f1 F30F7E05 		movq	.LC2(%rip), %xmm0
 4345      00000000 
 4346 03f9 488D6C24 		leaq	64(%rsp), %rbp
 4346      40
 4347 03fe 4C8D6C24 		leaq	72(%rsp), %r13
 4347      48
 4348 0403 488D0500 		leaq	64+_ZTCN8UnitTest15MemoryOutStreamE0_NSt7__cxx1119basic_ostringstreamIcSt11char_traitsIcESaIc
 4348      000000
 4349 040a 0F160500 		movhps	.LC3(%rip), %xmm0
 4349      000000
 4350 0411 48898424 		movq	%rax, 208(%rsp)
 4350      D0000000 
 4351 0419 488D8424 		leaq	128(%rsp), %rax
 4351      80000000 
 4352 0421 4889C7   		movq	%rax, %rdi
 4353 0424 0F294424 		movaps	%xmm0, 64(%rsp)
 4353      40
 4354 0429 660FEFC0 		pxor	%xmm0, %xmm0
 4355 042d 48894424 		movq	%rax, 32(%rsp)
 4355      20
 4356 0432 0F294424 		movaps	%xmm0, 80(%rsp)
 4356      50
 4357 0437 0F294424 		movaps	%xmm0, 96(%rsp)
 4357      60
 4358 043c 0F294424 		movaps	%xmm0, 112(%rsp)
 4358      70
 4359 0441 E8000000 		call	_ZNSt6localeC1Ev@PLT
 4359      00
 4360 0446 488D0500 		leaq	16+_ZTVNSt7__cxx1115basic_stringbufIcSt11char_traitsIcESaIcEEE(%rip), %rax
 4360      000000
 4361 044d C68424A0 		movb	$0, 160(%rsp)
 4361      00000000 
 4362 0455 4C89EE   		movq	%r13, %rsi
 4363 0458 48894424 		movq	%rax, 72(%rsp)
 4363      48
 4364 045d 488D8424 		leaq	160(%rsp), %rax
 4364      A0000000 
 4365 0465 48894424 		movq	%rax, 40(%rsp)
 4365      28
 4366 046a 48898424 		movq	%rax, 144(%rsp)
 4366      90000000 
 4367 0472 488B4424 		movq	64(%rsp), %rax
 4367      40
 4368 0477 48C78424 		movq	$0, 152(%rsp)
 4368      98000000 
 4368      00000000 
 4369 0483 C7842488 		movl	$16, 136(%rsp)
 4369      00000010 
 4369      000000
 4370 048e 488B78E8 		movq	-24(%rax), %rdi
 4371 0492 4801EF   		addq	%rbp, %rdi
 4372              	.LEHB99:
 4373 0495 E8000000 		call	_ZNSt9basic_iosIcSt11char_traitsIcEE4initEPSt15basic_streambufIcS1_E@PLT
 4373      00
 4374              	.LEHE99:
 4375 049a 488D0500 		leaq	24+_ZTVN8UnitTest15MemoryOutStreamE(%rip), %rax
 4375      000000
 4376 04a1 BA0B0000 		movl	$11, %edx
 4376      00
 4377 04a6 4889EF   		movq	%rbp, %rdi
 4378 04a9 48C78424 		movq	$0, 184(%rsp)
 4378      B8000000 
 4378      00000000 
 4379 04b5 48894424 		movq	%rax, 64(%rsp)
 4379      40
 4380 04ba 4883C028 		addq	$40, %rax
 4381 04be 488D3500 		leaq	.LC6(%rip), %rsi
 4381      000000
 4382 04c5 48898424 		movq	%rax, 208(%rsp)
 4382      D0000000 
 4383 04cd 488D8424 		leaq	192(%rsp), %rax
 4383      C0000000 
 4384 04d5 48894424 		movq	%rax, 24(%rsp)
 4384      18
 4385 04da 48898424 		movq	%rax, 176(%rsp)
 4385      B0000000 
 4386 04e2 C68424C0 		movb	$0, 192(%rsp)
 4386      00000000 
 4387              	.LEHB100:
 4388 04ea E8000000 		call	_ZSt16__ostream_insertIcSt11char_traitsIcEERSt13basic_ostreamIT_T0_ES6_PKS3_l@PLT
 4388      00
 4389 04ef 4C8D7B08 		leaq	8(%rbx), %r15
 4390 04f3 4C8D2D00 		leaq	.LC7(%rip), %r13
 4390      000000
 4391 04fa EB2F     		jmp	.L272
 4392 04fc 0F1F4000 		.p2align 4,,10
 4393              		.p2align 3
 4394              	.L294:
 4395 0500 488D7424 		leaq	62(%rsp), %rsi
 4395      3E
 4396 0505 BA010000 		movl	$1, %edx
 4396      00
 4397 050a 4889EF   		movq	%rbp, %rdi
 4398 050d E8000000 		call	_ZSt16__ostream_insertIcSt11char_traitsIcEERSt13basic_ostreamIT_T0_ES6_PKS3_l@PLT
 4398      00
 4399 0512 4889C7   		movq	%rax, %rdi
 4400              	.L271:
 4401 0515 BA010000 		movl	$1, %edx
 4401      00
 4402 051a 4C89EE   		movq	%r13, %rsi
 4403 051d E8000000 		call	_ZSt16__ostream_insertIcSt11char_traitsIcEERSt13basic_ostreamIT_T0_ES6_PKS3_l@PLT
 4403      00
 4404 0522 4883C301 		addq	$1, %rbx
 4405 0526 4939DF   		cmpq	%rbx, %r15
 4406 0529 742D     		je	.L293
 4407              	.L272:
 4408 052b 488B4424 		movq	64(%rsp), %rax
 4408      40
 4409 0530 0FBE33   		movsbl	(%rbx), %esi
 4410 0533 488B40E8 		movq	-24(%rax), %rax
 4411 0537 40887424 		movb	%sil, 62(%rsp)
 4411      3E
 4412 053c 48837C04 		cmpq	$0, 80(%rsp,%rax)
 4412      5000
 4413 0542 75BC     		jne	.L294
 4414 0544 4889EF   		movq	%rbp, %rdi
 4415 0547 E8000000 		call	_ZNSo3putEc@PLT
 4415      00
 4416 054c 4889EF   		movq	%rbp, %rdi
 4417 054f EBC4     		jmp	.L271
 4418              		.p2align 4,,10
 4419 0551 0F1F8000 		.p2align 3
 4419      000000
 4420              	.L293:
 4421 0558 BA0C0000 		movl	$12, %edx
 4421      00
 4422 055d 488D3500 		leaq	.LC8(%rip), %rsi
 4422      000000
 4423 0564 4889EF   		movq	%rbp, %rdi
 4424 0567 E8000000 		call	_ZSt16__ostream_insertIcSt11char_traitsIcEERSt13basic_ostreamIT_T0_ES6_PKS3_l@PLT
 4424      00
 4425 056c 31DB     		xorl	%ebx, %ebx
 4426 056e 4C8D7C24 		leaq	63(%rsp), %r15
 4426      3F
 4427 0573 EB2D     		jmp	.L275
 4428              		.p2align 4,,10
 4429 0575 0F1F00   		.p2align 3
 4430              	.L296:
 4431 0578 BA010000 		movl	$1, %edx
 4431      00
 4432 057d 4C89FE   		movq	%r15, %rsi
 4433 0580 4889EF   		movq	%rbp, %rdi
 4434 0583 E8000000 		call	_ZSt16__ostream_insertIcSt11char_traitsIcEERSt13basic_ostreamIT_T0_ES6_PKS3_l@PLT
 4434      00
 4435 0588 4889C7   		movq	%rax, %rdi
 4436              	.L274:
 4437 058b BA010000 		movl	$1, %edx
 4437      00
 4438 0590 4C89EE   		movq	%r13, %rsi
 4439 0593 E8000000 		call	_ZSt16__ostream_insertIcSt11char_traitsIcEERSt13basic_ostreamIT_T0_ES6_PKS3_l@PLT
 4439      00
 4440 0598 4883C301 		addq	$1, %rbx
 4441 059c 4883FB08 		cmpq	$8, %rbx
 4442 05a0 742E     		je	.L295
 4443              	.L275:
 4444 05a2 498B0424 		movq	(%r12), %rax
 4445 05a6 0FBE3418 		movsbl	(%rax,%rbx), %esi
 4446 05aa 488B4424 		movq	64(%rsp), %rax
 4446      40
 4447 05af 488B40E8 		movq	-24(%rax), %rax
 4448 05b3 40887424 		movb	%sil, 63(%rsp)
 4448      3F
 4449 05b8 48837C04 		cmpq	$0, 80(%rsp,%rax)
 4449      5000
 4450 05be 75B8     		jne	.L296
 4451 05c0 4889EF   		movq	%rbp, %rdi
 4452 05c3 E8000000 		call	_ZNSo3putEc@PLT
 4452      00
 4453 05c8 4889EF   		movq	%rbp, %rdi
 4454 05cb EBBE     		jmp	.L274
 4455 05cd 0F1F00   		.p2align 4,,10
 4456              		.p2align 3
 4457              	.L295:
 4458 05d0 BA010000 		movl	$1, %edx
 4458      00
 4459 05d5 488D3500 		leaq	.LC9(%rip), %rsi
 4459      000000
 4460 05dc 4889EF   		movq	%rbp, %rdi
 4461 05df E8000000 		call	_ZSt16__ostream_insertIcSt11char_traitsIcEERSt13basic_ostreamIT_T0_ES6_PKS3_l@PLT
 4461      00
 4462 05e4 4889EF   		movq	%rbp, %rdi
 4463 05e7 E8000000 		call	_ZNK8UnitTest15MemoryOutStream7GetTextEv@PLT
 4463      00
 4464 05ec 488B3C24 		movq	(%rsp), %rdi
 4465 05f0 4889C2   		movq	%rax, %rdx
 4466 05f3 4C89F6   		movq	%r14, %rsi
 4467 05f6 E8000000 		call	_ZN8UnitTest11TestResults13OnTestFailureERKNS_11TestDetailsEPKc@PLT
 4467      00
 4468              	.LEHE100:
 4469 05fb 488D0500 		leaq	24+_ZTVN8UnitTest15MemoryOutStreamE(%rip), %rax
 4469      000000
 4470 0602 488BBC24 		movq	176(%rsp), %rdi
 4470      B0000000 
 4471 060a F30F7E05 		movq	.LC2(%rip), %xmm0
 4471      00000000 
 4472 0612 48894424 		movq	%rax, 64(%rsp)
 4472      40
 4473 0617 4883C028 		addq	$40, %rax
 4474 061b 48898424 		movq	%rax, 208(%rsp)
 4474      D0000000 
 4475 0623 488B4424 		movq	24(%rsp), %rax
 4475      18
 4476 0628 0F160500 		movhps	.LC4(%rip), %xmm0
 4476      000000
 4477 062f 4839C7   		cmpq	%rax, %rdi
 4478 0632 740E     		je	.L276
 4479 0634 0F290424 		movaps	%xmm0, (%rsp)
 4480 0638 E8000000 		call	_ZdlPv@PLT
 4480      00
 4481 063d 660F6F04 		movdqa	(%rsp), %xmm0
 4481      24
 4482              	.L276:
 4483 0642 488D0500 		leaq	64+_ZTCN8UnitTest15MemoryOutStreamE0_NSt7__cxx1119basic_ostringstreamIcSt11char_traitsIcESaIc
 4483      000000
 4484 0649 488BBC24 		movq	144(%rsp), %rdi
 4484      90000000 
 4485 0651 0F294424 		movaps	%xmm0, 64(%rsp)
 4485      40
 4486 0656 48898424 		movq	%rax, 208(%rsp)
 4486      D0000000 
 4487 065e 488B4424 		movq	40(%rsp), %rax
 4487      28
 4488 0663 4839C7   		cmpq	%rax, %rdi
 4489 0666 7405     		je	.L277
 4490 0668 E8000000 		call	_ZdlPv@PLT
 4490      00
 4491              	.L277:
 4492 066d 488B7C24 		movq	32(%rsp), %rdi
 4492      20
 4493 0672 488D0500 		leaq	16+_ZTVSt15basic_streambufIcSt11char_traitsIcEE(%rip), %rax
 4493      000000
 4494 0679 48894424 		movq	%rax, 72(%rsp)
 4494      48
 4495 067e E8000000 		call	_ZNSt6localeD1Ev@PLT
 4495      00
 4496 0683 488D0500 		leaq	24+_ZTCN8UnitTest15MemoryOutStreamE0_So(%rip), %rax
 4496      000000
 4497 068a 488B7C24 		movq	16(%rsp), %rdi
 4497      10
 4498 068f 48894424 		movq	%rax, 64(%rsp)
 4498      40
 4499 0694 488D0500 		leaq	16+_ZTVSt9basic_iosIcSt11char_traitsIcEE(%rip), %rax
 4499      000000
 4500 069b 48898424 		movq	%rax, 208(%rsp)
 4500      D0000000 
 4501              	.LEHB101:
 4502 06a3 E8000000 		call	_ZNSt8ios_baseD2Ev@PLT
 4502      00
 4503              	.LEHE101:
 4504 06a8 E9B2FCFF 		jmp	.L263
 4504      FF
 4505              	.L292:
 4506 06ad E8000000 		call	__stack_chk_fail@PLT
 4506      00
 4507              	.L282:
 4508 06b2 F30F1EFA 		endbr64
 4509 06b6 4889C3   		movq	%rax, %rbx
 4510 06b9 E9000000 		jmp	.L267
 4510      00
 4511              	.L280:
 4512 06be F30F1EFA 		endbr64
 4513 06c2 4889C3   		movq	%rax, %rbx
 4514 06c5 E9000000 		jmp	.L278
 4514      00
 4515              	.L281:
 4516 06ca F30F1EFA 		endbr64
 4517 06ce 4889C3   		movq	%rax, %rbx
 4518 06d1 E9000000 		jmp	.L268
 4518      00
 4519              		.section	.gcc_except_table
 4520              	.LLSDA1674:
 4521 0027 FF       		.byte	0xff
 4522 0028 FF       		.byte	0xff
 4523 0029 01       		.byte	0x1
 4524 002a 18       		.uleb128 .LLSDACSE1674-.LLSDACSB1674
 4525              	.LLSDACSB1674:
 4526 002b 9C02     		.uleb128 .LEHB98-.LFB1674
 4527 002d 05       		.uleb128 .LEHE98-.LEHB98
 4528 002e FA07     		.uleb128 .L281-.LFB1674
 4529 0030 00       		.uleb128 0
 4530 0031 C503     		.uleb128 .LEHB99-.LFB1674
 4531 0033 05       		.uleb128 .LEHE99-.LEHB99
 4532 0034 E207     		.uleb128 .L282-.LFB1674
 4533 0036 00       		.uleb128 0
 4534 0037 9A04     		.uleb128 .LEHB100-.LFB1674
 4535 0039 9102     		.uleb128 .LEHE100-.LEHB100
 4536 003b EE07     		.uleb128 .L280-.LFB1674
 4537 003d 00       		.uleb128 0
 4538 003e D307     		.uleb128 .LEHB101-.LFB1674
 4539 0040 05       		.uleb128 .LEHE101-.LEHB101
 4540 0041 00       		.uleb128 0
 4541 0042 00       		.uleb128 0
 4542              	.LLSDACSE1674:
 4543              		.text
 4544              		.cfi_endproc
 4545              		.section	.text.unlikely
 4546              		.cfi_startproc
 4547              		.cfi_personality 0x9b,DW.ref.__gxx_personality_v0
 4548              		.cfi_lsda 0x1b,.LLSDAC1674
 4550              	_ZN8UnitTest15CheckArrayEqualIA8_hPhEEvRNS_11TestResultsERKT_RKT0_iRKNS_11TestDetailsE.constprop.0.
 4551              	.LFSB1674:
 4552              	.L267:
 4553              		.cfi_def_cfa_offset 544
 4554              		.cfi_offset 3, -56
 4555              		.cfi_offset 6, -48
 4556              		.cfi_offset 12, -40
 4557              		.cfi_offset 13, -32
 4558              		.cfi_offset 14, -24
 4559              		.cfi_offset 15, -16
 4560 003c 4C89EF   		movq	%r13, %rdi
 4561 003f E8000000 		call	_ZNSt7__cxx1115basic_stringbufIcSt11char_traitsIcESaIcEED1Ev
 4561      00
 4562 0044 488D0500 		leaq	24+_ZTCN8UnitTest15MemoryOutStreamE0_So(%rip), %rax
 4562      000000
 4563 004b 48894424 		movq	%rax, 64(%rsp)
 4563      40
 4564              	.L268:
 4565 0050 488B7C24 		movq	16(%rsp), %rdi
 4565      10
 4566 0055 488D0500 		leaq	16+_ZTVSt9basic_iosIcSt11char_traitsIcEE(%rip), %rax
 4566      000000
 4567 005c 48898424 		movq	%rax, 208(%rsp)
 4567      D0000000 
 4568 0064 E8000000 		call	_ZNSt8ios_baseD2Ev@PLT
 4568      00
 4569 0069 4889DF   		movq	%rbx, %rdi
 4570              	.LEHB102:
 4571 006c E8000000 		call	_Unwind_Resume@PLT
 4571      00
 4572              	.LEHE102:
 4573              	.L278:
 4574 0071 4889EF   		movq	%rbp, %rdi
 4575 0074 E8000000 		call	_ZN8UnitTest15MemoryOutStreamD1Ev
 4575      00
 4576 0079 4889DF   		movq	%rbx, %rdi
 4577              	.LEHB103:
 4578 007c E8000000 		call	_Unwind_Resume@PLT
 4578      00
 4579              	.LEHE103:
 4580              		.cfi_endproc
 4581              	.LFE1674:
 4582              		.section	.gcc_except_table
 4583              	.LLSDAC1674:
 4584 0043 FF       		.byte	0xff
 4585 0044 FF       		.byte	0xff
 4586 0045 01       		.byte	0x1
 4587 0046 08       		.uleb128 .LLSDACSEC1674-.LLSDACSBC1674
 4588              	.LLSDACSBC1674:
 4589 0047 30       		.uleb128 .LEHB102-.LCOLDB10
 4590 0048 05       		.uleb128 .LEHE102-.LEHB102
 4591 0049 00       		.uleb128 0
 4592 004a 00       		.uleb128 0
 4593 004b 40       		.uleb128 .LEHB103-.LCOLDB10
 4594 004c 05       		.uleb128 .LEHE103-.LEHB103
 4595 004d 00       		.uleb128 0
 4596 004e 00       		.uleb128 0
 4597              	.LLSDACSEC1674:
 4598              		.section	.text.unlikely
 4599              		.text
 4601              		.section	.text.unlikely
 4603              	.LCOLDE10:
 4604              		.text
 4605              	.LHOTE10:
 4606              		.section	.text.unlikely
 4607              	.LCOLDB11:
 4608              		.text
 4609              	.LHOTB11:
 4610 06d6 662E0F1F 		.p2align 4
 4610      84000000 
 4610      0000
 4612              	_ZN8UnitTest15CheckArrayEqualIA16_hPhEEvRNS_11TestResultsERKT_RKT0_iRKNS_11TestDetailsE.constprop.0
 4613              	.LFB1676:
 4614              		.cfi_startproc
 4615              		.cfi_personality 0x9b,DW.ref.__gxx_personality_v0
 4616              		.cfi_lsda 0x1b,.LLSDA1676
 4617 06e0 4157     		pushq	%r15
 4618              		.cfi_def_cfa_offset 16
 4619              		.cfi_offset 15, -16
 4620 06e2 4156     		pushq	%r14
 4621              		.cfi_def_cfa_offset 24
 4622              		.cfi_offset 14, -24
 4623 06e4 4989CE   		movq	%rcx, %r14
 4624 06e7 4155     		pushq	%r13
 4625              		.cfi_def_cfa_offset 32
 4626              		.cfi_offset 13, -32
 4627 06e9 4154     		pushq	%r12
 4628              		.cfi_def_cfa_offset 40
 4629              		.cfi_offset 12, -40
 4630 06eb 4989D4   		movq	%rdx, %r12
 4631 06ee 55       		pushq	%rbp
 4632              		.cfi_def_cfa_offset 48
 4633              		.cfi_offset 6, -48
 4634 06ef 53       		pushq	%rbx
 4635              		.cfi_def_cfa_offset 56
 4636              		.cfi_offset 3, -56
 4637 06f0 4889F3   		movq	%rsi, %rbx
 4638 06f3 4881ECE8 		subq	$488, %rsp
 4638      010000
 4639              		.cfi_def_cfa_offset 544
 4640 06fa 488B12   		movq	(%rdx), %rdx
 4641 06fd 48893C24 		movq	%rdi, (%rsp)
 4642 0701 0FB67E01 		movzbl	1(%rsi), %edi
 4643 0705 64488B04 		movq	%fs:40, %rax
 4643      25280000 
 4643      00
 4644 070e 48898424 		movq	%rax, 472(%rsp)
 4644      D8010000 
 4645 0716 31C0     		xorl	%eax, %eax
 4646 0718 0FB64602 		movzbl	2(%rsi), %eax
 4647 071c 384202   		cmpb	%al, 2(%rdx)
 4648 071f 0F94C0   		sete	%al
 4649 0722 40387A01 		cmpb	%dil, 1(%rdx)
 4650 0726 0FB67A03 		movzbl	3(%rdx), %edi
 4651 072a 0F94C1   		sete	%cl
 4652 072d 21C8     		andl	%ecx, %eax
 4653 072f 0FB60E   		movzbl	(%rsi), %ecx
 4654 0732 380A     		cmpb	%cl, (%rdx)
 4655 0734 0F94C1   		sete	%cl
 4656 0737 21C8     		andl	%ecx, %eax
 4657 0739 40387E03 		cmpb	%dil, 3(%rsi)
 4658 073d 0FB67A05 		movzbl	5(%rdx), %edi
 4659 0741 0F94C1   		sete	%cl
 4660 0744 21C8     		andl	%ecx, %eax
 4661 0746 0FB64A04 		movzbl	4(%rdx), %ecx
 4662 074a 384E04   		cmpb	%cl, 4(%rsi)
 4663 074d 0F94C1   		sete	%cl
 4664 0750 21C8     		andl	%ecx, %eax
 4665 0752 40387E05 		cmpb	%dil, 5(%rsi)
 4666 0756 0FB67E07 		movzbl	7(%rsi), %edi
 4667 075a 0F94C1   		sete	%cl
 4668 075d 21C8     		andl	%ecx, %eax
 4669 075f 0FB64A06 		movzbl	6(%rdx), %ecx
 4670 0763 384E06   		cmpb	%cl, 6(%rsi)
 4671 0766 0F94C1   		sete	%cl
 4672 0769 21C8     		andl	%ecx, %eax
 4673 076b 40387A07 		cmpb	%dil, 7(%rdx)
 4674 076f 0FB67A09 		movzbl	9(%rdx), %edi
 4675 0773 0F94C1   		sete	%cl
 4676 0776 21C8     		andl	%ecx, %eax
 4677 0778 0FB64A08 		movzbl	8(%rdx), %ecx
 4678 077c 384E08   		cmpb	%cl, 8(%rsi)
 4679 077f 0F94C1   		sete	%cl
 4680 0782 21C8     		andl	%ecx, %eax
 4681 0784 40387E09 		cmpb	%dil, 9(%rsi)
 4682 0788 0FB6720A 		movzbl	10(%rdx), %esi
 4683 078c 0F94C1   		sete	%cl
 4684 078f 21C8     		andl	%ecx, %eax
 4685 0791 4038730A 		cmpb	%sil, 10(%rbx)
 4686 0795 0FB67A0C 		movzbl	12(%rdx), %edi
 4687 0799 0F94C1   		sete	%cl
 4688 079c 0FB6720D 		movzbl	13(%rdx), %esi
 4689 07a0 21C8     		andl	%ecx, %eax
 4690 07a2 0FB64A0B 		movzbl	11(%rdx), %ecx
 4691 07a6 384B0B   		cmpb	%cl, 11(%rbx)
 4692 07a9 0F94C1   		sete	%cl
 4693 07ac 21C8     		andl	%ecx, %eax
 4694 07ae 40387B0C 		cmpb	%dil, 12(%rbx)
 4695 07b2 0F94C1   		sete	%cl
 4696 07b5 21C8     		andl	%ecx, %eax
 4697 07b7 4038730D 		cmpb	%sil, 13(%rbx)
 4698 07bb 0F94C1   		sete	%cl
 4699 07be 21C8     		andl	%ecx, %eax
 4700 07c0 0FB64A0E 		movzbl	14(%rdx), %ecx
 4701 07c4 384B0E   		cmpb	%cl, 14(%rbx)
 4702 07c7 0F94C1   		sete	%cl
 4703 07ca 84C8     		testb	%cl, %al
 4704 07cc 7432     		je	.L317
 4705 07ce 0FB6420F 		movzbl	15(%rdx), %eax
 4706 07d2 38430F   		cmpb	%al, 15(%rbx)
 4707 07d5 7529     		jne	.L317
 4708              	.L297:
 4709 07d7 488B8424 		movq	472(%rsp), %rax
 4709      D8010000 
 4710 07df 64482B04 		subq	%fs:40, %rax
 4710      25280000 
 4710      00
 4711 07e8 0F852F03 		jne	.L326
 4711      0000
 4712 07ee 4881C4E8 		addq	$488, %rsp
 4712      010000
 4713              		.cfi_remember_state
 4714              		.cfi_def_cfa_offset 56
 4715 07f5 5B       		popq	%rbx
 4716              		.cfi_def_cfa_offset 48
 4717 07f6 5D       		popq	%rbp
 4718              		.cfi_def_cfa_offset 40
 4719 07f7 415C     		popq	%r12
 4720              		.cfi_def_cfa_offset 32
 4721 07f9 415D     		popq	%r13
 4722              		.cfi_def_cfa_offset 24
 4723 07fb 415E     		popq	%r14
 4724              		.cfi_def_cfa_offset 16
 4725 07fd 415F     		popq	%r15
 4726              		.cfi_def_cfa_offset 8
 4727 07ff C3       		ret
 4728              		.p2align 4,,10
 4729              		.p2align 3
 4730              	.L317:
 4731              		.cfi_restore_state
 4732 0800 4C8DBC24 		leaq	208(%rsp), %r15
 4732      D0000000 
 4733 0808 4C89FF   		movq	%r15, %rdi
 4734 080b 4C897C24 		movq	%r15, 16(%rsp)
 4734      10
 4735 0810 E8000000 		call	_ZNSt8ios_baseC2Ev@PLT
 4735      00
 4736 0815 31C0     		xorl	%eax, %eax
 4737 0817 660FEFC0 		pxor	%xmm0, %xmm0
 4738 081b 31F6     		xorl	%esi, %esi
 4739 081d 66898424 		movw	%ax, 432(%rsp)
 4739      B0010000 
 4740 0825 488D0500 		leaq	24+_ZTCN8UnitTest15MemoryOutStreamE0_So(%rip), %rax
 4740      000000
 4741 082c 4C89FF   		movq	%r15, %rdi
 4742 082f 48894424 		movq	%rax, 64(%rsp)
 4742      40
 4743 0834 4883C028 		addq	$40, %rax
 4744 0838 48C78424 		movq	$0, 424(%rsp)
 4744      A8010000 
 4744      00000000 
 4745 0844 48898424 		movq	%rax, 208(%rsp)
 4745      D0000000 
 4746 084c 0F118424 		movups	%xmm0, 440(%rsp)
 4746      B8010000 
 4747 0854 0F118424 		movups	%xmm0, 456(%rsp)
 4747      C8010000 
 4748              	.LEHB104:
 4749 085c E8000000 		call	_ZNSt9basic_iosIcSt11char_traitsIcEE4initEPSt15basic_streambufIcS1_E@PLT
 4749      00
 4750              	.LEHE104:
 4751 0861 F30F7E05 		movq	.LC2(%rip), %xmm0
 4751      00000000 
 4752 0869 488D6C24 		leaq	64(%rsp), %rbp
 4752      40
 4753 086e 4C8D6C24 		leaq	72(%rsp), %r13
 4753      48
 4754 0873 488D0500 		leaq	64+_ZTCN8UnitTest15MemoryOutStreamE0_NSt7__cxx1119basic_ostringstreamIcSt11char_traitsIcESaIc
 4754      000000
 4755 087a 0F160500 		movhps	.LC3(%rip), %xmm0
 4755      000000
 4756 0881 48898424 		movq	%rax, 208(%rsp)
 4756      D0000000 
 4757 0889 488D8424 		leaq	128(%rsp), %rax
 4757      80000000 
 4758 0891 4889C7   		movq	%rax, %rdi
 4759 0894 0F294424 		movaps	%xmm0, 64(%rsp)
 4759      40
 4760 0899 660FEFC0 		pxor	%xmm0, %xmm0
 4761 089d 48894424 		movq	%rax, 24(%rsp)
 4761      18
 4762 08a2 0F294424 		movaps	%xmm0, 80(%rsp)
 4762      50
 4763 08a7 0F294424 		movaps	%xmm0, 96(%rsp)
 4763      60
 4764 08ac 0F294424 		movaps	%xmm0, 112(%rsp)
 4764      70
 4765 08b1 E8000000 		call	_ZNSt6localeC1Ev@PLT
 4765      00
 4766 08b6 488D0500 		leaq	16+_ZTVNSt7__cxx1115basic_stringbufIcSt11char_traitsIcESaIcEEE(%rip), %rax
 4766      000000
 4767 08bd C68424A0 		movb	$0, 160(%rsp)
 4767      00000000 
 4768 08c5 4C89EE   		movq	%r13, %rsi
 4769 08c8 48894424 		movq	%rax, 72(%rsp)
 4769      48
 4770 08cd 488D8424 		leaq	160(%rsp), %rax
 4770      A0000000 
 4771 08d5 48894424 		movq	%rax, 32(%rsp)
 4771      20
 4772 08da 48898424 		movq	%rax, 144(%rsp)
 4772      90000000 
 4773 08e2 488B4424 		movq	64(%rsp), %rax
 4773      40
 4774 08e7 48C78424 		movq	$0, 152(%rsp)
 4774      98000000 
 4774      00000000 
 4775 08f3 C7842488 		movl	$16, 136(%rsp)
 4775      00000010 
 4775      000000
 4776 08fe 488B78E8 		movq	-24(%rax), %rdi
 4777 0902 4801EF   		addq	%rbp, %rdi
 4778              	.LEHB105:
 4779 0905 E8000000 		call	_ZNSt9basic_iosIcSt11char_traitsIcEE4initEPSt15basic_streambufIcS1_E@PLT
 4779      00
 4780              	.LEHE105:
 4781 090a 488D0500 		leaq	24+_ZTVN8UnitTest15MemoryOutStreamE(%rip), %rax
 4781      000000
 4782 0911 BA0B0000 		movl	$11, %edx
 4782      00
 4783 0916 4889EF   		movq	%rbp, %rdi
 4784 0919 48C78424 		movq	$0, 184(%rsp)
 4784      B8000000 
 4784      00000000 
 4785 0925 48894424 		movq	%rax, 64(%rsp)
 4785      40
 4786 092a 4883C028 		addq	$40, %rax
 4787 092e 488D3500 		leaq	.LC6(%rip), %rsi
 4787      000000
 4788 0935 48898424 		movq	%rax, 208(%rsp)
 4788      D0000000 
 4789 093d 488D8424 		leaq	192(%rsp), %rax
 4789      C0000000 
 4790 0945 48894424 		movq	%rax, 40(%rsp)
 4790      28
 4791 094a 48898424 		movq	%rax, 176(%rsp)
 4791      B0000000 
 4792 0952 C68424C0 		movb	$0, 192(%rsp)
 4792      00000000 
 4793              	.LEHB106:
 4794 095a E8000000 		call	_ZSt16__ostream_insertIcSt11char_traitsIcEERSt13basic_ostreamIT_T0_ES6_PKS3_l@PLT
 4794      00
 4795 095f 4C8D7B10 		leaq	16(%rbx), %r15
 4796 0963 4C8D2D00 		leaq	.LC7(%rip), %r13
 4796      000000
 4797 096a EB2F     		jmp	.L306
 4798 096c 0F1F4000 		.p2align 4,,10
 4799              		.p2align 3
 4800              	.L328:
 4801 0970 488D7424 		leaq	62(%rsp), %rsi
 4801      3E
 4802 0975 BA010000 		movl	$1, %edx
 4802      00
 4803 097a 4889EF   		movq	%rbp, %rdi
 4804 097d E8000000 		call	_ZSt16__ostream_insertIcSt11char_traitsIcEERSt13basic_ostreamIT_T0_ES6_PKS3_l@PLT
 4804      00
 4805 0982 4889C7   		movq	%rax, %rdi
 4806              	.L305:
 4807 0985 BA010000 		movl	$1, %edx
 4807      00
 4808 098a 4C89EE   		movq	%r13, %rsi
 4809 098d E8000000 		call	_ZSt16__ostream_insertIcSt11char_traitsIcEERSt13basic_ostreamIT_T0_ES6_PKS3_l@PLT
 4809      00
 4810 0992 4883C301 		addq	$1, %rbx
 4811 0996 4939DF   		cmpq	%rbx, %r15
 4812 0999 742D     		je	.L327
 4813              	.L306:
 4814 099b 488B4424 		movq	64(%rsp), %rax
 4814      40
 4815 09a0 0FBE33   		movsbl	(%rbx), %esi
 4816 09a3 488B40E8 		movq	-24(%rax), %rax
 4817 09a7 40887424 		movb	%sil, 62(%rsp)
 4817      3E
 4818 09ac 48837C04 		cmpq	$0, 80(%rsp,%rax)
 4818      5000
 4819 09b2 75BC     		jne	.L328
 4820 09b4 4889EF   		movq	%rbp, %rdi
 4821 09b7 E8000000 		call	_ZNSo3putEc@PLT
 4821      00
 4822 09bc 4889EF   		movq	%rbp, %rdi
 4823 09bf EBC4     		jmp	.L305
 4824              		.p2align 4,,10
 4825 09c1 0F1F8000 		.p2align 3
 4825      000000
 4826              	.L327:
 4827 09c8 BA0C0000 		movl	$12, %edx
 4827      00
 4828 09cd 488D3500 		leaq	.LC8(%rip), %rsi
 4828      000000
 4829 09d4 4889EF   		movq	%rbp, %rdi
 4830 09d7 E8000000 		call	_ZSt16__ostream_insertIcSt11char_traitsIcEERSt13basic_ostreamIT_T0_ES6_PKS3_l@PLT
 4830      00
 4831 09dc 31DB     		xorl	%ebx, %ebx
 4832 09de 4C8D7C24 		leaq	63(%rsp), %r15
 4832      3F
 4833 09e3 EB2D     		jmp	.L309
 4834              		.p2align 4,,10
 4835 09e5 0F1F00   		.p2align 3
 4836              	.L330:
 4837 09e8 BA010000 		movl	$1, %edx
 4837      00
 4838 09ed 4C89FE   		movq	%r15, %rsi
 4839 09f0 4889EF   		movq	%rbp, %rdi
 4840 09f3 E8000000 		call	_ZSt16__ostream_insertIcSt11char_traitsIcEERSt13basic_ostreamIT_T0_ES6_PKS3_l@PLT
 4840      00
 4841 09f8 4889C7   		movq	%rax, %rdi
 4842              	.L308:
 4843 09fb BA010000 		movl	$1, %edx
 4843      00
 4844 0a00 4C89EE   		movq	%r13, %rsi
 4845 0a03 E8000000 		call	_ZSt16__ostream_insertIcSt11char_traitsIcEERSt13basic_ostreamIT_T0_ES6_PKS3_l@PLT
 4845      00
 4846 0a08 4883C301 		addq	$1, %rbx
 4847 0a0c 4883FB10 		cmpq	$16, %rbx
 4848 0a10 742E     		je	.L329
 4849              	.L309:
 4850 0a12 498B0424 		movq	(%r12), %rax
 4851 0a16 0FBE3418 		movsbl	(%rax,%rbx), %esi
 4852 0a1a 488B4424 		movq	64(%rsp), %rax
 4852      40
 4853 0a1f 488B40E8 		movq	-24(%rax), %rax
 4854 0a23 40887424 		movb	%sil, 63(%rsp)
 4854      3F
 4855 0a28 48837C04 		cmpq	$0, 80(%rsp,%rax)
 4855      5000
 4856 0a2e 75B8     		jne	.L330
 4857 0a30 4889EF   		movq	%rbp, %rdi
 4858 0a33 E8000000 		call	_ZNSo3putEc@PLT
 4858      00
 4859 0a38 4889EF   		movq	%rbp, %rdi
 4860 0a3b EBBE     		jmp	.L308
 4861 0a3d 0F1F00   		.p2align 4,,10
 4862              		.p2align 3
 4863              	.L329:
 4864 0a40 BA010000 		movl	$1, %edx
 4864      00
 4865 0a45 488D3500 		leaq	.LC9(%rip), %rsi
 4865      000000
 4866 0a4c 4889EF   		movq	%rbp, %rdi
 4867 0a4f E8000000 		call	_ZSt16__ostream_insertIcSt11char_traitsIcEERSt13basic_ostreamIT_T0_ES6_PKS3_l@PLT
 4867      00
 4868 0a54 4889EF   		movq	%rbp, %rdi
 4869 0a57 E8000000 		call	_ZNK8UnitTest15MemoryOutStream7GetTextEv@PLT
 4869      00
 4870 0a5c 488B3C24 		movq	(%rsp), %rdi
 4871 0a60 4889C2   		movq	%rax, %rdx
 4872 0a63 4C89F6   		movq	%r14, %rsi
 4873 0a66 E8000000 		call	_ZN8UnitTest11TestResults13OnTestFailureERKNS_11TestDetailsEPKc@PLT
 4873      00
 4874              	.LEHE106:
 4875 0a6b 488D0500 		leaq	24+_ZTVN8UnitTest15MemoryOutStreamE(%rip), %rax
 4875      000000
 4876 0a72 488BBC24 		movq	176(%rsp), %rdi
 4876      B0000000 
 4877 0a7a F30F7E05 		movq	.LC2(%rip), %xmm0
 4877      00000000 
 4878 0a82 48894424 		movq	%rax, 64(%rsp)
 4878      40
 4879 0a87 4883C028 		addq	$40, %rax
 4880 0a8b 48898424 		movq	%rax, 208(%rsp)
 4880      D0000000 
 4881 0a93 488B4424 		movq	40(%rsp), %rax
 4881      28
 4882 0a98 0F160500 		movhps	.LC4(%rip), %xmm0
 4882      000000
 4883 0a9f 4839C7   		cmpq	%rax, %rdi
 4884 0aa2 740E     		je	.L310
 4885 0aa4 0F290424 		movaps	%xmm0, (%rsp)
 4886 0aa8 E8000000 		call	_ZdlPv@PLT
 4886      00
 4887 0aad 660F6F04 		movdqa	(%rsp), %xmm0
 4887      24
 4888              	.L310:
 4889 0ab2 488D0500 		leaq	64+_ZTCN8UnitTest15MemoryOutStreamE0_NSt7__cxx1119basic_ostringstreamIcSt11char_traitsIcESaIc
 4889      000000
 4890 0ab9 488BBC24 		movq	144(%rsp), %rdi
 4890      90000000 
 4891 0ac1 0F294424 		movaps	%xmm0, 64(%rsp)
 4891      40
 4892 0ac6 48898424 		movq	%rax, 208(%rsp)
 4892      D0000000 
 4893 0ace 488B4424 		movq	32(%rsp), %rax
 4893      20
 4894 0ad3 4839C7   		cmpq	%rax, %rdi
 4895 0ad6 7405     		je	.L311
 4896 0ad8 E8000000 		call	_ZdlPv@PLT
 4896      00
 4897              	.L311:
 4898 0add 488B7C24 		movq	24(%rsp), %rdi
 4898      18
 4899 0ae2 488D0500 		leaq	16+_ZTVSt15basic_streambufIcSt11char_traitsIcEE(%rip), %rax
 4899      000000
 4900 0ae9 48894424 		movq	%rax, 72(%rsp)
 4900      48
 4901 0aee E8000000 		call	_ZNSt6localeD1Ev@PLT
 4901      00
 4902 0af3 488D0500 		leaq	24+_ZTCN8UnitTest15MemoryOutStreamE0_So(%rip), %rax
 4902      000000
 4903 0afa 488B7C24 		movq	16(%rsp), %rdi
 4903      10
 4904 0aff 48894424 		movq	%rax, 64(%rsp)
 4904      40
 4905 0b04 488D0500 		leaq	16+_ZTVSt9basic_iosIcSt11char_traitsIcEE(%rip), %rax
 4905      000000
 4906 0b0b 48898424 		movq	%rax, 208(%rsp)
 4906      D0000000 
 4907              	.LEHB107:
 4908 0b13 E8000000 		call	_ZNSt8ios_baseD2Ev@PLT
 4908      00
 4909              	.LEHE107:
 4910 0b18 E9BAFCFF 		jmp	.L297
 4910      FF
 4911              	.L326:
 4912 0b1d E8000000 		call	__stack_chk_fail@PLT
 4912      00
 4913              	.L316:
 4914 0b22 F30F1EFA 		endbr64
 4915 0b26 4889C3   		movq	%rax, %rbx
 4916 0b29 E9000000 		jmp	.L301
 4916      00
 4917              	.L314:
 4918 0b2e F30F1EFA 		endbr64
 4919 0b32 4889C3   		movq	%rax, %rbx
 4920 0b35 E9000000 		jmp	.L312
 4920      00
 4921              	.L315:
 4922 0b3a F30F1EFA 		endbr64
 4923 0b3e 4889C3   		movq	%rax, %rbx
 4924 0b41 E9000000 		jmp	.L302
 4924      00
 4925              		.section	.gcc_except_table
 4926              	.LLSDA1676:
 4927 004f FF       		.byte	0xff
 4928 0050 FF       		.byte	0xff
 4929 0051 01       		.byte	0x1
 4930 0052 18       		.uleb128 .LLSDACSE1676-.LLSDACSB1676
 4931              	.LLSDACSB1676:
 4932 0053 FC02     		.uleb128 .LEHB104-.LFB1676
 4933 0055 05       		.uleb128 .LEHE104-.LEHB104
 4934 0056 DA08     		.uleb128 .L315-.LFB1676
 4935 0058 00       		.uleb128 0
 4936 0059 A504     		.uleb128 .LEHB105-.LFB1676
 4937 005b 05       		.uleb128 .LEHE105-.LEHB105
 4938 005c C208     		.uleb128 .L316-.LFB1676
 4939 005e 00       		.uleb128 0
 4940 005f FA04     		.uleb128 .LEHB106-.LFB1676
 4941 0061 9102     		.uleb128 .LEHE106-.LEHB106
 4942 0063 CE08     		.uleb128 .L314-.LFB1676
 4943 0065 00       		.uleb128 0
 4944 0066 B308     		.uleb128 .LEHB107-.LFB1676
 4945 0068 05       		.uleb128 .LEHE107-.LEHB107
 4946 0069 00       		.uleb128 0
 4947 006a 00       		.uleb128 0
 4948              	.LLSDACSE1676:
 4949              		.text
 4950              		.cfi_endproc
 4951              		.section	.text.unlikely
 4952              		.cfi_startproc
 4953              		.cfi_personality 0x9b,DW.ref.__gxx_personality_v0
 4954              		.cfi_lsda 0x1b,.LLSDAC1676
 4956              	_ZN8UnitTest15CheckArrayEqualIA16_hPhEEvRNS_11TestResultsERKT_RKT0_iRKNS_11TestDetailsE.constprop.0
 4957              	.LFSB1676:
 4958              	.L301:
 4959              		.cfi_def_cfa_offset 544
 4960              		.cfi_offset 3, -56
 4961              		.cfi_offset 6, -48
 4962              		.cfi_offset 12, -40
 4963              		.cfi_offset 13, -32
 4964              		.cfi_offset 14, -24
 4965              		.cfi_offset 15, -16
 4966 0081 4C89EF   		movq	%r13, %rdi
 4967 0084 E8000000 		call	_ZNSt7__cxx1115basic_stringbufIcSt11char_traitsIcESaIcEED1Ev
 4967      00
 4968 0089 488D0500 		leaq	24+_ZTCN8UnitTest15MemoryOutStreamE0_So(%rip), %rax
 4968      000000
 4969 0090 48894424 		movq	%rax, 64(%rsp)
 4969      40
 4970              	.L302:
 4971 0095 488B7C24 		movq	16(%rsp), %rdi
 4971      10
 4972 009a 488D0500 		leaq	16+_ZTVSt9basic_iosIcSt11char_traitsIcEE(%rip), %rax
 4972      000000
 4973 00a1 48898424 		movq	%rax, 208(%rsp)
 4973      D0000000 
 4974 00a9 E8000000 		call	_ZNSt8ios_baseD2Ev@PLT
 4974      00
 4975 00ae 4889DF   		movq	%rbx, %rdi
 4976              	.LEHB108:
 4977 00b1 E8000000 		call	_Unwind_Resume@PLT
 4977      00
 4978              	.LEHE108:
 4979              	.L312:
 4980 00b6 4889EF   		movq	%rbp, %rdi
 4981 00b9 E8000000 		call	_ZN8UnitTest15MemoryOutStreamD1Ev
 4981      00
 4982 00be 4889DF   		movq	%rbx, %rdi
 4983              	.LEHB109:
 4984 00c1 E8000000 		call	_Unwind_Resume@PLT
 4984      00
 4985              	.LEHE109:
 4986              		.cfi_endproc
 4987              	.LFE1676:
 4988              		.section	.gcc_except_table
 4989              	.LLSDAC1676:
 4990 006b FF       		.byte	0xff
 4991 006c FF       		.byte	0xff
 4992 006d 01       		.byte	0x1
 4993 006e 08       		.uleb128 .LLSDACSEC1676-.LLSDACSBC1676
 4994              	.LLSDACSBC1676:
 4995 006f 30       		.uleb128 .LEHB108-.LCOLDB11
 4996 0070 05       		.uleb128 .LEHE108-.LEHB108
 4997 0071 00       		.uleb128 0
 4998 0072 00       		.uleb128 0
 4999 0073 40       		.uleb128 .LEHB109-.LCOLDB11
 5000 0074 05       		.uleb128 .LEHE109-.LEHB109
 5001 0075 00       		.uleb128 0
 5002 0076 00       		.uleb128 0
 5003              	.LLSDACSEC1676:
 5004              		.section	.text.unlikely
 5005              		.text
 5007              		.section	.text.unlikely
 5009              	.LCOLDE11:
 5010              		.text
 5011              	.LHOTE11:
 5012              		.section	.text._ZNSt7__cxx1115basic_stringbufIcSt11char_traitsIcESaIcEED0Ev,"axG",@progbits,_ZNSt7
 5013              		.align 2
 5014              		.p2align 4
 5015              		.weak	_ZNSt7__cxx1115basic_stringbufIcSt11char_traitsIcESaIcEED0Ev
 5017              	_ZNSt7__cxx1115basic_stringbufIcSt11char_traitsIcESaIcEED0Ev:
 5018              	.LFB1406:
 5019              		.cfi_startproc
 5020 0000 F30F1EFA 		endbr64
 5021 0004 488D0500 		leaq	16+_ZTVNSt7__cxx1115basic_stringbufIcSt11char_traitsIcESaIcEEE(%rip), %rax
 5021      000000
 5022 000b 53       		pushq	%rbx
 5023              		.cfi_def_cfa_offset 16
 5024              		.cfi_offset 3, -16
 5025 000c 4889FB   		movq	%rdi, %rbx
 5026 000f 488907   		movq	%rax, (%rdi)
 5027 0012 488B7F48 		movq	72(%rdi), %rdi
 5028 0016 488D4358 		leaq	88(%rbx), %rax
 5029 001a 4839C7   		cmpq	%rax, %rdi
 5030 001d 7405     		je	.L332
 5031 001f E8000000 		call	_ZdlPv@PLT
 5031      00
 5032              	.L332:
 5033 0024 488D0500 		leaq	16+_ZTVSt15basic_streambufIcSt11char_traitsIcEE(%rip), %rax
 5033      000000
 5034 002b 488D7B38 		leaq	56(%rbx), %rdi
 5035 002f 488903   		movq	%rax, (%rbx)
 5036 0032 E8000000 		call	_ZNSt6localeD1Ev@PLT
 5036      00
 5037 0037 4889DF   		movq	%rbx, %rdi
 5038 003a 5B       		popq	%rbx
 5039              		.cfi_def_cfa_offset 8
 5040 003b E9000000 		jmp	_ZdlPv@PLT
 5040      00
 5041              		.cfi_endproc
 5042              	.LFE1406:
 5044              		.section	.text._ZN8UnitTest10CheckEqualImjEEvRNS_11TestResultsERKT_RKT0_RKNS_11TestDetailsE,"axG",
 5045              		.p2align 4
 5046              		.weak	_ZN8UnitTest10CheckEqualImjEEvRNS_11TestResultsERKT_RKT0_RKNS_11TestDetailsE
 5048              	_ZN8UnitTest10CheckEqualImjEEvRNS_11TestResultsERKT_RKT0_RKNS_11TestDetailsE:
 5049              	.LFB1427:
 5050              		.cfi_startproc
 5051              		.cfi_personality 0x9b,DW.ref.__gxx_personality_v0
 5052              		.cfi_lsda 0x1b,.LLSDA1427
 5053 0000 F30F1EFA 		endbr64
 5054 0004 4157     		pushq	%r15
 5055              		.cfi_def_cfa_offset 16
 5056              		.cfi_offset 15, -16
 5057 0006 4156     		pushq	%r14
 5058              		.cfi_def_cfa_offset 24
 5059              		.cfi_offset 14, -24
 5060 0008 4155     		pushq	%r13
 5061              		.cfi_def_cfa_offset 32
 5062              		.cfi_offset 13, -32
 5063 000a 4154     		pushq	%r12
 5064              		.cfi_def_cfa_offset 40
 5065              		.cfi_offset 12, -40
 5066 000c 55       		pushq	%rbp
 5067              		.cfi_def_cfa_offset 48
 5068              		.cfi_offset 6, -48
 5069 000d 53       		pushq	%rbx
 5070              		.cfi_def_cfa_offset 56
 5071              		.cfi_offset 3, -56
 5072 000e 4881ECD8 		subq	$472, %rsp
 5072      010000
 5073              		.cfi_def_cfa_offset 528
 5074 0015 48893C24 		movq	%rdi, (%rsp)
 5075 0019 48894C24 		movq	%rcx, 8(%rsp)
 5075      08
 5076 001e 64488B04 		movq	%fs:40, %rax
 5076      25280000 
 5076      00
 5077 0027 48898424 		movq	%rax, 456(%rsp)
 5077      C8010000 
 5078 002f 31C0     		xorl	%eax, %eax
 5079 0031 8B02     		movl	(%rdx), %eax
 5080 0033 483906   		cmpq	%rax, (%rsi)
 5081 0036 7530     		jne	.L350
 5082              	.L334:
 5083 0038 488B8424 		movq	456(%rsp), %rax
 5083      C8010000 
 5084 0040 64482B04 		subq	%fs:40, %rax
 5084      25280000 
 5084      00
 5085 0049 0F855A02 		jne	.L351
 5085      0000
 5086 004f 4881C4D8 		addq	$472, %rsp
 5086      010000
 5087              		.cfi_remember_state
 5088              		.cfi_def_cfa_offset 56
 5089 0056 5B       		popq	%rbx
 5090              		.cfi_def_cfa_offset 48
 5091 0057 5D       		popq	%rbp
 5092              		.cfi_def_cfa_offset 40
 5093 0058 415C     		popq	%r12
 5094              		.cfi_def_cfa_offset 32
 5095 005a 415D     		popq	%r13
 5096              		.cfi_def_cfa_offset 24
 5097 005c 415E     		popq	%r14
 5098              		.cfi_def_cfa_offset 16
 5099 005e 415F     		popq	%r15
 5100              		.cfi_def_cfa_offset 8
 5101 0060 C3       		ret
 5102              		.p2align 4,,10
 5103 0061 0F1F8000 		.p2align 3
 5103      000000
 5104              	.L350:
 5105              		.cfi_restore_state
 5106 0068 4C8DB424 		leaq	192(%rsp), %r14
 5106      C0000000 
 5107 0070 4889F5   		movq	%rsi, %rbp
 5108 0073 4C8D3D00 		leaq	24+_ZTCN8UnitTest15MemoryOutStreamE0_So(%rip), %r15
 5108      000000
 5109 007a 4889D3   		movq	%rdx, %rbx
 5110 007d 4C89F7   		movq	%r14, %rdi
 5111 0080 E8000000 		call	_ZNSt8ios_baseC2Ev@PLT
 5111      00
 5112 0085 31C0     		xorl	%eax, %eax
 5113 0087 660FEFC0 		pxor	%xmm0, %xmm0
 5114 008b 31F6     		xorl	%esi, %esi
 5115 008d 66898424 		movw	%ax, 416(%rsp)
 5115      A0010000 
 5116 0095 4C89F7   		movq	%r14, %rdi
 5117 0098 498D4728 		leaq	40(%r15), %rax
 5118 009c 48C78424 		movq	$0, 408(%rsp)
 5118      98010000 
 5118      00000000 
 5119 00a8 4C897C24 		movq	%r15, 48(%rsp)
 5119      30
 5120 00ad 48898424 		movq	%rax, 192(%rsp)
 5120      C0000000 
 5121 00b5 0F118424 		movups	%xmm0, 424(%rsp)
 5121      A8010000 
 5122 00bd 0F118424 		movups	%xmm0, 440(%rsp)
 5122      B8010000 
 5123              	.LEHB110:
 5124 00c5 E8000000 		call	_ZNSt9basic_iosIcSt11char_traitsIcEE4initEPSt15basic_streambufIcS1_E@PLT
 5124      00
 5125              	.LEHE110:
 5126 00ca F30F7E05 		movq	.LC2(%rip), %xmm0
 5126      00000000 
 5127 00d2 4C8D6424 		leaq	48(%rsp), %r12
 5127      30
 5128 00d7 4C8D6C24 		leaq	56(%rsp), %r13
 5128      38
 5129 00dc 488D0500 		leaq	64+_ZTCN8UnitTest15MemoryOutStreamE0_NSt7__cxx1119basic_ostringstreamIcSt11char_traitsIcESaIc
 5129      000000
 5130 00e3 0F160500 		movhps	.LC3(%rip), %xmm0
 5130      000000
 5131 00ea 48898424 		movq	%rax, 192(%rsp)
 5131      C0000000 
 5132 00f2 488D4424 		leaq	112(%rsp), %rax
 5132      70
 5133 00f7 4889C7   		movq	%rax, %rdi
 5134 00fa 0F294424 		movaps	%xmm0, 48(%rsp)
 5134      30
 5135 00ff 660FEFC0 		pxor	%xmm0, %xmm0
 5136 0103 48894424 		movq	%rax, 40(%rsp)
 5136      28
 5137 0108 0F294424 		movaps	%xmm0, 64(%rsp)
 5137      40
 5138 010d 0F294424 		movaps	%xmm0, 80(%rsp)
 5138      50
 5139 0112 0F294424 		movaps	%xmm0, 96(%rsp)
 5139      60
 5140 0117 E8000000 		call	_ZNSt6localeC1Ev@PLT
 5140      00
 5141 011c 488D0500 		leaq	16+_ZTVNSt7__cxx1115basic_stringbufIcSt11char_traitsIcESaIcEEE(%rip), %rax
 5141      000000
 5142 0123 4C89EE   		movq	%r13, %rsi
 5143 0126 48C78424 		movq	$0, 136(%rsp)
 5143      88000000 
 5143      00000000 
 5144 0132 48894424 		movq	%rax, 56(%rsp)
 5144      38
 5145 0137 488D8424 		leaq	144(%rsp), %rax
 5145      90000000 
 5146 013f 48894424 		movq	%rax, 32(%rsp)
 5146      20
 5147 0144 48898424 		movq	%rax, 128(%rsp)
 5147      80000000 
 5148 014c 488B4424 		movq	48(%rsp), %rax
 5148      30
 5149 0151 C6842490 		movb	$0, 144(%rsp)
 5149      00000000 
 5150 0159 488B78E8 		movq	-24(%rax), %rdi
 5151 015d C7442478 		movl	$16, 120(%rsp)
 5151      10000000 
 5152 0165 4C01E7   		addq	%r12, %rdi
 5153              	.LEHB111:
 5154 0168 E8000000 		call	_ZNSt9basic_iosIcSt11char_traitsIcEE4initEPSt15basic_streambufIcS1_E@PLT
 5154      00
 5155              	.LEHE111:
 5156 016d 488D0500 		leaq	24+_ZTVN8UnitTest15MemoryOutStreamE(%rip), %rax
 5156      000000
 5157 0174 BA090000 		movl	$9, %edx
 5157      00
 5158 0179 4C89E7   		movq	%r12, %rdi
 5159 017c 48C78424 		movq	$0, 168(%rsp)
 5159      A8000000 
 5159      00000000 
 5160 0188 48894424 		movq	%rax, 48(%rsp)
 5160      30
 5161 018d 4C8DAC24 		leaq	176(%rsp), %r13
 5161      B0000000 
 5162 0195 4883C028 		addq	$40, %rax
 5163 0199 488D3500 		leaq	.LC0(%rip), %rsi
 5163      000000
 5164 01a0 48898424 		movq	%rax, 192(%rsp)
 5164      C0000000 
 5165 01a8 4C89AC24 		movq	%r13, 160(%rsp)
 5165      A0000000 
 5166 01b0 C68424B0 		movb	$0, 176(%rsp)
 5166      00000000 
 5167              	.LEHB112:
 5168 01b8 E8000000 		call	_ZSt16__ostream_insertIcSt11char_traitsIcEERSt13basic_ostreamIT_T0_ES6_PKS3_l@PLT
 5168      00
 5169 01bd 488B7500 		movq	0(%rbp), %rsi
 5170 01c1 4C89E7   		movq	%r12, %rdi
 5171 01c4 E8000000 		call	_ZNSo9_M_insertImEERSoT_@PLT
 5171      00
 5172 01c9 BA090000 		movl	$9, %edx
 5172      00
 5173 01ce 488D3500 		leaq	.LC1(%rip), %rsi
 5173      000000
 5174 01d5 4889C7   		movq	%rax, %rdi
 5175 01d8 4889C5   		movq	%rax, %rbp
 5176 01db E8000000 		call	_ZSt16__ostream_insertIcSt11char_traitsIcEERSt13basic_ostreamIT_T0_ES6_PKS3_l@PLT
 5176      00
 5177 01e0 8B33     		movl	(%rbx), %esi
 5178 01e2 4889EF   		movq	%rbp, %rdi
 5179 01e5 E8000000 		call	_ZNSo9_M_insertImEERSoT_@PLT
 5179      00
 5180 01ea 4C89E7   		movq	%r12, %rdi
 5181 01ed E8000000 		call	_ZNK8UnitTest15MemoryOutStream7GetTextEv@PLT
 5181      00
 5182 01f2 F30F7E0D 		movq	.LC2(%rip), %xmm1
 5182      00000000 
 5183 01fa 488B7424 		movq	8(%rsp), %rsi
 5183      08
 5184 01ff 4889C2   		movq	%rax, %rdx
 5185 0202 488B3C24 		movq	(%rsp), %rdi
 5186 0206 0F160D00 		movhps	.LC4(%rip), %xmm1
 5186      000000
 5187 020d 0F294C24 		movaps	%xmm1, 16(%rsp)
 5187      10
 5188 0212 E8000000 		call	_ZN8UnitTest11TestResults13OnTestFailureERKNS_11TestDetailsEPKc@PLT
 5188      00
 5189              	.LEHE112:
 5190 0217 488D0500 		leaq	24+_ZTVN8UnitTest15MemoryOutStreamE(%rip), %rax
 5190      000000
 5191 021e 488BBC24 		movq	160(%rsp), %rdi
 5191      A0000000 
 5192 0226 48894424 		movq	%rax, 48(%rsp)
 5192      30
 5193 022b 4883C028 		addq	$40, %rax
 5194 022f 48898424 		movq	%rax, 192(%rsp)
 5194      C0000000 
 5195 0237 4C39EF   		cmpq	%r13, %rdi
 5196 023a 7405     		je	.L340
 5197 023c E8000000 		call	_ZdlPv@PLT
 5197      00
 5198              	.L340:
 5199 0241 488D0500 		leaq	64+_ZTCN8UnitTest15MemoryOutStreamE0_NSt7__cxx1119basic_ostringstreamIcSt11char_traitsIcESaIc
 5199      000000
 5200 0248 660F6F54 		movdqa	16(%rsp), %xmm2
 5200      2410
 5201 024e 488BBC24 		movq	128(%rsp), %rdi
 5201      80000000 
 5202 0256 48898424 		movq	%rax, 192(%rsp)
 5202      C0000000 
 5203 025e 488B4424 		movq	32(%rsp), %rax
 5203      20
 5204 0263 0F295424 		movaps	%xmm2, 48(%rsp)
 5204      30
 5205 0268 4839C7   		cmpq	%rax, %rdi
 5206 026b 7405     		je	.L341
 5207 026d E8000000 		call	_ZdlPv@PLT
 5207      00
 5208              	.L341:
 5209 0272 488B7C24 		movq	40(%rsp), %rdi
 5209      28
 5210 0277 488D0500 		leaq	16+_ZTVSt15basic_streambufIcSt11char_traitsIcEE(%rip), %rax
 5210      000000
 5211 027e 48894424 		movq	%rax, 56(%rsp)
 5211      38
 5212 0283 E8000000 		call	_ZNSt6localeD1Ev@PLT
 5212      00
 5213 0288 488D0500 		leaq	16+_ZTVSt9basic_iosIcSt11char_traitsIcEE(%rip), %rax
 5213      000000
 5214 028f 4C89F7   		movq	%r14, %rdi
 5215 0292 4C897C24 		movq	%r15, 48(%rsp)
 5215      30
 5216 0297 48898424 		movq	%rax, 192(%rsp)
 5216      C0000000 
 5217              	.LEHB113:
 5218 029f E8000000 		call	_ZNSt8ios_baseD2Ev@PLT
 5218      00
 5219              	.LEHE113:
 5220 02a4 E98FFDFF 		jmp	.L334
 5220      FF
 5221              	.L351:
 5222 02a9 E8000000 		call	__stack_chk_fail@PLT
 5222      00
 5223              	.L345:
 5224 02ae F30F1EFA 		endbr64
 5225 02b2 4889C3   		movq	%rax, %rbx
 5226 02b5 EB1F     		jmp	.L338
 5227              	.L346:
 5228 02b7 F30F1EFA 		endbr64
 5229 02bb 4889C3   		movq	%rax, %rbx
 5230 02be EB09     		jmp	.L337
 5231              	.L344:
 5232 02c0 F30F1EFA 		endbr64
 5233 02c4 4889C3   		movq	%rax, %rbx
 5234 02c7 EB2C     		jmp	.L342
 5235              	.L337:
 5236 02c9 4C89EF   		movq	%r13, %rdi
 5237 02cc E8000000 		call	_ZNSt7__cxx1115basic_stringbufIcSt11char_traitsIcESaIcEED1Ev
 5237      00
 5238 02d1 4C897C24 		movq	%r15, 48(%rsp)
 5238      30
 5239              	.L338:
 5240 02d6 488D0500 		leaq	16+_ZTVSt9basic_iosIcSt11char_traitsIcEE(%rip), %rax
 5240      000000
 5241 02dd 4C89F7   		movq	%r14, %rdi
 5242 02e0 48898424 		movq	%rax, 192(%rsp)
 5242      C0000000 
 5243 02e8 E8000000 		call	_ZNSt8ios_baseD2Ev@PLT
 5243      00
 5244 02ed 4889DF   		movq	%rbx, %rdi
 5245              	.LEHB114:
 5246 02f0 E8000000 		call	_Unwind_Resume@PLT
 5246      00
 5247              	.LEHE114:
 5248              	.L342:
 5249 02f5 4C89E7   		movq	%r12, %rdi
 5250 02f8 E8000000 		call	_ZN8UnitTest15MemoryOutStreamD1Ev
 5250      00
 5251 02fd 4889DF   		movq	%rbx, %rdi
 5252              	.LEHB115:
 5253 0300 E8000000 		call	_Unwind_Resume@PLT
 5253      00
 5254              	.LEHE115:
 5255              		.cfi_endproc
 5256              	.LFE1427:
 5257              		.section	.gcc_except_table
 5258              	.LLSDA1427:
 5259 0077 FF       		.byte	0xff
 5260 0078 FF       		.byte	0xff
 5261 0079 01       		.byte	0x1
 5262 007a 21       		.uleb128 .LLSDACSE1427-.LLSDACSB1427
 5263              	.LLSDACSB1427:
 5264 007b C501     		.uleb128 .LEHB110-.LFB1427
 5265 007d 05       		.uleb128 .LEHE110-.LEHB110
 5266 007e AE05     		.uleb128 .L345-.LFB1427
 5267 0080 00       		.uleb128 0
 5268 0081 E802     		.uleb128 .LEHB111-.LFB1427
 5269 0083 05       		.uleb128 .LEHE111-.LEHB111
 5270 0084 B705     		.uleb128 .L346-.LFB1427
 5271 0086 00       		.uleb128 0
 5272 0087 B803     		.uleb128 .LEHB112-.LFB1427
 5273 0089 5F       		.uleb128 .LEHE112-.LEHB112
 5274 008a C005     		.uleb128 .L344-.LFB1427
 5275 008c 00       		.uleb128 0
 5276 008d 9F05     		.uleb128 .LEHB113-.LFB1427
 5277 008f 05       		.uleb128 .LEHE113-.LEHB113
 5278 0090 00       		.uleb128 0
 5279 0091 00       		.uleb128 0
 5280 0092 F005     		.uleb128 .LEHB114-.LFB1427
 5281 0094 05       		.uleb128 .LEHE114-.LEHB114
 5282 0095 00       		.uleb128 0
 5283 0096 00       		.uleb128 0
 5284 0097 8006     		.uleb128 .LEHB115-.LFB1427
 5285 0099 05       		.uleb128 .LEHE115-.LEHB115
 5286 009a 00       		.uleb128 0
 5287 009b 00       		.uleb128 0
 5288              	.LLSDACSE1427:
 5289              		.section	.text._ZN8UnitTest10CheckEqualImjEEvRNS_11TestResultsERKT_RKT0_RKNS_11TestDetailsE,"axG",
 5291              		.section	.rodata.str1.8,"aMS",@progbits,1
 5292              		.align 8
 5293              	.LC12:
 5294 0000 556E6861 		.string	"Unhandled exception in CHECK_EQUAL(BUF_SUCCESS, status)"
 5294      6E646C65 
 5294      64206578 
 5294      63657074 
 5294      696F6E20 
 5295              		.align 8
 5296              	.LC13:
 5297 0038 556E6861 		.string	"Unhandled exception in CHECK_EQUAL(0x18000UL, buf.length)"
 5297      6E646C65 
 5297      64206578 
 5297      63657074 
 5297      696F6E20 
 5298 0072 00000000 		.align 8
 5298      0000
 5299              	.LC14:
 5300 0078 556E6861 		.string	"Unhandled exception in CHECK_EQUAL(0x20000UL, buf.capacity)"
 5300      6E646C65 
 5300      64206578 
 5300      63657074 
 5300      696F6E20 
 5301              		.section	.text.unlikely
 5302              		.align 2
 5303              	.LCOLDB15:
 5304              		.text
 5305              	.LHOTB15:
 5306              		.align 2
 5307 0b46 662E0F1F 		.p2align 4
 5307      84000000 
 5307      0000
 5308              		.globl	_ZNK28TestCore_testHugeAppendConst7RunImplEv
 5310              	_ZNK28TestCore_testHugeAppendConst7RunImplEv:
 5311              	.LFB1302:
 5312              		.cfi_startproc
 5313              		.cfi_personality 0x9b,DW.ref.__gxx_personality_v0
 5314              		.cfi_lsda 0x1b,.LLSDA1302
 5315 0b50 F30F1EFA 		endbr64
 5316 0b54 4154     		pushq	%r12
 5317              		.cfi_def_cfa_offset 16
 5318              		.cfi_offset 12, -16
 5319 0b56 31C9     		xorl	%ecx, %ecx
 5320 0b58 31D2     		xorl	%edx, %edx
 5321 0b5a BE040000 		movl	$4, %esi
 5321      00
 5322 0b5f 55       		pushq	%rbp
 5323              		.cfi_def_cfa_offset 24
 5324              		.cfi_offset 6, -24
 5325 0b60 53       		pushq	%rbx
 5326              		.cfi_def_cfa_offset 32
 5327              		.cfi_offset 3, -32
 5328 0b61 4883EC60 		subq	$96, %rsp
 5329              		.cfi_def_cfa_offset 128
 5330 0b65 64488B04 		movq	%fs:40, %rax
 5330      25280000 
 5330      00
 5331 0b6e 48894424 		movq	%rax, 88(%rsp)
 5331      58
 5332 0b73 31C0     		xorl	%eax, %eax
 5333 0b75 488D6C24 		leaq	16(%rsp), %rbp
 5333      10
 5334 0b7a 4889EF   		movq	%rbp, %rdi
 5335              	.LEHB116:
 5336 0b7d E8000000 		call	bufInitialise@PLT
 5336      00
 5337              	.LEHE116:
 5338 0b82 89442404 		movl	%eax, 4(%rsp)
 5339              	.LEHB117:
 5340 0b86 E8000000 		call	_ZN8UnitTest11CurrentTest7DetailsEv@PLT
 5340      00
 5341 0b8b 488D5C24 		leaq	48(%rsp), %rbx
 5341      30
 5342 0b90 488B30   		movq	(%rax), %rsi
 5343 0b93 BA840100 		movl	$388, %edx
 5343      00
 5344 0b98 4889DF   		movq	%rbx, %rdi
 5345 0b9b E8000000 		call	_ZN8UnitTest11TestDetailsC1ERKS0_i@PLT
 5345      00
 5346 0ba0 C7442408 		movl	$0, 8(%rsp)
 5346      00000000 
 5347 0ba8 E8000000 		call	_ZN8UnitTest11CurrentTest7ResultsEv@PLT
 5347      00
 5348 0bad 488B38   		movq	(%rax), %rdi
 5349 0bb0 488D5424 		leaq	4(%rsp), %rdx
 5349      04
 5350 0bb5 488D7424 		leaq	8(%rsp), %rsi
 5350      08
 5351 0bba 4889D9   		movq	%rbx, %rcx
 5352 0bbd E83EF4FF 		call	_ZN8UnitTest10CheckEqualI12BufferStatusS1_EEvRNS_11TestResultsERKT_RKT0_RKNS_11TestDetailsE.c
 5352      FF
 5353              	.LEHE117:
 5354              	.L354:
 5355 0bc2 31C9     		xorl	%ecx, %ecx
 5356 0bc4 BA008001 		movl	$98304, %edx
 5356      00
 5357 0bc9 BE090000 		movl	$9, %esi
 5357      00
 5358 0bce 4889EF   		movq	%rbp, %rdi
 5359              	.LEHB118:
 5360 0bd1 E8000000 		call	bufAppendConst@PLT
 5360      00
 5361              	.LEHE118:
 5362 0bd6 89442404 		movl	%eax, 4(%rsp)
 5363              	.LEHB119:
 5364 0bda E8000000 		call	_ZN8UnitTest11CurrentTest7DetailsEv@PLT
 5364      00
 5365 0bdf 488B30   		movq	(%rax), %rsi
 5366 0be2 BA860100 		movl	$390, %edx
 5366      00
 5367 0be7 4889DF   		movq	%rbx, %rdi
 5368 0bea E8000000 		call	_ZN8UnitTest11TestDetailsC1ERKS0_i@PLT
 5368      00
 5369 0bef C7442408 		movl	$0, 8(%rsp)
 5369      00000000 
 5370 0bf7 E8000000 		call	_ZN8UnitTest11CurrentTest7ResultsEv@PLT
 5370      00
 5371 0bfc 488B38   		movq	(%rax), %rdi
 5372 0bff 488D5424 		leaq	4(%rsp), %rdx
 5372      04
 5373 0c04 488D7424 		leaq	8(%rsp), %rsi
 5373      08
 5374 0c09 4889D9   		movq	%rbx, %rcx
 5375 0c0c E8EFF3FF 		call	_ZN8UnitTest10CheckEqualI12BufferStatusS1_EEvRNS_11TestResultsERKT_RKT0_RKNS_11TestDetailsE.c
 5375      FF
 5376              	.LEHE119:
 5377              	.L357:
 5378              	.LEHB120:
 5379 0c11 E8000000 		call	_ZN8UnitTest11CurrentTest7DetailsEv@PLT
 5379      00
 5380 0c16 488B30   		movq	(%rax), %rsi
 5381 0c19 BA870100 		movl	$391, %edx
 5381      00
 5382 0c1e 4889DF   		movq	%rbx, %rdi
 5383 0c21 E8000000 		call	_ZN8UnitTest11TestDetailsC1ERKS0_i@PLT
 5383      00
 5384 0c26 48C74424 		movq	$98304, 8(%rsp)
 5384      08008001 
 5384      00
 5385 0c2f E8000000 		call	_ZN8UnitTest11CurrentTest7ResultsEv@PLT
 5385      00
 5386 0c34 488B38   		movq	(%rax), %rdi
 5387 0c37 488D5424 		leaq	24(%rsp), %rdx
 5387      18
 5388 0c3c 488D7424 		leaq	8(%rsp), %rsi
 5388      08
 5389 0c41 4889D9   		movq	%rbx, %rcx
 5390 0c44 E8000000 		call	_ZN8UnitTest10CheckEqualImjEEvRNS_11TestResultsERKT_RKT0_RKNS_11TestDetailsE
 5390      00
 5391              	.LEHE120:
 5392              	.L360:
 5393              	.LEHB121:
 5394 0c49 E8000000 		call	_ZN8UnitTest11CurrentTest7DetailsEv@PLT
 5394      00
 5395 0c4e 488B30   		movq	(%rax), %rsi
 5396 0c51 BA880100 		movl	$392, %edx
 5396      00
 5397 0c56 4889DF   		movq	%rbx, %rdi
 5398 0c59 E8000000 		call	_ZN8UnitTest11TestDetailsC1ERKS0_i@PLT
 5398      00
 5399 0c5e 48C74424 		movq	$131072, 8(%rsp)
 5399      08000002 
 5399      00
 5400 0c67 E8000000 		call	_ZN8UnitTest11CurrentTest7ResultsEv@PLT
 5400      00
 5401 0c6c 488B38   		movq	(%rax), %rdi
 5402 0c6f 488D5424 		leaq	28(%rsp), %rdx
 5402      1C
 5403 0c74 488D7424 		leaq	8(%rsp), %rsi
 5403      08
 5404 0c79 4889D9   		movq	%rbx, %rcx
 5405 0c7c E8000000 		call	_ZN8UnitTest10CheckEqualImjEEvRNS_11TestResultsERKT_RKT0_RKNS_11TestDetailsE
 5405      00
 5406              	.LEHE121:
 5407              	.L363:
 5408 0c81 4889EF   		movq	%rbp, %rdi
 5409              	.LEHB122:
 5410 0c84 E8000000 		call	bufDestroy@PLT
 5410      00
 5411              	.LEHE122:
 5412 0c89 488B4424 		movq	88(%rsp), %rax
 5412      58
 5413 0c8e 64482B04 		subq	%fs:40, %rax
 5413      25280000 
 5413      00
 5414 0c97 7509     		jne	.L376
 5415 0c99 4883C460 		addq	$96, %rsp
 5416              		.cfi_remember_state
 5417              		.cfi_def_cfa_offset 32
 5418 0c9d 5B       		popq	%rbx
 5419              		.cfi_def_cfa_offset 24
 5420 0c9e 5D       		popq	%rbp
 5421              		.cfi_def_cfa_offset 16
 5422 0c9f 415C     		popq	%r12
 5423              		.cfi_def_cfa_offset 8
 5424 0ca1 C3       		ret
 5425              	.L376:
 5426              		.cfi_restore_state
 5427 0ca2 E8000000 		call	__stack_chk_fail@PLT
 5427      00
 5428              	.L372:
 5429 0ca7 F30F1EFA 		endbr64
 5430 0cab 4889C7   		movq	%rax, %rdi
 5431 0cae E9000000 		jmp	.L362
 5431      00
 5432              	.L370:
 5433 0cb3 F30F1EFA 		endbr64
 5434 0cb7 4889C7   		movq	%rax, %rdi
 5435 0cba E9000000 		jmp	.L359
 5435      00
 5436              	.L368:
 5437 0cbf F30F1EFA 		endbr64
 5438 0cc3 4889C7   		movq	%rax, %rdi
 5439 0cc6 E9000000 		jmp	.L356
 5439      00
 5440              	.L366:
 5441 0ccb F30F1EFA 		endbr64
 5442 0ccf 4889C7   		movq	%rax, %rdi
 5443 0cd2 E9000000 		jmp	.L353
 5443      00
 5444              		.section	.gcc_except_table
 5445              		.align 4
 5446              	.LLSDA1302:
 5447 009c FF       		.byte	0xff
 5448 009d 9B       		.byte	0x9b
 5449 009e 2D       		.uleb128 .LLSDATT1302-.LLSDATTD1302
 5450              	.LLSDATTD1302:
 5451 009f 01       		.byte	0x1
 5452 00a0 25       		.uleb128 .LLSDACSE1302-.LLSDACSB1302
 5453              	.LLSDACSB1302:
 5454 00a1 2D       		.uleb128 .LEHB116-.LFB1302
 5455 00a2 05       		.uleb128 .LEHE116-.LEHB116
 5456 00a3 00       		.uleb128 0
 5457 00a4 00       		.uleb128 0
 5458 00a5 36       		.uleb128 .LEHB117-.LFB1302
 5459 00a6 3C       		.uleb128 .LEHE117-.LEHB117
 5460 00a7 FB02     		.uleb128 .L366-.LFB1302
 5461 00a9 01       		.uleb128 0x1
 5462 00aa 8101     		.uleb128 .LEHB118-.LFB1302
 5463 00ac 05       		.uleb128 .LEHE118-.LEHB118
 5464 00ad 00       		.uleb128 0
 5465 00ae 00       		.uleb128 0
 5466 00af 8A01     		.uleb128 .LEHB119-.LFB1302
 5467 00b1 37       		.uleb128 .LEHE119-.LEHB119
 5468 00b2 EF02     		.uleb128 .L368-.LFB1302
 5469 00b4 01       		.uleb128 0x1
 5470 00b5 C101     		.uleb128 .LEHB120-.LFB1302
 5471 00b7 38       		.uleb128 .LEHE120-.LEHB120
 5472 00b8 E302     		.uleb128 .L370-.LFB1302
 5473 00ba 01       		.uleb128 0x1
 5474 00bb F901     		.uleb128 .LEHB121-.LFB1302
 5475 00bd 38       		.uleb128 .LEHE121-.LEHB121
 5476 00be D702     		.uleb128 .L372-.LFB1302
 5477 00c0 01       		.uleb128 0x1
 5478 00c1 B402     		.uleb128 .LEHB122-.LFB1302
 5479 00c3 05       		.uleb128 .LEHE122-.LEHB122
 5480 00c4 00       		.uleb128 0
 5481 00c5 00       		.uleb128 0
 5482              	.LLSDACSE1302:
 5483 00c6 01       		.byte	0x1
 5484 00c7 00       		.byte	0
 5485              		.align 4
 5486 00c8 00000000 		.long	0
 5487              	
 5488              	.LLSDATT1302:
 5489              		.text
