   1              		.file	"testConv.cpp"
   2              		.text
   3              		.section	.text._ZN30TestConv_testGetHexLowerNibbleD2Ev,"axG",@progbits,_ZN30TestConv_testGetHexLow
   4              		.align 2
   5              		.p2align 4
   6              		.weak	_ZN30TestConv_testGetHexLowerNibbleD2Ev
   8              	_ZN30TestConv_testGetHexLowerNibbleD2Ev:
   9              	.LFB1299:
  10              		.cfi_startproc
  11 0000 F30F1EFA 		endbr64
  12 0004 488D0500 		leaq	16+_ZTV30TestConv_testGetHexLowerNibble(%rip), %rax
  12      000000
  13 000b 488907   		movq	%rax, (%rdi)
  14 000e E9000000 		jmp	_ZN8UnitTest4TestD2Ev@PLT
  14      00
  15              		.cfi_endproc
  16              	.LFE1299:
  18              		.weak	_ZN30TestConv_testGetHexLowerNibbleD1Ev
  19              		.set	_ZN30TestConv_testGetHexLowerNibbleD1Ev,_ZN30TestConv_testGetHexLowerNibbleD2Ev
  20              		.section	.text._ZN30TestConv_testGetHexLowerNibbleD0Ev,"axG",@progbits,_ZN30TestConv_testGetHexLow
  21              		.align 2
  22              		.p2align 4
  23              		.weak	_ZN30TestConv_testGetHexLowerNibbleD0Ev
  25              	_ZN30TestConv_testGetHexLowerNibbleD0Ev:
  26              	.LFB1301:
  27              		.cfi_startproc
  28              		.cfi_personality 0x9b,DW.ref.__gxx_personality_v0
  29              		.cfi_lsda 0x1b,.LLSDA1301
  30 0000 F30F1EFA 		endbr64
  31 0004 55       		pushq	%rbp
  32              		.cfi_def_cfa_offset 16
  33              		.cfi_offset 6, -16
  34 0005 488D0500 		leaq	16+_ZTV30TestConv_testGetHexLowerNibble(%rip), %rax
  34      000000
  35 000c 53       		pushq	%rbx
  36              		.cfi_def_cfa_offset 24
  37              		.cfi_offset 3, -24
  38 000d 4889FB   		movq	%rdi, %rbx
  39 0010 4883EC08 		subq	$8, %rsp
  40              		.cfi_def_cfa_offset 32
  41 0014 488907   		movq	%rax, (%rdi)
  42              	.LEHB0:
  43 0017 E8000000 		call	_ZN8UnitTest4TestD2Ev@PLT
  43      00
  44              	.LEHE0:
  45 001c 4883C408 		addq	$8, %rsp
  46              		.cfi_remember_state
  47              		.cfi_def_cfa_offset 24
  48 0020 4889DF   		movq	%rbx, %rdi
  49 0023 5B       		popq	%rbx
  50              		.cfi_def_cfa_offset 16
  51 0024 5D       		popq	%rbp
  52              		.cfi_def_cfa_offset 8
  53 0025 E9000000 		jmp	_ZdlPv@PLT
  53      00
  54              	.L5:
  55              		.cfi_restore_state
  56 002a F30F1EFA 		endbr64
  57 002e 4889C5   		movq	%rax, %rbp
  58              	.L4:
  59 0031 4889DF   		movq	%rbx, %rdi
  60 0034 E8000000 		call	_ZdlPv@PLT
  60      00
  61 0039 4889EF   		movq	%rbp, %rdi
  62              	.LEHB1:
  63 003c E8000000 		call	_Unwind_Resume@PLT
  63      00
  64              	.LEHE1:
  65              		.cfi_endproc
  66              	.LFE1301:
  67              		.globl	__gxx_personality_v0
  68              		.section	.gcc_except_table._ZN30TestConv_testGetHexLowerNibbleD0Ev,"aG",@progbits,_ZN30TestConv_te
  69              	.LLSDA1301:
  70 0000 FF       		.byte	0xff
  71 0001 FF       		.byte	0xff
  72 0002 01       		.byte	0x1
  73 0003 08       		.uleb128 .LLSDACSE1301-.LLSDACSB1301
  74              	.LLSDACSB1301:
  75 0004 17       		.uleb128 .LEHB0-.LFB1301
  76 0005 05       		.uleb128 .LEHE0-.LEHB0
  77 0006 2A       		.uleb128 .L5-.LFB1301
  78 0007 00       		.uleb128 0
  79 0008 3C       		.uleb128 .LEHB1-.LFB1301
  80 0009 05       		.uleb128 .LEHE1-.LEHB1
  81 000a 00       		.uleb128 0
  82 000b 00       		.uleb128 0
  83              	.LLSDACSE1301:
  84              		.section	.text._ZN30TestConv_testGetHexLowerNibbleD0Ev,"axG",@progbits,_ZN30TestConv_testGetHexLow
  86              		.section	.text._ZN30TestConv_testGetHexUpperNibbleD2Ev,"axG",@progbits,_ZN30TestConv_testGetHexUpp
  87              		.align 2
  88              		.p2align 4
  89              		.weak	_ZN30TestConv_testGetHexUpperNibbleD2Ev
  91              	_ZN30TestConv_testGetHexUpperNibbleD2Ev:
  92              	.LFB1303:
  93              		.cfi_startproc
  94 0000 F30F1EFA 		endbr64
  95 0004 488D0500 		leaq	16+_ZTV30TestConv_testGetHexUpperNibble(%rip), %rax
  95      000000
  96 000b 488907   		movq	%rax, (%rdi)
  97 000e E9000000 		jmp	_ZN8UnitTest4TestD2Ev@PLT
  97      00
  98              		.cfi_endproc
  99              	.LFE1303:
 101              		.weak	_ZN30TestConv_testGetHexUpperNibbleD1Ev
 102              		.set	_ZN30TestConv_testGetHexUpperNibbleD1Ev,_ZN30TestConv_testGetHexUpperNibbleD2Ev
 103              		.section	.text._ZN30TestConv_testGetHexUpperNibbleD0Ev,"axG",@progbits,_ZN30TestConv_testGetHexUpp
 104              		.align 2
 105              		.p2align 4
 106              		.weak	_ZN30TestConv_testGetHexUpperNibbleD0Ev
 108              	_ZN30TestConv_testGetHexUpperNibbleD0Ev:
 109              	.LFB1305:
 110              		.cfi_startproc
 111              		.cfi_personality 0x9b,DW.ref.__gxx_personality_v0
 112              		.cfi_lsda 0x1b,.LLSDA1305
 113 0000 F30F1EFA 		endbr64
 114 0004 55       		pushq	%rbp
 115              		.cfi_def_cfa_offset 16
 116              		.cfi_offset 6, -16
 117 0005 488D0500 		leaq	16+_ZTV30TestConv_testGetHexUpperNibble(%rip), %rax
 117      000000
 118 000c 53       		pushq	%rbx
 119              		.cfi_def_cfa_offset 24
 120              		.cfi_offset 3, -24
 121 000d 4889FB   		movq	%rdi, %rbx
 122 0010 4883EC08 		subq	$8, %rsp
 123              		.cfi_def_cfa_offset 32
 124 0014 488907   		movq	%rax, (%rdi)
 125              	.LEHB2:
 126 0017 E8000000 		call	_ZN8UnitTest4TestD2Ev@PLT
 126      00
 127              	.LEHE2:
 128 001c 4883C408 		addq	$8, %rsp
 129              		.cfi_remember_state
 130              		.cfi_def_cfa_offset 24
 131 0020 4889DF   		movq	%rbx, %rdi
 132 0023 5B       		popq	%rbx
 133              		.cfi_def_cfa_offset 16
 134 0024 5D       		popq	%rbp
 135              		.cfi_def_cfa_offset 8
 136 0025 E9000000 		jmp	_ZdlPv@PLT
 136      00
 137              	.L10:
 138              		.cfi_restore_state
 139 002a F30F1EFA 		endbr64
 140 002e 4889C5   		movq	%rax, %rbp
 141              	.L9:
 142 0031 4889DF   		movq	%rbx, %rdi
 143 0034 E8000000 		call	_ZdlPv@PLT
 143      00
 144 0039 4889EF   		movq	%rbp, %rdi
 145              	.LEHB3:
 146 003c E8000000 		call	_Unwind_Resume@PLT
 146      00
 147              	.LEHE3:
 148              		.cfi_endproc
 149              	.LFE1305:
 150              		.section	.gcc_except_table._ZN30TestConv_testGetHexUpperNibbleD0Ev,"aG",@progbits,_ZN30TestConv_te
 151              	.LLSDA1305:
 152 0000 FF       		.byte	0xff
 153 0001 FF       		.byte	0xff
 154 0002 01       		.byte	0x1
 155 0003 08       		.uleb128 .LLSDACSE1305-.LLSDACSB1305
 156              	.LLSDACSB1305:
 157 0004 17       		.uleb128 .LEHB2-.LFB1305
 158 0005 05       		.uleb128 .LEHE2-.LEHB2
 159 0006 2A       		.uleb128 .L10-.LFB1305
 160 0007 00       		.uleb128 0
 161 0008 3C       		.uleb128 .LEHB3-.LFB1305
 162 0009 05       		.uleb128 .LEHE3-.LEHB3
 163 000a 00       		.uleb128 0
 164 000b 00       		.uleb128 0
 165              	.LLSDACSE1305:
 166              		.section	.text._ZN30TestConv_testGetHexUpperNibbleD0Ev,"axG",@progbits,_ZN30TestConv_testGetHexUpp
 168              		.section	.text._ZN23TestConv_testGetHexByteD2Ev,"axG",@progbits,_ZN23TestConv_testGetHexByteD5Ev,c
 169              		.align 2
 170              		.p2align 4
 171              		.weak	_ZN23TestConv_testGetHexByteD2Ev
 173              	_ZN23TestConv_testGetHexByteD2Ev:
 174              	.LFB1307:
 175              		.cfi_startproc
 176 0000 F30F1EFA 		endbr64
 177 0004 488D0500 		leaq	16+_ZTV23TestConv_testGetHexByte(%rip), %rax
 177      000000
 178 000b 488907   		movq	%rax, (%rdi)
 179 000e E9000000 		jmp	_ZN8UnitTest4TestD2Ev@PLT
 179      00
 180              		.cfi_endproc
 181              	.LFE1307:
 183              		.weak	_ZN23TestConv_testGetHexByteD1Ev
 184              		.set	_ZN23TestConv_testGetHexByteD1Ev,_ZN23TestConv_testGetHexByteD2Ev
 185              		.section	.text._ZN23TestConv_testGetHexByteD0Ev,"axG",@progbits,_ZN23TestConv_testGetHexByteD5Ev,c
 186              		.align 2
 187              		.p2align 4
 188              		.weak	_ZN23TestConv_testGetHexByteD0Ev
 190              	_ZN23TestConv_testGetHexByteD0Ev:
 191              	.LFB1309:
 192              		.cfi_startproc
 193              		.cfi_personality 0x9b,DW.ref.__gxx_personality_v0
 194              		.cfi_lsda 0x1b,.LLSDA1309
 195 0000 F30F1EFA 		endbr64
 196 0004 55       		pushq	%rbp
 197              		.cfi_def_cfa_offset 16
 198              		.cfi_offset 6, -16
 199 0005 488D0500 		leaq	16+_ZTV23TestConv_testGetHexByte(%rip), %rax
 199      000000
 200 000c 53       		pushq	%rbx
 201              		.cfi_def_cfa_offset 24
 202              		.cfi_offset 3, -24
 203 000d 4889FB   		movq	%rdi, %rbx
 204 0010 4883EC08 		subq	$8, %rsp
 205              		.cfi_def_cfa_offset 32
 206 0014 488907   		movq	%rax, (%rdi)
 207              	.LEHB4:
 208 0017 E8000000 		call	_ZN8UnitTest4TestD2Ev@PLT
 208      00
 209              	.LEHE4:
 210 001c 4883C408 		addq	$8, %rsp
 211              		.cfi_remember_state
 212              		.cfi_def_cfa_offset 24
 213 0020 4889DF   		movq	%rbx, %rdi
 214 0023 5B       		popq	%rbx
 215              		.cfi_def_cfa_offset 16
 216 0024 5D       		popq	%rbp
 217              		.cfi_def_cfa_offset 8
 218 0025 E9000000 		jmp	_ZdlPv@PLT
 218      00
 219              	.L15:
 220              		.cfi_restore_state
 221 002a F30F1EFA 		endbr64
 222 002e 4889C5   		movq	%rax, %rbp
 223              	.L14:
 224 0031 4889DF   		movq	%rbx, %rdi
 225 0034 E8000000 		call	_ZdlPv@PLT
 225      00
 226 0039 4889EF   		movq	%rbp, %rdi
 227              	.LEHB5:
 228 003c E8000000 		call	_Unwind_Resume@PLT
 228      00
 229              	.LEHE5:
 230              		.cfi_endproc
 231              	.LFE1309:
 232              		.section	.gcc_except_table._ZN23TestConv_testGetHexByteD0Ev,"aG",@progbits,_ZN23TestConv_testGetHe
 233              	.LLSDA1309:
 234 0000 FF       		.byte	0xff
 235 0001 FF       		.byte	0xff
 236 0002 01       		.byte	0x1
 237 0003 08       		.uleb128 .LLSDACSE1309-.LLSDACSB1309
 238              	.LLSDACSB1309:
 239 0004 17       		.uleb128 .LEHB4-.LFB1309
 240 0005 05       		.uleb128 .LEHE4-.LEHB4
 241 0006 2A       		.uleb128 .L15-.LFB1309
 242 0007 00       		.uleb128 0
 243 0008 3C       		.uleb128 .LEHB5-.LFB1309
 244 0009 05       		.uleb128 .LEHE5-.LEHB5
 245 000a 00       		.uleb128 0
 246 000b 00       		.uleb128 0
 247              	.LLSDACSE1309:
 248              		.section	.text._ZN23TestConv_testGetHexByteD0Ev,"axG",@progbits,_ZN23TestConv_testGetHexByteD5Ev,c
 250              		.section	.text._ZN25TestConv_testGetHexNibbleD2Ev,"axG",@progbits,_ZN25TestConv_testGetHexNibbleD5
 251              		.align 2
 252              		.p2align 4
 253              		.weak	_ZN25TestConv_testGetHexNibbleD2Ev
 255              	_ZN25TestConv_testGetHexNibbleD2Ev:
 256              	.LFB1311:
 257              		.cfi_startproc
 258 0000 F30F1EFA 		endbr64
 259 0004 488D0500 		leaq	16+_ZTV25TestConv_testGetHexNibble(%rip), %rax
 259      000000
 260 000b 488907   		movq	%rax, (%rdi)
 261 000e E9000000 		jmp	_ZN8UnitTest4TestD2Ev@PLT
 261      00
 262              		.cfi_endproc
 263              	.LFE1311:
 265              		.weak	_ZN25TestConv_testGetHexNibbleD1Ev
 266              		.set	_ZN25TestConv_testGetHexNibbleD1Ev,_ZN25TestConv_testGetHexNibbleD2Ev
 267              		.section	.text._ZN25TestConv_testGetHexNibbleD0Ev,"axG",@progbits,_ZN25TestConv_testGetHexNibbleD5
 268              		.align 2
 269              		.p2align 4
 270              		.weak	_ZN25TestConv_testGetHexNibbleD0Ev
 272              	_ZN25TestConv_testGetHexNibbleD0Ev:
 273              	.LFB1313:
 274              		.cfi_startproc
 275              		.cfi_personality 0x9b,DW.ref.__gxx_personality_v0
 276              		.cfi_lsda 0x1b,.LLSDA1313
 277 0000 F30F1EFA 		endbr64
 278 0004 55       		pushq	%rbp
 279              		.cfi_def_cfa_offset 16
 280              		.cfi_offset 6, -16
 281 0005 488D0500 		leaq	16+_ZTV25TestConv_testGetHexNibble(%rip), %rax
 281      000000
 282 000c 53       		pushq	%rbx
 283              		.cfi_def_cfa_offset 24
 284              		.cfi_offset 3, -24
 285 000d 4889FB   		movq	%rdi, %rbx
 286 0010 4883EC08 		subq	$8, %rsp
 287              		.cfi_def_cfa_offset 32
 288 0014 488907   		movq	%rax, (%rdi)
 289              	.LEHB6:
 290 0017 E8000000 		call	_ZN8UnitTest4TestD2Ev@PLT
 290      00
 291              	.LEHE6:
 292 001c 4883C408 		addq	$8, %rsp
 293              		.cfi_remember_state
 294              		.cfi_def_cfa_offset 24
 295 0020 4889DF   		movq	%rbx, %rdi
 296 0023 5B       		popq	%rbx
 297              		.cfi_def_cfa_offset 16
 298 0024 5D       		popq	%rbp
 299              		.cfi_def_cfa_offset 8
 300 0025 E9000000 		jmp	_ZdlPv@PLT
 300      00
 301              	.L20:
 302              		.cfi_restore_state
 303 002a F30F1EFA 		endbr64
 304 002e 4889C5   		movq	%rax, %rbp
 305              	.L19:
 306 0031 4889DF   		movq	%rbx, %rdi
 307 0034 E8000000 		call	_ZdlPv@PLT
 307      00
 308 0039 4889EF   		movq	%rbp, %rdi
 309              	.LEHB7:
 310 003c E8000000 		call	_Unwind_Resume@PLT
 310      00
 311              	.LEHE7:
 312              		.cfi_endproc
 313              	.LFE1313:
 314              		.section	.gcc_except_table._ZN25TestConv_testGetHexNibbleD0Ev,"aG",@progbits,_ZN25TestConv_testGet
 315              	.LLSDA1313:
 316 0000 FF       		.byte	0xff
 317 0001 FF       		.byte	0xff
 318 0002 01       		.byte	0x1
 319 0003 08       		.uleb128 .LLSDACSE1313-.LLSDACSB1313
 320              	.LLSDACSB1313:
 321 0004 17       		.uleb128 .LEHB6-.LFB1313
 322 0005 05       		.uleb128 .LEHE6-.LEHB6
 323 0006 2A       		.uleb128 .L20-.LFB1313
 324 0007 00       		.uleb128 0
 325 0008 3C       		.uleb128 .LEHB7-.LFB1313
 326 0009 05       		.uleb128 .LEHE7-.LEHB7
 327 000a 00       		.uleb128 0
 328 000b 00       		.uleb128 0
 329              	.LLSDACSE1313:
 330              		.section	.text._ZN25TestConv_testGetHexNibbleD0Ev,"axG",@progbits,_ZN25TestConv_testGetHexNibbleD5
 332              		.section	.text._ZN8UnitTest15MemoryOutStreamD1Ev,"axG",@progbits,_ZN8UnitTest15MemoryOutStreamD1Ev
 333              		.align 2
 334              		.p2align 4
 335              		.weak	_ZN8UnitTest15MemoryOutStreamD1Ev
 337              	_ZN8UnitTest15MemoryOutStreamD1Ev:
 338              	.LFB1238:
 339              		.cfi_startproc
 340 0000 F30F1EFA 		endbr64
 341 0004 488D0500 		leaq	24+_ZTVN8UnitTest15MemoryOutStreamE(%rip), %rax
 341      000000
 342 000b 53       		pushq	%rbx
 343              		.cfi_def_cfa_offset 16
 344              		.cfi_offset 3, -16
 345 000c 4889FB   		movq	%rdi, %rbx
 346 000f 488907   		movq	%rax, (%rdi)
 347 0012 4883C028 		addq	$40, %rax
 348 0016 48898790 		movq	%rax, 144(%rdi)
 348      000000
 349 001d 488B7F70 		movq	112(%rdi), %rdi
 350 0021 488D8380 		leaq	128(%rbx), %rax
 350      000000
 351 0028 4839C7   		cmpq	%rax, %rdi
 352 002b 7405     		je	.L23
 353 002d E8000000 		call	_ZdlPv@PLT
 353      00
 354              	.L23:
 355 0032 488D0500 		leaq	64+_ZTCN8UnitTest15MemoryOutStreamE0_NSt7__cxx1119basic_ostringstreamIcSt11char_traitsIcESaIc
 355      000000
 356 0039 488D1500 		leaq	24+_ZTCN8UnitTest15MemoryOutStreamE0_NSt7__cxx1119basic_ostringstreamIcSt11char_traitsIcESaIc
 356      000000
 357 0040 488B7B50 		movq	80(%rbx), %rdi
 358 0044 48898390 		movq	%rax, 144(%rbx)
 358      000000
 359 004b 488D0500 		leaq	16+_ZTVNSt7__cxx1115basic_stringbufIcSt11char_traitsIcESaIcEEE(%rip), %rax
 359      000000
 360 0052 66480F6E 		movq	%rdx, %xmm0
 360      C2
 361 0057 66480F6E 		movq	%rax, %xmm1
 361      C8
 362 005c 488D4360 		leaq	96(%rbx), %rax
 363 0060 660F6CC1 		punpcklqdq	%xmm1, %xmm0
 364 0064 0F1103   		movups	%xmm0, (%rbx)
 365 0067 4839C7   		cmpq	%rax, %rdi
 366 006a 7405     		je	.L24
 367 006c E8000000 		call	_ZdlPv@PLT
 367      00
 368              	.L24:
 369 0071 488D0500 		leaq	16+_ZTVSt15basic_streambufIcSt11char_traitsIcEE(%rip), %rax
 369      000000
 370 0078 488D7B40 		leaq	64(%rbx), %rdi
 371 007c 48894308 		movq	%rax, 8(%rbx)
 372 0080 E8000000 		call	_ZNSt6localeD1Ev@PLT
 372      00
 373 0085 488D0500 		leaq	24+_ZTCN8UnitTest15MemoryOutStreamE0_So(%rip), %rax
 373      000000
 374 008c 488DBB90 		leaq	144(%rbx), %rdi
 374      000000
 375 0093 488903   		movq	%rax, (%rbx)
 376 0096 488D0500 		leaq	16+_ZTVSt9basic_iosIcSt11char_traitsIcEE(%rip), %rax
 376      000000
 377 009d 48898390 		movq	%rax, 144(%rbx)
 377      000000
 378 00a4 5B       		popq	%rbx
 379              		.cfi_def_cfa_offset 8
 380 00a5 E9000000 		jmp	_ZNSt8ios_baseD2Ev@PLT
 380      00
 381              		.cfi_endproc
 382              	.LFE1238:
 384 00aa 660F1F44 		.p2align 4
 384      0000
 385              		.weak	_ZTv0_n24_N8UnitTest15MemoryOutStreamD1Ev
 387              	_ZTv0_n24_N8UnitTest15MemoryOutStreamD1Ev:
 388              	.LFB1318:
 389              		.cfi_startproc
 390 00b0 F30F1EFA 		endbr64
 391 00b4 53       		pushq	%rbx
 392              		.cfi_def_cfa_offset 16
 393              		.cfi_offset 3, -16
 394 00b5 488B07   		movq	(%rdi), %rax
 395 00b8 4889FB   		movq	%rdi, %rbx
 396 00bb 480358E8 		addq	-24(%rax), %rbx
 397 00bf 488D0500 		leaq	24+_ZTVN8UnitTest15MemoryOutStreamE(%rip), %rax
 397      000000
 398 00c6 488903   		movq	%rax, (%rbx)
 399 00c9 488B7B70 		movq	112(%rbx), %rdi
 400 00cd 4883C028 		addq	$40, %rax
 401 00d1 48898390 		movq	%rax, 144(%rbx)
 401      000000
 402 00d8 488D8380 		leaq	128(%rbx), %rax
 402      000000
 403 00df 4839C7   		cmpq	%rax, %rdi
 404 00e2 7405     		je	.L27
 405 00e4 E8000000 		call	_ZdlPv@PLT
 405      00
 406              	.L27:
 407 00e9 488D0500 		leaq	64+_ZTCN8UnitTest15MemoryOutStreamE0_NSt7__cxx1119basic_ostringstreamIcSt11char_traitsIcESaIc
 407      000000
 408 00f0 488D1500 		leaq	24+_ZTCN8UnitTest15MemoryOutStreamE0_NSt7__cxx1119basic_ostringstreamIcSt11char_traitsIcESaIc
 408      000000
 409 00f7 488B7B50 		movq	80(%rbx), %rdi
 410 00fb 48898390 		movq	%rax, 144(%rbx)
 410      000000
 411 0102 488D0500 		leaq	16+_ZTVNSt7__cxx1115basic_stringbufIcSt11char_traitsIcESaIcEEE(%rip), %rax
 411      000000
 412 0109 66480F6E 		movq	%rdx, %xmm0
 412      C2
 413 010e 66480F6E 		movq	%rax, %xmm1
 413      C8
 414 0113 488D4360 		leaq	96(%rbx), %rax
 415 0117 660F6CC1 		punpcklqdq	%xmm1, %xmm0
 416 011b 0F1103   		movups	%xmm0, (%rbx)
 417 011e 4839C7   		cmpq	%rax, %rdi
 418 0121 7405     		je	.L28
 419 0123 E8000000 		call	_ZdlPv@PLT
 419      00
 420              	.L28:
 421 0128 488D0500 		leaq	16+_ZTVSt15basic_streambufIcSt11char_traitsIcEE(%rip), %rax
 421      000000
 422 012f 488D7B40 		leaq	64(%rbx), %rdi
 423 0133 48894308 		movq	%rax, 8(%rbx)
 424 0137 E8000000 		call	_ZNSt6localeD1Ev@PLT
 424      00
 425 013c 488D0500 		leaq	24+_ZTCN8UnitTest15MemoryOutStreamE0_So(%rip), %rax
 425      000000
 426 0143 488DBB90 		leaq	144(%rbx), %rdi
 426      000000
 427 014a 488903   		movq	%rax, (%rbx)
 428 014d 488D0500 		leaq	16+_ZTVSt9basic_iosIcSt11char_traitsIcEE(%rip), %rax
 428      000000
 429 0154 48898390 		movq	%rax, 144(%rbx)
 429      000000
 430 015b 5B       		popq	%rbx
 431              		.cfi_def_cfa_offset 8
 432 015c E9000000 		jmp	_ZNSt8ios_baseD2Ev@PLT
 432      00
 433              		.cfi_endproc
 434              	.LFE1318:
 436              		.section	.text._ZN8UnitTest15MemoryOutStreamD0Ev,"axG",@progbits,_ZN8UnitTest15MemoryOutStreamD0Ev
 437              		.align 2
 438              		.p2align 4
 439              		.weak	_ZN8UnitTest15MemoryOutStreamD0Ev
 441              	_ZN8UnitTest15MemoryOutStreamD0Ev:
 442              	.LFB1239:
 443              		.cfi_startproc
 444              		.cfi_personality 0x9b,DW.ref.__gxx_personality_v0
 445              		.cfi_lsda 0x1b,.LLSDA1239
 446 0000 F30F1EFA 		endbr64
 447 0004 55       		pushq	%rbp
 448              		.cfi_def_cfa_offset 16
 449              		.cfi_offset 6, -16
 450 0005 488D0500 		leaq	24+_ZTVN8UnitTest15MemoryOutStreamE(%rip), %rax
 450      000000
 451 000c 53       		pushq	%rbx
 452              		.cfi_def_cfa_offset 24
 453              		.cfi_offset 3, -24
 454 000d 4889FB   		movq	%rdi, %rbx
 455 0010 4883EC08 		subq	$8, %rsp
 456              		.cfi_def_cfa_offset 32
 457 0014 488907   		movq	%rax, (%rdi)
 458 0017 4883C028 		addq	$40, %rax
 459 001b 48898790 		movq	%rax, 144(%rdi)
 459      000000
 460 0022 488B7F70 		movq	112(%rdi), %rdi
 461 0026 488D8380 		leaq	128(%rbx), %rax
 461      000000
 462 002d 4839C7   		cmpq	%rax, %rdi
 463 0030 7405     		je	.L31
 464 0032 E8000000 		call	_ZdlPv@PLT
 464      00
 465              	.L31:
 466 0037 488D0500 		leaq	64+_ZTCN8UnitTest15MemoryOutStreamE0_NSt7__cxx1119basic_ostringstreamIcSt11char_traitsIcESaIc
 466      000000
 467 003e 488D1500 		leaq	24+_ZTCN8UnitTest15MemoryOutStreamE0_NSt7__cxx1119basic_ostringstreamIcSt11char_traitsIcESaIc
 467      000000
 468 0045 488B7B50 		movq	80(%rbx), %rdi
 469 0049 48898390 		movq	%rax, 144(%rbx)
 469      000000
 470 0050 488D0500 		leaq	16+_ZTVNSt7__cxx1115basic_stringbufIcSt11char_traitsIcESaIcEEE(%rip), %rax
 470      000000
 471 0057 66480F6E 		movq	%rdx, %xmm0
 471      C2
 472 005c 66480F6E 		movq	%rax, %xmm1
 472      C8
 473 0061 488D4360 		leaq	96(%rbx), %rax
 474 0065 660F6CC1 		punpcklqdq	%xmm1, %xmm0
 475 0069 0F1103   		movups	%xmm0, (%rbx)
 476 006c 4839C7   		cmpq	%rax, %rdi
 477 006f 7405     		je	.L32
 478 0071 E8000000 		call	_ZdlPv@PLT
 478      00
 479              	.L32:
 480 0076 488D0500 		leaq	16+_ZTVSt15basic_streambufIcSt11char_traitsIcEE(%rip), %rax
 480      000000
 481 007d 488D7B40 		leaq	64(%rbx), %rdi
 482 0081 48894308 		movq	%rax, 8(%rbx)
 483 0085 E8000000 		call	_ZNSt6localeD1Ev@PLT
 483      00
 484 008a 488D0500 		leaq	24+_ZTCN8UnitTest15MemoryOutStreamE0_So(%rip), %rax
 484      000000
 485 0091 488DBB90 		leaq	144(%rbx), %rdi
 485      000000
 486 0098 488903   		movq	%rax, (%rbx)
 487 009b 488D0500 		leaq	16+_ZTVSt9basic_iosIcSt11char_traitsIcEE(%rip), %rax
 487      000000
 488 00a2 48898390 		movq	%rax, 144(%rbx)
 488      000000
 489              	.LEHB8:
 490 00a9 E8000000 		call	_ZNSt8ios_baseD2Ev@PLT
 490      00
 491              	.LEHE8:
 492 00ae 4883C408 		addq	$8, %rsp
 493              		.cfi_remember_state
 494              		.cfi_def_cfa_offset 24
 495 00b2 4889DF   		movq	%rbx, %rdi
 496 00b5 5B       		popq	%rbx
 497              		.cfi_def_cfa_offset 16
 498 00b6 5D       		popq	%rbp
 499              		.cfi_def_cfa_offset 8
 500 00b7 E9000000 		jmp	_ZdlPv@PLT
 500      00
 501              	.L34:
 502              		.cfi_restore_state
 503 00bc F30F1EFA 		endbr64
 504 00c0 4889C5   		movq	%rax, %rbp
 505              	.L33:
 506 00c3 4889DF   		movq	%rbx, %rdi
 507 00c6 E8000000 		call	_ZdlPv@PLT
 507      00
 508 00cb 4889EF   		movq	%rbp, %rdi
 509              	.LEHB9:
 510 00ce E8000000 		call	_Unwind_Resume@PLT
 510      00
 511              	.LEHE9:
 512              		.cfi_endproc
 513              	.LFE1239:
 514              		.section	.gcc_except_table._ZN8UnitTest15MemoryOutStreamD0Ev,"aG",@progbits,_ZN8UnitTest15MemoryOu
 515              	.LLSDA1239:
 516 0000 FF       		.byte	0xff
 517 0001 FF       		.byte	0xff
 518 0002 01       		.byte	0x1
 519 0003 0B       		.uleb128 .LLSDACSE1239-.LLSDACSB1239
 520              	.LLSDACSB1239:
 521 0004 A901     		.uleb128 .LEHB8-.LFB1239
 522 0006 05       		.uleb128 .LEHE8-.LEHB8
 523 0007 BC01     		.uleb128 .L34-.LFB1239
 524 0009 00       		.uleb128 0
 525 000a CE01     		.uleb128 .LEHB9-.LFB1239
 526 000c 05       		.uleb128 .LEHE9-.LEHB9
 527 000d 00       		.uleb128 0
 528 000e 00       		.uleb128 0
 529              	.LLSDACSE1239:
 530              		.section	.text._ZN8UnitTest15MemoryOutStreamD0Ev,"axG",@progbits,_ZN8UnitTest15MemoryOutStreamD0Ev
 532 00d3 66662E0F 		.p2align 4
 532      1F840000 
 532      00000066 
 532      90
 533              		.weak	_ZTv0_n24_N8UnitTest15MemoryOutStreamD0Ev
 535              	_ZTv0_n24_N8UnitTest15MemoryOutStreamD0Ev:
 536              	.LFB1317:
 537              		.cfi_startproc
 538              		.cfi_personality 0x9b,DW.ref.__gxx_personality_v0
 539              		.cfi_lsda 0x1b,.LLSDA1317
 540 00e0 F30F1EFA 		endbr64
 541 00e4 55       		pushq	%rbp
 542              		.cfi_def_cfa_offset 16
 543              		.cfi_offset 6, -16
 544 00e5 53       		pushq	%rbx
 545              		.cfi_def_cfa_offset 24
 546              		.cfi_offset 3, -24
 547 00e6 4889FB   		movq	%rdi, %rbx
 548 00e9 4883EC08 		subq	$8, %rsp
 549              		.cfi_def_cfa_offset 32
 550 00ed 488B07   		movq	(%rdi), %rax
 551 00f0 480358E8 		addq	-24(%rax), %rbx
 552 00f4 488D0500 		leaq	24+_ZTVN8UnitTest15MemoryOutStreamE(%rip), %rax
 552      000000
 553 00fb 488903   		movq	%rax, (%rbx)
 554 00fe 488B7B70 		movq	112(%rbx), %rdi
 555 0102 4883C028 		addq	$40, %rax
 556 0106 48898390 		movq	%rax, 144(%rbx)
 556      000000
 557 010d 488D8380 		leaq	128(%rbx), %rax
 557      000000
 558 0114 4839C7   		cmpq	%rax, %rdi
 559 0117 7405     		je	.L37
 560 0119 E8000000 		call	_ZdlPv@PLT
 560      00
 561              	.L37:
 562 011e 488D0500 		leaq	64+_ZTCN8UnitTest15MemoryOutStreamE0_NSt7__cxx1119basic_ostringstreamIcSt11char_traitsIcESaIc
 562      000000
 563 0125 488D1500 		leaq	24+_ZTCN8UnitTest15MemoryOutStreamE0_NSt7__cxx1119basic_ostringstreamIcSt11char_traitsIcESaIc
 563      000000
 564 012c 488B7B50 		movq	80(%rbx), %rdi
 565 0130 48898390 		movq	%rax, 144(%rbx)
 565      000000
 566 0137 488D0500 		leaq	16+_ZTVNSt7__cxx1115basic_stringbufIcSt11char_traitsIcESaIcEEE(%rip), %rax
 566      000000
 567 013e 66480F6E 		movq	%rdx, %xmm0
 567      C2
 568 0143 66480F6E 		movq	%rax, %xmm1
 568      C8
 569 0148 488D4360 		leaq	96(%rbx), %rax
 570 014c 660F6CC1 		punpcklqdq	%xmm1, %xmm0
 571 0150 0F1103   		movups	%xmm0, (%rbx)
 572 0153 4839C7   		cmpq	%rax, %rdi
 573 0156 7405     		je	.L38
 574 0158 E8000000 		call	_ZdlPv@PLT
 574      00
 575              	.L38:
 576 015d 488D0500 		leaq	16+_ZTVSt15basic_streambufIcSt11char_traitsIcEE(%rip), %rax
 576      000000
 577 0164 488D7B40 		leaq	64(%rbx), %rdi
 578 0168 48894308 		movq	%rax, 8(%rbx)
 579 016c E8000000 		call	_ZNSt6localeD1Ev@PLT
 579      00
 580 0171 488D0500 		leaq	24+_ZTCN8UnitTest15MemoryOutStreamE0_So(%rip), %rax
 580      000000
 581 0178 488DBB90 		leaq	144(%rbx), %rdi
 581      000000
 582 017f 488903   		movq	%rax, (%rbx)
 583 0182 488D0500 		leaq	16+_ZTVSt9basic_iosIcSt11char_traitsIcEE(%rip), %rax
 583      000000
 584 0189 48898390 		movq	%rax, 144(%rbx)
 584      000000
 585              	.LEHB10:
 586 0190 E8000000 		call	_ZNSt8ios_baseD2Ev@PLT
 586      00
 587              	.LEHE10:
 588 0195 4883C408 		addq	$8, %rsp
 589              		.cfi_remember_state
 590              		.cfi_def_cfa_offset 24
 591 0199 4889DF   		movq	%rbx, %rdi
 592 019c 5B       		popq	%rbx
 593              		.cfi_def_cfa_offset 16
 594 019d 5D       		popq	%rbp
 595              		.cfi_def_cfa_offset 8
 596 019e E9000000 		jmp	_ZdlPv@PLT
 596      00
 597              	.L40:
 598              		.cfi_restore_state
 599 01a3 F30F1EFA 		endbr64
 600 01a7 4889C5   		movq	%rax, %rbp
 601              	.L39:
 602 01aa 4889DF   		movq	%rbx, %rdi
 603 01ad E8000000 		call	_ZdlPv@PLT
 603      00
 604 01b2 4889EF   		movq	%rbp, %rdi
 605              	.LEHB11:
 606 01b5 E8000000 		call	_Unwind_Resume@PLT
 606      00
 607              	.LEHE11:
 608              		.cfi_endproc
 609              	.LFE1317:
 610              		.section	.gcc_except_table._ZTv0_n24_N8UnitTest15MemoryOutStreamD0Ev,"aG",@progbits,_ZN8UnitTest15
 611              	.LLSDA1317:
 612 0000 FF       		.byte	0xff
 613 0001 FF       		.byte	0xff
 614 0002 01       		.byte	0x1
 615 0003 0B       		.uleb128 .LLSDACSE1317-.LLSDACSB1317
 616              	.LLSDACSB1317:
 617 0004 B001     		.uleb128 .LEHB10-.LFB1317
 618 0006 05       		.uleb128 .LEHE10-.LEHB10
 619 0007 C301     		.uleb128 .L40-.LFB1317
 620 0009 00       		.uleb128 0
 621 000a D501     		.uleb128 .LEHB11-.LFB1317
 622 000c 05       		.uleb128 .LEHE11-.LEHB11
 623 000d 00       		.uleb128 0
 624 000e 00       		.uleb128 0
 625              	.LLSDACSE1317:
 626              		.section	.text._ZN8UnitTest15MemoryOutStreamD0Ev,"axG",@progbits,_ZN8UnitTest15MemoryOutStreamD0Ev
 628              		.section	.text._ZNSt7__cxx1115basic_stringbufIcSt11char_traitsIcESaIcEED2Ev,"axG",@progbits,_ZNSt7
 629              		.align 2
 630              		.p2align 4
 631              		.weak	_ZNSt7__cxx1115basic_stringbufIcSt11char_traitsIcESaIcEED2Ev
 633              	_ZNSt7__cxx1115basic_stringbufIcSt11char_traitsIcESaIcEED2Ev:
 634              	.LFB1217:
 635              		.cfi_startproc
 636 0000 F30F1EFA 		endbr64
 637 0004 488D0500 		leaq	16+_ZTVNSt7__cxx1115basic_stringbufIcSt11char_traitsIcESaIcEEE(%rip), %rax
 637      000000
 638 000b 53       		pushq	%rbx
 639              		.cfi_def_cfa_offset 16
 640              		.cfi_offset 3, -16
 641 000c 4889FB   		movq	%rdi, %rbx
 642 000f 488907   		movq	%rax, (%rdi)
 643 0012 488B7F48 		movq	72(%rdi), %rdi
 644 0016 488D4358 		leaq	88(%rbx), %rax
 645 001a 4839C7   		cmpq	%rax, %rdi
 646 001d 7405     		je	.L43
 647 001f E8000000 		call	_ZdlPv@PLT
 647      00
 648              	.L43:
 649 0024 488D0500 		leaq	16+_ZTVSt15basic_streambufIcSt11char_traitsIcEE(%rip), %rax
 649      000000
 650 002b 488D7B38 		leaq	56(%rbx), %rdi
 651 002f 488903   		movq	%rax, (%rbx)
 652 0032 5B       		popq	%rbx
 653              		.cfi_def_cfa_offset 8
 654 0033 E9000000 		jmp	_ZNSt6localeD1Ev@PLT
 654      00
 655              		.cfi_endproc
 656              	.LFE1217:
 658              		.weak	_ZNSt7__cxx1115basic_stringbufIcSt11char_traitsIcESaIcEED1Ev
 659              		.set	_ZNSt7__cxx1115basic_stringbufIcSt11char_traitsIcESaIcEED1Ev,_ZNSt7__cxx1115basic_stringbufIc
 660              		.section	.text._ZNSt7__cxx1115basic_stringbufIcSt11char_traitsIcESaIcEED0Ev,"axG",@progbits,_ZNSt7
 661              		.align 2
 662              		.p2align 4
 663              		.weak	_ZNSt7__cxx1115basic_stringbufIcSt11char_traitsIcESaIcEED0Ev
 665              	_ZNSt7__cxx1115basic_stringbufIcSt11char_traitsIcESaIcEED0Ev:
 666              	.LFB1219:
 667              		.cfi_startproc
 668 0000 F30F1EFA 		endbr64
 669 0004 488D0500 		leaq	16+_ZTVNSt7__cxx1115basic_stringbufIcSt11char_traitsIcESaIcEEE(%rip), %rax
 669      000000
 670 000b 53       		pushq	%rbx
 671              		.cfi_def_cfa_offset 16
 672              		.cfi_offset 3, -16
 673 000c 4889FB   		movq	%rdi, %rbx
 674 000f 488907   		movq	%rax, (%rdi)
 675 0012 488B7F48 		movq	72(%rdi), %rdi
 676 0016 488D4358 		leaq	88(%rbx), %rax
 677 001a 4839C7   		cmpq	%rax, %rdi
 678 001d 7405     		je	.L46
 679 001f E8000000 		call	_ZdlPv@PLT
 679      00
 680              	.L46:
 681 0024 488D0500 		leaq	16+_ZTVSt15basic_streambufIcSt11char_traitsIcEE(%rip), %rax
 681      000000
 682 002b 488D7B38 		leaq	56(%rbx), %rdi
 683 002f 488903   		movq	%rax, (%rbx)
 684 0032 E8000000 		call	_ZNSt6localeD1Ev@PLT
 684      00
 685 0037 4889DF   		movq	%rbx, %rdi
 686 003a 5B       		popq	%rbx
 687              		.cfi_def_cfa_offset 8
 688 003b E9000000 		jmp	_ZdlPv@PLT
 688      00
 689              		.cfi_endproc
 690              	.LFE1219:
 692              		.section	.rodata._ZN8UnitTest10CheckEqualIbbEEvRNS_11TestResultsERKT_RKT0_RKNS_11TestDetailsE.str1
 693              	.LC0:
 694 0000 45787065 		.string	"Expected "
 694      63746564 
 694      2000
 695              	.LC1:
 696 000a 20627574 		.string	" but was "
 696      20776173 
 696      2000
 697              		.section	.text._ZN8UnitTest10CheckEqualIbbEEvRNS_11TestResultsERKT_RKT0_RKNS_11TestDetailsE,"axG",
 698              		.p2align 4
 699              		.weak	_ZN8UnitTest10CheckEqualIbbEEvRNS_11TestResultsERKT_RKT0_RKNS_11TestDetailsE
 701              	_ZN8UnitTest10CheckEqualIbbEEvRNS_11TestResultsERKT_RKT0_RKNS_11TestDetailsE:
 702              	.LFB1235:
 703              		.cfi_startproc
 704              		.cfi_personality 0x9b,DW.ref.__gxx_personality_v0
 705              		.cfi_lsda 0x1b,.LLSDA1235
 706 0000 F30F1EFA 		endbr64
 707 0004 4157     		pushq	%r15
 708              		.cfi_def_cfa_offset 16
 709              		.cfi_offset 15, -16
 710 0006 4156     		pushq	%r14
 711              		.cfi_def_cfa_offset 24
 712              		.cfi_offset 14, -24
 713 0008 4155     		pushq	%r13
 714              		.cfi_def_cfa_offset 32
 715              		.cfi_offset 13, -32
 716 000a 4154     		pushq	%r12
 717              		.cfi_def_cfa_offset 40
 718              		.cfi_offset 12, -40
 719 000c 55       		pushq	%rbp
 720              		.cfi_def_cfa_offset 48
 721              		.cfi_offset 6, -48
 722 000d 53       		pushq	%rbx
 723              		.cfi_def_cfa_offset 56
 724              		.cfi_offset 3, -56
 725 000e 4881ECD8 		subq	$472, %rsp
 725      010000
 726              		.cfi_def_cfa_offset 528
 727 0015 48893C24 		movq	%rdi, (%rsp)
 728 0019 48894C24 		movq	%rcx, 8(%rsp)
 728      08
 729 001e 64488B04 		movq	%fs:40, %rax
 729      25280000 
 729      00
 730 0027 48898424 		movq	%rax, 456(%rsp)
 730      C8010000 
 731 002f 31C0     		xorl	%eax, %eax
 732 0031 0FB602   		movzbl	(%rdx), %eax
 733 0034 3806     		cmpb	%al, (%rsi)
 734 0036 7530     		jne	.L64
 735              	.L48:
 736 0038 488B8424 		movq	456(%rsp), %rax
 736      C8010000 
 737 0040 64482B04 		subq	%fs:40, %rax
 737      25280000 
 737      00
 738 0049 0F855B02 		jne	.L65
 738      0000
 739 004f 4881C4D8 		addq	$472, %rsp
 739      010000
 740              		.cfi_remember_state
 741              		.cfi_def_cfa_offset 56
 742 0056 5B       		popq	%rbx
 743              		.cfi_def_cfa_offset 48
 744 0057 5D       		popq	%rbp
 745              		.cfi_def_cfa_offset 40
 746 0058 415C     		popq	%r12
 747              		.cfi_def_cfa_offset 32
 748 005a 415D     		popq	%r13
 749              		.cfi_def_cfa_offset 24
 750 005c 415E     		popq	%r14
 751              		.cfi_def_cfa_offset 16
 752 005e 415F     		popq	%r15
 753              		.cfi_def_cfa_offset 8
 754 0060 C3       		ret
 755              		.p2align 4,,10
 756 0061 0F1F8000 		.p2align 3
 756      000000
 757              	.L64:
 758              		.cfi_restore_state
 759 0068 4C8DB424 		leaq	192(%rsp), %r14
 759      C0000000 
 760 0070 4889F5   		movq	%rsi, %rbp
 761 0073 4C8D3D00 		leaq	24+_ZTCN8UnitTest15MemoryOutStreamE0_So(%rip), %r15
 761      000000
 762 007a 4889D3   		movq	%rdx, %rbx
 763 007d 4C89F7   		movq	%r14, %rdi
 764 0080 E8000000 		call	_ZNSt8ios_baseC2Ev@PLT
 764      00
 765 0085 31C0     		xorl	%eax, %eax
 766 0087 660FEFC0 		pxor	%xmm0, %xmm0
 767 008b 31F6     		xorl	%esi, %esi
 768 008d 66898424 		movw	%ax, 416(%rsp)
 768      A0010000 
 769 0095 4C89F7   		movq	%r14, %rdi
 770 0098 498D4728 		leaq	40(%r15), %rax
 771 009c 48C78424 		movq	$0, 408(%rsp)
 771      98010000 
 771      00000000 
 772 00a8 4C897C24 		movq	%r15, 48(%rsp)
 772      30
 773 00ad 48898424 		movq	%rax, 192(%rsp)
 773      C0000000 
 774 00b5 0F118424 		movups	%xmm0, 424(%rsp)
 774      A8010000 
 775 00bd 0F118424 		movups	%xmm0, 440(%rsp)
 775      B8010000 
 776              	.LEHB12:
 777 00c5 E8000000 		call	_ZNSt9basic_iosIcSt11char_traitsIcEE4initEPSt15basic_streambufIcS1_E@PLT
 777      00
 778              	.LEHE12:
 779 00ca F30F7E05 		movq	.LC2(%rip), %xmm0
 779      00000000 
 780 00d2 4C8D6424 		leaq	48(%rsp), %r12
 780      30
 781 00d7 4C8D6C24 		leaq	56(%rsp), %r13
 781      38
 782 00dc 488D0500 		leaq	64+_ZTCN8UnitTest15MemoryOutStreamE0_NSt7__cxx1119basic_ostringstreamIcSt11char_traitsIcESaIc
 782      000000
 783 00e3 0F160500 		movhps	.LC3(%rip), %xmm0
 783      000000
 784 00ea 48898424 		movq	%rax, 192(%rsp)
 784      C0000000 
 785 00f2 488D4424 		leaq	112(%rsp), %rax
 785      70
 786 00f7 4889C7   		movq	%rax, %rdi
 787 00fa 0F294424 		movaps	%xmm0, 48(%rsp)
 787      30
 788 00ff 660FEFC0 		pxor	%xmm0, %xmm0
 789 0103 48894424 		movq	%rax, 40(%rsp)
 789      28
 790 0108 0F294424 		movaps	%xmm0, 64(%rsp)
 790      40
 791 010d 0F294424 		movaps	%xmm0, 80(%rsp)
 791      50
 792 0112 0F294424 		movaps	%xmm0, 96(%rsp)
 792      60
 793 0117 E8000000 		call	_ZNSt6localeC1Ev@PLT
 793      00
 794 011c 488D0500 		leaq	16+_ZTVNSt7__cxx1115basic_stringbufIcSt11char_traitsIcESaIcEEE(%rip), %rax
 794      000000
 795 0123 4C89EE   		movq	%r13, %rsi
 796 0126 48C78424 		movq	$0, 136(%rsp)
 796      88000000 
 796      00000000 
 797 0132 48894424 		movq	%rax, 56(%rsp)
 797      38
 798 0137 488D8424 		leaq	144(%rsp), %rax
 798      90000000 
 799 013f 48894424 		movq	%rax, 32(%rsp)
 799      20
 800 0144 48898424 		movq	%rax, 128(%rsp)
 800      80000000 
 801 014c 488B4424 		movq	48(%rsp), %rax
 801      30
 802 0151 C6842490 		movb	$0, 144(%rsp)
 802      00000000 
 803 0159 488B78E8 		movq	-24(%rax), %rdi
 804 015d C7442478 		movl	$16, 120(%rsp)
 804      10000000 
 805 0165 4C01E7   		addq	%r12, %rdi
 806              	.LEHB13:
 807 0168 E8000000 		call	_ZNSt9basic_iosIcSt11char_traitsIcEE4initEPSt15basic_streambufIcS1_E@PLT
 807      00
 808              	.LEHE13:
 809 016d 488D0500 		leaq	24+_ZTVN8UnitTest15MemoryOutStreamE(%rip), %rax
 809      000000
 810 0174 BA090000 		movl	$9, %edx
 810      00
 811 0179 4C89E7   		movq	%r12, %rdi
 812 017c 48C78424 		movq	$0, 168(%rsp)
 812      A8000000 
 812      00000000 
 813 0188 48894424 		movq	%rax, 48(%rsp)
 813      30
 814 018d 4C8DAC24 		leaq	176(%rsp), %r13
 814      B0000000 
 815 0195 4883C028 		addq	$40, %rax
 816 0199 488D3500 		leaq	.LC0(%rip), %rsi
 816      000000
 817 01a0 48898424 		movq	%rax, 192(%rsp)
 817      C0000000 
 818 01a8 4C89AC24 		movq	%r13, 160(%rsp)
 818      A0000000 
 819 01b0 C68424B0 		movb	$0, 176(%rsp)
 819      00000000 
 820              	.LEHB14:
 821 01b8 E8000000 		call	_ZSt16__ostream_insertIcSt11char_traitsIcEERSt13basic_ostreamIT_T0_ES6_PKS3_l@PLT
 821      00
 822 01bd 0FB67500 		movzbl	0(%rbp), %esi
 823 01c1 4C89E7   		movq	%r12, %rdi
 824 01c4 E8000000 		call	_ZNSo9_M_insertIbEERSoT_@PLT
 824      00
 825 01c9 BA090000 		movl	$9, %edx
 825      00
 826 01ce 488D3500 		leaq	.LC1(%rip), %rsi
 826      000000
 827 01d5 4889C7   		movq	%rax, %rdi
 828 01d8 4889C5   		movq	%rax, %rbp
 829 01db E8000000 		call	_ZSt16__ostream_insertIcSt11char_traitsIcEERSt13basic_ostreamIT_T0_ES6_PKS3_l@PLT
 829      00
 830 01e0 0FB633   		movzbl	(%rbx), %esi
 831 01e3 4889EF   		movq	%rbp, %rdi
 832 01e6 E8000000 		call	_ZNSo9_M_insertIbEERSoT_@PLT
 832      00
 833 01eb 4C89E7   		movq	%r12, %rdi
 834 01ee E8000000 		call	_ZNK8UnitTest15MemoryOutStream7GetTextEv@PLT
 834      00
 835 01f3 F30F7E0D 		movq	.LC2(%rip), %xmm1
 835      00000000 
 836 01fb 488B7424 		movq	8(%rsp), %rsi
 836      08
 837 0200 4889C2   		movq	%rax, %rdx
 838 0203 488B3C24 		movq	(%rsp), %rdi
 839 0207 0F160D00 		movhps	.LC4(%rip), %xmm1
 839      000000
 840 020e 0F294C24 		movaps	%xmm1, 16(%rsp)
 840      10
 841 0213 E8000000 		call	_ZN8UnitTest11TestResults13OnTestFailureERKNS_11TestDetailsEPKc@PLT
 841      00
 842              	.LEHE14:
 843 0218 488D0500 		leaq	24+_ZTVN8UnitTest15MemoryOutStreamE(%rip), %rax
 843      000000
 844 021f 488BBC24 		movq	160(%rsp), %rdi
 844      A0000000 
 845 0227 48894424 		movq	%rax, 48(%rsp)
 845      30
 846 022c 4883C028 		addq	$40, %rax
 847 0230 48898424 		movq	%rax, 192(%rsp)
 847      C0000000 
 848 0238 4C39EF   		cmpq	%r13, %rdi
 849 023b 7405     		je	.L54
 850 023d E8000000 		call	_ZdlPv@PLT
 850      00
 851              	.L54:
 852 0242 488D0500 		leaq	64+_ZTCN8UnitTest15MemoryOutStreamE0_NSt7__cxx1119basic_ostringstreamIcSt11char_traitsIcESaIc
 852      000000
 853 0249 660F6F54 		movdqa	16(%rsp), %xmm2
 853      2410
 854 024f 488BBC24 		movq	128(%rsp), %rdi
 854      80000000 
 855 0257 48898424 		movq	%rax, 192(%rsp)
 855      C0000000 
 856 025f 488B4424 		movq	32(%rsp), %rax
 856      20
 857 0264 0F295424 		movaps	%xmm2, 48(%rsp)
 857      30
 858 0269 4839C7   		cmpq	%rax, %rdi
 859 026c 7405     		je	.L55
 860 026e E8000000 		call	_ZdlPv@PLT
 860      00
 861              	.L55:
 862 0273 488B7C24 		movq	40(%rsp), %rdi
 862      28
 863 0278 488D0500 		leaq	16+_ZTVSt15basic_streambufIcSt11char_traitsIcEE(%rip), %rax
 863      000000
 864 027f 48894424 		movq	%rax, 56(%rsp)
 864      38
 865 0284 E8000000 		call	_ZNSt6localeD1Ev@PLT
 865      00
 866 0289 488D0500 		leaq	16+_ZTVSt9basic_iosIcSt11char_traitsIcEE(%rip), %rax
 866      000000
 867 0290 4C89F7   		movq	%r14, %rdi
 868 0293 4C897C24 		movq	%r15, 48(%rsp)
 868      30
 869 0298 48898424 		movq	%rax, 192(%rsp)
 869      C0000000 
 870              	.LEHB15:
 871 02a0 E8000000 		call	_ZNSt8ios_baseD2Ev@PLT
 871      00
 872              	.LEHE15:
 873 02a5 E98EFDFF 		jmp	.L48
 873      FF
 874              	.L65:
 875 02aa E8000000 		call	__stack_chk_fail@PLT
 875      00
 876              	.L59:
 877 02af F30F1EFA 		endbr64
 878 02b3 4889C3   		movq	%rax, %rbx
 879 02b6 EB1F     		jmp	.L52
 880              	.L60:
 881 02b8 F30F1EFA 		endbr64
 882 02bc 4889C3   		movq	%rax, %rbx
 883 02bf EB09     		jmp	.L51
 884              	.L58:
 885 02c1 F30F1EFA 		endbr64
 886 02c5 4889C3   		movq	%rax, %rbx
 887 02c8 EB2C     		jmp	.L56
 888              	.L51:
 889 02ca 4C89EF   		movq	%r13, %rdi
 890 02cd E8000000 		call	_ZNSt7__cxx1115basic_stringbufIcSt11char_traitsIcESaIcEED1Ev
 890      00
 891 02d2 4C897C24 		movq	%r15, 48(%rsp)
 891      30
 892              	.L52:
 893 02d7 488D0500 		leaq	16+_ZTVSt9basic_iosIcSt11char_traitsIcEE(%rip), %rax
 893      000000
 894 02de 4C89F7   		movq	%r14, %rdi
 895 02e1 48898424 		movq	%rax, 192(%rsp)
 895      C0000000 
 896 02e9 E8000000 		call	_ZNSt8ios_baseD2Ev@PLT
 896      00
 897 02ee 4889DF   		movq	%rbx, %rdi
 898              	.LEHB16:
 899 02f1 E8000000 		call	_Unwind_Resume@PLT
 899      00
 900              	.LEHE16:
 901              	.L56:
 902 02f6 4C89E7   		movq	%r12, %rdi
 903 02f9 E8000000 		call	_ZN8UnitTest15MemoryOutStreamD1Ev
 903      00
 904 02fe 4889DF   		movq	%rbx, %rdi
 905              	.LEHB17:
 906 0301 E8000000 		call	_Unwind_Resume@PLT
 906      00
 907              	.LEHE17:
 908              		.cfi_endproc
 909              	.LFE1235:
 910              		.section	.gcc_except_table._ZN8UnitTest10CheckEqualIbbEEvRNS_11TestResultsERKT_RKT0_RKNS_11TestDet
 911              	.LLSDA1235:
 912 0000 FF       		.byte	0xff
 913 0001 FF       		.byte	0xff
 914 0002 01       		.byte	0x1
 915 0003 21       		.uleb128 .LLSDACSE1235-.LLSDACSB1235
 916              	.LLSDACSB1235:
 917 0004 C501     		.uleb128 .LEHB12-.LFB1235
 918 0006 05       		.uleb128 .LEHE12-.LEHB12
 919 0007 AF05     		.uleb128 .L59-.LFB1235
 920 0009 00       		.uleb128 0
 921 000a E802     		.uleb128 .LEHB13-.LFB1235
 922 000c 05       		.uleb128 .LEHE13-.LEHB13
 923 000d B805     		.uleb128 .L60-.LFB1235
 924 000f 00       		.uleb128 0
 925 0010 B803     		.uleb128 .LEHB14-.LFB1235
 926 0012 60       		.uleb128 .LEHE14-.LEHB14
 927 0013 C105     		.uleb128 .L58-.LFB1235
 928 0015 00       		.uleb128 0
 929 0016 A005     		.uleb128 .LEHB15-.LFB1235
 930 0018 05       		.uleb128 .LEHE15-.LEHB15
 931 0019 00       		.uleb128 0
 932 001a 00       		.uleb128 0
 933 001b F105     		.uleb128 .LEHB16-.LFB1235
 934 001d 05       		.uleb128 .LEHE16-.LEHB16
 935 001e 00       		.uleb128 0
 936 001f 00       		.uleb128 0
 937 0020 8106     		.uleb128 .LEHB17-.LFB1235
 938 0022 05       		.uleb128 .LEHE17-.LEHB17
 939 0023 00       		.uleb128 0
 940 0024 00       		.uleb128 0
 941              	.LLSDACSE1235:
 942              		.section	.text._ZN8UnitTest10CheckEqualIbbEEvRNS_11TestResultsERKT_RKT0_RKNS_11TestDetailsE,"axG",
 944              		.section	.text._ZN8UnitTest10CheckEqualIihEEvRNS_11TestResultsERKT_RKT0_RKNS_11TestDetailsE,"axG",
 945              		.p2align 4
 946              		.weak	_ZN8UnitTest10CheckEqualIihEEvRNS_11TestResultsERKT_RKT0_RKNS_11TestDetailsE
 948              	_ZN8UnitTest10CheckEqualIihEEvRNS_11TestResultsERKT_RKT0_RKNS_11TestDetailsE:
 949              	.LFB1240:
 950              		.cfi_startproc
 951              		.cfi_personality 0x9b,DW.ref.__gxx_personality_v0
 952              		.cfi_lsda 0x1b,.LLSDA1240
 953 0000 F30F1EFA 		endbr64
 954 0004 4157     		pushq	%r15
 955              		.cfi_def_cfa_offset 16
 956              		.cfi_offset 15, -16
 957 0006 4156     		pushq	%r14
 958              		.cfi_def_cfa_offset 24
 959              		.cfi_offset 14, -24
 960 0008 4155     		pushq	%r13
 961              		.cfi_def_cfa_offset 32
 962              		.cfi_offset 13, -32
 963 000a 4154     		pushq	%r12
 964              		.cfi_def_cfa_offset 40
 965              		.cfi_offset 12, -40
 966 000c 55       		pushq	%rbp
 967              		.cfi_def_cfa_offset 48
 968              		.cfi_offset 6, -48
 969 000d 53       		pushq	%rbx
 970              		.cfi_def_cfa_offset 56
 971              		.cfi_offset 3, -56
 972 000e 4881ECE8 		subq	$488, %rsp
 972      010000
 973              		.cfi_def_cfa_offset 544
 974 0015 48893C24 		movq	%rdi, (%rsp)
 975 0019 48894C24 		movq	%rcx, 8(%rsp)
 975      08
 976 001e 64488B04 		movq	%fs:40, %rax
 976      25280000 
 976      00
 977 0027 48898424 		movq	%rax, 472(%rsp)
 977      D8010000 
 978 002f 31C0     		xorl	%eax, %eax
 979 0031 0FB602   		movzbl	(%rdx), %eax
 980 0034 3906     		cmpl	%eax, (%rsi)
 981 0036 7530     		jne	.L86
 982              	.L66:
 983 0038 488B8424 		movq	472(%rsp), %rax
 983      D8010000 
 984 0040 64482B04 		subq	%fs:40, %rax
 984      25280000 
 984      00
 985 0049 0F859602 		jne	.L87
 985      0000
 986 004f 4881C4E8 		addq	$488, %rsp
 986      010000
 987              		.cfi_remember_state
 988              		.cfi_def_cfa_offset 56
 989 0056 5B       		popq	%rbx
 990              		.cfi_def_cfa_offset 48
 991 0057 5D       		popq	%rbp
 992              		.cfi_def_cfa_offset 40
 993 0058 415C     		popq	%r12
 994              		.cfi_def_cfa_offset 32
 995 005a 415D     		popq	%r13
 996              		.cfi_def_cfa_offset 24
 997 005c 415E     		popq	%r14
 998              		.cfi_def_cfa_offset 16
 999 005e 415F     		popq	%r15
 1000              		.cfi_def_cfa_offset 8
 1001 0060 C3       		ret
 1002              		.p2align 4,,10
 1003 0061 0F1F8000 		.p2align 3
 1003      000000
 1004              	.L86:
 1005              		.cfi_restore_state
 1006 0068 4C8DB424 		leaq	208(%rsp), %r14
 1006      D0000000 
 1007 0070 4889F5   		movq	%rsi, %rbp
 1008 0073 4C8D3D00 		leaq	24+_ZTCN8UnitTest15MemoryOutStreamE0_So(%rip), %r15
 1008      000000
 1009 007a 4889D3   		movq	%rdx, %rbx
 1010 007d 4C89F7   		movq	%r14, %rdi
 1011 0080 E8000000 		call	_ZNSt8ios_baseC2Ev@PLT
 1011      00
 1012 0085 31C0     		xorl	%eax, %eax
 1013 0087 660FEFC0 		pxor	%xmm0, %xmm0
 1014 008b 31F6     		xorl	%esi, %esi
 1015 008d 66898424 		movw	%ax, 432(%rsp)
 1015      B0010000 
 1016 0095 4C89F7   		movq	%r14, %rdi
 1017 0098 498D4728 		leaq	40(%r15), %rax
 1018 009c 48C78424 		movq	$0, 424(%rsp)
 1018      A8010000 
 1018      00000000 
 1019 00a8 4C897C24 		movq	%r15, 64(%rsp)
 1019      40
 1020 00ad 48898424 		movq	%rax, 208(%rsp)
 1020      D0000000 
 1021 00b5 0F118424 		movups	%xmm0, 440(%rsp)
 1021      B8010000 
 1022 00bd 0F118424 		movups	%xmm0, 456(%rsp)
 1022      C8010000 
 1023              	.LEHB18:
 1024 00c5 E8000000 		call	_ZNSt9basic_iosIcSt11char_traitsIcEE4initEPSt15basic_streambufIcS1_E@PLT
 1024      00
 1025              	.LEHE18:
 1026 00ca F30F7E05 		movq	.LC2(%rip), %xmm0
 1026      00000000 
 1027 00d2 4C8D6424 		leaq	64(%rsp), %r12
 1027      40
 1028 00d7 4C8D6C24 		leaq	72(%rsp), %r13
 1028      48
 1029 00dc 488D0500 		leaq	64+_ZTCN8UnitTest15MemoryOutStreamE0_NSt7__cxx1119basic_ostringstreamIcSt11char_traitsIcESaIc
 1029      000000
 1030 00e3 0F160500 		movhps	.LC3(%rip), %xmm0
 1030      000000
 1031 00ea 48898424 		movq	%rax, 208(%rsp)
 1031      D0000000 
 1032 00f2 488D8424 		leaq	128(%rsp), %rax
 1032      80000000 
 1033 00fa 4889C7   		movq	%rax, %rdi
 1034 00fd 0F294424 		movaps	%xmm0, 64(%rsp)
 1034      40
 1035 0102 660FEFC0 		pxor	%xmm0, %xmm0
 1036 0106 48894424 		movq	%rax, 32(%rsp)
 1036      20
 1037 010b 0F294424 		movaps	%xmm0, 80(%rsp)
 1037      50
 1038 0110 0F294424 		movaps	%xmm0, 96(%rsp)
 1038      60
 1039 0115 0F294424 		movaps	%xmm0, 112(%rsp)
 1039      70
 1040 011a E8000000 		call	_ZNSt6localeC1Ev@PLT
 1040      00
 1041 011f 488D0500 		leaq	16+_ZTVNSt7__cxx1115basic_stringbufIcSt11char_traitsIcESaIcEEE(%rip), %rax
 1041      000000
 1042 0126 C68424A0 		movb	$0, 160(%rsp)
 1042      00000000 
 1043 012e 4C89EE   		movq	%r13, %rsi
 1044 0131 48894424 		movq	%rax, 72(%rsp)
 1044      48
 1045 0136 488D8424 		leaq	160(%rsp), %rax
 1045      A0000000 
 1046 013e 48894424 		movq	%rax, 40(%rsp)
 1046      28
 1047 0143 48898424 		movq	%rax, 144(%rsp)
 1047      90000000 
 1048 014b 488B4424 		movq	64(%rsp), %rax
 1048      40
 1049 0150 48C78424 		movq	$0, 152(%rsp)
 1049      98000000 
 1049      00000000 
 1050 015c C7842488 		movl	$16, 136(%rsp)
 1050      00000010 
 1050      000000
 1051 0167 488B78E8 		movq	-24(%rax), %rdi
 1052 016b 4C01E7   		addq	%r12, %rdi
 1053              	.LEHB19:
 1054 016e E8000000 		call	_ZNSt9basic_iosIcSt11char_traitsIcEE4initEPSt15basic_streambufIcS1_E@PLT
 1054      00
 1055              	.LEHE19:
 1056 0173 488D0500 		leaq	24+_ZTVN8UnitTest15MemoryOutStreamE(%rip), %rax
 1056      000000
 1057 017a BA090000 		movl	$9, %edx
 1057      00
 1058 017f 4C89E7   		movq	%r12, %rdi
 1059 0182 48C78424 		movq	$0, 184(%rsp)
 1059      B8000000 
 1059      00000000 
 1060 018e 48894424 		movq	%rax, 64(%rsp)
 1060      40
 1061 0193 4C8DAC24 		leaq	192(%rsp), %r13
 1061      C0000000 
 1062 019b 4883C028 		addq	$40, %rax
 1063 019f 488D3500 		leaq	.LC0(%rip), %rsi
 1063      000000
 1064 01a6 48898424 		movq	%rax, 208(%rsp)
 1064      D0000000 
 1065 01ae 4C89AC24 		movq	%r13, 176(%rsp)
 1065      B0000000 
 1066 01b6 C68424C0 		movb	$0, 192(%rsp)
 1066      00000000 
 1067              	.LEHB20:
 1068 01be E8000000 		call	_ZSt16__ostream_insertIcSt11char_traitsIcEERSt13basic_ostreamIT_T0_ES6_PKS3_l@PLT
 1068      00
 1069 01c3 8B7500   		movl	0(%rbp), %esi
 1070 01c6 4C89E7   		movq	%r12, %rdi
 1071 01c9 E8000000 		call	_ZNSolsEi@PLT
 1071      00
 1072 01ce BA090000 		movl	$9, %edx
 1072      00
 1073 01d3 488D3500 		leaq	.LC1(%rip), %rsi
 1073      000000
 1074 01da 4889C7   		movq	%rax, %rdi
 1075 01dd 4889C5   		movq	%rax, %rbp
 1076 01e0 E8000000 		call	_ZSt16__ostream_insertIcSt11char_traitsIcEERSt13basic_ostreamIT_T0_ES6_PKS3_l@PLT
 1076      00
 1077 01e5 488B4500 		movq	0(%rbp), %rax
 1078 01e9 0FBE33   		movsbl	(%rbx), %esi
 1079 01ec 488B40E8 		movq	-24(%rax), %rax
 1080 01f0 40887424 		movb	%sil, 63(%rsp)
 1080      3F
 1081 01f5 48837C05 		cmpq	$0, 16(%rbp,%rax)
 1081      1000
 1082 01fb 0F84D700 		je	.L72
 1082      0000
 1083 0201 488D7424 		leaq	63(%rsp), %rsi
 1083      3F
 1084 0206 BA010000 		movl	$1, %edx
 1084      00
 1085 020b 4889EF   		movq	%rbp, %rdi
 1086 020e E8000000 		call	_ZSt16__ostream_insertIcSt11char_traitsIcEERSt13basic_ostreamIT_T0_ES6_PKS3_l@PLT
 1086      00
 1087              	.L74:
 1088 0213 4C89E7   		movq	%r12, %rdi
 1089 0216 E8000000 		call	_ZNK8UnitTest15MemoryOutStream7GetTextEv@PLT
 1089      00
 1090 021b F30F7E0D 		movq	.LC2(%rip), %xmm1
 1090      00000000 
 1091 0223 488B7424 		movq	8(%rsp), %rsi
 1091      08
 1092 0228 4889C2   		movq	%rax, %rdx
 1093 022b 488B3C24 		movq	(%rsp), %rdi
 1094 022f 0F160D00 		movhps	.LC4(%rip), %xmm1
 1094      000000
 1095 0236 0F294C24 		movaps	%xmm1, 16(%rsp)
 1095      10
 1096 023b E8000000 		call	_ZN8UnitTest11TestResults13OnTestFailureERKNS_11TestDetailsEPKc@PLT
 1096      00
 1097              	.LEHE20:
 1098 0240 488D0500 		leaq	24+_ZTVN8UnitTest15MemoryOutStreamE(%rip), %rax
 1098      000000
 1099 0247 488BBC24 		movq	176(%rsp), %rdi
 1099      B0000000 
 1100 024f 48894424 		movq	%rax, 64(%rsp)
 1100      40
 1101 0254 4883C028 		addq	$40, %rax
 1102 0258 48898424 		movq	%rax, 208(%rsp)
 1102      D0000000 
 1103 0260 4C39EF   		cmpq	%r13, %rdi
 1104 0263 7405     		je	.L75
 1105 0265 E8000000 		call	_ZdlPv@PLT
 1105      00
 1106              	.L75:
 1107 026a 488D0500 		leaq	64+_ZTCN8UnitTest15MemoryOutStreamE0_NSt7__cxx1119basic_ostringstreamIcSt11char_traitsIcESaIc
 1107      000000
 1108 0271 660F6F54 		movdqa	16(%rsp), %xmm2
 1108      2410
 1109 0277 488BBC24 		movq	144(%rsp), %rdi
 1109      90000000 
 1110 027f 48898424 		movq	%rax, 208(%rsp)
 1110      D0000000 
 1111 0287 488B4424 		movq	40(%rsp), %rax
 1111      28
 1112 028c 0F295424 		movaps	%xmm2, 64(%rsp)
 1112      40
 1113 0291 4839C7   		cmpq	%rax, %rdi
 1114 0294 7405     		je	.L76
 1115 0296 E8000000 		call	_ZdlPv@PLT
 1115      00
 1116              	.L76:
 1117 029b 488B7C24 		movq	32(%rsp), %rdi
 1117      20
 1118 02a0 488D0500 		leaq	16+_ZTVSt15basic_streambufIcSt11char_traitsIcEE(%rip), %rax
 1118      000000
 1119 02a7 48894424 		movq	%rax, 72(%rsp)
 1119      48
 1120 02ac E8000000 		call	_ZNSt6localeD1Ev@PLT
 1120      00
 1121 02b1 488D0500 		leaq	16+_ZTVSt9basic_iosIcSt11char_traitsIcEE(%rip), %rax
 1121      000000
 1122 02b8 4C89F7   		movq	%r14, %rdi
 1123 02bb 4C897C24 		movq	%r15, 64(%rsp)
 1123      40
 1124 02c0 48898424 		movq	%rax, 208(%rsp)
 1124      D0000000 
 1125              	.LEHB21:
 1126 02c8 E8000000 		call	_ZNSt8ios_baseD2Ev@PLT
 1126      00
 1127              	.LEHE21:
 1128 02cd E966FDFF 		jmp	.L66
 1128      FF
 1129              		.p2align 4,,10
 1130 02d2 660F1F44 		.p2align 3
 1130      0000
 1131              	.L72:
 1132 02d8 4889EF   		movq	%rbp, %rdi
 1133              	.LEHB22:
 1134 02db E8000000 		call	_ZNSo3putEc@PLT
 1134      00
 1135              	.LEHE22:
 1136 02e0 E92EFFFF 		jmp	.L74
 1136      FF
 1137              	.L87:
 1138 02e5 E8000000 		call	__stack_chk_fail@PLT
 1138      00
 1139              	.L80:
 1140 02ea F30F1EFA 		endbr64
 1141 02ee 4889C3   		movq	%rax, %rbx
 1142 02f1 EB1F     		jmp	.L70
 1143              	.L81:
 1144 02f3 F30F1EFA 		endbr64
 1145 02f7 4889C3   		movq	%rax, %rbx
 1146 02fa EB09     		jmp	.L69
 1147              	.L79:
 1148 02fc F30F1EFA 		endbr64
 1149 0300 4889C3   		movq	%rax, %rbx
 1150 0303 EB2C     		jmp	.L77
 1151              	.L69:
 1152 0305 4C89EF   		movq	%r13, %rdi
 1153 0308 E8000000 		call	_ZNSt7__cxx1115basic_stringbufIcSt11char_traitsIcESaIcEED1Ev
 1153      00
 1154 030d 4C897C24 		movq	%r15, 64(%rsp)
 1154      40
 1155              	.L70:
 1156 0312 488D0500 		leaq	16+_ZTVSt9basic_iosIcSt11char_traitsIcEE(%rip), %rax
 1156      000000
 1157 0319 4C89F7   		movq	%r14, %rdi
 1158 031c 48898424 		movq	%rax, 208(%rsp)
 1158      D0000000 
 1159 0324 E8000000 		call	_ZNSt8ios_baseD2Ev@PLT
 1159      00
 1160 0329 4889DF   		movq	%rbx, %rdi
 1161              	.LEHB23:
 1162 032c E8000000 		call	_Unwind_Resume@PLT
 1162      00
 1163              	.LEHE23:
 1164              	.L77:
 1165 0331 4C89E7   		movq	%r12, %rdi
 1166 0334 E8000000 		call	_ZN8UnitTest15MemoryOutStreamD1Ev
 1166      00
 1167 0339 4889DF   		movq	%rbx, %rdi
 1168              	.LEHB24:
 1169 033c E8000000 		call	_Unwind_Resume@PLT
 1169      00
 1170              	.LEHE24:
 1171              		.cfi_endproc
 1172              	.LFE1240:
 1173              		.section	.gcc_except_table._ZN8UnitTest10CheckEqualIihEEvRNS_11TestResultsERKT_RKT0_RKNS_11TestDet
 1174              	.LLSDA1240:
 1175 0000 FF       		.byte	0xff
 1176 0001 FF       		.byte	0xff
 1177 0002 01       		.byte	0x1
 1178 0003 28       		.uleb128 .LLSDACSE1240-.LLSDACSB1240
 1179              	.LLSDACSB1240:
 1180 0004 C501     		.uleb128 .LEHB18-.LFB1240
 1181 0006 05       		.uleb128 .LEHE18-.LEHB18
 1182 0007 EA05     		.uleb128 .L80-.LFB1240
 1183 0009 00       		.uleb128 0
 1184 000a EE02     		.uleb128 .LEHB19-.LFB1240
 1185 000c 05       		.uleb128 .LEHE19-.LEHB19
 1186 000d F305     		.uleb128 .L81-.LFB1240
 1187 000f 00       		.uleb128 0
 1188 0010 BE03     		.uleb128 .LEHB20-.LFB1240
 1189 0012 8201     		.uleb128 .LEHE20-.LEHB20
 1190 0014 FC05     		.uleb128 .L79-.LFB1240
 1191 0016 00       		.uleb128 0
 1192 0017 C805     		.uleb128 .LEHB21-.LFB1240
 1193 0019 05       		.uleb128 .LEHE21-.LEHB21
 1194 001a 00       		.uleb128 0
 1195 001b 00       		.uleb128 0
 1196 001c DB05     		.uleb128 .LEHB22-.LFB1240
 1197 001e 05       		.uleb128 .LEHE22-.LEHB22
 1198 001f FC05     		.uleb128 .L79-.LFB1240
 1199 0021 00       		.uleb128 0
 1200 0022 AC06     		.uleb128 .LEHB23-.LFB1240
 1201 0024 05       		.uleb128 .LEHE23-.LEHB23
 1202 0025 00       		.uleb128 0
 1203 0026 00       		.uleb128 0
 1204 0027 BC06     		.uleb128 .LEHB24-.LFB1240
 1205 0029 05       		.uleb128 .LEHE24-.LEHB24
 1206 002a 00       		.uleb128 0
 1207 002b 00       		.uleb128 0
 1208              	.LLSDACSE1240:
 1209              		.section	.text._ZN8UnitTest10CheckEqualIihEEvRNS_11TestResultsERKT_RKT0_RKNS_11TestDetailsE,"axG",
 1211              		.section	.rodata.str1.8,"aMS",@progbits,1
 1212              		.align 8
 1213              	.LC5:
 1214 0000 556E6861 		.string	"Unhandled exception in CHECK_EQUAL(false, status)"
 1214      6E646C65 
 1214      64206578 
 1214      63657074 
 1214      696F6E20 
 1215 0032 00000000 		.align 8
 1215      0000
 1216              	.LC6:
 1217 0038 556E6861 		.string	"Unhandled exception in CHECK_EQUAL(0, nibble)"
 1217      6E646C65 
 1217      64206578 
 1217      63657074 
 1217      696F6E20 
 1218 0066 0000     		.align 8
 1219              	.LC7:
 1220 0068 556E6861 		.string	"Unhandled exception in CHECK_EQUAL(1, nibble)"
 1220      6E646C65 
 1220      64206578 
 1220      63657074 
 1220      696F6E20 
 1221 0096 0000     		.align 8
 1222              	.LC8:
 1223 0098 556E6861 		.string	"Unhandled exception in CHECK_EQUAL(2, nibble)"
 1223      6E646C65 
 1223      64206578 
 1223      63657074 
 1223      696F6E20 
 1224 00c6 0000     		.align 8
 1225              	.LC9:
 1226 00c8 556E6861 		.string	"Unhandled exception in CHECK_EQUAL(3, nibble)"
 1226      6E646C65 
 1226      64206578 
 1226      63657074 
 1226      696F6E20 
 1227 00f6 0000     		.align 8
 1228              	.LC10:
 1229 00f8 556E6861 		.string	"Unhandled exception in CHECK_EQUAL(4, nibble)"
 1229      6E646C65 
 1229      64206578 
 1229      63657074 
 1229      696F6E20 
 1230 0126 0000     		.align 8
 1231              	.LC11:
 1232 0128 556E6861 		.string	"Unhandled exception in CHECK_EQUAL(5, nibble)"
 1232      6E646C65 
 1232      64206578 
 1232      63657074 
 1232      696F6E20 
 1233 0156 0000     		.align 8
 1234              	.LC12:
 1235 0158 556E6861 		.string	"Unhandled exception in CHECK_EQUAL(6, nibble)"
 1235      6E646C65 
 1235      64206578 
 1235      63657074 
 1235      696F6E20 
 1236 0186 0000     		.align 8
 1237              	.LC13:
 1238 0188 556E6861 		.string	"Unhandled exception in CHECK_EQUAL(7, nibble)"
 1238      6E646C65 
 1238      64206578 
 1238      63657074 
 1238      696F6E20 
 1239 01b6 0000     		.align 8
 1240              	.LC14:
 1241 01b8 556E6861 		.string	"Unhandled exception in CHECK_EQUAL(8, nibble)"
 1241      6E646C65 
 1241      64206578 
 1241      63657074 
 1241      696F6E20 
 1242 01e6 0000     		.align 8
 1243              	.LC15:
 1244 01e8 556E6861 		.string	"Unhandled exception in CHECK_EQUAL(9, nibble)"
 1244      6E646C65 
 1244      64206578 
 1244      63657074 
 1244      696F6E20 
 1245 0216 0000     		.align 8
 1246              	.LC16:
 1247 0218 556E6861 		.string	"Unhandled exception in CHECK_EQUAL(10, nibble)"
 1247      6E646C65 
 1247      64206578 
 1247      63657074 
 1247      696F6E20 
 1248 0247 00       		.align 8
 1249              	.LC17:
 1250 0248 556E6861 		.string	"Unhandled exception in CHECK_EQUAL(11, nibble)"
 1250      6E646C65 
 1250      64206578 
 1250      63657074 
 1250      696F6E20 
 1251 0277 00       		.align 8
 1252              	.LC18:
 1253 0278 556E6861 		.string	"Unhandled exception in CHECK_EQUAL(12, nibble)"
 1253      6E646C65 
 1253      64206578 
 1253      63657074 
 1253      696F6E20 
 1254 02a7 00       		.align 8
 1255              	.LC19:
 1256 02a8 556E6861 		.string	"Unhandled exception in CHECK_EQUAL(13, nibble)"
 1256      6E646C65 
 1256      64206578 
 1256      63657074 
 1256      696F6E20 
 1257 02d7 00       		.align 8
 1258              	.LC20:
 1259 02d8 556E6861 		.string	"Unhandled exception in CHECK_EQUAL(14, nibble)"
 1259      6E646C65 
 1259      64206578 
 1259      63657074 
 1259      696F6E20 
 1260 0307 00       		.align 8
 1261              	.LC21:
 1262 0308 556E6861 		.string	"Unhandled exception in CHECK_EQUAL(15, nibble)"
 1262      6E646C65 
 1262      64206578 
 1262      63657074 
 1262      696F6E20 
 1263 0337 00       		.align 8
 1264              	.LC22:
 1265 0338 556E6861 		.string	"Unhandled exception in CHECK_EQUAL(true, status)"
 1265      6E646C65 
 1265      64206578 
 1265      63657074 
 1265      696F6E20 
 1266              		.section	.text.unlikely,"ax",@progbits
 1267              		.align 2
 1268              	.LCOLDB23:
 1269              		.text
 1270              	.LHOTB23:
 1271              		.align 2
 1272              		.p2align 4
 1273              		.globl	_ZNK25TestConv_testGetHexNibble7RunImplEv
 1275              	_ZNK25TestConv_testGetHexNibble7RunImplEv:
 1276              	.LFB1195:
 1277              		.cfi_startproc
 1278              		.cfi_personality 0x9b,DW.ref.__gxx_personality_v0
 1279              		.cfi_lsda 0x1b,.LLSDA1195
 1280 0000 F30F1EFA 		endbr64
 1281 0004 4154     		pushq	%r12
 1282              		.cfi_def_cfa_offset 16
 1283              		.cfi_offset 12, -16
 1284 0006 BF300000 		movl	$48, %edi
 1284      00
 1285 000b 55       		pushq	%rbp
 1286              		.cfi_def_cfa_offset 24
 1287              		.cfi_offset 6, -24
 1288 000c 53       		pushq	%rbx
 1289              		.cfi_def_cfa_offset 32
 1290              		.cfi_offset 3, -32
 1291 000d 4883EC40 		subq	$64, %rsp
 1292              		.cfi_def_cfa_offset 96
 1293 0011 64488B04 		movq	%fs:40, %rax
 1293      25280000 
 1293      00
 1294 001a 48894424 		movq	%rax, 56(%rsp)
 1294      38
 1295 001f 31C0     		xorl	%eax, %eax
 1296 0021 488D6C24 		leaq	10(%rsp), %rbp
 1296      0A
 1297 0026 4889EE   		movq	%rbp, %rsi
 1298              	.LEHB25:
 1299 0029 E8000000 		call	getHexNibble@PLT
 1299      00
 1300              	.LEHE25:
 1301 002e 8844240B 		movb	%al, 11(%rsp)
 1302              	.LEHB26:
 1303 0032 E8000000 		call	_ZN8UnitTest11CurrentTest7DetailsEv@PLT
 1303      00
 1304 0037 488D5C24 		leaq	16(%rsp), %rbx
 1304      10
 1305 003c 488B30   		movq	(%rax), %rsi
 1306 003f BA180000 		movl	$24, %edx
 1306      00
 1307 0044 4889DF   		movq	%rbx, %rdi
 1308 0047 E8000000 		call	_ZN8UnitTest11TestDetailsC1ERKS0_i@PLT
 1308      00
 1309 004c C644240C 		movb	$0, 12(%rsp)
 1309      00
 1310 0051 E8000000 		call	_ZN8UnitTest11CurrentTest7ResultsEv@PLT
 1310      00
 1311 0056 488B38   		movq	(%rax), %rdi
 1312 0059 488D5424 		leaq	11(%rsp), %rdx
 1312      0B
 1313 005e 488D7424 		leaq	12(%rsp), %rsi
 1313      0C
 1314 0063 4889D9   		movq	%rbx, %rcx
 1315 0066 E8000000 		call	_ZN8UnitTest10CheckEqualIbbEEvRNS_11TestResultsERKT_RKT0_RKNS_11TestDetailsE
 1315      00
 1316              	.LEHE26:
 1317              	.L90:
 1318              	.LEHB27:
 1319 006b E8000000 		call	_ZN8UnitTest11CurrentTest7DetailsEv@PLT
 1319      00
 1320 0070 488B30   		movq	(%rax), %rsi
 1321 0073 BA190000 		movl	$25, %edx
 1321      00
 1322 0078 4889DF   		movq	%rbx, %rdi
 1323 007b E8000000 		call	_ZN8UnitTest11TestDetailsC1ERKS0_i@PLT
 1323      00
 1324 0080 C744240C 		movl	$0, 12(%rsp)
 1324      00000000 
 1325 0088 E8000000 		call	_ZN8UnitTest11CurrentTest7ResultsEv@PLT
 1325      00
 1326 008d 488B38   		movq	(%rax), %rdi
 1327 0090 488D7424 		leaq	12(%rsp), %rsi
 1327      0C
 1328 0095 4889D9   		movq	%rbx, %rcx
 1329 0098 4889EA   		movq	%rbp, %rdx
 1330 009b E8000000 		call	_ZN8UnitTest10CheckEqualIihEEvRNS_11TestResultsERKT_RKT0_RKNS_11TestDetailsE
 1330      00
 1331              	.LEHE27:
 1332              	.L93:
 1333 00a0 4889EE   		movq	%rbp, %rsi
 1334 00a3 BF310000 		movl	$49, %edi
 1334      00
 1335              	.LEHB28:
 1336 00a8 E8000000 		call	getHexNibble@PLT
 1336      00
 1337              	.LEHE28:
 1338 00ad 8844240B 		movb	%al, 11(%rsp)
 1339              	.LEHB29:
 1340 00b1 E8000000 		call	_ZN8UnitTest11CurrentTest7DetailsEv@PLT
 1340      00
 1341 00b6 488B30   		movq	(%rax), %rsi
 1342 00b9 BA1B0000 		movl	$27, %edx
 1342      00
 1343 00be 4889DF   		movq	%rbx, %rdi
 1344 00c1 E8000000 		call	_ZN8UnitTest11TestDetailsC1ERKS0_i@PLT
 1344      00
 1345 00c6 C644240C 		movb	$0, 12(%rsp)
 1345      00
 1346 00cb E8000000 		call	_ZN8UnitTest11CurrentTest7ResultsEv@PLT
 1346      00
 1347 00d0 488B38   		movq	(%rax), %rdi
 1348 00d3 488D5424 		leaq	11(%rsp), %rdx
 1348      0B
 1349 00d8 488D7424 		leaq	12(%rsp), %rsi
 1349      0C
 1350 00dd 4889D9   		movq	%rbx, %rcx
 1351 00e0 E8000000 		call	_ZN8UnitTest10CheckEqualIbbEEvRNS_11TestResultsERKT_RKT0_RKNS_11TestDetailsE
 1351      00
 1352              	.LEHE29:
 1353              	.L96:
 1354              	.LEHB30:
 1355 00e5 E8000000 		call	_ZN8UnitTest11CurrentTest7DetailsEv@PLT
 1355      00
 1356 00ea 488B30   		movq	(%rax), %rsi
 1357 00ed BA1C0000 		movl	$28, %edx
 1357      00
 1358 00f2 4889DF   		movq	%rbx, %rdi
 1359 00f5 E8000000 		call	_ZN8UnitTest11TestDetailsC1ERKS0_i@PLT
 1359      00
 1360 00fa C744240C 		movl	$1, 12(%rsp)
 1360      01000000 
 1361 0102 E8000000 		call	_ZN8UnitTest11CurrentTest7ResultsEv@PLT
 1361      00
 1362 0107 488B38   		movq	(%rax), %rdi
 1363 010a 488D7424 		leaq	12(%rsp), %rsi
 1363      0C
 1364 010f 4889D9   		movq	%rbx, %rcx
 1365 0112 4889EA   		movq	%rbp, %rdx
 1366 0115 E8000000 		call	_ZN8UnitTest10CheckEqualIihEEvRNS_11TestResultsERKT_RKT0_RKNS_11TestDetailsE
 1366      00
 1367              	.LEHE30:
 1368              	.L99:
 1369 011a 4889EE   		movq	%rbp, %rsi
 1370 011d BF320000 		movl	$50, %edi
 1370      00
 1371              	.LEHB31:
 1372 0122 E8000000 		call	getHexNibble@PLT
 1372      00
 1373              	.LEHE31:
 1374 0127 8844240B 		movb	%al, 11(%rsp)
 1375              	.LEHB32:
 1376 012b E8000000 		call	_ZN8UnitTest11CurrentTest7DetailsEv@PLT
 1376      00
 1377 0130 488B30   		movq	(%rax), %rsi
 1378 0133 BA1E0000 		movl	$30, %edx
 1378      00
 1379 0138 4889DF   		movq	%rbx, %rdi
 1380 013b E8000000 		call	_ZN8UnitTest11TestDetailsC1ERKS0_i@PLT
 1380      00
 1381 0140 C644240C 		movb	$0, 12(%rsp)
 1381      00
 1382 0145 E8000000 		call	_ZN8UnitTest11CurrentTest7ResultsEv@PLT
 1382      00
 1383 014a 488B38   		movq	(%rax), %rdi
 1384 014d 488D5424 		leaq	11(%rsp), %rdx
 1384      0B
 1385 0152 488D7424 		leaq	12(%rsp), %rsi
 1385      0C
 1386 0157 4889D9   		movq	%rbx, %rcx
 1387 015a E8000000 		call	_ZN8UnitTest10CheckEqualIbbEEvRNS_11TestResultsERKT_RKT0_RKNS_11TestDetailsE
 1387      00
 1388              	.LEHE32:
 1389              	.L102:
 1390              	.LEHB33:
 1391 015f E8000000 		call	_ZN8UnitTest11CurrentTest7DetailsEv@PLT
 1391      00
 1392 0164 488B30   		movq	(%rax), %rsi
 1393 0167 BA1F0000 		movl	$31, %edx
 1393      00
 1394 016c 4889DF   		movq	%rbx, %rdi
 1395 016f E8000000 		call	_ZN8UnitTest11TestDetailsC1ERKS0_i@PLT
 1395      00
 1396 0174 C744240C 		movl	$2, 12(%rsp)
 1396      02000000 
 1397 017c E8000000 		call	_ZN8UnitTest11CurrentTest7ResultsEv@PLT
 1397      00
 1398 0181 488B38   		movq	(%rax), %rdi
 1399 0184 488D7424 		leaq	12(%rsp), %rsi
 1399      0C
 1400 0189 4889D9   		movq	%rbx, %rcx
 1401 018c 4889EA   		movq	%rbp, %rdx
 1402 018f E8000000 		call	_ZN8UnitTest10CheckEqualIihEEvRNS_11TestResultsERKT_RKT0_RKNS_11TestDetailsE
 1402      00
 1403              	.LEHE33:
 1404              	.L105:
 1405 0194 4889EE   		movq	%rbp, %rsi
 1406 0197 BF330000 		movl	$51, %edi
 1406      00
 1407              	.LEHB34:
 1408 019c E8000000 		call	getHexNibble@PLT
 1408      00
 1409              	.LEHE34:
 1410 01a1 8844240B 		movb	%al, 11(%rsp)
 1411              	.LEHB35:
 1412 01a5 E8000000 		call	_ZN8UnitTest11CurrentTest7DetailsEv@PLT
 1412      00
 1413 01aa 488B30   		movq	(%rax), %rsi
 1414 01ad BA210000 		movl	$33, %edx
 1414      00
 1415 01b2 4889DF   		movq	%rbx, %rdi
 1416 01b5 E8000000 		call	_ZN8UnitTest11TestDetailsC1ERKS0_i@PLT
 1416      00
 1417 01ba C644240C 		movb	$0, 12(%rsp)
 1417      00
 1418 01bf E8000000 		call	_ZN8UnitTest11CurrentTest7ResultsEv@PLT
 1418      00
 1419 01c4 488B38   		movq	(%rax), %rdi
 1420 01c7 488D5424 		leaq	11(%rsp), %rdx
 1420      0B
 1421 01cc 488D7424 		leaq	12(%rsp), %rsi
 1421      0C
 1422 01d1 4889D9   		movq	%rbx, %rcx
 1423 01d4 E8000000 		call	_ZN8UnitTest10CheckEqualIbbEEvRNS_11TestResultsERKT_RKT0_RKNS_11TestDetailsE
 1423      00
 1424              	.LEHE35:
 1425              	.L108:
 1426              	.LEHB36:
 1427 01d9 E8000000 		call	_ZN8UnitTest11CurrentTest7DetailsEv@PLT
 1427      00
 1428 01de 488B30   		movq	(%rax), %rsi
 1429 01e1 BA220000 		movl	$34, %edx
 1429      00
 1430 01e6 4889DF   		movq	%rbx, %rdi
 1431 01e9 E8000000 		call	_ZN8UnitTest11TestDetailsC1ERKS0_i@PLT
 1431      00
 1432 01ee C744240C 		movl	$3, 12(%rsp)
 1432      03000000 
 1433 01f6 E8000000 		call	_ZN8UnitTest11CurrentTest7ResultsEv@PLT
 1433      00
 1434 01fb 488B38   		movq	(%rax), %rdi
 1435 01fe 488D7424 		leaq	12(%rsp), %rsi
 1435      0C
 1436 0203 4889D9   		movq	%rbx, %rcx
 1437 0206 4889EA   		movq	%rbp, %rdx
 1438 0209 E8000000 		call	_ZN8UnitTest10CheckEqualIihEEvRNS_11TestResultsERKT_RKT0_RKNS_11TestDetailsE
 1438      00
 1439              	.LEHE36:
 1440              	.L111:
 1441 020e 4889EE   		movq	%rbp, %rsi
 1442 0211 BF340000 		movl	$52, %edi
 1442      00
 1443              	.LEHB37:
 1444 0216 E8000000 		call	getHexNibble@PLT
 1444      00
 1445              	.LEHE37:
 1446 021b 8844240B 		movb	%al, 11(%rsp)
 1447              	.LEHB38:
 1448 021f E8000000 		call	_ZN8UnitTest11CurrentTest7DetailsEv@PLT
 1448      00
 1449 0224 488B30   		movq	(%rax), %rsi
 1450 0227 BA240000 		movl	$36, %edx
 1450      00
 1451 022c 4889DF   		movq	%rbx, %rdi
 1452 022f E8000000 		call	_ZN8UnitTest11TestDetailsC1ERKS0_i@PLT
 1452      00
 1453 0234 C644240C 		movb	$0, 12(%rsp)
 1453      00
 1454 0239 E8000000 		call	_ZN8UnitTest11CurrentTest7ResultsEv@PLT
 1454      00
 1455 023e 488B38   		movq	(%rax), %rdi
 1456 0241 488D5424 		leaq	11(%rsp), %rdx
 1456      0B
 1457 0246 488D7424 		leaq	12(%rsp), %rsi
 1457      0C
 1458 024b 4889D9   		movq	%rbx, %rcx
 1459 024e E8000000 		call	_ZN8UnitTest10CheckEqualIbbEEvRNS_11TestResultsERKT_RKT0_RKNS_11TestDetailsE
 1459      00
 1460              	.LEHE38:
 1461              	.L114:
 1462              	.LEHB39:
 1463 0253 E8000000 		call	_ZN8UnitTest11CurrentTest7DetailsEv@PLT
 1463      00
 1464 0258 488B30   		movq	(%rax), %rsi
 1465 025b BA250000 		movl	$37, %edx
 1465      00
 1466 0260 4889DF   		movq	%rbx, %rdi
 1467 0263 E8000000 		call	_ZN8UnitTest11TestDetailsC1ERKS0_i@PLT
 1467      00
 1468 0268 C744240C 		movl	$4, 12(%rsp)
 1468      04000000 
 1469 0270 E8000000 		call	_ZN8UnitTest11CurrentTest7ResultsEv@PLT
 1469      00
 1470 0275 488B38   		movq	(%rax), %rdi
 1471 0278 488D7424 		leaq	12(%rsp), %rsi
 1471      0C
 1472 027d 4889D9   		movq	%rbx, %rcx
 1473 0280 4889EA   		movq	%rbp, %rdx
 1474 0283 E8000000 		call	_ZN8UnitTest10CheckEqualIihEEvRNS_11TestResultsERKT_RKT0_RKNS_11TestDetailsE
 1474      00
 1475              	.LEHE39:
 1476              	.L117:
 1477 0288 4889EE   		movq	%rbp, %rsi
 1478 028b BF350000 		movl	$53, %edi
 1478      00
 1479              	.LEHB40:
 1480 0290 E8000000 		call	getHexNibble@PLT
 1480      00
 1481              	.LEHE40:
 1482 0295 8844240B 		movb	%al, 11(%rsp)
 1483              	.LEHB41:
 1484 0299 E8000000 		call	_ZN8UnitTest11CurrentTest7DetailsEv@PLT
 1484      00
 1485 029e 488B30   		movq	(%rax), %rsi
 1486 02a1 BA270000 		movl	$39, %edx
 1486      00
 1487 02a6 4889DF   		movq	%rbx, %rdi
 1488 02a9 E8000000 		call	_ZN8UnitTest11TestDetailsC1ERKS0_i@PLT
 1488      00
 1489 02ae C644240C 		movb	$0, 12(%rsp)
 1489      00
 1490 02b3 E8000000 		call	_ZN8UnitTest11CurrentTest7ResultsEv@PLT
 1490      00
 1491 02b8 488B38   		movq	(%rax), %rdi
 1492 02bb 488D5424 		leaq	11(%rsp), %rdx
 1492      0B
 1493 02c0 488D7424 		leaq	12(%rsp), %rsi
 1493      0C
 1494 02c5 4889D9   		movq	%rbx, %rcx
 1495 02c8 E8000000 		call	_ZN8UnitTest10CheckEqualIbbEEvRNS_11TestResultsERKT_RKT0_RKNS_11TestDetailsE
 1495      00
 1496              	.LEHE41:
 1497              	.L120:
 1498              	.LEHB42:
 1499 02cd E8000000 		call	_ZN8UnitTest11CurrentTest7DetailsEv@PLT
 1499      00
 1500 02d2 488B30   		movq	(%rax), %rsi
 1501 02d5 BA280000 		movl	$40, %edx
 1501      00
 1502 02da 4889DF   		movq	%rbx, %rdi
 1503 02dd E8000000 		call	_ZN8UnitTest11TestDetailsC1ERKS0_i@PLT
 1503      00
 1504 02e2 C744240C 		movl	$5, 12(%rsp)
 1504      05000000 
 1505 02ea E8000000 		call	_ZN8UnitTest11CurrentTest7ResultsEv@PLT
 1505      00
 1506 02ef 488B38   		movq	(%rax), %rdi
 1507 02f2 488D7424 		leaq	12(%rsp), %rsi
 1507      0C
 1508 02f7 4889D9   		movq	%rbx, %rcx
 1509 02fa 4889EA   		movq	%rbp, %rdx
 1510 02fd E8000000 		call	_ZN8UnitTest10CheckEqualIihEEvRNS_11TestResultsERKT_RKT0_RKNS_11TestDetailsE
 1510      00
 1511              	.LEHE42:
 1512              	.L123:
 1513 0302 4889EE   		movq	%rbp, %rsi
 1514 0305 BF360000 		movl	$54, %edi
 1514      00
 1515              	.LEHB43:
 1516 030a E8000000 		call	getHexNibble@PLT
 1516      00
 1517              	.LEHE43:
 1518 030f 8844240B 		movb	%al, 11(%rsp)
 1519              	.LEHB44:
 1520 0313 E8000000 		call	_ZN8UnitTest11CurrentTest7DetailsEv@PLT
 1520      00
 1521 0318 488B30   		movq	(%rax), %rsi
 1522 031b BA2A0000 		movl	$42, %edx
 1522      00
 1523 0320 4889DF   		movq	%rbx, %rdi
 1524 0323 E8000000 		call	_ZN8UnitTest11TestDetailsC1ERKS0_i@PLT
 1524      00
 1525 0328 C644240C 		movb	$0, 12(%rsp)
 1525      00
 1526 032d E8000000 		call	_ZN8UnitTest11CurrentTest7ResultsEv@PLT
 1526      00
 1527 0332 488B38   		movq	(%rax), %rdi
 1528 0335 488D5424 		leaq	11(%rsp), %rdx
 1528      0B
 1529 033a 488D7424 		leaq	12(%rsp), %rsi
 1529      0C
 1530 033f 4889D9   		movq	%rbx, %rcx
 1531 0342 E8000000 		call	_ZN8UnitTest10CheckEqualIbbEEvRNS_11TestResultsERKT_RKT0_RKNS_11TestDetailsE
 1531      00
 1532              	.LEHE44:
 1533              	.L126:
 1534              	.LEHB45:
 1535 0347 E8000000 		call	_ZN8UnitTest11CurrentTest7DetailsEv@PLT
 1535      00
 1536 034c 488B30   		movq	(%rax), %rsi
 1537 034f BA2B0000 		movl	$43, %edx
 1537      00
 1538 0354 4889DF   		movq	%rbx, %rdi
 1539 0357 E8000000 		call	_ZN8UnitTest11TestDetailsC1ERKS0_i@PLT
 1539      00
 1540 035c C744240C 		movl	$6, 12(%rsp)
 1540      06000000 
 1541 0364 E8000000 		call	_ZN8UnitTest11CurrentTest7ResultsEv@PLT
 1541      00
 1542 0369 488B38   		movq	(%rax), %rdi
 1543 036c 488D7424 		leaq	12(%rsp), %rsi
 1543      0C
 1544 0371 4889D9   		movq	%rbx, %rcx
 1545 0374 4889EA   		movq	%rbp, %rdx
 1546 0377 E8000000 		call	_ZN8UnitTest10CheckEqualIihEEvRNS_11TestResultsERKT_RKT0_RKNS_11TestDetailsE
 1546      00
 1547              	.LEHE45:
 1548              	.L129:
 1549 037c 4889EE   		movq	%rbp, %rsi
 1550 037f BF370000 		movl	$55, %edi
 1550      00
 1551              	.LEHB46:
 1552 0384 E8000000 		call	getHexNibble@PLT
 1552      00
 1553              	.LEHE46:
 1554 0389 8844240B 		movb	%al, 11(%rsp)
 1555              	.LEHB47:
 1556 038d E8000000 		call	_ZN8UnitTest11CurrentTest7DetailsEv@PLT
 1556      00
 1557 0392 488B30   		movq	(%rax), %rsi
 1558 0395 BA2D0000 		movl	$45, %edx
 1558      00
 1559 039a 4889DF   		movq	%rbx, %rdi
 1560 039d E8000000 		call	_ZN8UnitTest11TestDetailsC1ERKS0_i@PLT
 1560      00
 1561 03a2 C644240C 		movb	$0, 12(%rsp)
 1561      00
 1562 03a7 E8000000 		call	_ZN8UnitTest11CurrentTest7ResultsEv@PLT
 1562      00
 1563 03ac 488B38   		movq	(%rax), %rdi
 1564 03af 488D5424 		leaq	11(%rsp), %rdx
 1564      0B
 1565 03b4 488D7424 		leaq	12(%rsp), %rsi
 1565      0C
 1566 03b9 4889D9   		movq	%rbx, %rcx
 1567 03bc E8000000 		call	_ZN8UnitTest10CheckEqualIbbEEvRNS_11TestResultsERKT_RKT0_RKNS_11TestDetailsE
 1567      00
 1568              	.LEHE47:
 1569              	.L132:
 1570              	.LEHB48:
 1571 03c1 E8000000 		call	_ZN8UnitTest11CurrentTest7DetailsEv@PLT
 1571      00
 1572 03c6 488B30   		movq	(%rax), %rsi
 1573 03c9 BA2E0000 		movl	$46, %edx
 1573      00
 1574 03ce 4889DF   		movq	%rbx, %rdi
 1575 03d1 E8000000 		call	_ZN8UnitTest11TestDetailsC1ERKS0_i@PLT
 1575      00
 1576 03d6 C744240C 		movl	$7, 12(%rsp)
 1576      07000000 
 1577 03de E8000000 		call	_ZN8UnitTest11CurrentTest7ResultsEv@PLT
 1577      00
 1578 03e3 488B38   		movq	(%rax), %rdi
 1579 03e6 488D7424 		leaq	12(%rsp), %rsi
 1579      0C
 1580 03eb 4889D9   		movq	%rbx, %rcx
 1581 03ee 4889EA   		movq	%rbp, %rdx
 1582 03f1 E8000000 		call	_ZN8UnitTest10CheckEqualIihEEvRNS_11TestResultsERKT_RKT0_RKNS_11TestDetailsE
 1582      00
 1583              	.LEHE48:
 1584              	.L135:
 1585 03f6 4889EE   		movq	%rbp, %rsi
 1586 03f9 BF380000 		movl	$56, %edi
 1586      00
 1587              	.LEHB49:
 1588 03fe E8000000 		call	getHexNibble@PLT
 1588      00
 1589              	.LEHE49:
 1590 0403 8844240B 		movb	%al, 11(%rsp)
 1591              	.LEHB50:
 1592 0407 E8000000 		call	_ZN8UnitTest11CurrentTest7DetailsEv@PLT
 1592      00
 1593 040c 488B30   		movq	(%rax), %rsi
 1594 040f BA300000 		movl	$48, %edx
 1594      00
 1595 0414 4889DF   		movq	%rbx, %rdi
 1596 0417 E8000000 		call	_ZN8UnitTest11TestDetailsC1ERKS0_i@PLT
 1596      00
 1597 041c C644240C 		movb	$0, 12(%rsp)
 1597      00
 1598 0421 E8000000 		call	_ZN8UnitTest11CurrentTest7ResultsEv@PLT
 1598      00
 1599 0426 488B38   		movq	(%rax), %rdi
 1600 0429 488D5424 		leaq	11(%rsp), %rdx
 1600      0B
 1601 042e 488D7424 		leaq	12(%rsp), %rsi
 1601      0C
 1602 0433 4889D9   		movq	%rbx, %rcx
 1603 0436 E8000000 		call	_ZN8UnitTest10CheckEqualIbbEEvRNS_11TestResultsERKT_RKT0_RKNS_11TestDetailsE
 1603      00
 1604              	.LEHE50:
 1605              	.L138:
 1606              	.LEHB51:
 1607 043b E8000000 		call	_ZN8UnitTest11CurrentTest7DetailsEv@PLT
 1607      00
 1608 0440 488B30   		movq	(%rax), %rsi
 1609 0443 BA310000 		movl	$49, %edx
 1609      00
 1610 0448 4889DF   		movq	%rbx, %rdi
 1611 044b E8000000 		call	_ZN8UnitTest11TestDetailsC1ERKS0_i@PLT
 1611      00
 1612 0450 C744240C 		movl	$8, 12(%rsp)
 1612      08000000 
 1613 0458 E8000000 		call	_ZN8UnitTest11CurrentTest7ResultsEv@PLT
 1613      00
 1614 045d 488B38   		movq	(%rax), %rdi
 1615 0460 488D7424 		leaq	12(%rsp), %rsi
 1615      0C
 1616 0465 4889D9   		movq	%rbx, %rcx
 1617 0468 4889EA   		movq	%rbp, %rdx
 1618 046b E8000000 		call	_ZN8UnitTest10CheckEqualIihEEvRNS_11TestResultsERKT_RKT0_RKNS_11TestDetailsE
 1618      00
 1619              	.LEHE51:
 1620              	.L141:
 1621 0470 4889EE   		movq	%rbp, %rsi
 1622 0473 BF390000 		movl	$57, %edi
 1622      00
 1623              	.LEHB52:
 1624 0478 E8000000 		call	getHexNibble@PLT
 1624      00
 1625              	.LEHE52:
 1626 047d 8844240B 		movb	%al, 11(%rsp)
 1627              	.LEHB53:
 1628 0481 E8000000 		call	_ZN8UnitTest11CurrentTest7DetailsEv@PLT
 1628      00
 1629 0486 488B30   		movq	(%rax), %rsi
 1630 0489 BA330000 		movl	$51, %edx
 1630      00
 1631 048e 4889DF   		movq	%rbx, %rdi
 1632 0491 E8000000 		call	_ZN8UnitTest11TestDetailsC1ERKS0_i@PLT
 1632      00
 1633 0496 C644240C 		movb	$0, 12(%rsp)
 1633      00
 1634 049b E8000000 		call	_ZN8UnitTest11CurrentTest7ResultsEv@PLT
 1634      00
 1635 04a0 488B38   		movq	(%rax), %rdi
 1636 04a3 488D5424 		leaq	11(%rsp), %rdx
 1636      0B
 1637 04a8 488D7424 		leaq	12(%rsp), %rsi
 1637      0C
 1638 04ad 4889D9   		movq	%rbx, %rcx
 1639 04b0 E8000000 		call	_ZN8UnitTest10CheckEqualIbbEEvRNS_11TestResultsERKT_RKT0_RKNS_11TestDetailsE
 1639      00
 1640              	.LEHE53:
 1641              	.L144:
 1642              	.LEHB54:
 1643 04b5 E8000000 		call	_ZN8UnitTest11CurrentTest7DetailsEv@PLT
 1643      00
 1644 04ba 488B30   		movq	(%rax), %rsi
 1645 04bd BA340000 		movl	$52, %edx
 1645      00
 1646 04c2 4889DF   		movq	%rbx, %rdi
 1647 04c5 E8000000 		call	_ZN8UnitTest11TestDetailsC1ERKS0_i@PLT
 1647      00
 1648 04ca C744240C 		movl	$9, 12(%rsp)
 1648      09000000 
 1649 04d2 E8000000 		call	_ZN8UnitTest11CurrentTest7ResultsEv@PLT
 1649      00
 1650 04d7 488B38   		movq	(%rax), %rdi
 1651 04da 488D7424 		leaq	12(%rsp), %rsi
 1651      0C
 1652 04df 4889D9   		movq	%rbx, %rcx
 1653 04e2 4889EA   		movq	%rbp, %rdx
 1654 04e5 E8000000 		call	_ZN8UnitTest10CheckEqualIihEEvRNS_11TestResultsERKT_RKT0_RKNS_11TestDetailsE
 1654      00
 1655              	.LEHE54:
 1656              	.L147:
 1657 04ea 4889EE   		movq	%rbp, %rsi
 1658 04ed BF410000 		movl	$65, %edi
 1658      00
 1659              	.LEHB55:
 1660 04f2 E8000000 		call	getHexNibble@PLT
 1660      00
 1661              	.LEHE55:
 1662 04f7 8844240B 		movb	%al, 11(%rsp)
 1663              	.LEHB56:
 1664 04fb E8000000 		call	_ZN8UnitTest11CurrentTest7DetailsEv@PLT
 1664      00
 1665 0500 488B30   		movq	(%rax), %rsi
 1666 0503 BA360000 		movl	$54, %edx
 1666      00
 1667 0508 4889DF   		movq	%rbx, %rdi
 1668 050b E8000000 		call	_ZN8UnitTest11TestDetailsC1ERKS0_i@PLT
 1668      00
 1669 0510 C644240C 		movb	$0, 12(%rsp)
 1669      00
 1670 0515 E8000000 		call	_ZN8UnitTest11CurrentTest7ResultsEv@PLT
 1670      00
 1671 051a 488B38   		movq	(%rax), %rdi
 1672 051d 488D5424 		leaq	11(%rsp), %rdx
 1672      0B
 1673 0522 488D7424 		leaq	12(%rsp), %rsi
 1673      0C
 1674 0527 4889D9   		movq	%rbx, %rcx
 1675 052a E8000000 		call	_ZN8UnitTest10CheckEqualIbbEEvRNS_11TestResultsERKT_RKT0_RKNS_11TestDetailsE
 1675      00
 1676              	.LEHE56:
 1677              	.L150:
 1678              	.LEHB57:
 1679 052f E8000000 		call	_ZN8UnitTest11CurrentTest7DetailsEv@PLT
 1679      00
 1680 0534 488B30   		movq	(%rax), %rsi
 1681 0537 BA370000 		movl	$55, %edx
 1681      00
 1682 053c 4889DF   		movq	%rbx, %rdi
 1683 053f E8000000 		call	_ZN8UnitTest11TestDetailsC1ERKS0_i@PLT
 1683      00
 1684 0544 C744240C 		movl	$10, 12(%rsp)
 1684      0A000000 
 1685 054c E8000000 		call	_ZN8UnitTest11CurrentTest7ResultsEv@PLT
 1685      00
 1686 0551 488B38   		movq	(%rax), %rdi
 1687 0554 488D7424 		leaq	12(%rsp), %rsi
 1687      0C
 1688 0559 4889D9   		movq	%rbx, %rcx
 1689 055c 4889EA   		movq	%rbp, %rdx
 1690 055f E8000000 		call	_ZN8UnitTest10CheckEqualIihEEvRNS_11TestResultsERKT_RKT0_RKNS_11TestDetailsE
 1690      00
 1691              	.LEHE57:
 1692              	.L153:
 1693 0564 4889EE   		movq	%rbp, %rsi
 1694 0567 BF420000 		movl	$66, %edi
 1694      00
 1695              	.LEHB58:
 1696 056c E8000000 		call	getHexNibble@PLT
 1696      00
 1697              	.LEHE58:
 1698 0571 8844240B 		movb	%al, 11(%rsp)
 1699              	.LEHB59:
 1700 0575 E8000000 		call	_ZN8UnitTest11CurrentTest7DetailsEv@PLT
 1700      00
 1701 057a 488B30   		movq	(%rax), %rsi
 1702 057d BA390000 		movl	$57, %edx
 1702      00
 1703 0582 4889DF   		movq	%rbx, %rdi
 1704 0585 E8000000 		call	_ZN8UnitTest11TestDetailsC1ERKS0_i@PLT
 1704      00
 1705 058a C644240C 		movb	$0, 12(%rsp)
 1705      00
 1706 058f E8000000 		call	_ZN8UnitTest11CurrentTest7ResultsEv@PLT
 1706      00
 1707 0594 488B38   		movq	(%rax), %rdi
 1708 0597 488D5424 		leaq	11(%rsp), %rdx
 1708      0B
 1709 059c 488D7424 		leaq	12(%rsp), %rsi
 1709      0C
 1710 05a1 4889D9   		movq	%rbx, %rcx
 1711 05a4 E8000000 		call	_ZN8UnitTest10CheckEqualIbbEEvRNS_11TestResultsERKT_RKT0_RKNS_11TestDetailsE
 1711      00
 1712              	.LEHE59:
 1713              	.L156:
 1714              	.LEHB60:
 1715 05a9 E8000000 		call	_ZN8UnitTest11CurrentTest7DetailsEv@PLT
 1715      00
 1716 05ae 488B30   		movq	(%rax), %rsi
 1717 05b1 BA3A0000 		movl	$58, %edx
 1717      00
 1718 05b6 4889DF   		movq	%rbx, %rdi
 1719 05b9 E8000000 		call	_ZN8UnitTest11TestDetailsC1ERKS0_i@PLT
 1719      00
 1720 05be C744240C 		movl	$11, 12(%rsp)
 1720      0B000000 
 1721 05c6 E8000000 		call	_ZN8UnitTest11CurrentTest7ResultsEv@PLT
 1721      00
 1722 05cb 488B38   		movq	(%rax), %rdi
 1723 05ce 488D7424 		leaq	12(%rsp), %rsi
 1723      0C
 1724 05d3 4889D9   		movq	%rbx, %rcx
 1725 05d6 4889EA   		movq	%rbp, %rdx
 1726 05d9 E8000000 		call	_ZN8UnitTest10CheckEqualIihEEvRNS_11TestResultsERKT_RKT0_RKNS_11TestDetailsE
 1726      00
 1727              	.LEHE60:
 1728              	.L159:
 1729 05de 4889EE   		movq	%rbp, %rsi
 1730 05e1 BF430000 		movl	$67, %edi
 1730      00
 1731              	.LEHB61:
 1732 05e6 E8000000 		call	getHexNibble@PLT
 1732      00
 1733              	.LEHE61:
 1734 05eb 8844240B 		movb	%al, 11(%rsp)
 1735              	.LEHB62:
 1736 05ef E8000000 		call	_ZN8UnitTest11CurrentTest7DetailsEv@PLT
 1736      00
 1737 05f4 488B30   		movq	(%rax), %rsi
 1738 05f7 BA3C0000 		movl	$60, %edx
 1738      00
 1739 05fc 4889DF   		movq	%rbx, %rdi
 1740 05ff E8000000 		call	_ZN8UnitTest11TestDetailsC1ERKS0_i@PLT
 1740      00
 1741 0604 C644240C 		movb	$0, 12(%rsp)
 1741      00
 1742 0609 E8000000 		call	_ZN8UnitTest11CurrentTest7ResultsEv@PLT
 1742      00
 1743 060e 488B38   		movq	(%rax), %rdi
 1744 0611 488D5424 		leaq	11(%rsp), %rdx
 1744      0B
 1745 0616 488D7424 		leaq	12(%rsp), %rsi
 1745      0C
 1746 061b 4889D9   		movq	%rbx, %rcx
 1747 061e E8000000 		call	_ZN8UnitTest10CheckEqualIbbEEvRNS_11TestResultsERKT_RKT0_RKNS_11TestDetailsE
 1747      00
 1748              	.LEHE62:
 1749              	.L162:
 1750              	.LEHB63:
 1751 0623 E8000000 		call	_ZN8UnitTest11CurrentTest7DetailsEv@PLT
 1751      00
 1752 0628 488B30   		movq	(%rax), %rsi
 1753 062b BA3D0000 		movl	$61, %edx
 1753      00
 1754 0630 4889DF   		movq	%rbx, %rdi
 1755 0633 E8000000 		call	_ZN8UnitTest11TestDetailsC1ERKS0_i@PLT
 1755      00
 1756 0638 C744240C 		movl	$12, 12(%rsp)
 1756      0C000000 
 1757 0640 E8000000 		call	_ZN8UnitTest11CurrentTest7ResultsEv@PLT
 1757      00
 1758 0645 488B38   		movq	(%rax), %rdi
 1759 0648 488D7424 		leaq	12(%rsp), %rsi
 1759      0C
 1760 064d 4889D9   		movq	%rbx, %rcx
 1761 0650 4889EA   		movq	%rbp, %rdx
 1762 0653 E8000000 		call	_ZN8UnitTest10CheckEqualIihEEvRNS_11TestResultsERKT_RKT0_RKNS_11TestDetailsE
 1762      00
 1763              	.LEHE63:
 1764              	.L165:
 1765 0658 4889EE   		movq	%rbp, %rsi
 1766 065b BF440000 		movl	$68, %edi
 1766      00
 1767              	.LEHB64:
 1768 0660 E8000000 		call	getHexNibble@PLT
 1768      00
 1769              	.LEHE64:
 1770 0665 8844240B 		movb	%al, 11(%rsp)
 1771              	.LEHB65:
 1772 0669 E8000000 		call	_ZN8UnitTest11CurrentTest7DetailsEv@PLT
 1772      00
 1773 066e 488B30   		movq	(%rax), %rsi
 1774 0671 BA3F0000 		movl	$63, %edx
 1774      00
 1775 0676 4889DF   		movq	%rbx, %rdi
 1776 0679 E8000000 		call	_ZN8UnitTest11TestDetailsC1ERKS0_i@PLT
 1776      00
 1777 067e C644240C 		movb	$0, 12(%rsp)
 1777      00
 1778 0683 E8000000 		call	_ZN8UnitTest11CurrentTest7ResultsEv@PLT
 1778      00
 1779 0688 488B38   		movq	(%rax), %rdi
 1780 068b 488D5424 		leaq	11(%rsp), %rdx
 1780      0B
 1781 0690 488D7424 		leaq	12(%rsp), %rsi
 1781      0C
 1782 0695 4889D9   		movq	%rbx, %rcx
 1783 0698 E8000000 		call	_ZN8UnitTest10CheckEqualIbbEEvRNS_11TestResultsERKT_RKT0_RKNS_11TestDetailsE
 1783      00
 1784              	.LEHE65:
 1785              	.L168:
 1786              	.LEHB66:
 1787 069d E8000000 		call	_ZN8UnitTest11CurrentTest7DetailsEv@PLT
 1787      00
 1788 06a2 488B30   		movq	(%rax), %rsi
 1789 06a5 BA400000 		movl	$64, %edx
 1789      00
 1790 06aa 4889DF   		movq	%rbx, %rdi
 1791 06ad E8000000 		call	_ZN8UnitTest11TestDetailsC1ERKS0_i@PLT
 1791      00
 1792 06b2 C744240C 		movl	$13, 12(%rsp)
 1792      0D000000 
 1793 06ba E8000000 		call	_ZN8UnitTest11CurrentTest7ResultsEv@PLT
 1793      00
 1794 06bf 488B38   		movq	(%rax), %rdi
 1795 06c2 488D7424 		leaq	12(%rsp), %rsi
 1795      0C
 1796 06c7 4889D9   		movq	%rbx, %rcx
 1797 06ca 4889EA   		movq	%rbp, %rdx
 1798 06cd E8000000 		call	_ZN8UnitTest10CheckEqualIihEEvRNS_11TestResultsERKT_RKT0_RKNS_11TestDetailsE
 1798      00
 1799              	.LEHE66:
 1800              	.L171:
 1801 06d2 4889EE   		movq	%rbp, %rsi
 1802 06d5 BF450000 		movl	$69, %edi
 1802      00
 1803              	.LEHB67:
 1804 06da E8000000 		call	getHexNibble@PLT
 1804      00
 1805              	.LEHE67:
 1806 06df 8844240B 		movb	%al, 11(%rsp)
 1807              	.LEHB68:
 1808 06e3 E8000000 		call	_ZN8UnitTest11CurrentTest7DetailsEv@PLT
 1808      00
 1809 06e8 488B30   		movq	(%rax), %rsi
 1810 06eb BA420000 		movl	$66, %edx
 1810      00
 1811 06f0 4889DF   		movq	%rbx, %rdi
 1812 06f3 E8000000 		call	_ZN8UnitTest11TestDetailsC1ERKS0_i@PLT
 1812      00
 1813 06f8 C644240C 		movb	$0, 12(%rsp)
 1813      00
 1814 06fd E8000000 		call	_ZN8UnitTest11CurrentTest7ResultsEv@PLT
 1814      00
 1815 0702 488B38   		movq	(%rax), %rdi
 1816 0705 488D5424 		leaq	11(%rsp), %rdx
 1816      0B
 1817 070a 488D7424 		leaq	12(%rsp), %rsi
 1817      0C
 1818 070f 4889D9   		movq	%rbx, %rcx
 1819 0712 E8000000 		call	_ZN8UnitTest10CheckEqualIbbEEvRNS_11TestResultsERKT_RKT0_RKNS_11TestDetailsE
 1819      00
 1820              	.LEHE68:
 1821              	.L174:
 1822              	.LEHB69:
 1823 0717 E8000000 		call	_ZN8UnitTest11CurrentTest7DetailsEv@PLT
 1823      00
 1824 071c 488B30   		movq	(%rax), %rsi
 1825 071f BA430000 		movl	$67, %edx
 1825      00
 1826 0724 4889DF   		movq	%rbx, %rdi
 1827 0727 E8000000 		call	_ZN8UnitTest11TestDetailsC1ERKS0_i@PLT
 1827      00
 1828 072c C744240C 		movl	$14, 12(%rsp)
 1828      0E000000 
 1829 0734 E8000000 		call	_ZN8UnitTest11CurrentTest7ResultsEv@PLT
 1829      00
 1830 0739 488B38   		movq	(%rax), %rdi
 1831 073c 488D7424 		leaq	12(%rsp), %rsi
 1831      0C
 1832 0741 4889D9   		movq	%rbx, %rcx
 1833 0744 4889EA   		movq	%rbp, %rdx
 1834 0747 E8000000 		call	_ZN8UnitTest10CheckEqualIihEEvRNS_11TestResultsERKT_RKT0_RKNS_11TestDetailsE
 1834      00
 1835              	.LEHE69:
 1836              	.L177:
 1837 074c 4889EE   		movq	%rbp, %rsi
 1838 074f BF460000 		movl	$70, %edi
 1838      00
 1839              	.LEHB70:
 1840 0754 E8000000 		call	getHexNibble@PLT
 1840      00
 1841              	.LEHE70:
 1842 0759 8844240B 		movb	%al, 11(%rsp)
 1843              	.LEHB71:
 1844 075d E8000000 		call	_ZN8UnitTest11CurrentTest7DetailsEv@PLT
 1844      00
 1845 0762 488B30   		movq	(%rax), %rsi
 1846 0765 BA450000 		movl	$69, %edx
 1846      00
 1847 076a 4889DF   		movq	%rbx, %rdi
 1848 076d E8000000 		call	_ZN8UnitTest11TestDetailsC1ERKS0_i@PLT
 1848      00
 1849 0772 C644240C 		movb	$0, 12(%rsp)
 1849      00
 1850 0777 E8000000 		call	_ZN8UnitTest11CurrentTest7ResultsEv@PLT
 1850      00
 1851 077c 488B38   		movq	(%rax), %rdi
 1852 077f 488D5424 		leaq	11(%rsp), %rdx
 1852      0B
 1853 0784 488D7424 		leaq	12(%rsp), %rsi
 1853      0C
 1854 0789 4889D9   		movq	%rbx, %rcx
 1855 078c E8000000 		call	_ZN8UnitTest10CheckEqualIbbEEvRNS_11TestResultsERKT_RKT0_RKNS_11TestDetailsE
 1855      00
 1856              	.LEHE71:
 1857              	.L180:
 1858              	.LEHB72:
 1859 0791 E8000000 		call	_ZN8UnitTest11CurrentTest7DetailsEv@PLT
 1859      00
 1860 0796 488B30   		movq	(%rax), %rsi
 1861 0799 BA460000 		movl	$70, %edx
 1861      00
 1862 079e 4889DF   		movq	%rbx, %rdi
 1863 07a1 E8000000 		call	_ZN8UnitTest11TestDetailsC1ERKS0_i@PLT
 1863      00
 1864 07a6 C744240C 		movl	$15, 12(%rsp)
 1864      0F000000 
 1865 07ae E8000000 		call	_ZN8UnitTest11CurrentTest7ResultsEv@PLT
 1865      00
 1866 07b3 488B38   		movq	(%rax), %rdi
 1867 07b6 488D7424 		leaq	12(%rsp), %rsi
 1867      0C
 1868 07bb 4889D9   		movq	%rbx, %rcx
 1869 07be 4889EA   		movq	%rbp, %rdx
 1870 07c1 E8000000 		call	_ZN8UnitTest10CheckEqualIihEEvRNS_11TestResultsERKT_RKT0_RKNS_11TestDetailsE
 1870      00
 1871              	.LEHE72:
 1872              	.L183:
 1873 07c6 4889EE   		movq	%rbp, %rsi
 1874 07c9 BF610000 		movl	$97, %edi
 1874      00
 1875              	.LEHB73:
 1876 07ce E8000000 		call	getHexNibble@PLT
 1876      00
 1877              	.LEHE73:
 1878 07d3 8844240B 		movb	%al, 11(%rsp)
 1879              	.LEHB74:
 1880 07d7 E8000000 		call	_ZN8UnitTest11CurrentTest7DetailsEv@PLT
 1880      00
 1881 07dc 488B30   		movq	(%rax), %rsi
 1882 07df BA480000 		movl	$72, %edx
 1882      00
 1883 07e4 4889DF   		movq	%rbx, %rdi
 1884 07e7 E8000000 		call	_ZN8UnitTest11TestDetailsC1ERKS0_i@PLT
 1884      00
 1885 07ec C644240C 		movb	$0, 12(%rsp)
 1885      00
 1886 07f1 E8000000 		call	_ZN8UnitTest11CurrentTest7ResultsEv@PLT
 1886      00
 1887 07f6 488B38   		movq	(%rax), %rdi
 1888 07f9 488D5424 		leaq	11(%rsp), %rdx
 1888      0B
 1889 07fe 488D7424 		leaq	12(%rsp), %rsi
 1889      0C
 1890 0803 4889D9   		movq	%rbx, %rcx
 1891 0806 E8000000 		call	_ZN8UnitTest10CheckEqualIbbEEvRNS_11TestResultsERKT_RKT0_RKNS_11TestDetailsE
 1891      00
 1892              	.LEHE74:
 1893              	.L186:
 1894              	.LEHB75:
 1895 080b E8000000 		call	_ZN8UnitTest11CurrentTest7DetailsEv@PLT
 1895      00
 1896 0810 488B30   		movq	(%rax), %rsi
 1897 0813 BA490000 		movl	$73, %edx
 1897      00
 1898 0818 4889DF   		movq	%rbx, %rdi
 1899 081b E8000000 		call	_ZN8UnitTest11TestDetailsC1ERKS0_i@PLT
 1899      00
 1900 0820 C744240C 		movl	$10, 12(%rsp)
 1900      0A000000 
 1901 0828 E8000000 		call	_ZN8UnitTest11CurrentTest7ResultsEv@PLT
 1901      00
 1902 082d 488B38   		movq	(%rax), %rdi
 1903 0830 488D7424 		leaq	12(%rsp), %rsi
 1903      0C
 1904 0835 4889D9   		movq	%rbx, %rcx
 1905 0838 4889EA   		movq	%rbp, %rdx
 1906 083b E8000000 		call	_ZN8UnitTest10CheckEqualIihEEvRNS_11TestResultsERKT_RKT0_RKNS_11TestDetailsE
 1906      00
 1907              	.LEHE75:
 1908              	.L189:
 1909 0840 4889EE   		movq	%rbp, %rsi
 1910 0843 BF620000 		movl	$98, %edi
 1910      00
 1911              	.LEHB76:
 1912 0848 E8000000 		call	getHexNibble@PLT
 1912      00
 1913              	.LEHE76:
 1914 084d 8844240B 		movb	%al, 11(%rsp)
 1915              	.LEHB77:
 1916 0851 E8000000 		call	_ZN8UnitTest11CurrentTest7DetailsEv@PLT
 1916      00
 1917 0856 488B30   		movq	(%rax), %rsi
 1918 0859 BA4B0000 		movl	$75, %edx
 1918      00
 1919 085e 4889DF   		movq	%rbx, %rdi
 1920 0861 E8000000 		call	_ZN8UnitTest11TestDetailsC1ERKS0_i@PLT
 1920      00
 1921 0866 C644240C 		movb	$0, 12(%rsp)
 1921      00
 1922 086b E8000000 		call	_ZN8UnitTest11CurrentTest7ResultsEv@PLT
 1922      00
 1923 0870 488B38   		movq	(%rax), %rdi
 1924 0873 488D5424 		leaq	11(%rsp), %rdx
 1924      0B
 1925 0878 488D7424 		leaq	12(%rsp), %rsi
 1925      0C
 1926 087d 4889D9   		movq	%rbx, %rcx
 1927 0880 E8000000 		call	_ZN8UnitTest10CheckEqualIbbEEvRNS_11TestResultsERKT_RKT0_RKNS_11TestDetailsE
 1927      00
 1928              	.LEHE77:
 1929              	.L192:
 1930              	.LEHB78:
 1931 0885 E8000000 		call	_ZN8UnitTest11CurrentTest7DetailsEv@PLT
 1931      00
 1932 088a 488B30   		movq	(%rax), %rsi
 1933 088d BA4C0000 		movl	$76, %edx
 1933      00
 1934 0892 4889DF   		movq	%rbx, %rdi
 1935 0895 E8000000 		call	_ZN8UnitTest11TestDetailsC1ERKS0_i@PLT
 1935      00
 1936 089a C744240C 		movl	$11, 12(%rsp)
 1936      0B000000 
 1937 08a2 E8000000 		call	_ZN8UnitTest11CurrentTest7ResultsEv@PLT
 1937      00
 1938 08a7 488B38   		movq	(%rax), %rdi
 1939 08aa 488D7424 		leaq	12(%rsp), %rsi
 1939      0C
 1940 08af 4889D9   		movq	%rbx, %rcx
 1941 08b2 4889EA   		movq	%rbp, %rdx
 1942 08b5 E8000000 		call	_ZN8UnitTest10CheckEqualIihEEvRNS_11TestResultsERKT_RKT0_RKNS_11TestDetailsE
 1942      00
 1943              	.LEHE78:
 1944              	.L195:
 1945 08ba 4889EE   		movq	%rbp, %rsi
 1946 08bd BF630000 		movl	$99, %edi
 1946      00
 1947              	.LEHB79:
 1948 08c2 E8000000 		call	getHexNibble@PLT
 1948      00
 1949              	.LEHE79:
 1950 08c7 8844240B 		movb	%al, 11(%rsp)
 1951              	.LEHB80:
 1952 08cb E8000000 		call	_ZN8UnitTest11CurrentTest7DetailsEv@PLT
 1952      00
 1953 08d0 488B30   		movq	(%rax), %rsi
 1954 08d3 BA4E0000 		movl	$78, %edx
 1954      00
 1955 08d8 4889DF   		movq	%rbx, %rdi
 1956 08db E8000000 		call	_ZN8UnitTest11TestDetailsC1ERKS0_i@PLT
 1956      00
 1957 08e0 C644240C 		movb	$0, 12(%rsp)
 1957      00
 1958 08e5 E8000000 		call	_ZN8UnitTest11CurrentTest7ResultsEv@PLT
 1958      00
 1959 08ea 488B38   		movq	(%rax), %rdi
 1960 08ed 488D5424 		leaq	11(%rsp), %rdx
 1960      0B
 1961 08f2 488D7424 		leaq	12(%rsp), %rsi
 1961      0C
 1962 08f7 4889D9   		movq	%rbx, %rcx
 1963 08fa E8000000 		call	_ZN8UnitTest10CheckEqualIbbEEvRNS_11TestResultsERKT_RKT0_RKNS_11TestDetailsE
 1963      00
 1964              	.LEHE80:
 1965              	.L198:
 1966              	.LEHB81:
 1967 08ff E8000000 		call	_ZN8UnitTest11CurrentTest7DetailsEv@PLT
 1967      00
 1968 0904 488B30   		movq	(%rax), %rsi
 1969 0907 BA4F0000 		movl	$79, %edx
 1969      00
 1970 090c 4889DF   		movq	%rbx, %rdi
 1971 090f E8000000 		call	_ZN8UnitTest11TestDetailsC1ERKS0_i@PLT
 1971      00
 1972 0914 C744240C 		movl	$12, 12(%rsp)
 1972      0C000000 
 1973 091c E8000000 		call	_ZN8UnitTest11CurrentTest7ResultsEv@PLT
 1973      00
 1974 0921 488B38   		movq	(%rax), %rdi
 1975 0924 488D7424 		leaq	12(%rsp), %rsi
 1975      0C
 1976 0929 4889D9   		movq	%rbx, %rcx
 1977 092c 4889EA   		movq	%rbp, %rdx
 1978 092f E8000000 		call	_ZN8UnitTest10CheckEqualIihEEvRNS_11TestResultsERKT_RKT0_RKNS_11TestDetailsE
 1978      00
 1979              	.LEHE81:
 1980              	.L201:
 1981 0934 4889EE   		movq	%rbp, %rsi
 1982 0937 BF640000 		movl	$100, %edi
 1982      00
 1983              	.LEHB82:
 1984 093c E8000000 		call	getHexNibble@PLT
 1984      00
 1985              	.LEHE82:
 1986 0941 8844240B 		movb	%al, 11(%rsp)
 1987              	.LEHB83:
 1988 0945 E8000000 		call	_ZN8UnitTest11CurrentTest7DetailsEv@PLT
 1988      00
 1989 094a 488B30   		movq	(%rax), %rsi
 1990 094d BA510000 		movl	$81, %edx
 1990      00
 1991 0952 4889DF   		movq	%rbx, %rdi
 1992 0955 E8000000 		call	_ZN8UnitTest11TestDetailsC1ERKS0_i@PLT
 1992      00
 1993 095a C644240C 		movb	$0, 12(%rsp)
 1993      00
 1994 095f E8000000 		call	_ZN8UnitTest11CurrentTest7ResultsEv@PLT
 1994      00
 1995 0964 488B38   		movq	(%rax), %rdi
 1996 0967 488D5424 		leaq	11(%rsp), %rdx
 1996      0B
 1997 096c 488D7424 		leaq	12(%rsp), %rsi
 1997      0C
 1998 0971 4889D9   		movq	%rbx, %rcx
 1999 0974 E8000000 		call	_ZN8UnitTest10CheckEqualIbbEEvRNS_11TestResultsERKT_RKT0_RKNS_11TestDetailsE
 1999      00
 2000              	.LEHE83:
 2001              	.L204:
 2002              	.LEHB84:
 2003 0979 E8000000 		call	_ZN8UnitTest11CurrentTest7DetailsEv@PLT
 2003      00
 2004 097e 488B30   		movq	(%rax), %rsi
 2005 0981 BA520000 		movl	$82, %edx
 2005      00
 2006 0986 4889DF   		movq	%rbx, %rdi
 2007 0989 E8000000 		call	_ZN8UnitTest11TestDetailsC1ERKS0_i@PLT
 2007      00
 2008 098e C744240C 		movl	$13, 12(%rsp)
 2008      0D000000 
 2009 0996 E8000000 		call	_ZN8UnitTest11CurrentTest7ResultsEv@PLT
 2009      00
 2010 099b 488B38   		movq	(%rax), %rdi
 2011 099e 488D7424 		leaq	12(%rsp), %rsi
 2011      0C
 2012 09a3 4889D9   		movq	%rbx, %rcx
 2013 09a6 4889EA   		movq	%rbp, %rdx
 2014 09a9 E8000000 		call	_ZN8UnitTest10CheckEqualIihEEvRNS_11TestResultsERKT_RKT0_RKNS_11TestDetailsE
 2014      00
 2015              	.LEHE84:
 2016              	.L207:
 2017 09ae 4889EE   		movq	%rbp, %rsi
 2018 09b1 BF650000 		movl	$101, %edi
 2018      00
 2019              	.LEHB85:
 2020 09b6 E8000000 		call	getHexNibble@PLT
 2020      00
 2021              	.LEHE85:
 2022 09bb 8844240B 		movb	%al, 11(%rsp)
 2023              	.LEHB86:
 2024 09bf E8000000 		call	_ZN8UnitTest11CurrentTest7DetailsEv@PLT
 2024      00
 2025 09c4 488B30   		movq	(%rax), %rsi
 2026 09c7 BA540000 		movl	$84, %edx
 2026      00
 2027 09cc 4889DF   		movq	%rbx, %rdi
 2028 09cf E8000000 		call	_ZN8UnitTest11TestDetailsC1ERKS0_i@PLT
 2028      00
 2029 09d4 C644240C 		movb	$0, 12(%rsp)
 2029      00
 2030 09d9 E8000000 		call	_ZN8UnitTest11CurrentTest7ResultsEv@PLT
 2030      00
 2031 09de 488B38   		movq	(%rax), %rdi
 2032 09e1 488D5424 		leaq	11(%rsp), %rdx
 2032      0B
 2033 09e6 488D7424 		leaq	12(%rsp), %rsi
 2033      0C
 2034 09eb 4889D9   		movq	%rbx, %rcx
 2035 09ee E8000000 		call	_ZN8UnitTest10CheckEqualIbbEEvRNS_11TestResultsERKT_RKT0_RKNS_11TestDetailsE
 2035      00
 2036              	.LEHE86:
 2037              	.L210:
 2038              	.LEHB87:
 2039 09f3 E8000000 		call	_ZN8UnitTest11CurrentTest7DetailsEv@PLT
 2039      00
 2040 09f8 488B30   		movq	(%rax), %rsi
 2041 09fb BA550000 		movl	$85, %edx
 2041      00
 2042 0a00 4889DF   		movq	%rbx, %rdi
 2043 0a03 E8000000 		call	_ZN8UnitTest11TestDetailsC1ERKS0_i@PLT
 2043      00
 2044 0a08 C744240C 		movl	$14, 12(%rsp)
 2044      0E000000 
 2045 0a10 E8000000 		call	_ZN8UnitTest11CurrentTest7ResultsEv@PLT
 2045      00
 2046 0a15 488B38   		movq	(%rax), %rdi
 2047 0a18 488D7424 		leaq	12(%rsp), %rsi
 2047      0C
 2048 0a1d 4889D9   		movq	%rbx, %rcx
 2049 0a20 4889EA   		movq	%rbp, %rdx
 2050 0a23 E8000000 		call	_ZN8UnitTest10CheckEqualIihEEvRNS_11TestResultsERKT_RKT0_RKNS_11TestDetailsE
 2050      00
 2051              	.LEHE87:
 2052              	.L213:
 2053 0a28 4889EE   		movq	%rbp, %rsi
 2054 0a2b BF660000 		movl	$102, %edi
 2054      00
 2055              	.LEHB88:
 2056 0a30 E8000000 		call	getHexNibble@PLT
 2056      00
 2057              	.LEHE88:
 2058 0a35 8844240B 		movb	%al, 11(%rsp)
 2059              	.LEHB89:
 2060 0a39 E8000000 		call	_ZN8UnitTest11CurrentTest7DetailsEv@PLT
 2060      00
 2061 0a3e 488B30   		movq	(%rax), %rsi
 2062 0a41 BA570000 		movl	$87, %edx
 2062      00
 2063 0a46 4889DF   		movq	%rbx, %rdi
 2064 0a49 E8000000 		call	_ZN8UnitTest11TestDetailsC1ERKS0_i@PLT
 2064      00
 2065 0a4e C644240C 		movb	$0, 12(%rsp)
 2065      00
 2066 0a53 E8000000 		call	_ZN8UnitTest11CurrentTest7ResultsEv@PLT
 2066      00
 2067 0a58 488B38   		movq	(%rax), %rdi
 2068 0a5b 488D5424 		leaq	11(%rsp), %rdx
 2068      0B
 2069 0a60 488D7424 		leaq	12(%rsp), %rsi
 2069      0C
 2070 0a65 4889D9   		movq	%rbx, %rcx
 2071 0a68 E8000000 		call	_ZN8UnitTest10CheckEqualIbbEEvRNS_11TestResultsERKT_RKT0_RKNS_11TestDetailsE
 2071      00
 2072              	.LEHE89:
 2073              	.L216:
 2074              	.LEHB90:
 2075 0a6d E8000000 		call	_ZN8UnitTest11CurrentTest7DetailsEv@PLT
 2075      00
 2076 0a72 488B30   		movq	(%rax), %rsi
 2077 0a75 BA580000 		movl	$88, %edx
 2077      00
 2078 0a7a 4889DF   		movq	%rbx, %rdi
 2079 0a7d E8000000 		call	_ZN8UnitTest11TestDetailsC1ERKS0_i@PLT
 2079      00
 2080 0a82 C744240C 		movl	$15, 12(%rsp)
 2080      0F000000 
 2081 0a8a E8000000 		call	_ZN8UnitTest11CurrentTest7ResultsEv@PLT
 2081      00
 2082 0a8f 488B38   		movq	(%rax), %rdi
 2083 0a92 488D7424 		leaq	12(%rsp), %rsi
 2083      0C
 2084 0a97 4889D9   		movq	%rbx, %rcx
 2085 0a9a 4889EA   		movq	%rbp, %rdx
 2086 0a9d E8000000 		call	_ZN8UnitTest10CheckEqualIihEEvRNS_11TestResultsERKT_RKT0_RKNS_11TestDetailsE
 2086      00
 2087              	.LEHE90:
 2088              	.L219:
 2089 0aa2 4889EE   		movq	%rbp, %rsi
 2090 0aa5 BF2E0000 		movl	$46, %edi
 2090      00
 2091              	.LEHB91:
 2092 0aaa E8000000 		call	getHexNibble@PLT
 2092      00
 2093              	.LEHE91:
 2094 0aaf 8844240B 		movb	%al, 11(%rsp)
 2095              	.LEHB92:
 2096 0ab3 E8000000 		call	_ZN8UnitTest11CurrentTest7DetailsEv@PLT
 2096      00
 2097 0ab8 488B30   		movq	(%rax), %rsi
 2098 0abb BA5A0000 		movl	$90, %edx
 2098      00
 2099 0ac0 4889DF   		movq	%rbx, %rdi
 2100 0ac3 E8000000 		call	_ZN8UnitTest11TestDetailsC1ERKS0_i@PLT
 2100      00
 2101 0ac8 C644240C 		movb	$1, 12(%rsp)
 2101      01
 2102 0acd E8000000 		call	_ZN8UnitTest11CurrentTest7ResultsEv@PLT
 2102      00
 2103 0ad2 488B38   		movq	(%rax), %rdi
 2104 0ad5 488D5424 		leaq	11(%rsp), %rdx
 2104      0B
 2105 0ada 488D7424 		leaq	12(%rsp), %rsi
 2105      0C
 2106 0adf 4889D9   		movq	%rbx, %rcx
 2107 0ae2 E8000000 		call	_ZN8UnitTest10CheckEqualIbbEEvRNS_11TestResultsERKT_RKT0_RKNS_11TestDetailsE
 2107      00
 2108              	.LEHE92:
 2109              	.L88:
 2110 0ae7 488B4424 		movq	56(%rsp), %rax
 2110      38
 2111 0aec 64482B04 		subq	%fs:40, %rax
 2111      25280000 
 2111      00
 2112 0af5 7509     		jne	.L316
 2113 0af7 4883C440 		addq	$64, %rsp
 2114              		.cfi_remember_state
 2115              		.cfi_def_cfa_offset 32
 2116 0afb 5B       		popq	%rbx
 2117              		.cfi_def_cfa_offset 24
 2118 0afc 5D       		popq	%rbp
 2119              		.cfi_def_cfa_offset 16
 2120 0afd 415C     		popq	%r12
 2121              		.cfi_def_cfa_offset 8
 2122 0aff C3       		ret
 2123              	.L316:
 2124              		.cfi_restore_state
 2125 0b00 E8000000 		call	__stack_chk_fail@PLT
 2125      00
 2126              	.L313:
 2127 0b05 F30F1EFA 		endbr64
 2128 0b09 4889C7   		movq	%rax, %rdi
 2129 0b0c E9000000 		jmp	.L221
 2129      00
 2130              	.L311:
 2131 0b11 F30F1EFA 		endbr64
 2132 0b15 4889C7   		movq	%rax, %rdi
 2133 0b18 E9000000 		jmp	.L218
 2133      00
 2134              	.L307:
 2135 0b1d F30F1EFA 		endbr64
 2136 0b21 4889C7   		movq	%rax, %rdi
 2137 0b24 E9000000 		jmp	.L212
 2137      00
 2138              	.L309:
 2139 0b29 F30F1EFA 		endbr64
 2140 0b2d 4889C7   		movq	%rax, %rdi
 2141 0b30 E9000000 		jmp	.L215
 2141      00
 2142              	.L305:
 2143 0b35 F30F1EFA 		endbr64
 2144 0b39 4889C7   		movq	%rax, %rdi
 2145 0b3c E9000000 		jmp	.L209
 2145      00
 2146              	.L303:
 2147 0b41 F30F1EFA 		endbr64
 2148 0b45 4889C7   		movq	%rax, %rdi
 2149 0b48 E9000000 		jmp	.L206
 2149      00
 2150              	.L301:
 2151 0b4d F30F1EFA 		endbr64
 2152 0b51 4889C7   		movq	%rax, %rdi
 2153 0b54 E9000000 		jmp	.L203
 2153      00
 2154              	.L299:
 2155 0b59 F30F1EFA 		endbr64
 2156 0b5d 4889C7   		movq	%rax, %rdi
 2157 0b60 E9000000 		jmp	.L200
 2157      00
 2158              	.L297:
 2159 0b65 F30F1EFA 		endbr64
 2160 0b69 4889C7   		movq	%rax, %rdi
 2161 0b6c E9000000 		jmp	.L197
 2161      00
 2162              	.L295:
 2163 0b71 F30F1EFA 		endbr64
 2164 0b75 4889C7   		movq	%rax, %rdi
 2165 0b78 E9000000 		jmp	.L194
 2165      00
 2166              	.L293:
 2167 0b7d F30F1EFA 		endbr64
 2168 0b81 4889C7   		movq	%rax, %rdi
 2169 0b84 E9000000 		jmp	.L191
 2169      00
 2170              	.L291:
 2171 0b89 F30F1EFA 		endbr64
 2172 0b8d 4889C7   		movq	%rax, %rdi
 2173 0b90 E9000000 		jmp	.L188
 2173      00
 2174              	.L289:
 2175 0b95 F30F1EFA 		endbr64
 2176 0b99 4889C7   		movq	%rax, %rdi
 2177 0b9c E9000000 		jmp	.L185
 2177      00
 2178              	.L287:
 2179 0ba1 F30F1EFA 		endbr64
 2180 0ba5 4889C7   		movq	%rax, %rdi
 2181 0ba8 E9000000 		jmp	.L182
 2181      00
 2182              	.L285:
 2183 0bad F30F1EFA 		endbr64
 2184 0bb1 4889C7   		movq	%rax, %rdi
 2185 0bb4 E9000000 		jmp	.L179
 2185      00
 2186              	.L283:
 2187 0bb9 F30F1EFA 		endbr64
 2188 0bbd 4889C7   		movq	%rax, %rdi
 2189 0bc0 E9000000 		jmp	.L176
 2189      00
 2190              	.L281:
 2191 0bc5 F30F1EFA 		endbr64
 2192 0bc9 4889C7   		movq	%rax, %rdi
 2193 0bcc E9000000 		jmp	.L173
 2193      00
 2194              	.L279:
 2195 0bd1 F30F1EFA 		endbr64
 2196 0bd5 4889C7   		movq	%rax, %rdi
 2197 0bd8 E9000000 		jmp	.L170
 2197      00
 2198              	.L277:
 2199 0bdd F30F1EFA 		endbr64
 2200 0be1 4889C7   		movq	%rax, %rdi
 2201 0be4 E9000000 		jmp	.L167
 2201      00
 2202              	.L275:
 2203 0be9 F30F1EFA 		endbr64
 2204 0bed 4889C7   		movq	%rax, %rdi
 2205 0bf0 E9000000 		jmp	.L164
 2205      00
 2206              	.L273:
 2207 0bf5 F30F1EFA 		endbr64
 2208 0bf9 4889C7   		movq	%rax, %rdi
 2209 0bfc E9000000 		jmp	.L161
 2209      00
 2210              	.L271:
 2211 0c01 F30F1EFA 		endbr64
 2212 0c05 4889C7   		movq	%rax, %rdi
 2213 0c08 E9000000 		jmp	.L158
 2213      00
 2214              	.L269:
 2215 0c0d F30F1EFA 		endbr64
 2216 0c11 4889C7   		movq	%rax, %rdi
 2217 0c14 E9000000 		jmp	.L155
 2217      00
 2218              	.L267:
 2219 0c19 F30F1EFA 		endbr64
 2220 0c1d 4889C7   		movq	%rax, %rdi
 2221 0c20 E9000000 		jmp	.L152
 2221      00
 2222              	.L265:
 2223 0c25 F30F1EFA 		endbr64
 2224 0c29 4889C7   		movq	%rax, %rdi
 2225 0c2c E9000000 		jmp	.L149
 2225      00
 2226              	.L263:
 2227 0c31 F30F1EFA 		endbr64
 2228 0c35 4889C7   		movq	%rax, %rdi
 2229 0c38 E9000000 		jmp	.L146
 2229      00
 2230              	.L261:
 2231 0c3d F30F1EFA 		endbr64
 2232 0c41 4889C7   		movq	%rax, %rdi
 2233 0c44 E9000000 		jmp	.L143
 2233      00
 2234              	.L259:
 2235 0c49 F30F1EFA 		endbr64
 2236 0c4d 4889C7   		movq	%rax, %rdi
 2237 0c50 E9000000 		jmp	.L140
 2237      00
 2238              	.L257:
 2239 0c55 F30F1EFA 		endbr64
 2240 0c59 4889C7   		movq	%rax, %rdi
 2241 0c5c E9000000 		jmp	.L137
 2241      00
 2242              	.L255:
 2243 0c61 F30F1EFA 		endbr64
 2244 0c65 4889C7   		movq	%rax, %rdi
 2245 0c68 E9000000 		jmp	.L134
 2245      00
 2246              	.L253:
 2247 0c6d F30F1EFA 		endbr64
 2248 0c71 4889C7   		movq	%rax, %rdi
 2249 0c74 E9000000 		jmp	.L131
 2249      00
 2250              	.L251:
 2251 0c79 F30F1EFA 		endbr64
 2252 0c7d 4889C7   		movq	%rax, %rdi
 2253 0c80 E9000000 		jmp	.L128
 2253      00
 2254              	.L249:
 2255 0c85 F30F1EFA 		endbr64
 2256 0c89 4889C7   		movq	%rax, %rdi
 2257 0c8c E9000000 		jmp	.L125
 2257      00
 2258              	.L247:
 2259 0c91 F30F1EFA 		endbr64
 2260 0c95 4889C7   		movq	%rax, %rdi
 2261 0c98 E9000000 		jmp	.L122
 2261      00
 2262              	.L245:
 2263 0c9d F30F1EFA 		endbr64
 2264 0ca1 4889C7   		movq	%rax, %rdi
 2265 0ca4 E9000000 		jmp	.L119
 2265      00
 2266              	.L243:
 2267 0ca9 F30F1EFA 		endbr64
 2268 0cad 4889C7   		movq	%rax, %rdi
 2269 0cb0 E9000000 		jmp	.L116
 2269      00
 2270              	.L241:
 2271 0cb5 F30F1EFA 		endbr64
 2272 0cb9 4889C7   		movq	%rax, %rdi
 2273 0cbc E9000000 		jmp	.L113
 2273      00
 2274              	.L239:
 2275 0cc1 F30F1EFA 		endbr64
 2276 0cc5 4889C7   		movq	%rax, %rdi
 2277 0cc8 E9000000 		jmp	.L110
 2277      00
 2278              	.L237:
 2279 0ccd F30F1EFA 		endbr64
 2280 0cd1 4889C7   		movq	%rax, %rdi
 2281 0cd4 E9000000 		jmp	.L107
 2281      00
 2282              	.L235:
 2283 0cd9 F30F1EFA 		endbr64
 2284 0cdd 4889C7   		movq	%rax, %rdi
 2285 0ce0 E9000000 		jmp	.L104
 2285      00
 2286              	.L233:
 2287 0ce5 F30F1EFA 		endbr64
 2288 0ce9 4889C7   		movq	%rax, %rdi
 2289 0cec E9000000 		jmp	.L101
 2289      00
 2290              	.L231:
 2291 0cf1 F30F1EFA 		endbr64
 2292 0cf5 4889C7   		movq	%rax, %rdi
 2293 0cf8 E9000000 		jmp	.L98
 2293      00
 2294              	.L229:
 2295 0cfd F30F1EFA 		endbr64
 2296 0d01 4889C7   		movq	%rax, %rdi
 2297 0d04 E9000000 		jmp	.L95
 2297      00
 2298              	.L227:
 2299 0d09 F30F1EFA 		endbr64
 2300 0d0d 4889C7   		movq	%rax, %rdi
 2301 0d10 E9000000 		jmp	.L92
 2301      00
 2302              	.L225:
 2303 0d15 F30F1EFA 		endbr64
 2304 0d19 4889C7   		movq	%rax, %rdi
 2305 0d1c E9000000 		jmp	.L89
 2305      00
 2306              		.section	.gcc_except_table,"a",@progbits
 2307              		.align 4
 2308              	.LLSDA1195:
 2309 0000 FF       		.byte	0xff
 2310 0001 9B       		.byte	0x9b
 2311 0002 8803     		.uleb128 .LLSDATT1195-.LLSDATTD1195
 2312              	.LLSDATTD1195:
 2313 0004 01       		.byte	0x1
 2314 0005 FE02     		.uleb128 .LLSDACSE1195-.LLSDACSB1195
 2315              	.LLSDACSB1195:
 2316 0007 29       		.uleb128 .LEHB25-.LFB1195
 2317 0008 05       		.uleb128 .LEHE25-.LEHB25
 2318 0009 00       		.uleb128 0
 2319 000a 00       		.uleb128 0
 2320 000b 32       		.uleb128 .LEHB26-.LFB1195
 2321 000c 39       		.uleb128 .LEHE26-.LEHB26
 2322 000d 951A     		.uleb128 .L225-.LFB1195
 2323 000f 01       		.uleb128 0x1
 2324 0010 6B       		.uleb128 .LEHB27-.LFB1195
 2325 0011 35       		.uleb128 .LEHE27-.LEHB27
 2326 0012 891A     		.uleb128 .L227-.LFB1195
 2327 0014 01       		.uleb128 0x1
 2328 0015 A801     		.uleb128 .LEHB28-.LFB1195
 2329 0017 05       		.uleb128 .LEHE28-.LEHB28
 2330 0018 00       		.uleb128 0
 2331 0019 00       		.uleb128 0
 2332 001a B101     		.uleb128 .LEHB29-.LFB1195
 2333 001c 34       		.uleb128 .LEHE29-.LEHB29
 2334 001d FD19     		.uleb128 .L229-.LFB1195
 2335 001f 01       		.uleb128 0x1
 2336 0020 E501     		.uleb128 .LEHB30-.LFB1195
 2337 0022 35       		.uleb128 .LEHE30-.LEHB30
 2338 0023 F119     		.uleb128 .L231-.LFB1195
 2339 0025 01       		.uleb128 0x1
 2340 0026 A202     		.uleb128 .LEHB31-.LFB1195
 2341 0028 05       		.uleb128 .LEHE31-.LEHB31
 2342 0029 00       		.uleb128 0
 2343 002a 00       		.uleb128 0
 2344 002b AB02     		.uleb128 .LEHB32-.LFB1195
 2345 002d 34       		.uleb128 .LEHE32-.LEHB32
 2346 002e E519     		.uleb128 .L233-.LFB1195
 2347 0030 01       		.uleb128 0x1
 2348 0031 DF02     		.uleb128 .LEHB33-.LFB1195
 2349 0033 35       		.uleb128 .LEHE33-.LEHB33
 2350 0034 D919     		.uleb128 .L235-.LFB1195
 2351 0036 01       		.uleb128 0x1
 2352 0037 9C03     		.uleb128 .LEHB34-.LFB1195
 2353 0039 05       		.uleb128 .LEHE34-.LEHB34
 2354 003a 00       		.uleb128 0
 2355 003b 00       		.uleb128 0
 2356 003c A503     		.uleb128 .LEHB35-.LFB1195
 2357 003e 34       		.uleb128 .LEHE35-.LEHB35
 2358 003f CD19     		.uleb128 .L237-.LFB1195
 2359 0041 01       		.uleb128 0x1
 2360 0042 D903     		.uleb128 .LEHB36-.LFB1195
 2361 0044 35       		.uleb128 .LEHE36-.LEHB36
 2362 0045 C119     		.uleb128 .L239-.LFB1195
 2363 0047 01       		.uleb128 0x1
 2364 0048 9604     		.uleb128 .LEHB37-.LFB1195
 2365 004a 05       		.uleb128 .LEHE37-.LEHB37
 2366 004b 00       		.uleb128 0
 2367 004c 00       		.uleb128 0
 2368 004d 9F04     		.uleb128 .LEHB38-.LFB1195
 2369 004f 34       		.uleb128 .LEHE38-.LEHB38
 2370 0050 B519     		.uleb128 .L241-.LFB1195
 2371 0052 01       		.uleb128 0x1
 2372 0053 D304     		.uleb128 .LEHB39-.LFB1195
 2373 0055 35       		.uleb128 .LEHE39-.LEHB39
 2374 0056 A919     		.uleb128 .L243-.LFB1195
 2375 0058 01       		.uleb128 0x1
 2376 0059 9005     		.uleb128 .LEHB40-.LFB1195
 2377 005b 05       		.uleb128 .LEHE40-.LEHB40
 2378 005c 00       		.uleb128 0
 2379 005d 00       		.uleb128 0
 2380 005e 9905     		.uleb128 .LEHB41-.LFB1195
 2381 0060 34       		.uleb128 .LEHE41-.LEHB41
 2382 0061 9D19     		.uleb128 .L245-.LFB1195
 2383 0063 01       		.uleb128 0x1
 2384 0064 CD05     		.uleb128 .LEHB42-.LFB1195
 2385 0066 35       		.uleb128 .LEHE42-.LEHB42
 2386 0067 9119     		.uleb128 .L247-.LFB1195
 2387 0069 01       		.uleb128 0x1
 2388 006a 8A06     		.uleb128 .LEHB43-.LFB1195
 2389 006c 05       		.uleb128 .LEHE43-.LEHB43
 2390 006d 00       		.uleb128 0
 2391 006e 00       		.uleb128 0
 2392 006f 9306     		.uleb128 .LEHB44-.LFB1195
 2393 0071 34       		.uleb128 .LEHE44-.LEHB44
 2394 0072 8519     		.uleb128 .L249-.LFB1195
 2395 0074 01       		.uleb128 0x1
 2396 0075 C706     		.uleb128 .LEHB45-.LFB1195
 2397 0077 35       		.uleb128 .LEHE45-.LEHB45
 2398 0078 F918     		.uleb128 .L251-.LFB1195
 2399 007a 01       		.uleb128 0x1
 2400 007b 8407     		.uleb128 .LEHB46-.LFB1195
 2401 007d 05       		.uleb128 .LEHE46-.LEHB46
 2402 007e 00       		.uleb128 0
 2403 007f 00       		.uleb128 0
 2404 0080 8D07     		.uleb128 .LEHB47-.LFB1195
 2405 0082 34       		.uleb128 .LEHE47-.LEHB47
 2406 0083 ED18     		.uleb128 .L253-.LFB1195
 2407 0085 01       		.uleb128 0x1
 2408 0086 C107     		.uleb128 .LEHB48-.LFB1195
 2409 0088 35       		.uleb128 .LEHE48-.LEHB48
 2410 0089 E118     		.uleb128 .L255-.LFB1195
 2411 008b 01       		.uleb128 0x1
 2412 008c FE07     		.uleb128 .LEHB49-.LFB1195
 2413 008e 05       		.uleb128 .LEHE49-.LEHB49
 2414 008f 00       		.uleb128 0
 2415 0090 00       		.uleb128 0
 2416 0091 8708     		.uleb128 .LEHB50-.LFB1195
 2417 0093 34       		.uleb128 .LEHE50-.LEHB50
 2418 0094 D518     		.uleb128 .L257-.LFB1195
 2419 0096 01       		.uleb128 0x1
 2420 0097 BB08     		.uleb128 .LEHB51-.LFB1195
 2421 0099 35       		.uleb128 .LEHE51-.LEHB51
 2422 009a C918     		.uleb128 .L259-.LFB1195
 2423 009c 01       		.uleb128 0x1
 2424 009d F808     		.uleb128 .LEHB52-.LFB1195
 2425 009f 05       		.uleb128 .LEHE52-.LEHB52
 2426 00a0 00       		.uleb128 0
 2427 00a1 00       		.uleb128 0
 2428 00a2 8109     		.uleb128 .LEHB53-.LFB1195
 2429 00a4 34       		.uleb128 .LEHE53-.LEHB53
 2430 00a5 BD18     		.uleb128 .L261-.LFB1195
 2431 00a7 01       		.uleb128 0x1
 2432 00a8 B509     		.uleb128 .LEHB54-.LFB1195
 2433 00aa 35       		.uleb128 .LEHE54-.LEHB54
 2434 00ab B118     		.uleb128 .L263-.LFB1195
 2435 00ad 01       		.uleb128 0x1
 2436 00ae F209     		.uleb128 .LEHB55-.LFB1195
 2437 00b0 05       		.uleb128 .LEHE55-.LEHB55
 2438 00b1 00       		.uleb128 0
 2439 00b2 00       		.uleb128 0
 2440 00b3 FB09     		.uleb128 .LEHB56-.LFB1195
 2441 00b5 34       		.uleb128 .LEHE56-.LEHB56
 2442 00b6 A518     		.uleb128 .L265-.LFB1195
 2443 00b8 01       		.uleb128 0x1
 2444 00b9 AF0A     		.uleb128 .LEHB57-.LFB1195
 2445 00bb 35       		.uleb128 .LEHE57-.LEHB57
 2446 00bc 9918     		.uleb128 .L267-.LFB1195
 2447 00be 01       		.uleb128 0x1
 2448 00bf EC0A     		.uleb128 .LEHB58-.LFB1195
 2449 00c1 05       		.uleb128 .LEHE58-.LEHB58
 2450 00c2 00       		.uleb128 0
 2451 00c3 00       		.uleb128 0
 2452 00c4 F50A     		.uleb128 .LEHB59-.LFB1195
 2453 00c6 34       		.uleb128 .LEHE59-.LEHB59
 2454 00c7 8D18     		.uleb128 .L269-.LFB1195
 2455 00c9 01       		.uleb128 0x1
 2456 00ca A90B     		.uleb128 .LEHB60-.LFB1195
 2457 00cc 35       		.uleb128 .LEHE60-.LEHB60
 2458 00cd 8118     		.uleb128 .L271-.LFB1195
 2459 00cf 01       		.uleb128 0x1
 2460 00d0 E60B     		.uleb128 .LEHB61-.LFB1195
 2461 00d2 05       		.uleb128 .LEHE61-.LEHB61
 2462 00d3 00       		.uleb128 0
 2463 00d4 00       		.uleb128 0
 2464 00d5 EF0B     		.uleb128 .LEHB62-.LFB1195
 2465 00d7 34       		.uleb128 .LEHE62-.LEHB62
 2466 00d8 F517     		.uleb128 .L273-.LFB1195
 2467 00da 01       		.uleb128 0x1
 2468 00db A30C     		.uleb128 .LEHB63-.LFB1195
 2469 00dd 35       		.uleb128 .LEHE63-.LEHB63
 2470 00de E917     		.uleb128 .L275-.LFB1195
 2471 00e0 01       		.uleb128 0x1
 2472 00e1 E00C     		.uleb128 .LEHB64-.LFB1195
 2473 00e3 05       		.uleb128 .LEHE64-.LEHB64
 2474 00e4 00       		.uleb128 0
 2475 00e5 00       		.uleb128 0
 2476 00e6 E90C     		.uleb128 .LEHB65-.LFB1195
 2477 00e8 34       		.uleb128 .LEHE65-.LEHB65
 2478 00e9 DD17     		.uleb128 .L277-.LFB1195
 2479 00eb 01       		.uleb128 0x1
 2480 00ec 9D0D     		.uleb128 .LEHB66-.LFB1195
 2481 00ee 35       		.uleb128 .LEHE66-.LEHB66
 2482 00ef D117     		.uleb128 .L279-.LFB1195
 2483 00f1 01       		.uleb128 0x1
 2484 00f2 DA0D     		.uleb128 .LEHB67-.LFB1195
 2485 00f4 05       		.uleb128 .LEHE67-.LEHB67
 2486 00f5 00       		.uleb128 0
 2487 00f6 00       		.uleb128 0
 2488 00f7 E30D     		.uleb128 .LEHB68-.LFB1195
 2489 00f9 34       		.uleb128 .LEHE68-.LEHB68
 2490 00fa C517     		.uleb128 .L281-.LFB1195
 2491 00fc 01       		.uleb128 0x1
 2492 00fd 970E     		.uleb128 .LEHB69-.LFB1195
 2493 00ff 35       		.uleb128 .LEHE69-.LEHB69
 2494 0100 B917     		.uleb128 .L283-.LFB1195
 2495 0102 01       		.uleb128 0x1
 2496 0103 D40E     		.uleb128 .LEHB70-.LFB1195
 2497 0105 05       		.uleb128 .LEHE70-.LEHB70
 2498 0106 00       		.uleb128 0
 2499 0107 00       		.uleb128 0
 2500 0108 DD0E     		.uleb128 .LEHB71-.LFB1195
 2501 010a 34       		.uleb128 .LEHE71-.LEHB71
 2502 010b AD17     		.uleb128 .L285-.LFB1195
 2503 010d 01       		.uleb128 0x1
 2504 010e 910F     		.uleb128 .LEHB72-.LFB1195
 2505 0110 35       		.uleb128 .LEHE72-.LEHB72
 2506 0111 A117     		.uleb128 .L287-.LFB1195
 2507 0113 01       		.uleb128 0x1
 2508 0114 CE0F     		.uleb128 .LEHB73-.LFB1195
 2509 0116 05       		.uleb128 .LEHE73-.LEHB73
 2510 0117 00       		.uleb128 0
 2511 0118 00       		.uleb128 0
 2512 0119 D70F     		.uleb128 .LEHB74-.LFB1195
 2513 011b 34       		.uleb128 .LEHE74-.LEHB74
 2514 011c 9517     		.uleb128 .L289-.LFB1195
 2515 011e 01       		.uleb128 0x1
 2516 011f 8B10     		.uleb128 .LEHB75-.LFB1195
 2517 0121 35       		.uleb128 .LEHE75-.LEHB75
 2518 0122 8917     		.uleb128 .L291-.LFB1195
 2519 0124 01       		.uleb128 0x1
 2520 0125 C810     		.uleb128 .LEHB76-.LFB1195
 2521 0127 05       		.uleb128 .LEHE76-.LEHB76
 2522 0128 00       		.uleb128 0
 2523 0129 00       		.uleb128 0
 2524 012a D110     		.uleb128 .LEHB77-.LFB1195
 2525 012c 34       		.uleb128 .LEHE77-.LEHB77
 2526 012d FD16     		.uleb128 .L293-.LFB1195
 2527 012f 01       		.uleb128 0x1
 2528 0130 8511     		.uleb128 .LEHB78-.LFB1195
 2529 0132 35       		.uleb128 .LEHE78-.LEHB78
 2530 0133 F116     		.uleb128 .L295-.LFB1195
 2531 0135 01       		.uleb128 0x1
 2532 0136 C211     		.uleb128 .LEHB79-.LFB1195
 2533 0138 05       		.uleb128 .LEHE79-.LEHB79
 2534 0139 00       		.uleb128 0
 2535 013a 00       		.uleb128 0
 2536 013b CB11     		.uleb128 .LEHB80-.LFB1195
 2537 013d 34       		.uleb128 .LEHE80-.LEHB80
 2538 013e E516     		.uleb128 .L297-.LFB1195
 2539 0140 01       		.uleb128 0x1
 2540 0141 FF11     		.uleb128 .LEHB81-.LFB1195
 2541 0143 35       		.uleb128 .LEHE81-.LEHB81
 2542 0144 D916     		.uleb128 .L299-.LFB1195
 2543 0146 01       		.uleb128 0x1
 2544 0147 BC12     		.uleb128 .LEHB82-.LFB1195
 2545 0149 05       		.uleb128 .LEHE82-.LEHB82
 2546 014a 00       		.uleb128 0
 2547 014b 00       		.uleb128 0
 2548 014c C512     		.uleb128 .LEHB83-.LFB1195
 2549 014e 34       		.uleb128 .LEHE83-.LEHB83
 2550 014f CD16     		.uleb128 .L301-.LFB1195
 2551 0151 01       		.uleb128 0x1
 2552 0152 F912     		.uleb128 .LEHB84-.LFB1195
 2553 0154 35       		.uleb128 .LEHE84-.LEHB84
 2554 0155 C116     		.uleb128 .L303-.LFB1195
 2555 0157 01       		.uleb128 0x1
 2556 0158 B613     		.uleb128 .LEHB85-.LFB1195
 2557 015a 05       		.uleb128 .LEHE85-.LEHB85
 2558 015b 00       		.uleb128 0
 2559 015c 00       		.uleb128 0
 2560 015d BF13     		.uleb128 .LEHB86-.LFB1195
 2561 015f 34       		.uleb128 .LEHE86-.LEHB86
 2562 0160 B516     		.uleb128 .L305-.LFB1195
 2563 0162 01       		.uleb128 0x1
 2564 0163 F313     		.uleb128 .LEHB87-.LFB1195
 2565 0165 35       		.uleb128 .LEHE87-.LEHB87
 2566 0166 9D16     		.uleb128 .L307-.LFB1195
 2567 0168 01       		.uleb128 0x1
 2568 0169 B014     		.uleb128 .LEHB88-.LFB1195
 2569 016b 05       		.uleb128 .LEHE88-.LEHB88
 2570 016c 00       		.uleb128 0
 2571 016d 00       		.uleb128 0
 2572 016e B914     		.uleb128 .LEHB89-.LFB1195
 2573 0170 34       		.uleb128 .LEHE89-.LEHB89
 2574 0171 A916     		.uleb128 .L309-.LFB1195
 2575 0173 01       		.uleb128 0x1
 2576 0174 ED14     		.uleb128 .LEHB90-.LFB1195
 2577 0176 35       		.uleb128 .LEHE90-.LEHB90
 2578 0177 9116     		.uleb128 .L311-.LFB1195
 2579 0179 01       		.uleb128 0x1
 2580 017a AA15     		.uleb128 .LEHB91-.LFB1195
 2581 017c 05       		.uleb128 .LEHE91-.LEHB91
 2582 017d 00       		.uleb128 0
 2583 017e 00       		.uleb128 0
 2584 017f B315     		.uleb128 .LEHB92-.LFB1195
 2585 0181 34       		.uleb128 .LEHE92-.LEHB92
 2586 0182 8516     		.uleb128 .L313-.LFB1195
 2587 0184 01       		.uleb128 0x1
 2588              	.LLSDACSE1195:
 2589 0185 01       		.byte	0x1
 2590 0186 00       		.byte	0
 2591 0187 00       		.align 4
 2592 0188 00000000 		.long	0
 2593              	
 2594              	.LLSDATT1195:
 2595              		.text
 2596              		.cfi_endproc
 2597              		.section	.text.unlikely
 2598              		.cfi_startproc
 2599              		.cfi_personality 0x9b,DW.ref.__gxx_personality_v0
 2600              		.cfi_lsda 0x1b,.LLSDAC1195
 2602              	_ZNK25TestConv_testGetHexNibble7RunImplEv.cold:
 2603              	.LFSB1195:
 2604              	.L221:
 2605              		.cfi_def_cfa_offset 96
 2606              		.cfi_offset 3, -32
 2607              		.cfi_offset 6, -24
 2608              		.cfi_offset 12, -16
 2609 0000 E8000000 		call	__cxa_begin_catch@PLT
 2609      00
 2610              	.LEHB93:
 2611 0005 E8000000 		call	_ZN8UnitTest11CurrentTest7ResultsEv@PLT
 2611      00
 2612 000a 488B28   		movq	(%rax), %rbp
 2613 000d E8000000 		call	_ZN8UnitTest11CurrentTest7DetailsEv@PLT
 2613      00
 2614 0012 488B30   		movq	(%rax), %rsi
 2615 0015 BA5A0000 		movl	$90, %edx
 2615      00
 2616 001a 4889DF   		movq	%rbx, %rdi
 2617 001d E8000000 		call	_ZN8UnitTest11TestDetailsC1ERKS0_i@PLT
 2617      00
 2618 0022 488D1500 		leaq	.LC22(%rip), %rdx
 2618      000000
 2619 0029 4889DE   		movq	%rbx, %rsi
 2620 002c 4889EF   		movq	%rbp, %rdi
 2621 002f E8000000 		call	_ZN8UnitTest11TestResults13OnTestFailureERKNS_11TestDetailsEPKc@PLT
 2621      00
 2622              	.LEHE93:
 2623              	.LEHB94:
 2624 0034 E8000000 		call	__cxa_end_catch@PLT
 2624      00
 2625              	.LEHE94:
 2626 0039 E9000000 		jmp	.L88
 2626      00
 2627              	.L218:
 2628 003e E8000000 		call	__cxa_begin_catch@PLT
 2628      00
 2629              	.LEHB95:
 2630 0043 E8000000 		call	_ZN8UnitTest11CurrentTest7ResultsEv@PLT
 2630      00
 2631 0048 4C8B20   		movq	(%rax), %r12
 2632 004b E8000000 		call	_ZN8UnitTest11CurrentTest7DetailsEv@PLT
 2632      00
 2633 0050 488B30   		movq	(%rax), %rsi
 2634 0053 BA580000 		movl	$88, %edx
 2634      00
 2635 0058 4889DF   		movq	%rbx, %rdi
 2636 005b E8000000 		call	_ZN8UnitTest11TestDetailsC1ERKS0_i@PLT
 2636      00
 2637 0060 488D1500 		leaq	.LC21(%rip), %rdx
 2637      000000
 2638 0067 4889DE   		movq	%rbx, %rsi
 2639 006a 4C89E7   		movq	%r12, %rdi
 2640 006d E8000000 		call	_ZN8UnitTest11TestResults13OnTestFailureERKNS_11TestDetailsEPKc@PLT
 2640      00
 2641              	.LEHE95:
 2642              	.LEHB96:
 2643 0072 E8000000 		call	__cxa_end_catch@PLT
 2643      00
 2644              	.LEHE96:
 2645 0077 E9000000 		jmp	.L219
 2645      00
 2646              	.L212:
 2647 007c E8000000 		call	__cxa_begin_catch@PLT
 2647      00
 2648              	.LEHB97:
 2649 0081 E8000000 		call	_ZN8UnitTest11CurrentTest7ResultsEv@PLT
 2649      00
 2650 0086 4C8B20   		movq	(%rax), %r12
 2651 0089 E8000000 		call	_ZN8UnitTest11CurrentTest7DetailsEv@PLT
 2651      00
 2652 008e 488B30   		movq	(%rax), %rsi
 2653 0091 BA550000 		movl	$85, %edx
 2653      00
 2654 0096 4889DF   		movq	%rbx, %rdi
 2655 0099 E8000000 		call	_ZN8UnitTest11TestDetailsC1ERKS0_i@PLT
 2655      00
 2656 009e 488D1500 		leaq	.LC20(%rip), %rdx
 2656      000000
 2657 00a5 4889DE   		movq	%rbx, %rsi
 2658 00a8 4C89E7   		movq	%r12, %rdi
 2659 00ab E8000000 		call	_ZN8UnitTest11TestResults13OnTestFailureERKNS_11TestDetailsEPKc@PLT
 2659      00
 2660              	.LEHE97:
 2661              	.LEHB98:
 2662 00b0 E8000000 		call	__cxa_end_catch@PLT
 2662      00
 2663              	.LEHE98:
 2664 00b5 E9000000 		jmp	.L213
 2664      00
 2665              	.L215:
 2666 00ba E8000000 		call	__cxa_begin_catch@PLT
 2666      00
 2667              	.LEHB99:
 2668 00bf E8000000 		call	_ZN8UnitTest11CurrentTest7ResultsEv@PLT
 2668      00
 2669 00c4 4C8B20   		movq	(%rax), %r12
 2670 00c7 E8000000 		call	_ZN8UnitTest11CurrentTest7DetailsEv@PLT
 2670      00
 2671 00cc 488B30   		movq	(%rax), %rsi
 2672 00cf BA570000 		movl	$87, %edx
 2672      00
 2673 00d4 4889DF   		movq	%rbx, %rdi
 2674 00d7 E8000000 		call	_ZN8UnitTest11TestDetailsC1ERKS0_i@PLT
 2674      00
 2675 00dc 488D1500 		leaq	.LC5(%rip), %rdx
 2675      000000
 2676 00e3 4889DE   		movq	%rbx, %rsi
 2677 00e6 4C89E7   		movq	%r12, %rdi
 2678 00e9 E8000000 		call	_ZN8UnitTest11TestResults13OnTestFailureERKNS_11TestDetailsEPKc@PLT
 2678      00
 2679              	.LEHE99:
 2680              	.LEHB100:
 2681 00ee E8000000 		call	__cxa_end_catch@PLT
 2681      00
 2682              	.LEHE100:
 2683 00f3 E9000000 		jmp	.L216
 2683      00
 2684              	.L209:
 2685 00f8 E8000000 		call	__cxa_begin_catch@PLT
 2685      00
 2686              	.LEHB101:
 2687 00fd E8000000 		call	_ZN8UnitTest11CurrentTest7ResultsEv@PLT
 2687      00
 2688 0102 4C8B20   		movq	(%rax), %r12
 2689 0105 E8000000 		call	_ZN8UnitTest11CurrentTest7DetailsEv@PLT
 2689      00
 2690 010a 488B30   		movq	(%rax), %rsi
 2691 010d BA540000 		movl	$84, %edx
 2691      00
 2692 0112 4889DF   		movq	%rbx, %rdi
 2693 0115 E8000000 		call	_ZN8UnitTest11TestDetailsC1ERKS0_i@PLT
 2693      00
 2694 011a 488D1500 		leaq	.LC5(%rip), %rdx
 2694      000000
 2695 0121 4889DE   		movq	%rbx, %rsi
 2696 0124 4C89E7   		movq	%r12, %rdi
 2697 0127 E8000000 		call	_ZN8UnitTest11TestResults13OnTestFailureERKNS_11TestDetailsEPKc@PLT
 2697      00
 2698              	.LEHE101:
 2699              	.LEHB102:
 2700 012c E8000000 		call	__cxa_end_catch@PLT
 2700      00
 2701              	.LEHE102:
 2702 0131 E9000000 		jmp	.L210
 2702      00
 2703              	.L314:
 2704 0136 F30F1EFA 		endbr64
 2705 013a 4889C3   		movq	%rax, %rbx
 2706 013d E8000000 		call	__cxa_end_catch@PLT
 2706      00
 2707 0142 4889DF   		movq	%rbx, %rdi
 2708              	.LEHB103:
 2709 0145 E8000000 		call	_Unwind_Resume@PLT
 2709      00
 2710              	.LEHE103:
 2711              	.L312:
 2712 014a F30F1EFA 		endbr64
 2713 014e 4889C3   		movq	%rax, %rbx
 2714 0151 E8000000 		call	__cxa_end_catch@PLT
 2714      00
 2715 0156 4889DF   		movq	%rbx, %rdi
 2716              	.LEHB104:
 2717 0159 E8000000 		call	_Unwind_Resume@PLT
 2717      00
 2718              	.LEHE104:
 2719              	.L310:
 2720 015e F30F1EFA 		endbr64
 2721 0162 4889C3   		movq	%rax, %rbx
 2722 0165 E8000000 		call	__cxa_end_catch@PLT
 2722      00
 2723 016a 4889DF   		movq	%rbx, %rdi
 2724              	.LEHB105:
 2725 016d E8000000 		call	_Unwind_Resume@PLT
 2725      00
 2726              	.LEHE105:
 2727              	.L308:
 2728 0172 F30F1EFA 		endbr64
 2729 0176 4889C3   		movq	%rax, %rbx
 2730 0179 E8000000 		call	__cxa_end_catch@PLT
 2730      00
 2731 017e 4889DF   		movq	%rbx, %rdi
 2732              	.LEHB106:
 2733 0181 E8000000 		call	_Unwind_Resume@PLT
 2733      00
 2734              	.LEHE106:
 2735              	.L306:
 2736 0186 F30F1EFA 		endbr64
 2737 018a 4889C3   		movq	%rax, %rbx
 2738 018d E8000000 		call	__cxa_end_catch@PLT
 2738      00
 2739 0192 4889DF   		movq	%rbx, %rdi
 2740              	.LEHB107:
 2741 0195 E8000000 		call	_Unwind_Resume@PLT
 2741      00
 2742              	.LEHE107:
 2743              	.L206:
 2744 019a E8000000 		call	__cxa_begin_catch@PLT
 2744      00
 2745              	.LEHB108:
 2746 019f E8000000 		call	_ZN8UnitTest11CurrentTest7ResultsEv@PLT
 2746      00
 2747 01a4 4C8B20   		movq	(%rax), %r12
 2748 01a7 E8000000 		call	_ZN8UnitTest11CurrentTest7DetailsEv@PLT
 2748      00
 2749 01ac 488B30   		movq	(%rax), %rsi
 2750 01af BA520000 		movl	$82, %edx
 2750      00
 2751 01b4 4889DF   		movq	%rbx, %rdi
 2752 01b7 E8000000 		call	_ZN8UnitTest11TestDetailsC1ERKS0_i@PLT
 2752      00
 2753 01bc 488D1500 		leaq	.LC19(%rip), %rdx
 2753      000000
 2754 01c3 4889DE   		movq	%rbx, %rsi
 2755 01c6 4C89E7   		movq	%r12, %rdi
 2756 01c9 E8000000 		call	_ZN8UnitTest11TestResults13OnTestFailureERKNS_11TestDetailsEPKc@PLT
 2756      00
 2757              	.LEHE108:
 2758              	.LEHB109:
 2759 01ce E8000000 		call	__cxa_end_catch@PLT
 2759      00
 2760              	.LEHE109:
 2761 01d3 E9000000 		jmp	.L207
 2761      00
 2762              	.L203:
 2763 01d8 E8000000 		call	__cxa_begin_catch@PLT
 2763      00
 2764              	.LEHB110:
 2765 01dd E8000000 		call	_ZN8UnitTest11CurrentTest7ResultsEv@PLT
 2765      00
 2766 01e2 4C8B20   		movq	(%rax), %r12
 2767 01e5 E8000000 		call	_ZN8UnitTest11CurrentTest7DetailsEv@PLT
 2767      00
 2768 01ea 488B30   		movq	(%rax), %rsi
 2769 01ed BA510000 		movl	$81, %edx
 2769      00
 2770 01f2 4889DF   		movq	%rbx, %rdi
 2771 01f5 E8000000 		call	_ZN8UnitTest11TestDetailsC1ERKS0_i@PLT
 2771      00
 2772 01fa 488D1500 		leaq	.LC5(%rip), %rdx
 2772      000000
 2773 0201 4889DE   		movq	%rbx, %rsi
 2774 0204 4C89E7   		movq	%r12, %rdi
 2775 0207 E8000000 		call	_ZN8UnitTest11TestResults13OnTestFailureERKNS_11TestDetailsEPKc@PLT
 2775      00
 2776              	.LEHE110:
 2777              	.LEHB111:
 2778 020c E8000000 		call	__cxa_end_catch@PLT
 2778      00
 2779              	.LEHE111:
 2780 0211 E9000000 		jmp	.L204
 2780      00
 2781              	.L304:
 2782 0216 F30F1EFA 		endbr64
 2783 021a 4889C3   		movq	%rax, %rbx
 2784 021d E8000000 		call	__cxa_end_catch@PLT
 2784      00
 2785 0222 4889DF   		movq	%rbx, %rdi
 2786              	.LEHB112:
 2787 0225 E8000000 		call	_Unwind_Resume@PLT
 2787      00
 2788              	.LEHE112:
 2789              	.L302:
 2790 022a F30F1EFA 		endbr64
 2791 022e 4889C3   		movq	%rax, %rbx
 2792 0231 E8000000 		call	__cxa_end_catch@PLT
 2792      00
 2793 0236 4889DF   		movq	%rbx, %rdi
 2794              	.LEHB113:
 2795 0239 E8000000 		call	_Unwind_Resume@PLT
 2795      00
 2796              	.LEHE113:
 2797              	.L200:
 2798 023e E8000000 		call	__cxa_begin_catch@PLT
 2798      00
 2799              	.LEHB114:
 2800 0243 E8000000 		call	_ZN8UnitTest11CurrentTest7ResultsEv@PLT
 2800      00
 2801 0248 4C8B20   		movq	(%rax), %r12
 2802 024b E8000000 		call	_ZN8UnitTest11CurrentTest7DetailsEv@PLT
 2802      00
 2803 0250 488B30   		movq	(%rax), %rsi
 2804 0253 BA4F0000 		movl	$79, %edx
 2804      00
 2805 0258 4889DF   		movq	%rbx, %rdi
 2806 025b E8000000 		call	_ZN8UnitTest11TestDetailsC1ERKS0_i@PLT
 2806      00
 2807 0260 488D1500 		leaq	.LC18(%rip), %rdx
 2807      000000
 2808 0267 4889DE   		movq	%rbx, %rsi
 2809 026a 4C89E7   		movq	%r12, %rdi
 2810 026d E8000000 		call	_ZN8UnitTest11TestResults13OnTestFailureERKNS_11TestDetailsEPKc@PLT
 2810      00
 2811              	.LEHE114:
 2812              	.LEHB115:
 2813 0272 E8000000 		call	__cxa_end_catch@PLT
 2813      00
 2814              	.LEHE115:
 2815 0277 E9000000 		jmp	.L201
 2815      00
 2816              	.L197:
 2817 027c E8000000 		call	__cxa_begin_catch@PLT
 2817      00
 2818              	.LEHB116:
 2819 0281 E8000000 		call	_ZN8UnitTest11CurrentTest7ResultsEv@PLT
 2819      00
 2820 0286 4C8B20   		movq	(%rax), %r12
 2821 0289 E8000000 		call	_ZN8UnitTest11CurrentTest7DetailsEv@PLT
 2821      00
 2822 028e 488B30   		movq	(%rax), %rsi
 2823 0291 BA4E0000 		movl	$78, %edx
 2823      00
 2824 0296 4889DF   		movq	%rbx, %rdi
 2825 0299 E8000000 		call	_ZN8UnitTest11TestDetailsC1ERKS0_i@PLT
 2825      00
 2826 029e 488D1500 		leaq	.LC5(%rip), %rdx
 2826      000000
 2827 02a5 4889DE   		movq	%rbx, %rsi
 2828 02a8 4C89E7   		movq	%r12, %rdi
 2829 02ab E8000000 		call	_ZN8UnitTest11TestResults13OnTestFailureERKNS_11TestDetailsEPKc@PLT
 2829      00
 2830              	.LEHE116:
 2831              	.LEHB117:
 2832 02b0 E8000000 		call	__cxa_end_catch@PLT
 2832      00
 2833              	.LEHE117:
 2834 02b5 E9000000 		jmp	.L198
 2834      00
 2835              	.L300:
 2836 02ba F30F1EFA 		endbr64
 2837 02be 4889C3   		movq	%rax, %rbx
 2838 02c1 E8000000 		call	__cxa_end_catch@PLT
 2838      00
 2839 02c6 4889DF   		movq	%rbx, %rdi
 2840              	.LEHB118:
 2841 02c9 E8000000 		call	_Unwind_Resume@PLT
 2841      00
 2842              	.LEHE118:
 2843              	.L298:
 2844 02ce F30F1EFA 		endbr64
 2845 02d2 4889C3   		movq	%rax, %rbx
 2846 02d5 E8000000 		call	__cxa_end_catch@PLT
 2846      00
 2847 02da 4889DF   		movq	%rbx, %rdi
 2848              	.LEHB119:
 2849 02dd E8000000 		call	_Unwind_Resume@PLT
 2849      00
 2850              	.LEHE119:
 2851              	.L194:
 2852 02e2 E8000000 		call	__cxa_begin_catch@PLT
 2852      00
 2853              	.LEHB120:
 2854 02e7 E8000000 		call	_ZN8UnitTest11CurrentTest7ResultsEv@PLT
 2854      00
 2855 02ec 4C8B20   		movq	(%rax), %r12
 2856 02ef E8000000 		call	_ZN8UnitTest11CurrentTest7DetailsEv@PLT
 2856      00
 2857 02f4 488B30   		movq	(%rax), %rsi
 2858 02f7 BA4C0000 		movl	$76, %edx
 2858      00
 2859 02fc 4889DF   		movq	%rbx, %rdi
 2860 02ff E8000000 		call	_ZN8UnitTest11TestDetailsC1ERKS0_i@PLT
 2860      00
 2861 0304 488D1500 		leaq	.LC17(%rip), %rdx
 2861      000000
 2862 030b 4889DE   		movq	%rbx, %rsi
 2863 030e 4C89E7   		movq	%r12, %rdi
 2864 0311 E8000000 		call	_ZN8UnitTest11TestResults13OnTestFailureERKNS_11TestDetailsEPKc@PLT
 2864      00
 2865              	.LEHE120:
 2866              	.LEHB121:
 2867 0316 E8000000 		call	__cxa_end_catch@PLT
 2867      00
 2868              	.LEHE121:
 2869 031b E9000000 		jmp	.L195
 2869      00
 2870              	.L191:
 2871 0320 E8000000 		call	__cxa_begin_catch@PLT
 2871      00
 2872              	.LEHB122:
 2873 0325 E8000000 		call	_ZN8UnitTest11CurrentTest7ResultsEv@PLT
 2873      00
 2874 032a 4C8B20   		movq	(%rax), %r12
 2875 032d E8000000 		call	_ZN8UnitTest11CurrentTest7DetailsEv@PLT
 2875      00
 2876 0332 488B30   		movq	(%rax), %rsi
 2877 0335 BA4B0000 		movl	$75, %edx
 2877      00
 2878 033a 4889DF   		movq	%rbx, %rdi
 2879 033d E8000000 		call	_ZN8UnitTest11TestDetailsC1ERKS0_i@PLT
 2879      00
 2880 0342 488D1500 		leaq	.LC5(%rip), %rdx
 2880      000000
 2881 0349 4889DE   		movq	%rbx, %rsi
 2882 034c 4C89E7   		movq	%r12, %rdi
 2883 034f E8000000 		call	_ZN8UnitTest11TestResults13OnTestFailureERKNS_11TestDetailsEPKc@PLT
 2883      00
 2884              	.LEHE122:
 2885              	.LEHB123:
 2886 0354 E8000000 		call	__cxa_end_catch@PLT
 2886      00
 2887              	.LEHE123:
 2888 0359 E9000000 		jmp	.L192
 2888      00
 2889              	.L296:
 2890 035e F30F1EFA 		endbr64
 2891 0362 4889C3   		movq	%rax, %rbx
 2892 0365 E8000000 		call	__cxa_end_catch@PLT
 2892      00
 2893 036a 4889DF   		movq	%rbx, %rdi
 2894              	.LEHB124:
 2895 036d E8000000 		call	_Unwind_Resume@PLT
 2895      00
 2896              	.LEHE124:
 2897              	.L294:
 2898 0372 F30F1EFA 		endbr64
 2899 0376 4889C3   		movq	%rax, %rbx
 2900 0379 E8000000 		call	__cxa_end_catch@PLT
 2900      00
 2901 037e 4889DF   		movq	%rbx, %rdi
 2902              	.LEHB125:
 2903 0381 E8000000 		call	_Unwind_Resume@PLT
 2903      00
 2904              	.LEHE125:
 2905              	.L188:
 2906 0386 E8000000 		call	__cxa_begin_catch@PLT
 2906      00
 2907              	.LEHB126:
 2908 038b E8000000 		call	_ZN8UnitTest11CurrentTest7ResultsEv@PLT
 2908      00
 2909 0390 4C8B20   		movq	(%rax), %r12
 2910 0393 E8000000 		call	_ZN8UnitTest11CurrentTest7DetailsEv@PLT
 2910      00
 2911 0398 488B30   		movq	(%rax), %rsi
 2912 039b BA490000 		movl	$73, %edx
 2912      00
 2913 03a0 4889DF   		movq	%rbx, %rdi
 2914 03a3 E8000000 		call	_ZN8UnitTest11TestDetailsC1ERKS0_i@PLT
 2914      00
 2915 03a8 488D1500 		leaq	.LC16(%rip), %rdx
 2915      000000
 2916 03af 4889DE   		movq	%rbx, %rsi
 2917 03b2 4C89E7   		movq	%r12, %rdi
 2918 03b5 E8000000 		call	_ZN8UnitTest11TestResults13OnTestFailureERKNS_11TestDetailsEPKc@PLT
 2918      00
 2919              	.LEHE126:
 2920              	.LEHB127:
 2921 03ba E8000000 		call	__cxa_end_catch@PLT
 2921      00
 2922              	.LEHE127:
 2923 03bf E9000000 		jmp	.L189
 2923      00
 2924              	.L185:
 2925 03c4 E8000000 		call	__cxa_begin_catch@PLT
 2925      00
 2926              	.LEHB128:
 2927 03c9 E8000000 		call	_ZN8UnitTest11CurrentTest7ResultsEv@PLT
 2927      00
 2928 03ce 4C8B20   		movq	(%rax), %r12
 2929 03d1 E8000000 		call	_ZN8UnitTest11CurrentTest7DetailsEv@PLT
 2929      00
 2930 03d6 488B30   		movq	(%rax), %rsi
 2931 03d9 BA480000 		movl	$72, %edx
 2931      00
 2932 03de 4889DF   		movq	%rbx, %rdi
 2933 03e1 E8000000 		call	_ZN8UnitTest11TestDetailsC1ERKS0_i@PLT
 2933      00
 2934 03e6 488D1500 		leaq	.LC5(%rip), %rdx
 2934      000000
 2935 03ed 4889DE   		movq	%rbx, %rsi
 2936 03f0 4C89E7   		movq	%r12, %rdi
 2937 03f3 E8000000 		call	_ZN8UnitTest11TestResults13OnTestFailureERKNS_11TestDetailsEPKc@PLT
 2937      00
 2938              	.LEHE128:
 2939              	.LEHB129:
 2940 03f8 E8000000 		call	__cxa_end_catch@PLT
 2940      00
 2941              	.LEHE129:
 2942 03fd E9000000 		jmp	.L186
 2942      00
 2943              	.L292:
 2944 0402 F30F1EFA 		endbr64
 2945 0406 4889C3   		movq	%rax, %rbx
 2946 0409 E8000000 		call	__cxa_end_catch@PLT
 2946      00
 2947 040e 4889DF   		movq	%rbx, %rdi
 2948              	.LEHB130:
 2949 0411 E8000000 		call	_Unwind_Resume@PLT
 2949      00
 2950              	.LEHE130:
 2951              	.L290:
 2952 0416 F30F1EFA 		endbr64
 2953 041a 4889C3   		movq	%rax, %rbx
 2954 041d E8000000 		call	__cxa_end_catch@PLT
 2954      00
 2955 0422 4889DF   		movq	%rbx, %rdi
 2956              	.LEHB131:
 2957 0425 E8000000 		call	_Unwind_Resume@PLT
 2957      00
 2958              	.LEHE131:
 2959              	.L182:
 2960 042a E8000000 		call	__cxa_begin_catch@PLT
 2960      00
 2961              	.LEHB132:
 2962 042f E8000000 		call	_ZN8UnitTest11CurrentTest7ResultsEv@PLT
 2962      00
 2963 0434 4C8B20   		movq	(%rax), %r12
 2964 0437 E8000000 		call	_ZN8UnitTest11CurrentTest7DetailsEv@PLT
 2964      00
 2965 043c 488B30   		movq	(%rax), %rsi
 2966 043f BA460000 		movl	$70, %edx
 2966      00
 2967 0444 4889DF   		movq	%rbx, %rdi
 2968 0447 E8000000 		call	_ZN8UnitTest11TestDetailsC1ERKS0_i@PLT
 2968      00
 2969 044c 488D1500 		leaq	.LC21(%rip), %rdx
 2969      000000
 2970 0453 4889DE   		movq	%rbx, %rsi
 2971 0456 4C89E7   		movq	%r12, %rdi
 2972 0459 E8000000 		call	_ZN8UnitTest11TestResults13OnTestFailureERKNS_11TestDetailsEPKc@PLT
 2972      00
 2973              	.LEHE132:
 2974              	.LEHB133:
 2975 045e E8000000 		call	__cxa_end_catch@PLT
 2975      00
 2976              	.LEHE133:
 2977 0463 E9000000 		jmp	.L183
 2977      00
 2978              	.L179:
 2979 0468 E8000000 		call	__cxa_begin_catch@PLT
 2979      00
 2980              	.LEHB134:
 2981 046d E8000000 		call	_ZN8UnitTest11CurrentTest7ResultsEv@PLT
 2981      00
 2982 0472 4C8B20   		movq	(%rax), %r12
 2983 0475 E8000000 		call	_ZN8UnitTest11CurrentTest7DetailsEv@PLT
 2983      00
 2984 047a 488B30   		movq	(%rax), %rsi
 2985 047d BA450000 		movl	$69, %edx
 2985      00
 2986 0482 4889DF   		movq	%rbx, %rdi
 2987 0485 E8000000 		call	_ZN8UnitTest11TestDetailsC1ERKS0_i@PLT
 2987      00
 2988 048a 488D1500 		leaq	.LC5(%rip), %rdx
 2988      000000
 2989 0491 4889DE   		movq	%rbx, %rsi
 2990 0494 4C89E7   		movq	%r12, %rdi
 2991 0497 E8000000 		call	_ZN8UnitTest11TestResults13OnTestFailureERKNS_11TestDetailsEPKc@PLT
 2991      00
 2992              	.LEHE134:
 2993              	.LEHB135:
 2994 049c E8000000 		call	__cxa_end_catch@PLT
 2994      00
 2995              	.LEHE135:
 2996 04a1 E9000000 		jmp	.L180
 2996      00
 2997              	.L288:
 2998 04a6 F30F1EFA 		endbr64
 2999 04aa 4889C3   		movq	%rax, %rbx
 3000 04ad E8000000 		call	__cxa_end_catch@PLT
 3000      00
 3001 04b2 4889DF   		movq	%rbx, %rdi
 3002              	.LEHB136:
 3003 04b5 E8000000 		call	_Unwind_Resume@PLT
 3003      00
 3004              	.LEHE136:
 3005              	.L286:
 3006 04ba F30F1EFA 		endbr64
 3007 04be 4889C3   		movq	%rax, %rbx
 3008 04c1 E8000000 		call	__cxa_end_catch@PLT
 3008      00
 3009 04c6 4889DF   		movq	%rbx, %rdi
 3010              	.LEHB137:
 3011 04c9 E8000000 		call	_Unwind_Resume@PLT
 3011      00
 3012              	.LEHE137:
 3013              	.L176:
 3014 04ce E8000000 		call	__cxa_begin_catch@PLT
 3014      00
 3015              	.LEHB138:
 3016 04d3 E8000000 		call	_ZN8UnitTest11CurrentTest7ResultsEv@PLT
 3016      00
 3017 04d8 4C8B20   		movq	(%rax), %r12
 3018 04db E8000000 		call	_ZN8UnitTest11CurrentTest7DetailsEv@PLT
 3018      00
 3019 04e0 488B30   		movq	(%rax), %rsi
 3020 04e3 BA430000 		movl	$67, %edx
 3020      00
 3021 04e8 4889DF   		movq	%rbx, %rdi
 3022 04eb E8000000 		call	_ZN8UnitTest11TestDetailsC1ERKS0_i@PLT
 3022      00
 3023 04f0 488D1500 		leaq	.LC20(%rip), %rdx
 3023      000000
 3024 04f7 4889DE   		movq	%rbx, %rsi
 3025 04fa 4C89E7   		movq	%r12, %rdi
 3026 04fd E8000000 		call	_ZN8UnitTest11TestResults13OnTestFailureERKNS_11TestDetailsEPKc@PLT
 3026      00
 3027              	.LEHE138:
 3028              	.LEHB139:
 3029 0502 E8000000 		call	__cxa_end_catch@PLT
 3029      00
 3030              	.LEHE139:
 3031 0507 E9000000 		jmp	.L177
 3031      00
 3032              	.L173:
 3033 050c E8000000 		call	__cxa_begin_catch@PLT
 3033      00
 3034              	.LEHB140:
 3035 0511 E8000000 		call	_ZN8UnitTest11CurrentTest7ResultsEv@PLT
 3035      00
 3036 0516 4C8B20   		movq	(%rax), %r12
 3037 0519 E8000000 		call	_ZN8UnitTest11CurrentTest7DetailsEv@PLT
 3037      00
 3038 051e 488B30   		movq	(%rax), %rsi
 3039 0521 BA420000 		movl	$66, %edx
 3039      00
 3040 0526 4889DF   		movq	%rbx, %rdi
 3041 0529 E8000000 		call	_ZN8UnitTest11TestDetailsC1ERKS0_i@PLT
 3041      00
 3042 052e 488D1500 		leaq	.LC5(%rip), %rdx
 3042      000000
 3043 0535 4889DE   		movq	%rbx, %rsi
 3044 0538 4C89E7   		movq	%r12, %rdi
 3045 053b E8000000 		call	_ZN8UnitTest11TestResults13OnTestFailureERKNS_11TestDetailsEPKc@PLT
 3045      00
 3046              	.LEHE140:
 3047              	.LEHB141:
 3048 0540 E8000000 		call	__cxa_end_catch@PLT
 3048      00
 3049              	.LEHE141:
 3050 0545 E9000000 		jmp	.L174
 3050      00
 3051              	.L284:
 3052 054a F30F1EFA 		endbr64
 3053 054e 4889C3   		movq	%rax, %rbx
 3054 0551 E8000000 		call	__cxa_end_catch@PLT
 3054      00
 3055 0556 4889DF   		movq	%rbx, %rdi
 3056              	.LEHB142:
 3057 0559 E8000000 		call	_Unwind_Resume@PLT
 3057      00
 3058              	.LEHE142:
 3059              	.L282:
 3060 055e F30F1EFA 		endbr64
 3061 0562 4889C3   		movq	%rax, %rbx
 3062 0565 E8000000 		call	__cxa_end_catch@PLT
 3062      00
 3063 056a 4889DF   		movq	%rbx, %rdi
 3064              	.LEHB143:
 3065 056d E8000000 		call	_Unwind_Resume@PLT
 3065      00
 3066              	.LEHE143:
 3067              	.L170:
 3068 0572 E8000000 		call	__cxa_begin_catch@PLT
 3068      00
 3069              	.LEHB144:
 3070 0577 E8000000 		call	_ZN8UnitTest11CurrentTest7ResultsEv@PLT
 3070      00
 3071 057c 4C8B20   		movq	(%rax), %r12
 3072 057f E8000000 		call	_ZN8UnitTest11CurrentTest7DetailsEv@PLT
 3072      00
 3073 0584 488B30   		movq	(%rax), %rsi
 3074 0587 BA400000 		movl	$64, %edx
 3074      00
 3075 058c 4889DF   		movq	%rbx, %rdi
 3076 058f E8000000 		call	_ZN8UnitTest11TestDetailsC1ERKS0_i@PLT
 3076      00
 3077 0594 488D1500 		leaq	.LC19(%rip), %rdx
 3077      000000
 3078 059b 4889DE   		movq	%rbx, %rsi
 3079 059e 4C89E7   		movq	%r12, %rdi
 3080 05a1 E8000000 		call	_ZN8UnitTest11TestResults13OnTestFailureERKNS_11TestDetailsEPKc@PLT
 3080      00
 3081              	.LEHE144:
 3082              	.LEHB145:
 3083 05a6 E8000000 		call	__cxa_end_catch@PLT
 3083      00
 3084              	.LEHE145:
 3085 05ab E9000000 		jmp	.L171
 3085      00
 3086              	.L167:
 3087 05b0 E8000000 		call	__cxa_begin_catch@PLT
 3087      00
 3088              	.LEHB146:
 3089 05b5 E8000000 		call	_ZN8UnitTest11CurrentTest7ResultsEv@PLT
 3089      00
 3090 05ba 4C8B20   		movq	(%rax), %r12
 3091 05bd E8000000 		call	_ZN8UnitTest11CurrentTest7DetailsEv@PLT
 3091      00
 3092 05c2 488B30   		movq	(%rax), %rsi
 3093 05c5 BA3F0000 		movl	$63, %edx
 3093      00
 3094 05ca 4889DF   		movq	%rbx, %rdi
 3095 05cd E8000000 		call	_ZN8UnitTest11TestDetailsC1ERKS0_i@PLT
 3095      00
 3096 05d2 488D1500 		leaq	.LC5(%rip), %rdx
 3096      000000
 3097 05d9 4889DE   		movq	%rbx, %rsi
 3098 05dc 4C89E7   		movq	%r12, %rdi
 3099 05df E8000000 		call	_ZN8UnitTest11TestResults13OnTestFailureERKNS_11TestDetailsEPKc@PLT
 3099      00
 3100              	.LEHE146:
 3101              	.LEHB147:
 3102 05e4 E8000000 		call	__cxa_end_catch@PLT
 3102      00
 3103              	.LEHE147:
 3104 05e9 E9000000 		jmp	.L168
 3104      00
 3105              	.L280:
 3106 05ee F30F1EFA 		endbr64
 3107 05f2 4889C3   		movq	%rax, %rbx
 3108 05f5 E8000000 		call	__cxa_end_catch@PLT
 3108      00
 3109 05fa 4889DF   		movq	%rbx, %rdi
 3110              	.LEHB148:
 3111 05fd E8000000 		call	_Unwind_Resume@PLT
 3111      00
 3112              	.LEHE148:
 3113              	.L278:
 3114 0602 F30F1EFA 		endbr64
 3115 0606 4889C3   		movq	%rax, %rbx
 3116 0609 E8000000 		call	__cxa_end_catch@PLT
 3116      00
 3117 060e 4889DF   		movq	%rbx, %rdi
 3118              	.LEHB149:
 3119 0611 E8000000 		call	_Unwind_Resume@PLT
 3119      00
 3120              	.LEHE149:
 3121              	.L164:
 3122 0616 E8000000 		call	__cxa_begin_catch@PLT
 3122      00
 3123              	.LEHB150:
 3124 061b E8000000 		call	_ZN8UnitTest11CurrentTest7ResultsEv@PLT
 3124      00
 3125 0620 4C8B20   		movq	(%rax), %r12
 3126 0623 E8000000 		call	_ZN8UnitTest11CurrentTest7DetailsEv@PLT
 3126      00
 3127 0628 488B30   		movq	(%rax), %rsi
 3128 062b BA3D0000 		movl	$61, %edx
 3128      00
 3129 0630 4889DF   		movq	%rbx, %rdi
 3130 0633 E8000000 		call	_ZN8UnitTest11TestDetailsC1ERKS0_i@PLT
 3130      00
 3131 0638 488D1500 		leaq	.LC18(%rip), %rdx
 3131      000000
 3132 063f 4889DE   		movq	%rbx, %rsi
 3133 0642 4C89E7   		movq	%r12, %rdi
 3134 0645 E8000000 		call	_ZN8UnitTest11TestResults13OnTestFailureERKNS_11TestDetailsEPKc@PLT
 3134      00
 3135              	.LEHE150:
 3136              	.LEHB151:
 3137 064a E8000000 		call	__cxa_end_catch@PLT
 3137      00
 3138              	.LEHE151:
 3139 064f E9000000 		jmp	.L165
 3139      00
 3140              	.L161:
 3141 0654 E8000000 		call	__cxa_begin_catch@PLT
 3141      00
 3142              	.LEHB152:
 3143 0659 E8000000 		call	_ZN8UnitTest11CurrentTest7ResultsEv@PLT
 3143      00
 3144 065e 4C8B20   		movq	(%rax), %r12
 3145 0661 E8000000 		call	_ZN8UnitTest11CurrentTest7DetailsEv@PLT
 3145      00
 3146 0666 488B30   		movq	(%rax), %rsi
 3147 0669 BA3C0000 		movl	$60, %edx
 3147      00
 3148 066e 4889DF   		movq	%rbx, %rdi
 3149 0671 E8000000 		call	_ZN8UnitTest11TestDetailsC1ERKS0_i@PLT
 3149      00
 3150 0676 488D1500 		leaq	.LC5(%rip), %rdx
 3150      000000
 3151 067d 4889DE   		movq	%rbx, %rsi
 3152 0680 4C89E7   		movq	%r12, %rdi
 3153 0683 E8000000 		call	_ZN8UnitTest11TestResults13OnTestFailureERKNS_11TestDetailsEPKc@PLT
 3153      00
 3154              	.LEHE152:
 3155              	.LEHB153:
 3156 0688 E8000000 		call	__cxa_end_catch@PLT
 3156      00
 3157              	.LEHE153:
 3158 068d E9000000 		jmp	.L162
 3158      00
 3159              	.L276:
 3160 0692 F30F1EFA 		endbr64
 3161 0696 4889C3   		movq	%rax, %rbx
 3162 0699 E8000000 		call	__cxa_end_catch@PLT
 3162      00
 3163 069e 4889DF   		movq	%rbx, %rdi
 3164              	.LEHB154:
 3165 06a1 E8000000 		call	_Unwind_Resume@PLT
 3165      00
 3166              	.LEHE154:
 3167              	.L274:
 3168 06a6 F30F1EFA 		endbr64
 3169 06aa 4889C3   		movq	%rax, %rbx
 3170 06ad E8000000 		call	__cxa_end_catch@PLT
 3170      00
 3171 06b2 4889DF   		movq	%rbx, %rdi
 3172              	.LEHB155:
 3173 06b5 E8000000 		call	_Unwind_Resume@PLT
 3173      00
 3174              	.LEHE155:
 3175              	.L158:
 3176 06ba E8000000 		call	__cxa_begin_catch@PLT
 3176      00
 3177              	.LEHB156:
 3178 06bf E8000000 		call	_ZN8UnitTest11CurrentTest7ResultsEv@PLT
 3178      00
 3179 06c4 4C8B20   		movq	(%rax), %r12
 3180 06c7 E8000000 		call	_ZN8UnitTest11CurrentTest7DetailsEv@PLT
 3180      00
 3181 06cc 488B30   		movq	(%rax), %rsi
 3182 06cf BA3A0000 		movl	$58, %edx
 3182      00
 3183 06d4 4889DF   		movq	%rbx, %rdi
 3184 06d7 E8000000 		call	_ZN8UnitTest11TestDetailsC1ERKS0_i@PLT
 3184      00
 3185 06dc 488D1500 		leaq	.LC17(%rip), %rdx
 3185      000000
 3186 06e3 4889DE   		movq	%rbx, %rsi
 3187 06e6 4C89E7   		movq	%r12, %rdi
 3188 06e9 E8000000 		call	_ZN8UnitTest11TestResults13OnTestFailureERKNS_11TestDetailsEPKc@PLT
 3188      00
 3189              	.LEHE156:
 3190              	.LEHB157:
 3191 06ee E8000000 		call	__cxa_end_catch@PLT
 3191      00
 3192              	.LEHE157:
 3193 06f3 E9000000 		jmp	.L159
 3193      00
 3194              	.L155:
 3195 06f8 E8000000 		call	__cxa_begin_catch@PLT
 3195      00
 3196              	.LEHB158:
 3197 06fd E8000000 		call	_ZN8UnitTest11CurrentTest7ResultsEv@PLT
 3197      00
 3198 0702 4C8B20   		movq	(%rax), %r12
 3199 0705 E8000000 		call	_ZN8UnitTest11CurrentTest7DetailsEv@PLT
 3199      00
 3200 070a 488B30   		movq	(%rax), %rsi
 3201 070d BA390000 		movl	$57, %edx
 3201      00
 3202 0712 4889DF   		movq	%rbx, %rdi
 3203 0715 E8000000 		call	_ZN8UnitTest11TestDetailsC1ERKS0_i@PLT
 3203      00
 3204 071a 488D1500 		leaq	.LC5(%rip), %rdx
 3204      000000
 3205 0721 4889DE   		movq	%rbx, %rsi
 3206 0724 4C89E7   		movq	%r12, %rdi
 3207 0727 E8000000 		call	_ZN8UnitTest11TestResults13OnTestFailureERKNS_11TestDetailsEPKc@PLT
 3207      00
 3208              	.LEHE158:
 3209              	.LEHB159:
 3210 072c E8000000 		call	__cxa_end_catch@PLT
 3210      00
 3211              	.LEHE159:
 3212 0731 E9000000 		jmp	.L156
 3212      00
 3213              	.L272:
 3214 0736 F30F1EFA 		endbr64
 3215 073a 4889C3   		movq	%rax, %rbx
 3216 073d E8000000 		call	__cxa_end_catch@PLT
 3216      00
 3217 0742 4889DF   		movq	%rbx, %rdi
 3218              	.LEHB160:
 3219 0745 E8000000 		call	_Unwind_Resume@PLT
 3219      00
 3220              	.LEHE160:
 3221              	.L270:
 3222 074a F30F1EFA 		endbr64
 3223 074e 4889C3   		movq	%rax, %rbx
 3224 0751 E8000000 		call	__cxa_end_catch@PLT
 3224      00
 3225 0756 4889DF   		movq	%rbx, %rdi
 3226              	.LEHB161:
 3227 0759 E8000000 		call	_Unwind_Resume@PLT
 3227      00
 3228              	.LEHE161:
 3229              	.L152:
 3230 075e E8000000 		call	__cxa_begin_catch@PLT
 3230      00
 3231              	.LEHB162:
 3232 0763 E8000000 		call	_ZN8UnitTest11CurrentTest7ResultsEv@PLT
 3232      00
 3233 0768 4C8B20   		movq	(%rax), %r12
 3234 076b E8000000 		call	_ZN8UnitTest11CurrentTest7DetailsEv@PLT
 3234      00
 3235 0770 488B30   		movq	(%rax), %rsi
 3236 0773 BA370000 		movl	$55, %edx
 3236      00
 3237 0778 4889DF   		movq	%rbx, %rdi
 3238 077b E8000000 		call	_ZN8UnitTest11TestDetailsC1ERKS0_i@PLT
 3238      00
 3239 0780 488D1500 		leaq	.LC16(%rip), %rdx
 3239      000000
 3240 0787 4889DE   		movq	%rbx, %rsi
 3241 078a 4C89E7   		movq	%r12, %rdi
 3242 078d E8000000 		call	_ZN8UnitTest11TestResults13OnTestFailureERKNS_11TestDetailsEPKc@PLT
 3242      00
 3243              	.LEHE162:
 3244              	.LEHB163:
 3245 0792 E8000000 		call	__cxa_end_catch@PLT
 3245      00
 3246              	.LEHE163:
 3247 0797 E9000000 		jmp	.L153
 3247      00
 3248              	.L149:
 3249 079c E8000000 		call	__cxa_begin_catch@PLT
 3249      00
 3250              	.LEHB164:
 3251 07a1 E8000000 		call	_ZN8UnitTest11CurrentTest7ResultsEv@PLT
 3251      00
 3252 07a6 4C8B20   		movq	(%rax), %r12
 3253 07a9 E8000000 		call	_ZN8UnitTest11CurrentTest7DetailsEv@PLT
 3253      00
 3254 07ae 488B30   		movq	(%rax), %rsi
 3255 07b1 BA360000 		movl	$54, %edx
 3255      00
 3256 07b6 4889DF   		movq	%rbx, %rdi
 3257 07b9 E8000000 		call	_ZN8UnitTest11TestDetailsC1ERKS0_i@PLT
 3257      00
 3258 07be 488D1500 		leaq	.LC5(%rip), %rdx
 3258      000000
 3259 07c5 4889DE   		movq	%rbx, %rsi
 3260 07c8 4C89E7   		movq	%r12, %rdi
 3261 07cb E8000000 		call	_ZN8UnitTest11TestResults13OnTestFailureERKNS_11TestDetailsEPKc@PLT
 3261      00
 3262              	.LEHE164:
 3263              	.LEHB165:
 3264 07d0 E8000000 		call	__cxa_end_catch@PLT
 3264      00
 3265              	.LEHE165:
 3266 07d5 E9000000 		jmp	.L150
 3266      00
 3267              	.L268:
 3268 07da F30F1EFA 		endbr64
 3269 07de 4889C3   		movq	%rax, %rbx
 3270 07e1 E8000000 		call	__cxa_end_catch@PLT
 3270      00
 3271 07e6 4889DF   		movq	%rbx, %rdi
 3272              	.LEHB166:
 3273 07e9 E8000000 		call	_Unwind_Resume@PLT
 3273      00
 3274              	.LEHE166:
 3275              	.L266:
 3276 07ee F30F1EFA 		endbr64
 3277 07f2 4889C3   		movq	%rax, %rbx
 3278 07f5 E8000000 		call	__cxa_end_catch@PLT
 3278      00
 3279 07fa 4889DF   		movq	%rbx, %rdi
 3280              	.LEHB167:
 3281 07fd E8000000 		call	_Unwind_Resume@PLT
 3281      00
 3282              	.LEHE167:
 3283              	.L146:
 3284 0802 E8000000 		call	__cxa_begin_catch@PLT
 3284      00
 3285              	.LEHB168:
 3286 0807 E8000000 		call	_ZN8UnitTest11CurrentTest7ResultsEv@PLT
 3286      00
 3287 080c 4C8B20   		movq	(%rax), %r12
 3288 080f E8000000 		call	_ZN8UnitTest11CurrentTest7DetailsEv@PLT
 3288      00
 3289 0814 488B30   		movq	(%rax), %rsi
 3290 0817 BA340000 		movl	$52, %edx
 3290      00
 3291 081c 4889DF   		movq	%rbx, %rdi
 3292 081f E8000000 		call	_ZN8UnitTest11TestDetailsC1ERKS0_i@PLT
 3292      00
 3293 0824 488D1500 		leaq	.LC15(%rip), %rdx
 3293      000000
 3294 082b 4889DE   		movq	%rbx, %rsi
 3295 082e 4C89E7   		movq	%r12, %rdi
 3296 0831 E8000000 		call	_ZN8UnitTest11TestResults13OnTestFailureERKNS_11TestDetailsEPKc@PLT
 3296      00
 3297              	.LEHE168:
 3298              	.LEHB169:
 3299 0836 E8000000 		call	__cxa_end_catch@PLT
 3299      00
 3300              	.LEHE169:
 3301 083b E9000000 		jmp	.L147
 3301      00
 3302              	.L143:
 3303 0840 E8000000 		call	__cxa_begin_catch@PLT
 3303      00
 3304              	.LEHB170:
 3305 0845 E8000000 		call	_ZN8UnitTest11CurrentTest7ResultsEv@PLT
 3305      00
 3306 084a 4C8B20   		movq	(%rax), %r12
 3307 084d E8000000 		call	_ZN8UnitTest11CurrentTest7DetailsEv@PLT
 3307      00
 3308 0852 488B30   		movq	(%rax), %rsi
 3309 0855 BA330000 		movl	$51, %edx
 3309      00
 3310 085a 4889DF   		movq	%rbx, %rdi
 3311 085d E8000000 		call	_ZN8UnitTest11TestDetailsC1ERKS0_i@PLT
 3311      00
 3312 0862 488D1500 		leaq	.LC5(%rip), %rdx
 3312      000000
 3313 0869 4889DE   		movq	%rbx, %rsi
 3314 086c 4C89E7   		movq	%r12, %rdi
 3315 086f E8000000 		call	_ZN8UnitTest11TestResults13OnTestFailureERKNS_11TestDetailsEPKc@PLT
 3315      00
 3316              	.LEHE170:
 3317              	.LEHB171:
 3318 0874 E8000000 		call	__cxa_end_catch@PLT
 3318      00
 3319              	.LEHE171:
 3320 0879 E9000000 		jmp	.L144
 3320      00
 3321              	.L264:
 3322 087e F30F1EFA 		endbr64
 3323 0882 4889C3   		movq	%rax, %rbx
 3324 0885 E8000000 		call	__cxa_end_catch@PLT
 3324      00
 3325 088a 4889DF   		movq	%rbx, %rdi
 3326              	.LEHB172:
 3327 088d E8000000 		call	_Unwind_Resume@PLT
 3327      00
 3328              	.LEHE172:
 3329              	.L262:
 3330 0892 F30F1EFA 		endbr64
 3331 0896 4889C3   		movq	%rax, %rbx
 3332 0899 E8000000 		call	__cxa_end_catch@PLT
 3332      00
 3333 089e 4889DF   		movq	%rbx, %rdi
 3334              	.LEHB173:
 3335 08a1 E8000000 		call	_Unwind_Resume@PLT
 3335      00
 3336              	.LEHE173:
 3337              	.L140:
 3338 08a6 E8000000 		call	__cxa_begin_catch@PLT
 3338      00
 3339              	.LEHB174:
 3340 08ab E8000000 		call	_ZN8UnitTest11CurrentTest7ResultsEv@PLT
 3340      00
 3341 08b0 4C8B20   		movq	(%rax), %r12
 3342 08b3 E8000000 		call	_ZN8UnitTest11CurrentTest7DetailsEv@PLT
 3342      00
 3343 08b8 488B30   		movq	(%rax), %rsi
 3344 08bb BA310000 		movl	$49, %edx
 3344      00
 3345 08c0 4889DF   		movq	%rbx, %rdi
 3346 08c3 E8000000 		call	_ZN8UnitTest11TestDetailsC1ERKS0_i@PLT
 3346      00
 3347 08c8 488D1500 		leaq	.LC14(%rip), %rdx
 3347      000000
 3348 08cf 4889DE   		movq	%rbx, %rsi
 3349 08d2 4C89E7   		movq	%r12, %rdi
 3350 08d5 E8000000 		call	_ZN8UnitTest11TestResults13OnTestFailureERKNS_11TestDetailsEPKc@PLT
 3350      00
 3351              	.LEHE174:
 3352              	.LEHB175:
 3353 08da E8000000 		call	__cxa_end_catch@PLT
 3353      00
 3354              	.LEHE175:
 3355 08df E9000000 		jmp	.L141
 3355      00
 3356              	.L137:
 3357 08e4 E8000000 		call	__cxa_begin_catch@PLT
 3357      00
 3358              	.LEHB176:
 3359 08e9 E8000000 		call	_ZN8UnitTest11CurrentTest7ResultsEv@PLT
 3359      00
 3360 08ee 4C8B20   		movq	(%rax), %r12
 3361 08f1 E8000000 		call	_ZN8UnitTest11CurrentTest7DetailsEv@PLT
 3361      00
 3362 08f6 488B30   		movq	(%rax), %rsi
 3363 08f9 BA300000 		movl	$48, %edx
 3363      00
 3364 08fe 4889DF   		movq	%rbx, %rdi
 3365 0901 E8000000 		call	_ZN8UnitTest11TestDetailsC1ERKS0_i@PLT
 3365      00
 3366 0906 488D1500 		leaq	.LC5(%rip), %rdx
 3366      000000
 3367 090d 4889DE   		movq	%rbx, %rsi
 3368 0910 4C89E7   		movq	%r12, %rdi
 3369 0913 E8000000 		call	_ZN8UnitTest11TestResults13OnTestFailureERKNS_11TestDetailsEPKc@PLT
 3369      00
 3370              	.LEHE176:
 3371              	.LEHB177:
 3372 0918 E8000000 		call	__cxa_end_catch@PLT
 3372      00
 3373              	.LEHE177:
 3374 091d E9000000 		jmp	.L138
 3374      00
 3375              	.L260:
 3376 0922 F30F1EFA 		endbr64
 3377 0926 4889C3   		movq	%rax, %rbx
 3378 0929 E8000000 		call	__cxa_end_catch@PLT
 3378      00
 3379 092e 4889DF   		movq	%rbx, %rdi
 3380              	.LEHB178:
 3381 0931 E8000000 		call	_Unwind_Resume@PLT
 3381      00
 3382              	.LEHE178:
 3383              	.L258:
 3384 0936 F30F1EFA 		endbr64
 3385 093a 4889C3   		movq	%rax, %rbx
 3386 093d E8000000 		call	__cxa_end_catch@PLT
 3386      00
 3387 0942 4889DF   		movq	%rbx, %rdi
 3388              	.LEHB179:
 3389 0945 E8000000 		call	_Unwind_Resume@PLT
 3389      00
 3390              	.LEHE179:
 3391              	.L134:
 3392 094a E8000000 		call	__cxa_begin_catch@PLT
 3392      00
 3393              	.LEHB180:
 3394 094f E8000000 		call	_ZN8UnitTest11CurrentTest7ResultsEv@PLT
 3394      00
 3395 0954 4C8B20   		movq	(%rax), %r12
 3396 0957 E8000000 		call	_ZN8UnitTest11CurrentTest7DetailsEv@PLT
 3396      00
 3397 095c 488B30   		movq	(%rax), %rsi
 3398 095f BA2E0000 		movl	$46, %edx
 3398      00
 3399 0964 4889DF   		movq	%rbx, %rdi
 3400 0967 E8000000 		call	_ZN8UnitTest11TestDetailsC1ERKS0_i@PLT
 3400      00
 3401 096c 488D1500 		leaq	.LC13(%rip), %rdx
 3401      000000
 3402 0973 4889DE   		movq	%rbx, %rsi
 3403 0976 4C89E7   		movq	%r12, %rdi
 3404 0979 E8000000 		call	_ZN8UnitTest11TestResults13OnTestFailureERKNS_11TestDetailsEPKc@PLT
 3404      00
 3405              	.LEHE180:
 3406              	.LEHB181:
 3407 097e E8000000 		call	__cxa_end_catch@PLT
 3407      00
 3408              	.LEHE181:
 3409 0983 E9000000 		jmp	.L135
 3409      00
 3410              	.L131:
 3411 0988 E8000000 		call	__cxa_begin_catch@PLT
 3411      00
 3412              	.LEHB182:
 3413 098d E8000000 		call	_ZN8UnitTest11CurrentTest7ResultsEv@PLT
 3413      00
 3414 0992 4C8B20   		movq	(%rax), %r12
 3415 0995 E8000000 		call	_ZN8UnitTest11CurrentTest7DetailsEv@PLT
 3415      00
 3416 099a 488B30   		movq	(%rax), %rsi
 3417 099d BA2D0000 		movl	$45, %edx
 3417      00
 3418 09a2 4889DF   		movq	%rbx, %rdi
 3419 09a5 E8000000 		call	_ZN8UnitTest11TestDetailsC1ERKS0_i@PLT
 3419      00
 3420 09aa 488D1500 		leaq	.LC5(%rip), %rdx
 3420      000000
 3421 09b1 4889DE   		movq	%rbx, %rsi
 3422 09b4 4C89E7   		movq	%r12, %rdi
 3423 09b7 E8000000 		call	_ZN8UnitTest11TestResults13OnTestFailureERKNS_11TestDetailsEPKc@PLT
 3423      00
 3424              	.LEHE182:
 3425              	.LEHB183:
 3426 09bc E8000000 		call	__cxa_end_catch@PLT
 3426      00
 3427              	.LEHE183:
 3428 09c1 E9000000 		jmp	.L132
 3428      00
 3429              	.L256:
 3430 09c6 F30F1EFA 		endbr64
 3431 09ca 4889C3   		movq	%rax, %rbx
 3432 09cd E8000000 		call	__cxa_end_catch@PLT
 3432      00
 3433 09d2 4889DF   		movq	%rbx, %rdi
 3434              	.LEHB184:
 3435 09d5 E8000000 		call	_Unwind_Resume@PLT
 3435      00
 3436              	.LEHE184:
 3437              	.L254:
 3438 09da F30F1EFA 		endbr64
 3439 09de 4889C3   		movq	%rax, %rbx
 3440 09e1 E8000000 		call	__cxa_end_catch@PLT
 3440      00
 3441 09e6 4889DF   		movq	%rbx, %rdi
 3442              	.LEHB185:
 3443 09e9 E8000000 		call	_Unwind_Resume@PLT
 3443      00
 3444              	.LEHE185:
 3445              	.L128:
 3446 09ee E8000000 		call	__cxa_begin_catch@PLT
 3446      00
 3447              	.LEHB186:
 3448 09f3 E8000000 		call	_ZN8UnitTest11CurrentTest7ResultsEv@PLT
 3448      00
 3449 09f8 4C8B20   		movq	(%rax), %r12
 3450 09fb E8000000 		call	_ZN8UnitTest11CurrentTest7DetailsEv@PLT
 3450      00
 3451 0a00 488B30   		movq	(%rax), %rsi
 3452 0a03 BA2B0000 		movl	$43, %edx
 3452      00
 3453 0a08 4889DF   		movq	%rbx, %rdi
 3454 0a0b E8000000 		call	_ZN8UnitTest11TestDetailsC1ERKS0_i@PLT
 3454      00
 3455 0a10 488D1500 		leaq	.LC12(%rip), %rdx
 3455      000000
 3456 0a17 4889DE   		movq	%rbx, %rsi
 3457 0a1a 4C89E7   		movq	%r12, %rdi
 3458 0a1d E8000000 		call	_ZN8UnitTest11TestResults13OnTestFailureERKNS_11TestDetailsEPKc@PLT
 3458      00
 3459              	.LEHE186:
 3460              	.LEHB187:
 3461 0a22 E8000000 		call	__cxa_end_catch@PLT
 3461      00
 3462              	.LEHE187:
 3463 0a27 E9000000 		jmp	.L129
 3463      00
 3464              	.L125:
 3465 0a2c E8000000 		call	__cxa_begin_catch@PLT
 3465      00
 3466              	.LEHB188:
 3467 0a31 E8000000 		call	_ZN8UnitTest11CurrentTest7ResultsEv@PLT
 3467      00
 3468 0a36 4C8B20   		movq	(%rax), %r12
 3469 0a39 E8000000 		call	_ZN8UnitTest11CurrentTest7DetailsEv@PLT
 3469      00
 3470 0a3e 488B30   		movq	(%rax), %rsi
 3471 0a41 BA2A0000 		movl	$42, %edx
 3471      00
 3472 0a46 4889DF   		movq	%rbx, %rdi
 3473 0a49 E8000000 		call	_ZN8UnitTest11TestDetailsC1ERKS0_i@PLT
 3473      00
 3474 0a4e 488D1500 		leaq	.LC5(%rip), %rdx
 3474      000000
 3475 0a55 4889DE   		movq	%rbx, %rsi
 3476 0a58 4C89E7   		movq	%r12, %rdi
 3477 0a5b E8000000 		call	_ZN8UnitTest11TestResults13OnTestFailureERKNS_11TestDetailsEPKc@PLT
 3477      00
 3478              	.LEHE188:
 3479              	.LEHB189:
 3480 0a60 E8000000 		call	__cxa_end_catch@PLT
 3480      00
 3481              	.LEHE189:
 3482 0a65 E9000000 		jmp	.L126
 3482      00
 3483              	.L252:
 3484 0a6a F30F1EFA 		endbr64
 3485 0a6e 4889C3   		movq	%rax, %rbx
 3486 0a71 E8000000 		call	__cxa_end_catch@PLT
 3486      00
 3487 0a76 4889DF   		movq	%rbx, %rdi
 3488              	.LEHB190:
 3489 0a79 E8000000 		call	_Unwind_Resume@PLT
 3489      00
 3490              	.LEHE190:
 3491              	.L250:
 3492 0a7e F30F1EFA 		endbr64
 3493 0a82 4889C3   		movq	%rax, %rbx
 3494 0a85 E8000000 		call	__cxa_end_catch@PLT
 3494      00
 3495 0a8a 4889DF   		movq	%rbx, %rdi
 3496              	.LEHB191:
 3497 0a8d E8000000 		call	_Unwind_Resume@PLT
 3497      00
 3498              	.LEHE191:
 3499              	.L122:
 3500 0a92 E8000000 		call	__cxa_begin_catch@PLT
 3500      00
 3501              	.LEHB192:
 3502 0a97 E8000000 		call	_ZN8UnitTest11CurrentTest7ResultsEv@PLT
 3502      00
 3503 0a9c 4C8B20   		movq	(%rax), %r12
 3504 0a9f E8000000 		call	_ZN8UnitTest11CurrentTest7DetailsEv@PLT
 3504      00
 3505 0aa4 488B30   		movq	(%rax), %rsi
 3506 0aa7 BA280000 		movl	$40, %edx
 3506      00
 3507 0aac 4889DF   		movq	%rbx, %rdi
 3508 0aaf E8000000 		call	_ZN8UnitTest11TestDetailsC1ERKS0_i@PLT
 3508      00
 3509 0ab4 488D1500 		leaq	.LC11(%rip), %rdx
 3509      000000
 3510 0abb 4889DE   		movq	%rbx, %rsi
 3511 0abe 4C89E7   		movq	%r12, %rdi
 3512 0ac1 E8000000 		call	_ZN8UnitTest11TestResults13OnTestFailureERKNS_11TestDetailsEPKc@PLT
 3512      00
 3513              	.LEHE192:
 3514              	.LEHB193:
 3515 0ac6 E8000000 		call	__cxa_end_catch@PLT
 3515      00
 3516              	.LEHE193:
 3517 0acb E9000000 		jmp	.L123
 3517      00
 3518              	.L119:
 3519 0ad0 E8000000 		call	__cxa_begin_catch@PLT
 3519      00
 3520              	.LEHB194:
 3521 0ad5 E8000000 		call	_ZN8UnitTest11CurrentTest7ResultsEv@PLT
 3521      00
 3522 0ada 4C8B20   		movq	(%rax), %r12
 3523 0add E8000000 		call	_ZN8UnitTest11CurrentTest7DetailsEv@PLT
 3523      00
 3524 0ae2 488B30   		movq	(%rax), %rsi
 3525 0ae5 BA270000 		movl	$39, %edx
 3525      00
 3526 0aea 4889DF   		movq	%rbx, %rdi
 3527 0aed E8000000 		call	_ZN8UnitTest11TestDetailsC1ERKS0_i@PLT
 3527      00
 3528 0af2 488D1500 		leaq	.LC5(%rip), %rdx
 3528      000000
 3529 0af9 4889DE   		movq	%rbx, %rsi
 3530 0afc 4C89E7   		movq	%r12, %rdi
 3531 0aff E8000000 		call	_ZN8UnitTest11TestResults13OnTestFailureERKNS_11TestDetailsEPKc@PLT
 3531      00
 3532              	.LEHE194:
 3533              	.LEHB195:
 3534 0b04 E8000000 		call	__cxa_end_catch@PLT
 3534      00
 3535              	.LEHE195:
 3536 0b09 E9000000 		jmp	.L120
 3536      00
 3537              	.L248:
 3538 0b0e F30F1EFA 		endbr64
 3539 0b12 4889C3   		movq	%rax, %rbx
 3540 0b15 E8000000 		call	__cxa_end_catch@PLT
 3540      00
 3541 0b1a 4889DF   		movq	%rbx, %rdi
 3542              	.LEHB196:
 3543 0b1d E8000000 		call	_Unwind_Resume@PLT
 3543      00
 3544              	.LEHE196:
 3545              	.L246:
 3546 0b22 F30F1EFA 		endbr64
 3547 0b26 4889C3   		movq	%rax, %rbx
 3548 0b29 E8000000 		call	__cxa_end_catch@PLT
 3548      00
 3549 0b2e 4889DF   		movq	%rbx, %rdi
 3550              	.LEHB197:
 3551 0b31 E8000000 		call	_Unwind_Resume@PLT
 3551      00
 3552              	.LEHE197:
 3553              	.L116:
 3554 0b36 E8000000 		call	__cxa_begin_catch@PLT
 3554      00
 3555              	.LEHB198:
 3556 0b3b E8000000 		call	_ZN8UnitTest11CurrentTest7ResultsEv@PLT
 3556      00
 3557 0b40 4C8B20   		movq	(%rax), %r12
 3558 0b43 E8000000 		call	_ZN8UnitTest11CurrentTest7DetailsEv@PLT
 3558      00
 3559 0b48 488B30   		movq	(%rax), %rsi
 3560 0b4b BA250000 		movl	$37, %edx
 3560      00
 3561 0b50 4889DF   		movq	%rbx, %rdi
 3562 0b53 E8000000 		call	_ZN8UnitTest11TestDetailsC1ERKS0_i@PLT
 3562      00
 3563 0b58 488D1500 		leaq	.LC10(%rip), %rdx
 3563      000000
 3564 0b5f 4889DE   		movq	%rbx, %rsi
 3565 0b62 4C89E7   		movq	%r12, %rdi
 3566 0b65 E8000000 		call	_ZN8UnitTest11TestResults13OnTestFailureERKNS_11TestDetailsEPKc@PLT
 3566      00
 3567              	.LEHE198:
 3568              	.LEHB199:
 3569 0b6a E8000000 		call	__cxa_end_catch@PLT
 3569      00
 3570              	.LEHE199:
 3571 0b6f E9000000 		jmp	.L117
 3571      00
 3572              	.L113:
 3573 0b74 E8000000 		call	__cxa_begin_catch@PLT
 3573      00
 3574              	.LEHB200:
 3575 0b79 E8000000 		call	_ZN8UnitTest11CurrentTest7ResultsEv@PLT
 3575      00
 3576 0b7e 4C8B20   		movq	(%rax), %r12
 3577 0b81 E8000000 		call	_ZN8UnitTest11CurrentTest7DetailsEv@PLT
 3577      00
 3578 0b86 488B30   		movq	(%rax), %rsi
 3579 0b89 BA240000 		movl	$36, %edx
 3579      00
 3580 0b8e 4889DF   		movq	%rbx, %rdi
 3581 0b91 E8000000 		call	_ZN8UnitTest11TestDetailsC1ERKS0_i@PLT
 3581      00
 3582 0b96 488D1500 		leaq	.LC5(%rip), %rdx
 3582      000000
 3583 0b9d 4889DE   		movq	%rbx, %rsi
 3584 0ba0 4C89E7   		movq	%r12, %rdi
 3585 0ba3 E8000000 		call	_ZN8UnitTest11TestResults13OnTestFailureERKNS_11TestDetailsEPKc@PLT
 3585      00
 3586              	.LEHE200:
 3587              	.LEHB201:
 3588 0ba8 E8000000 		call	__cxa_end_catch@PLT
 3588      00
 3589              	.LEHE201:
 3590 0bad E9000000 		jmp	.L114
 3590      00
 3591              	.L244:
 3592 0bb2 F30F1EFA 		endbr64
 3593 0bb6 4889C3   		movq	%rax, %rbx
 3594 0bb9 E8000000 		call	__cxa_end_catch@PLT
 3594      00
 3595 0bbe 4889DF   		movq	%rbx, %rdi
 3596              	.LEHB202:
 3597 0bc1 E8000000 		call	_Unwind_Resume@PLT
 3597      00
 3598              	.LEHE202:
 3599              	.L242:
 3600 0bc6 F30F1EFA 		endbr64
 3601 0bca 4889C3   		movq	%rax, %rbx
 3602 0bcd E8000000 		call	__cxa_end_catch@PLT
 3602      00
 3603 0bd2 4889DF   		movq	%rbx, %rdi
 3604              	.LEHB203:
 3605 0bd5 E8000000 		call	_Unwind_Resume@PLT
 3605      00
 3606              	.LEHE203:
 3607              	.L110:
 3608 0bda E8000000 		call	__cxa_begin_catch@PLT
 3608      00
 3609              	.LEHB204:
 3610 0bdf E8000000 		call	_ZN8UnitTest11CurrentTest7ResultsEv@PLT
 3610      00
 3611 0be4 4C8B20   		movq	(%rax), %r12
 3612 0be7 E8000000 		call	_ZN8UnitTest11CurrentTest7DetailsEv@PLT
 3612      00
 3613 0bec 488B30   		movq	(%rax), %rsi
 3614 0bef BA220000 		movl	$34, %edx
 3614      00
 3615 0bf4 4889DF   		movq	%rbx, %rdi
 3616 0bf7 E8000000 		call	_ZN8UnitTest11TestDetailsC1ERKS0_i@PLT
 3616      00
 3617 0bfc 488D1500 		leaq	.LC9(%rip), %rdx
 3617      000000
 3618 0c03 4889DE   		movq	%rbx, %rsi
 3619 0c06 4C89E7   		movq	%r12, %rdi
 3620 0c09 E8000000 		call	_ZN8UnitTest11TestResults13OnTestFailureERKNS_11TestDetailsEPKc@PLT
 3620      00
 3621              	.LEHE204:
 3622              	.LEHB205:
 3623 0c0e E8000000 		call	__cxa_end_catch@PLT
 3623      00
 3624              	.LEHE205:
 3625 0c13 E9000000 		jmp	.L111
 3625      00
 3626              	.L107:
 3627 0c18 E8000000 		call	__cxa_begin_catch@PLT
 3627      00
 3628              	.LEHB206:
 3629 0c1d E8000000 		call	_ZN8UnitTest11CurrentTest7ResultsEv@PLT
 3629      00
 3630 0c22 4C8B20   		movq	(%rax), %r12
 3631 0c25 E8000000 		call	_ZN8UnitTest11CurrentTest7DetailsEv@PLT
 3631      00
 3632 0c2a 488B30   		movq	(%rax), %rsi
 3633 0c2d BA210000 		movl	$33, %edx
 3633      00
 3634 0c32 4889DF   		movq	%rbx, %rdi
 3635 0c35 E8000000 		call	_ZN8UnitTest11TestDetailsC1ERKS0_i@PLT
 3635      00
 3636 0c3a 488D1500 		leaq	.LC5(%rip), %rdx
 3636      000000
 3637 0c41 4889DE   		movq	%rbx, %rsi
 3638 0c44 4C89E7   		movq	%r12, %rdi
 3639 0c47 E8000000 		call	_ZN8UnitTest11TestResults13OnTestFailureERKNS_11TestDetailsEPKc@PLT
 3639      00
 3640              	.LEHE206:
 3641              	.LEHB207:
 3642 0c4c E8000000 		call	__cxa_end_catch@PLT
 3642      00
 3643              	.LEHE207:
 3644 0c51 E9000000 		jmp	.L108
 3644      00
 3645              	.L240:
 3646 0c56 F30F1EFA 		endbr64
 3647 0c5a 4889C3   		movq	%rax, %rbx
 3648 0c5d E8000000 		call	__cxa_end_catch@PLT
 3648      00
 3649 0c62 4889DF   		movq	%rbx, %rdi
 3650              	.LEHB208:
 3651 0c65 E8000000 		call	_Unwind_Resume@PLT
 3651      00
 3652              	.LEHE208:
 3653              	.L238:
 3654 0c6a F30F1EFA 		endbr64
 3655 0c6e 4889C3   		movq	%rax, %rbx
 3656 0c71 E8000000 		call	__cxa_end_catch@PLT
 3656      00
 3657 0c76 4889DF   		movq	%rbx, %rdi
 3658              	.LEHB209:
 3659 0c79 E8000000 		call	_Unwind_Resume@PLT
 3659      00
 3660              	.LEHE209:
 3661              	.L104:
 3662 0c7e E8000000 		call	__cxa_begin_catch@PLT
 3662      00
 3663              	.LEHB210:
 3664 0c83 E8000000 		call	_ZN8UnitTest11CurrentTest7ResultsEv@PLT
 3664      00
 3665 0c88 4C8B20   		movq	(%rax), %r12
 3666 0c8b E8000000 		call	_ZN8UnitTest11CurrentTest7DetailsEv@PLT
 3666      00
 3667 0c90 488B30   		movq	(%rax), %rsi
 3668 0c93 BA1F0000 		movl	$31, %edx
 3668      00
 3669 0c98 4889DF   		movq	%rbx, %rdi
 3670 0c9b E8000000 		call	_ZN8UnitTest11TestDetailsC1ERKS0_i@PLT
 3670      00
 3671 0ca0 488D1500 		leaq	.LC8(%rip), %rdx
 3671      000000
 3672 0ca7 4889DE   		movq	%rbx, %rsi
 3673 0caa 4C89E7   		movq	%r12, %rdi
 3674 0cad E8000000 		call	_ZN8UnitTest11TestResults13OnTestFailureERKNS_11TestDetailsEPKc@PLT
 3674      00
 3675              	.LEHE210:
 3676              	.LEHB211:
 3677 0cb2 E8000000 		call	__cxa_end_catch@PLT
 3677      00
 3678              	.LEHE211:
 3679 0cb7 E9000000 		jmp	.L105
 3679      00
 3680              	.L101:
 3681 0cbc E8000000 		call	__cxa_begin_catch@PLT
 3681      00
 3682              	.LEHB212:
 3683 0cc1 E8000000 		call	_ZN8UnitTest11CurrentTest7ResultsEv@PLT
 3683      00
 3684 0cc6 4C8B20   		movq	(%rax), %r12
 3685 0cc9 E8000000 		call	_ZN8UnitTest11CurrentTest7DetailsEv@PLT
 3685      00
 3686 0cce 488B30   		movq	(%rax), %rsi
 3687 0cd1 BA1E0000 		movl	$30, %edx
 3687      00
 3688 0cd6 4889DF   		movq	%rbx, %rdi
 3689 0cd9 E8000000 		call	_ZN8UnitTest11TestDetailsC1ERKS0_i@PLT
 3689      00
 3690 0cde 488D1500 		leaq	.LC5(%rip), %rdx
 3690      000000
 3691 0ce5 4889DE   		movq	%rbx, %rsi
 3692 0ce8 4C89E7   		movq	%r12, %rdi
 3693 0ceb E8000000 		call	_ZN8UnitTest11TestResults13OnTestFailureERKNS_11TestDetailsEPKc@PLT
 3693      00
 3694              	.LEHE212:
 3695              	.LEHB213:
 3696 0cf0 E8000000 		call	__cxa_end_catch@PLT
 3696      00
 3697              	.LEHE213:
 3698 0cf5 E9000000 		jmp	.L102
 3698      00
 3699              	.L236:
 3700 0cfa F30F1EFA 		endbr64
 3701 0cfe 4889C3   		movq	%rax, %rbx
 3702 0d01 E8000000 		call	__cxa_end_catch@PLT
 3702      00
 3703 0d06 4889DF   		movq	%rbx, %rdi
 3704              	.LEHB214:
 3705 0d09 E8000000 		call	_Unwind_Resume@PLT
 3705      00
 3706              	.LEHE214:
 3707              	.L234:
 3708 0d0e F30F1EFA 		endbr64
 3709 0d12 4889C3   		movq	%rax, %rbx
 3710 0d15 E8000000 		call	__cxa_end_catch@PLT
 3710      00
 3711 0d1a 4889DF   		movq	%rbx, %rdi
 3712              	.LEHB215:
 3713 0d1d E8000000 		call	_Unwind_Resume@PLT
 3713      00
 3714              	.LEHE215:
 3715              	.L98:
 3716 0d22 E8000000 		call	__cxa_begin_catch@PLT
 3716      00
 3717              	.LEHB216:
 3718 0d27 E8000000 		call	_ZN8UnitTest11CurrentTest7ResultsEv@PLT
 3718      00
 3719 0d2c 4C8B20   		movq	(%rax), %r12
 3720 0d2f E8000000 		call	_ZN8UnitTest11CurrentTest7DetailsEv@PLT
 3720      00
 3721 0d34 488B30   		movq	(%rax), %rsi
 3722 0d37 BA1C0000 		movl	$28, %edx
 3722      00
 3723 0d3c 4889DF   		movq	%rbx, %rdi
 3724 0d3f E8000000 		call	_ZN8UnitTest11TestDetailsC1ERKS0_i@PLT
 3724      00
 3725 0d44 488D1500 		leaq	.LC7(%rip), %rdx
 3725      000000
 3726 0d4b 4889DE   		movq	%rbx, %rsi
 3727 0d4e 4C89E7   		movq	%r12, %rdi
 3728 0d51 E8000000 		call	_ZN8UnitTest11TestResults13OnTestFailureERKNS_11TestDetailsEPKc@PLT
 3728      00
 3729              	.LEHE216:
 3730              	.LEHB217:
 3731 0d56 E8000000 		call	__cxa_end_catch@PLT
 3731      00
 3732              	.LEHE217:
 3733 0d5b E9000000 		jmp	.L99
 3733      00
 3734              	.L95:
 3735 0d60 E8000000 		call	__cxa_begin_catch@PLT
 3735      00
 3736              	.LEHB218:
 3737 0d65 E8000000 		call	_ZN8UnitTest11CurrentTest7ResultsEv@PLT
 3737      00
 3738 0d6a 4C8B20   		movq	(%rax), %r12
 3739 0d6d E8000000 		call	_ZN8UnitTest11CurrentTest7DetailsEv@PLT
 3739      00
 3740 0d72 488B30   		movq	(%rax), %rsi
 3741 0d75 BA1B0000 		movl	$27, %edx
 3741      00
 3742 0d7a 4889DF   		movq	%rbx, %rdi
 3743 0d7d E8000000 		call	_ZN8UnitTest11TestDetailsC1ERKS0_i@PLT
 3743      00
 3744 0d82 488D1500 		leaq	.LC5(%rip), %rdx
 3744      000000
 3745 0d89 4889DE   		movq	%rbx, %rsi
 3746 0d8c 4C89E7   		movq	%r12, %rdi
 3747 0d8f E8000000 		call	_ZN8UnitTest11TestResults13OnTestFailureERKNS_11TestDetailsEPKc@PLT
 3747      00
 3748              	.LEHE218:
 3749              	.LEHB219:
 3750 0d94 E8000000 		call	__cxa_end_catch@PLT
 3750      00
 3751              	.LEHE219:
 3752 0d99 E9000000 		jmp	.L96
 3752      00
 3753              	.L232:
 3754 0d9e F30F1EFA 		endbr64
 3755 0da2 4889C3   		movq	%rax, %rbx
 3756 0da5 E8000000 		call	__cxa_end_catch@PLT
 3756      00
 3757 0daa 4889DF   		movq	%rbx, %rdi
 3758              	.LEHB220:
 3759 0dad E8000000 		call	_Unwind_Resume@PLT
 3759      00
 3760              	.LEHE220:
 3761              	.L230:
 3762 0db2 F30F1EFA 		endbr64
 3763 0db6 4889C3   		movq	%rax, %rbx
 3764 0db9 E8000000 		call	__cxa_end_catch@PLT
 3764      00
 3765 0dbe 4889DF   		movq	%rbx, %rdi
 3766              	.LEHB221:
 3767 0dc1 E8000000 		call	_Unwind_Resume@PLT
 3767      00
 3768              	.LEHE221:
 3769              	.L92:
 3770 0dc6 E8000000 		call	__cxa_begin_catch@PLT
 3770      00
 3771              	.LEHB222:
 3772 0dcb E8000000 		call	_ZN8UnitTest11CurrentTest7ResultsEv@PLT
 3772      00
 3773 0dd0 4C8B20   		movq	(%rax), %r12
 3774 0dd3 E8000000 		call	_ZN8UnitTest11CurrentTest7DetailsEv@PLT
 3774      00
 3775 0dd8 488B30   		movq	(%rax), %rsi
 3776 0ddb BA190000 		movl	$25, %edx
 3776      00
 3777 0de0 4889DF   		movq	%rbx, %rdi
 3778 0de3 E8000000 		call	_ZN8UnitTest11TestDetailsC1ERKS0_i@PLT
 3778      00
 3779 0de8 488D1500 		leaq	.LC6(%rip), %rdx
 3779      000000
 3780 0def 4889DE   		movq	%rbx, %rsi
 3781 0df2 4C89E7   		movq	%r12, %rdi
 3782 0df5 E8000000 		call	_ZN8UnitTest11TestResults13OnTestFailureERKNS_11TestDetailsEPKc@PLT
 3782      00
 3783              	.LEHE222:
 3784              	.LEHB223:
 3785 0dfa E8000000 		call	__cxa_end_catch@PLT
 3785      00
 3786              	.LEHE223:
 3787 0dff E9000000 		jmp	.L93
 3787      00
 3788              	.L89:
 3789 0e04 E8000000 		call	__cxa_begin_catch@PLT
 3789      00
 3790              	.LEHB224:
 3791 0e09 E8000000 		call	_ZN8UnitTest11CurrentTest7ResultsEv@PLT
 3791      00
 3792 0e0e 4C8B20   		movq	(%rax), %r12
 3793 0e11 E8000000 		call	_ZN8UnitTest11CurrentTest7DetailsEv@PLT
 3793      00
 3794 0e16 488D5C24 		leaq	16(%rsp), %rbx
 3794      10
 3795 0e1b 488B30   		movq	(%rax), %rsi
 3796 0e1e BA180000 		movl	$24, %edx
 3796      00
 3797 0e23 4889DF   		movq	%rbx, %rdi
 3798 0e26 E8000000 		call	_ZN8UnitTest11TestDetailsC1ERKS0_i@PLT
 3798      00
 3799 0e2b 488D1500 		leaq	.LC5(%rip), %rdx
 3799      000000
 3800 0e32 4889DE   		movq	%rbx, %rsi
 3801 0e35 4C89E7   		movq	%r12, %rdi
 3802 0e38 E8000000 		call	_ZN8UnitTest11TestResults13OnTestFailureERKNS_11TestDetailsEPKc@PLT
 3802      00
 3803              	.LEHE224:
 3804              	.LEHB225:
 3805 0e3d E8000000 		call	__cxa_end_catch@PLT
 3805      00
 3806              	.LEHE225:
 3807 0e42 E9000000 		jmp	.L90
 3807      00
 3808              	.L228:
 3809 0e47 F30F1EFA 		endbr64
 3810 0e4b 4889C3   		movq	%rax, %rbx
 3811 0e4e E8000000 		call	__cxa_end_catch@PLT
 3811      00
 3812 0e53 4889DF   		movq	%rbx, %rdi
 3813              	.LEHB226:
 3814 0e56 E8000000 		call	_Unwind_Resume@PLT
 3814      00
 3815              	.LEHE226:
 3816              	.L226:
 3817 0e5b F30F1EFA 		endbr64
 3818 0e5f 4889C3   		movq	%rax, %rbx
 3819 0e62 E8000000 		call	__cxa_end_catch@PLT
 3819      00
 3820 0e67 4889DF   		movq	%rbx, %rdi
 3821              	.LEHB227:
 3822 0e6a E8000000 		call	_Unwind_Resume@PLT
 3822      00
 3823              	.LEHE227:
 3824              		.cfi_endproc
 3825              	.LFE1195:
 3826              		.section	.gcc_except_table
 3827              		.align 4
 3828              	.LLSDAC1195:
 3829 018c FF       		.byte	0xff
 3830 018d 9B       		.byte	0x9b
 3831 018e D805     		.uleb128 .LLSDATTC1195-.LLSDATTDC1195
 3832              	.LLSDATTDC1195:
 3833 0190 01       		.byte	0x1
 3834 0191 CC05     		.uleb128 .LLSDACSEC1195-.LLSDACSBC1195
 3835              	.LLSDACSBC1195:
 3836 0193 05       		.uleb128 .LEHB93-.LCOLDB23
 3837 0194 2F       		.uleb128 .LEHE93-.LEHB93
 3838 0195 B602     		.uleb128 .L314-.LCOLDB23
 3839 0197 00       		.uleb128 0
 3840 0198 34       		.uleb128 .LEHB94-.LCOLDB23
 3841 0199 05       		.uleb128 .LEHE94-.LEHB94
 3842 019a 00       		.uleb128 0
 3843 019b 00       		.uleb128 0
 3844 019c 43       		.uleb128 .LEHB95-.LCOLDB23
 3845 019d 2F       		.uleb128 .LEHE95-.LEHB95
 3846 019e CA02     		.uleb128 .L312-.LCOLDB23
 3847 01a0 00       		.uleb128 0
 3848 01a1 72       		.uleb128 .LEHB96-.LCOLDB23
 3849 01a2 05       		.uleb128 .LEHE96-.LEHB96
 3850 01a3 00       		.uleb128 0
 3851 01a4 00       		.uleb128 0
 3852 01a5 8101     		.uleb128 .LEHB97-.LCOLDB23
 3853 01a7 2F       		.uleb128 .LEHE97-.LEHB97
 3854 01a8 F202     		.uleb128 .L308-.LCOLDB23
 3855 01aa 00       		.uleb128 0
 3856 01ab B001     		.uleb128 .LEHB98-.LCOLDB23
 3857 01ad 05       		.uleb128 .LEHE98-.LEHB98
 3858 01ae 00       		.uleb128 0
 3859 01af 00       		.uleb128 0
 3860 01b0 BF01     		.uleb128 .LEHB99-.LCOLDB23
 3861 01b2 2F       		.uleb128 .LEHE99-.LEHB99
 3862 01b3 DE02     		.uleb128 .L310-.LCOLDB23
 3863 01b5 00       		.uleb128 0
 3864 01b6 EE01     		.uleb128 .LEHB100-.LCOLDB23
 3865 01b8 05       		.uleb128 .LEHE100-.LEHB100
 3866 01b9 00       		.uleb128 0
 3867 01ba 00       		.uleb128 0
 3868 01bb FD01     		.uleb128 .LEHB101-.LCOLDB23
 3869 01bd 2F       		.uleb128 .LEHE101-.LEHB101
 3870 01be 8603     		.uleb128 .L306-.LCOLDB23
 3871 01c0 00       		.uleb128 0
 3872 01c1 AC02     		.uleb128 .LEHB102-.LCOLDB23
 3873 01c3 05       		.uleb128 .LEHE102-.LEHB102
 3874 01c4 00       		.uleb128 0
 3875 01c5 00       		.uleb128 0
 3876 01c6 C502     		.uleb128 .LEHB103-.LCOLDB23
 3877 01c8 05       		.uleb128 .LEHE103-.LEHB103
 3878 01c9 00       		.uleb128 0
 3879 01ca 00       		.uleb128 0
 3880 01cb D902     		.uleb128 .LEHB104-.LCOLDB23
 3881 01cd 05       		.uleb128 .LEHE104-.LEHB104
 3882 01ce 00       		.uleb128 0
 3883 01cf 00       		.uleb128 0
 3884 01d0 ED02     		.uleb128 .LEHB105-.LCOLDB23
 3885 01d2 05       		.uleb128 .LEHE105-.LEHB105
 3886 01d3 00       		.uleb128 0
 3887 01d4 00       		.uleb128 0
 3888 01d5 8103     		.uleb128 .LEHB106-.LCOLDB23
 3889 01d7 05       		.uleb128 .LEHE106-.LEHB106
 3890 01d8 00       		.uleb128 0
 3891 01d9 00       		.uleb128 0
 3892 01da 9503     		.uleb128 .LEHB107-.LCOLDB23
 3893 01dc 05       		.uleb128 .LEHE107-.LEHB107
 3894 01dd 00       		.uleb128 0
 3895 01de 00       		.uleb128 0
 3896 01df 9F03     		.uleb128 .LEHB108-.LCOLDB23
 3897 01e1 2F       		.uleb128 .LEHE108-.LEHB108
 3898 01e2 9604     		.uleb128 .L304-.LCOLDB23
 3899 01e4 00       		.uleb128 0
 3900 01e5 CE03     		.uleb128 .LEHB109-.LCOLDB23
 3901 01e7 05       		.uleb128 .LEHE109-.LEHB109
 3902 01e8 00       		.uleb128 0
 3903 01e9 00       		.uleb128 0
 3904 01ea DD03     		.uleb128 .LEHB110-.LCOLDB23
 3905 01ec 2F       		.uleb128 .LEHE110-.LEHB110
 3906 01ed AA04     		.uleb128 .L302-.LCOLDB23
 3907 01ef 00       		.uleb128 0
 3908 01f0 8C04     		.uleb128 .LEHB111-.LCOLDB23
 3909 01f2 05       		.uleb128 .LEHE111-.LEHB111
 3910 01f3 00       		.uleb128 0
 3911 01f4 00       		.uleb128 0
 3912 01f5 A504     		.uleb128 .LEHB112-.LCOLDB23
 3913 01f7 05       		.uleb128 .LEHE112-.LEHB112
 3914 01f8 00       		.uleb128 0
 3915 01f9 00       		.uleb128 0
 3916 01fa B904     		.uleb128 .LEHB113-.LCOLDB23
 3917 01fc 05       		.uleb128 .LEHE113-.LEHB113
 3918 01fd 00       		.uleb128 0
 3919 01fe 00       		.uleb128 0
 3920 01ff C304     		.uleb128 .LEHB114-.LCOLDB23
 3921 0201 2F       		.uleb128 .LEHE114-.LEHB114
 3922 0202 BA05     		.uleb128 .L300-.LCOLDB23
 3923 0204 00       		.uleb128 0
 3924 0205 F204     		.uleb128 .LEHB115-.LCOLDB23
 3925 0207 05       		.uleb128 .LEHE115-.LEHB115
 3926 0208 00       		.uleb128 0
 3927 0209 00       		.uleb128 0
 3928 020a 8105     		.uleb128 .LEHB116-.LCOLDB23
 3929 020c 2F       		.uleb128 .LEHE116-.LEHB116
 3930 020d CE05     		.uleb128 .L298-.LCOLDB23
 3931 020f 00       		.uleb128 0
 3932 0210 B005     		.uleb128 .LEHB117-.LCOLDB23
 3933 0212 05       		.uleb128 .LEHE117-.LEHB117
 3934 0213 00       		.uleb128 0
 3935 0214 00       		.uleb128 0
 3936 0215 C905     		.uleb128 .LEHB118-.LCOLDB23
 3937 0217 05       		.uleb128 .LEHE118-.LEHB118
 3938 0218 00       		.uleb128 0
 3939 0219 00       		.uleb128 0
 3940 021a DD05     		.uleb128 .LEHB119-.LCOLDB23
 3941 021c 05       		.uleb128 .LEHE119-.LEHB119
 3942 021d 00       		.uleb128 0
 3943 021e 00       		.uleb128 0
 3944 021f E705     		.uleb128 .LEHB120-.LCOLDB23
 3945 0221 2F       		.uleb128 .LEHE120-.LEHB120
 3946 0222 DE06     		.uleb128 .L296-.LCOLDB23
 3947 0224 00       		.uleb128 0
 3948 0225 9606     		.uleb128 .LEHB121-.LCOLDB23
 3949 0227 05       		.uleb128 .LEHE121-.LEHB121
 3950 0228 00       		.uleb128 0
 3951 0229 00       		.uleb128 0
 3952 022a A506     		.uleb128 .LEHB122-.LCOLDB23
 3953 022c 2F       		.uleb128 .LEHE122-.LEHB122
 3954 022d F206     		.uleb128 .L294-.LCOLDB23
 3955 022f 00       		.uleb128 0
 3956 0230 D406     		.uleb128 .LEHB123-.LCOLDB23
 3957 0232 05       		.uleb128 .LEHE123-.LEHB123
 3958 0233 00       		.uleb128 0
 3959 0234 00       		.uleb128 0
 3960 0235 ED06     		.uleb128 .LEHB124-.LCOLDB23
 3961 0237 05       		.uleb128 .LEHE124-.LEHB124
 3962 0238 00       		.uleb128 0
 3963 0239 00       		.uleb128 0
 3964 023a 8107     		.uleb128 .LEHB125-.LCOLDB23
 3965 023c 05       		.uleb128 .LEHE125-.LEHB125
 3966 023d 00       		.uleb128 0
 3967 023e 00       		.uleb128 0
 3968 023f 8B07     		.uleb128 .LEHB126-.LCOLDB23
 3969 0241 2F       		.uleb128 .LEHE126-.LEHB126
 3970 0242 8208     		.uleb128 .L292-.LCOLDB23
 3971 0244 00       		.uleb128 0
 3972 0245 BA07     		.uleb128 .LEHB127-.LCOLDB23
 3973 0247 05       		.uleb128 .LEHE127-.LEHB127
 3974 0248 00       		.uleb128 0
 3975 0249 00       		.uleb128 0
 3976 024a C907     		.uleb128 .LEHB128-.LCOLDB23
 3977 024c 2F       		.uleb128 .LEHE128-.LEHB128
 3978 024d 9608     		.uleb128 .L290-.LCOLDB23
 3979 024f 00       		.uleb128 0
 3980 0250 F807     		.uleb128 .LEHB129-.LCOLDB23
 3981 0252 05       		.uleb128 .LEHE129-.LEHB129
 3982 0253 00       		.uleb128 0
 3983 0254 00       		.uleb128 0
 3984 0255 9108     		.uleb128 .LEHB130-.LCOLDB23
 3985 0257 05       		.uleb128 .LEHE130-.LEHB130
 3986 0258 00       		.uleb128 0
 3987 0259 00       		.uleb128 0
 3988 025a A508     		.uleb128 .LEHB131-.LCOLDB23
 3989 025c 05       		.uleb128 .LEHE131-.LEHB131
 3990 025d 00       		.uleb128 0
 3991 025e 00       		.uleb128 0
 3992 025f AF08     		.uleb128 .LEHB132-.LCOLDB23
 3993 0261 2F       		.uleb128 .LEHE132-.LEHB132
 3994 0262 A609     		.uleb128 .L288-.LCOLDB23
 3995 0264 00       		.uleb128 0
 3996 0265 DE08     		.uleb128 .LEHB133-.LCOLDB23
 3997 0267 05       		.uleb128 .LEHE133-.LEHB133
 3998 0268 00       		.uleb128 0
 3999 0269 00       		.uleb128 0
 4000 026a ED08     		.uleb128 .LEHB134-.LCOLDB23
 4001 026c 2F       		.uleb128 .LEHE134-.LEHB134
 4002 026d BA09     		.uleb128 .L286-.LCOLDB23
 4003 026f 00       		.uleb128 0
 4004 0270 9C09     		.uleb128 .LEHB135-.LCOLDB23
 4005 0272 05       		.uleb128 .LEHE135-.LEHB135
 4006 0273 00       		.uleb128 0
 4007 0274 00       		.uleb128 0
 4008 0275 B509     		.uleb128 .LEHB136-.LCOLDB23
 4009 0277 05       		.uleb128 .LEHE136-.LEHB136
 4010 0278 00       		.uleb128 0
 4011 0279 00       		.uleb128 0
 4012 027a C909     		.uleb128 .LEHB137-.LCOLDB23
 4013 027c 05       		.uleb128 .LEHE137-.LEHB137
 4014 027d 00       		.uleb128 0
 4015 027e 00       		.uleb128 0
 4016 027f D309     		.uleb128 .LEHB138-.LCOLDB23
 4017 0281 2F       		.uleb128 .LEHE138-.LEHB138
 4018 0282 CA0A     		.uleb128 .L284-.LCOLDB23
 4019 0284 00       		.uleb128 0
 4020 0285 820A     		.uleb128 .LEHB139-.LCOLDB23
 4021 0287 05       		.uleb128 .LEHE139-.LEHB139
 4022 0288 00       		.uleb128 0
 4023 0289 00       		.uleb128 0
 4024 028a 910A     		.uleb128 .LEHB140-.LCOLDB23
 4025 028c 2F       		.uleb128 .LEHE140-.LEHB140
 4026 028d DE0A     		.uleb128 .L282-.LCOLDB23
 4027 028f 00       		.uleb128 0
 4028 0290 C00A     		.uleb128 .LEHB141-.LCOLDB23
 4029 0292 05       		.uleb128 .LEHE141-.LEHB141
 4030 0293 00       		.uleb128 0
 4031 0294 00       		.uleb128 0
 4032 0295 D90A     		.uleb128 .LEHB142-.LCOLDB23
 4033 0297 05       		.uleb128 .LEHE142-.LEHB142
 4034 0298 00       		.uleb128 0
 4035 0299 00       		.uleb128 0
 4036 029a ED0A     		.uleb128 .LEHB143-.LCOLDB23
 4037 029c 05       		.uleb128 .LEHE143-.LEHB143
 4038 029d 00       		.uleb128 0
 4039 029e 00       		.uleb128 0
 4040 029f F70A     		.uleb128 .LEHB144-.LCOLDB23
 4041 02a1 2F       		.uleb128 .LEHE144-.LEHB144
 4042 02a2 EE0B     		.uleb128 .L280-.LCOLDB23
 4043 02a4 00       		.uleb128 0
 4044 02a5 A60B     		.uleb128 .LEHB145-.LCOLDB23
 4045 02a7 05       		.uleb128 .LEHE145-.LEHB145
 4046 02a8 00       		.uleb128 0
 4047 02a9 00       		.uleb128 0
 4048 02aa B50B     		.uleb128 .LEHB146-.LCOLDB23
 4049 02ac 2F       		.uleb128 .LEHE146-.LEHB146
 4050 02ad 820C     		.uleb128 .L278-.LCOLDB23
 4051 02af 00       		.uleb128 0
 4052 02b0 E40B     		.uleb128 .LEHB147-.LCOLDB23
 4053 02b2 05       		.uleb128 .LEHE147-.LEHB147
 4054 02b3 00       		.uleb128 0
 4055 02b4 00       		.uleb128 0
 4056 02b5 FD0B     		.uleb128 .LEHB148-.LCOLDB23
 4057 02b7 05       		.uleb128 .LEHE148-.LEHB148
 4058 02b8 00       		.uleb128 0
 4059 02b9 00       		.uleb128 0
 4060 02ba 910C     		.uleb128 .LEHB149-.LCOLDB23
 4061 02bc 05       		.uleb128 .LEHE149-.LEHB149
 4062 02bd 00       		.uleb128 0
 4063 02be 00       		.uleb128 0
 4064 02bf 9B0C     		.uleb128 .LEHB150-.LCOLDB23
 4065 02c1 2F       		.uleb128 .LEHE150-.LEHB150
 4066 02c2 920D     		.uleb128 .L276-.LCOLDB23
 4067 02c4 00       		.uleb128 0
 4068 02c5 CA0C     		.uleb128 .LEHB151-.LCOLDB23
 4069 02c7 05       		.uleb128 .LEHE151-.LEHB151
 4070 02c8 00       		.uleb128 0
 4071 02c9 00       		.uleb128 0
 4072 02ca D90C     		.uleb128 .LEHB152-.LCOLDB23
 4073 02cc 2F       		.uleb128 .LEHE152-.LEHB152
 4074 02cd A60D     		.uleb128 .L274-.LCOLDB23
 4075 02cf 00       		.uleb128 0
 4076 02d0 880D     		.uleb128 .LEHB153-.LCOLDB23
 4077 02d2 05       		.uleb128 .LEHE153-.LEHB153
 4078 02d3 00       		.uleb128 0
 4079 02d4 00       		.uleb128 0
 4080 02d5 A10D     		.uleb128 .LEHB154-.LCOLDB23
 4081 02d7 05       		.uleb128 .LEHE154-.LEHB154
 4082 02d8 00       		.uleb128 0
 4083 02d9 00       		.uleb128 0
 4084 02da B50D     		.uleb128 .LEHB155-.LCOLDB23
 4085 02dc 05       		.uleb128 .LEHE155-.LEHB155
 4086 02dd 00       		.uleb128 0
 4087 02de 00       		.uleb128 0
 4088 02df BF0D     		.uleb128 .LEHB156-.LCOLDB23
 4089 02e1 2F       		.uleb128 .LEHE156-.LEHB156
 4090 02e2 B60E     		.uleb128 .L272-.LCOLDB23
 4091 02e4 00       		.uleb128 0
 4092 02e5 EE0D     		.uleb128 .LEHB157-.LCOLDB23
 4093 02e7 05       		.uleb128 .LEHE157-.LEHB157
 4094 02e8 00       		.uleb128 0
 4095 02e9 00       		.uleb128 0
 4096 02ea FD0D     		.uleb128 .LEHB158-.LCOLDB23
 4097 02ec 2F       		.uleb128 .LEHE158-.LEHB158
 4098 02ed CA0E     		.uleb128 .L270-.LCOLDB23
 4099 02ef 00       		.uleb128 0
 4100 02f0 AC0E     		.uleb128 .LEHB159-.LCOLDB23
 4101 02f2 05       		.uleb128 .LEHE159-.LEHB159
 4102 02f3 00       		.uleb128 0
 4103 02f4 00       		.uleb128 0
 4104 02f5 C50E     		.uleb128 .LEHB160-.LCOLDB23
 4105 02f7 05       		.uleb128 .LEHE160-.LEHB160
 4106 02f8 00       		.uleb128 0
 4107 02f9 00       		.uleb128 0
 4108 02fa D90E     		.uleb128 .LEHB161-.LCOLDB23
 4109 02fc 05       		.uleb128 .LEHE161-.LEHB161
 4110 02fd 00       		.uleb128 0
 4111 02fe 00       		.uleb128 0
 4112 02ff E30E     		.uleb128 .LEHB162-.LCOLDB23
 4113 0301 2F       		.uleb128 .LEHE162-.LEHB162
 4114 0302 DA0F     		.uleb128 .L268-.LCOLDB23
 4115 0304 00       		.uleb128 0
 4116 0305 920F     		.uleb128 .LEHB163-.LCOLDB23
 4117 0307 05       		.uleb128 .LEHE163-.LEHB163
 4118 0308 00       		.uleb128 0
 4119 0309 00       		.uleb128 0
 4120 030a A10F     		.uleb128 .LEHB164-.LCOLDB23
 4121 030c 2F       		.uleb128 .LEHE164-.LEHB164
 4122 030d EE0F     		.uleb128 .L266-.LCOLDB23
 4123 030f 00       		.uleb128 0
 4124 0310 D00F     		.uleb128 .LEHB165-.LCOLDB23
 4125 0312 05       		.uleb128 .LEHE165-.LEHB165
 4126 0313 00       		.uleb128 0
 4127 0314 00       		.uleb128 0
 4128 0315 E90F     		.uleb128 .LEHB166-.LCOLDB23
 4129 0317 05       		.uleb128 .LEHE166-.LEHB166
 4130 0318 00       		.uleb128 0
 4131 0319 00       		.uleb128 0
 4132 031a FD0F     		.uleb128 .LEHB167-.LCOLDB23
 4133 031c 05       		.uleb128 .LEHE167-.LEHB167
 4134 031d 00       		.uleb128 0
 4135 031e 00       		.uleb128 0
 4136 031f 8710     		.uleb128 .LEHB168-.LCOLDB23
 4137 0321 2F       		.uleb128 .LEHE168-.LEHB168
 4138 0322 FE10     		.uleb128 .L264-.LCOLDB23
 4139 0324 00       		.uleb128 0
 4140 0325 B610     		.uleb128 .LEHB169-.LCOLDB23
 4141 0327 05       		.uleb128 .LEHE169-.LEHB169
 4142 0328 00       		.uleb128 0
 4143 0329 00       		.uleb128 0
 4144 032a C510     		.uleb128 .LEHB170-.LCOLDB23
 4145 032c 2F       		.uleb128 .LEHE170-.LEHB170
 4146 032d 9211     		.uleb128 .L262-.LCOLDB23
 4147 032f 00       		.uleb128 0
 4148 0330 F410     		.uleb128 .LEHB171-.LCOLDB23
 4149 0332 05       		.uleb128 .LEHE171-.LEHB171
 4150 0333 00       		.uleb128 0
 4151 0334 00       		.uleb128 0
 4152 0335 8D11     		.uleb128 .LEHB172-.LCOLDB23
 4153 0337 05       		.uleb128 .LEHE172-.LEHB172
 4154 0338 00       		.uleb128 0
 4155 0339 00       		.uleb128 0
 4156 033a A111     		.uleb128 .LEHB173-.LCOLDB23
 4157 033c 05       		.uleb128 .LEHE173-.LEHB173
 4158 033d 00       		.uleb128 0
 4159 033e 00       		.uleb128 0
 4160 033f AB11     		.uleb128 .LEHB174-.LCOLDB23
 4161 0341 2F       		.uleb128 .LEHE174-.LEHB174
 4162 0342 A212     		.uleb128 .L260-.LCOLDB23
 4163 0344 00       		.uleb128 0
 4164 0345 DA11     		.uleb128 .LEHB175-.LCOLDB23
 4165 0347 05       		.uleb128 .LEHE175-.LEHB175
 4166 0348 00       		.uleb128 0
 4167 0349 00       		.uleb128 0
 4168 034a E911     		.uleb128 .LEHB176-.LCOLDB23
 4169 034c 2F       		.uleb128 .LEHE176-.LEHB176
 4170 034d B612     		.uleb128 .L258-.LCOLDB23
 4171 034f 00       		.uleb128 0
 4172 0350 9812     		.uleb128 .LEHB177-.LCOLDB23
 4173 0352 05       		.uleb128 .LEHE177-.LEHB177
 4174 0353 00       		.uleb128 0
 4175 0354 00       		.uleb128 0
 4176 0355 B112     		.uleb128 .LEHB178-.LCOLDB23
 4177 0357 05       		.uleb128 .LEHE178-.LEHB178
 4178 0358 00       		.uleb128 0
 4179 0359 00       		.uleb128 0
 4180 035a C512     		.uleb128 .LEHB179-.LCOLDB23
 4181 035c 05       		.uleb128 .LEHE179-.LEHB179
 4182 035d 00       		.uleb128 0
 4183 035e 00       		.uleb128 0
 4184 035f CF12     		.uleb128 .LEHB180-.LCOLDB23
 4185 0361 2F       		.uleb128 .LEHE180-.LEHB180
 4186 0362 C613     		.uleb128 .L256-.LCOLDB23
 4187 0364 00       		.uleb128 0
 4188 0365 FE12     		.uleb128 .LEHB181-.LCOLDB23
 4189 0367 05       		.uleb128 .LEHE181-.LEHB181
 4190 0368 00       		.uleb128 0
 4191 0369 00       		.uleb128 0
 4192 036a 8D13     		.uleb128 .LEHB182-.LCOLDB23
 4193 036c 2F       		.uleb128 .LEHE182-.LEHB182
 4194 036d DA13     		.uleb128 .L254-.LCOLDB23
 4195 036f 00       		.uleb128 0
 4196 0370 BC13     		.uleb128 .LEHB183-.LCOLDB23
 4197 0372 05       		.uleb128 .LEHE183-.LEHB183
 4198 0373 00       		.uleb128 0
 4199 0374 00       		.uleb128 0
 4200 0375 D513     		.uleb128 .LEHB184-.LCOLDB23
 4201 0377 05       		.uleb128 .LEHE184-.LEHB184
 4202 0378 00       		.uleb128 0
 4203 0379 00       		.uleb128 0
 4204 037a E913     		.uleb128 .LEHB185-.LCOLDB23
 4205 037c 05       		.uleb128 .LEHE185-.LEHB185
 4206 037d 00       		.uleb128 0
 4207 037e 00       		.uleb128 0
 4208 037f F313     		.uleb128 .LEHB186-.LCOLDB23
 4209 0381 2F       		.uleb128 .LEHE186-.LEHB186
 4210 0382 EA14     		.uleb128 .L252-.LCOLDB23
 4211 0384 00       		.uleb128 0
 4212 0385 A214     		.uleb128 .LEHB187-.LCOLDB23
 4213 0387 05       		.uleb128 .LEHE187-.LEHB187
 4214 0388 00       		.uleb128 0
 4215 0389 00       		.uleb128 0
 4216 038a B114     		.uleb128 .LEHB188-.LCOLDB23
 4217 038c 2F       		.uleb128 .LEHE188-.LEHB188
 4218 038d FE14     		.uleb128 .L250-.LCOLDB23
 4219 038f 00       		.uleb128 0
 4220 0390 E014     		.uleb128 .LEHB189-.LCOLDB23
 4221 0392 05       		.uleb128 .LEHE189-.LEHB189
 4222 0393 00       		.uleb128 0
 4223 0394 00       		.uleb128 0
 4224 0395 F914     		.uleb128 .LEHB190-.LCOLDB23
 4225 0397 05       		.uleb128 .LEHE190-.LEHB190
 4226 0398 00       		.uleb128 0
 4227 0399 00       		.uleb128 0
 4228 039a 8D15     		.uleb128 .LEHB191-.LCOLDB23
 4229 039c 05       		.uleb128 .LEHE191-.LEHB191
 4230 039d 00       		.uleb128 0
 4231 039e 00       		.uleb128 0
 4232 039f 9715     		.uleb128 .LEHB192-.LCOLDB23
 4233 03a1 2F       		.uleb128 .LEHE192-.LEHB192
 4234 03a2 8E16     		.uleb128 .L248-.LCOLDB23
 4235 03a4 00       		.uleb128 0
 4236 03a5 C615     		.uleb128 .LEHB193-.LCOLDB23
 4237 03a7 05       		.uleb128 .LEHE193-.LEHB193
 4238 03a8 00       		.uleb128 0
 4239 03a9 00       		.uleb128 0
 4240 03aa D515     		.uleb128 .LEHB194-.LCOLDB23
 4241 03ac 2F       		.uleb128 .LEHE194-.LEHB194
 4242 03ad A216     		.uleb128 .L246-.LCOLDB23
 4243 03af 00       		.uleb128 0
 4244 03b0 8416     		.uleb128 .LEHB195-.LCOLDB23
 4245 03b2 05       		.uleb128 .LEHE195-.LEHB195
 4246 03b3 00       		.uleb128 0
 4247 03b4 00       		.uleb128 0
 4248 03b5 9D16     		.uleb128 .LEHB196-.LCOLDB23
 4249 03b7 05       		.uleb128 .LEHE196-.LEHB196
 4250 03b8 00       		.uleb128 0
 4251 03b9 00       		.uleb128 0
 4252 03ba B116     		.uleb128 .LEHB197-.LCOLDB23
 4253 03bc 05       		.uleb128 .LEHE197-.LEHB197
 4254 03bd 00       		.uleb128 0
 4255 03be 00       		.uleb128 0
 4256 03bf BB16     		.uleb128 .LEHB198-.LCOLDB23
 4257 03c1 2F       		.uleb128 .LEHE198-.LEHB198
 4258 03c2 B217     		.uleb128 .L244-.LCOLDB23
 4259 03c4 00       		.uleb128 0
 4260 03c5 EA16     		.uleb128 .LEHB199-.LCOLDB23
 4261 03c7 05       		.uleb128 .LEHE199-.LEHB199
 4262 03c8 00       		.uleb128 0
 4263 03c9 00       		.uleb128 0
 4264 03ca F916     		.uleb128 .LEHB200-.LCOLDB23
 4265 03cc 2F       		.uleb128 .LEHE200-.LEHB200
 4266 03cd C617     		.uleb128 .L242-.LCOLDB23
 4267 03cf 00       		.uleb128 0
 4268 03d0 A817     		.uleb128 .LEHB201-.LCOLDB23
 4269 03d2 05       		.uleb128 .LEHE201-.LEHB201
 4270 03d3 00       		.uleb128 0
 4271 03d4 00       		.uleb128 0
 4272 03d5 C117     		.uleb128 .LEHB202-.LCOLDB23
 4273 03d7 05       		.uleb128 .LEHE202-.LEHB202
 4274 03d8 00       		.uleb128 0
 4275 03d9 00       		.uleb128 0
 4276 03da D517     		.uleb128 .LEHB203-.LCOLDB23
 4277 03dc 05       		.uleb128 .LEHE203-.LEHB203
 4278 03dd 00       		.uleb128 0
 4279 03de 00       		.uleb128 0
 4280 03df DF17     		.uleb128 .LEHB204-.LCOLDB23
 4281 03e1 2F       		.uleb128 .LEHE204-.LEHB204
 4282 03e2 D618     		.uleb128 .L240-.LCOLDB23
 4283 03e4 00       		.uleb128 0
 4284 03e5 8E18     		.uleb128 .LEHB205-.LCOLDB23
 4285 03e7 05       		.uleb128 .LEHE205-.LEHB205
 4286 03e8 00       		.uleb128 0
 4287 03e9 00       		.uleb128 0
 4288 03ea 9D18     		.uleb128 .LEHB206-.LCOLDB23
 4289 03ec 2F       		.uleb128 .LEHE206-.LEHB206
 4290 03ed EA18     		.uleb128 .L238-.LCOLDB23
 4291 03ef 00       		.uleb128 0
 4292 03f0 CC18     		.uleb128 .LEHB207-.LCOLDB23
 4293 03f2 05       		.uleb128 .LEHE207-.LEHB207
 4294 03f3 00       		.uleb128 0
 4295 03f4 00       		.uleb128 0
 4296 03f5 E518     		.uleb128 .LEHB208-.LCOLDB23
 4297 03f7 05       		.uleb128 .LEHE208-.LEHB208
 4298 03f8 00       		.uleb128 0
 4299 03f9 00       		.uleb128 0
 4300 03fa F918     		.uleb128 .LEHB209-.LCOLDB23
 4301 03fc 05       		.uleb128 .LEHE209-.LEHB209
 4302 03fd 00       		.uleb128 0
 4303 03fe 00       		.uleb128 0
 4304 03ff 8319     		.uleb128 .LEHB210-.LCOLDB23
 4305 0401 2F       		.uleb128 .LEHE210-.LEHB210
 4306 0402 FA19     		.uleb128 .L236-.LCOLDB23
 4307 0404 00       		.uleb128 0
 4308 0405 B219     		.uleb128 .LEHB211-.LCOLDB23
 4309 0407 05       		.uleb128 .LEHE211-.LEHB211
 4310 0408 00       		.uleb128 0
 4311 0409 00       		.uleb128 0
 4312 040a C119     		.uleb128 .LEHB212-.LCOLDB23
 4313 040c 2F       		.uleb128 .LEHE212-.LEHB212
 4314 040d 8E1A     		.uleb128 .L234-.LCOLDB23
 4315 040f 00       		.uleb128 0
 4316 0410 F019     		.uleb128 .LEHB213-.LCOLDB23
 4317 0412 05       		.uleb128 .LEHE213-.LEHB213
 4318 0413 00       		.uleb128 0
 4319 0414 00       		.uleb128 0
 4320 0415 891A     		.uleb128 .LEHB214-.LCOLDB23
 4321 0417 05       		.uleb128 .LEHE214-.LEHB214
 4322 0418 00       		.uleb128 0
 4323 0419 00       		.uleb128 0
 4324 041a 9D1A     		.uleb128 .LEHB215-.LCOLDB23
 4325 041c 05       		.uleb128 .LEHE215-.LEHB215
 4326 041d 00       		.uleb128 0
 4327 041e 00       		.uleb128 0
 4328 041f A71A     		.uleb128 .LEHB216-.LCOLDB23
 4329 0421 2F       		.uleb128 .LEHE216-.LEHB216
 4330 0422 9E1B     		.uleb128 .L232-.LCOLDB23
 4331 0424 00       		.uleb128 0
 4332 0425 D61A     		.uleb128 .LEHB217-.LCOLDB23
 4333 0427 05       		.uleb128 .LEHE217-.LEHB217
 4334 0428 00       		.uleb128 0
 4335 0429 00       		.uleb128 0
 4336 042a E51A     		.uleb128 .LEHB218-.LCOLDB23
 4337 042c 2F       		.uleb128 .LEHE218-.LEHB218
 4338 042d B21B     		.uleb128 .L230-.LCOLDB23
 4339 042f 00       		.uleb128 0
 4340 0430 941B     		.uleb128 .LEHB219-.LCOLDB23
 4341 0432 05       		.uleb128 .LEHE219-.LEHB219
 4342 0433 00       		.uleb128 0
 4343 0434 00       		.uleb128 0
 4344 0435 AD1B     		.uleb128 .LEHB220-.LCOLDB23
 4345 0437 05       		.uleb128 .LEHE220-.LEHB220
 4346 0438 00       		.uleb128 0
 4347 0439 00       		.uleb128 0
 4348 043a C11B     		.uleb128 .LEHB221-.LCOLDB23
 4349 043c 05       		.uleb128 .LEHE221-.LEHB221
 4350 043d 00       		.uleb128 0
 4351 043e 00       		.uleb128 0
 4352 043f CB1B     		.uleb128 .LEHB222-.LCOLDB23
 4353 0441 2F       		.uleb128 .LEHE222-.LEHB222
 4354 0442 C71C     		.uleb128 .L228-.LCOLDB23
 4355 0444 00       		.uleb128 0
 4356 0445 FA1B     		.uleb128 .LEHB223-.LCOLDB23
 4357 0447 05       		.uleb128 .LEHE223-.LEHB223
 4358 0448 00       		.uleb128 0
 4359 0449 00       		.uleb128 0
 4360 044a 891C     		.uleb128 .LEHB224-.LCOLDB23
 4361 044c 34       		.uleb128 .LEHE224-.LEHB224
 4362 044d DB1C     		.uleb128 .L226-.LCOLDB23
 4363 044f 00       		.uleb128 0
 4364 0450 BD1C     		.uleb128 .LEHB225-.LCOLDB23
 4365 0452 05       		.uleb128 .LEHE225-.LEHB225
 4366 0453 00       		.uleb128 0
 4367 0454 00       		.uleb128 0
 4368 0455 D61C     		.uleb128 .LEHB226-.LCOLDB23
 4369 0457 05       		.uleb128 .LEHE226-.LEHB226
 4370 0458 00       		.uleb128 0
 4371 0459 00       		.uleb128 0
 4372 045a EA1C     		.uleb128 .LEHB227-.LCOLDB23
 4373 045c 05       		.uleb128 .LEHE227-.LEHB227
 4374 045d 00       		.uleb128 0
 4375 045e 00       		.uleb128 0
 4376              	.LLSDACSEC1195:
 4377 045f 01       		.byte	0x1
 4378 0460 00       		.byte	0
 4379 0461 000000   		.align 4
 4380 0464 00000000 		.long	0
 4381              	
 4382              	.LLSDATTC1195:
 4383              		.section	.text.unlikely
 4384              		.text
 4386              		.section	.text.unlikely
 4388              	.LCOLDE23:
 4389              		.text
 4390              	.LHOTE23:
 4391              		.section	.rodata.str1.1,"aMS",@progbits,1
 4392              	.LC24:
 4393 0000 303000   		.string	"00"
 4394              	.LC25:
 4395 0003 413500   		.string	"A5"
 4396              	.LC26:
 4397 0006 464600   		.string	"FF"
 4398              	.LC27:
 4399 0009 474600   		.string	"GF"
 4400              	.LC28:
 4401 000c 464700   		.string	"FG"
 4402              		.section	.rodata.str1.8
 4403 0369 00000000 		.align 8
 4403      000000
 4404              	.LC29:
 4405 0370 556E6861 		.string	"Unhandled exception in CHECK_EQUAL(0x00, byte)"
 4405      6E646C65 
 4405      64206578 
 4405      63657074 
 4405      696F6E20 
 4406 039f 00       		.align 8
 4407              	.LC30:
 4408 03a0 556E6861 		.string	"Unhandled exception in CHECK_EQUAL(0xA5, byte)"
 4408      6E646C65 
 4408      64206578 
 4408      63657074 
 4408      696F6E20 
 4409 03cf 00       		.align 8
 4410              	.LC31:
 4411 03d0 556E6861 		.string	"Unhandled exception in CHECK_EQUAL(0xFF, byte)"
 4411      6E646C65 
 4411      64206578 
 4411      63657074 
 4411      696F6E20 
 4412              		.section	.text.unlikely
 4413 0e6f 90       		.align 2
 4414              	.LCOLDB32:
 4415              		.text
 4416              	.LHOTB32:
 4417 0d21 90       		.align 2
 4418 0d22 66662E0F 		.p2align 4
 4418      1F840000 
 4418      0000000F 
 4418      1F00
 4419              		.globl	_ZNK23TestConv_testGetHexByte7RunImplEv
 4421              	_ZNK23TestConv_testGetHexByte7RunImplEv:
 4422              	.LFB1199:
 4423              		.cfi_startproc
 4424              		.cfi_personality 0x9b,DW.ref.__gxx_personality_v0
 4425              		.cfi_lsda 0x1b,.LLSDA1199
 4426 0d30 F30F1EFA 		endbr64
 4427 0d34 4154     		pushq	%r12
 4428              		.cfi_def_cfa_offset 16
 4429              		.cfi_offset 12, -16
 4430 0d36 488D3D00 		leaq	.LC24(%rip), %rdi
 4430      000000
 4431 0d3d 55       		pushq	%rbp
 4432              		.cfi_def_cfa_offset 24
 4433              		.cfi_offset 6, -24
 4434 0d3e 53       		pushq	%rbx
 4435              		.cfi_def_cfa_offset 32
 4436              		.cfi_offset 3, -32
 4437 0d3f 4883EC40 		subq	$64, %rsp
 4438              		.cfi_def_cfa_offset 96
 4439 0d43 64488B04 		movq	%fs:40, %rax
 4439      25280000 
 4439      00
 4440 0d4c 48894424 		movq	%rax, 56(%rsp)
 4440      38
 4441 0d51 31C0     		xorl	%eax, %eax
 4442 0d53 488D6C24 		leaq	10(%rsp), %rbp
 4442      0A
 4443 0d58 4889EE   		movq	%rbp, %rsi
 4444              	.LEHB228:
 4445 0d5b E8000000 		call	getHexByte@PLT
 4445      00
 4446              	.LEHE228:
 4447 0d60 8844240B 		movb	%al, 11(%rsp)
 4448              	.LEHB229:
 4449 0d64 E8000000 		call	_ZN8UnitTest11CurrentTest7DetailsEv@PLT
 4449      00
 4450 0d69 488D5C24 		leaq	16(%rsp), %rbx
 4450      10
 4451 0d6e 488B30   		movq	(%rax), %rsi
 4452 0d71 BA610000 		movl	$97, %edx
 4452      00
 4453 0d76 4889DF   		movq	%rbx, %rdi
 4454 0d79 E8000000 		call	_ZN8UnitTest11TestDetailsC1ERKS0_i@PLT
 4454      00
 4455 0d7e C644240C 		movb	$0, 12(%rsp)
 4455      00
 4456 0d83 E8000000 		call	_ZN8UnitTest11CurrentTest7ResultsEv@PLT
 4456      00
 4457 0d88 488B38   		movq	(%rax), %rdi
 4458 0d8b 488D5424 		leaq	11(%rsp), %rdx
 4458      0B
 4459 0d90 488D7424 		leaq	12(%rsp), %rsi
 4459      0C
 4460 0d95 4889D9   		movq	%rbx, %rcx
 4461 0d98 E8000000 		call	_ZN8UnitTest10CheckEqualIbbEEvRNS_11TestResultsERKT_RKT0_RKNS_11TestDetailsE
 4461      00
 4462              	.LEHE229:
 4463              	.L319:
 4464              	.LEHB230:
 4465 0d9d E8000000 		call	_ZN8UnitTest11CurrentTest7DetailsEv@PLT
 4465      00
 4466 0da2 488B30   		movq	(%rax), %rsi
 4467 0da5 BA620000 		movl	$98, %edx
 4467      00
 4468 0daa 4889DF   		movq	%rbx, %rdi
 4469 0dad E8000000 		call	_ZN8UnitTest11TestDetailsC1ERKS0_i@PLT
 4469      00
 4470 0db2 C744240C 		movl	$0, 12(%rsp)
 4470      00000000 
 4471 0dba E8000000 		call	_ZN8UnitTest11CurrentTest7ResultsEv@PLT
 4471      00
 4472 0dbf 488B38   		movq	(%rax), %rdi
 4473 0dc2 488D7424 		leaq	12(%rsp), %rsi
 4473      0C
 4474 0dc7 4889D9   		movq	%rbx, %rcx
 4475 0dca 4889EA   		movq	%rbp, %rdx
 4476 0dcd E8000000 		call	_ZN8UnitTest10CheckEqualIihEEvRNS_11TestResultsERKT_RKT0_RKNS_11TestDetailsE
 4476      00
 4477              	.LEHE230:
 4478              	.L322:
 4479 0dd2 4889EE   		movq	%rbp, %rsi
 4480 0dd5 488D3D00 		leaq	.LC25(%rip), %rdi
 4480      000000
 4481              	.LEHB231:
 4482 0ddc E8000000 		call	getHexByte@PLT
 4482      00
 4483              	.LEHE231:
 4484 0de1 8844240B 		movb	%al, 11(%rsp)
 4485              	.LEHB232:
 4486 0de5 E8000000 		call	_ZN8UnitTest11CurrentTest7DetailsEv@PLT
 4486      00
 4487 0dea 488B30   		movq	(%rax), %rsi
 4488 0ded BA640000 		movl	$100, %edx
 4488      00
 4489 0df2 4889DF   		movq	%rbx, %rdi
 4490 0df5 E8000000 		call	_ZN8UnitTest11TestDetailsC1ERKS0_i@PLT
 4490      00
 4491 0dfa C644240C 		movb	$0, 12(%rsp)
 4491      00
 4492 0dff E8000000 		call	_ZN8UnitTest11CurrentTest7ResultsEv@PLT
 4492      00
 4493 0e04 488B38   		movq	(%rax), %rdi
 4494 0e07 488D5424 		leaq	11(%rsp), %rdx
 4494      0B
 4495 0e0c 488D7424 		leaq	12(%rsp), %rsi
 4495      0C
 4496 0e11 4889D9   		movq	%rbx, %rcx
 4497 0e14 E8000000 		call	_ZN8UnitTest10CheckEqualIbbEEvRNS_11TestResultsERKT_RKT0_RKNS_11TestDetailsE
 4497      00
 4498              	.LEHE232:
 4499              	.L325:
 4500              	.LEHB233:
 4501 0e19 E8000000 		call	_ZN8UnitTest11CurrentTest7DetailsEv@PLT
 4501      00
 4502 0e1e 488B30   		movq	(%rax), %rsi
 4503 0e21 BA650000 		movl	$101, %edx
 4503      00
 4504 0e26 4889DF   		movq	%rbx, %rdi
 4505 0e29 E8000000 		call	_ZN8UnitTest11TestDetailsC1ERKS0_i@PLT
 4505      00
 4506 0e2e C744240C 		movl	$165, 12(%rsp)
 4506      A5000000 
 4507 0e36 E8000000 		call	_ZN8UnitTest11CurrentTest7ResultsEv@PLT
 4507      00
 4508 0e3b 488B38   		movq	(%rax), %rdi
 4509 0e3e 488D7424 		leaq	12(%rsp), %rsi
 4509      0C
 4510 0e43 4889D9   		movq	%rbx, %rcx
 4511 0e46 4889EA   		movq	%rbp, %rdx
 4512 0e49 E8000000 		call	_ZN8UnitTest10CheckEqualIihEEvRNS_11TestResultsERKT_RKT0_RKNS_11TestDetailsE
 4512      00
 4513              	.LEHE233:
 4514              	.L328:
 4515 0e4e 4889EE   		movq	%rbp, %rsi
 4516 0e51 488D3D00 		leaq	.LC26(%rip), %rdi
 4516      000000
 4517              	.LEHB234:
 4518 0e58 E8000000 		call	getHexByte@PLT
 4518      00
 4519              	.LEHE234:
 4520 0e5d 8844240B 		movb	%al, 11(%rsp)
 4521              	.LEHB235:
 4522 0e61 E8000000 		call	_ZN8UnitTest11CurrentTest7DetailsEv@PLT
 4522      00
 4523 0e66 488B30   		movq	(%rax), %rsi
 4524 0e69 BA670000 		movl	$103, %edx
 4524      00
 4525 0e6e 4889DF   		movq	%rbx, %rdi
 4526 0e71 E8000000 		call	_ZN8UnitTest11TestDetailsC1ERKS0_i@PLT
 4526      00
 4527 0e76 C644240C 		movb	$0, 12(%rsp)
 4527      00
 4528 0e7b E8000000 		call	_ZN8UnitTest11CurrentTest7ResultsEv@PLT
 4528      00
 4529 0e80 488B38   		movq	(%rax), %rdi
 4530 0e83 488D5424 		leaq	11(%rsp), %rdx
 4530      0B
 4531 0e88 488D7424 		leaq	12(%rsp), %rsi
 4531      0C
 4532 0e8d 4889D9   		movq	%rbx, %rcx
 4533 0e90 E8000000 		call	_ZN8UnitTest10CheckEqualIbbEEvRNS_11TestResultsERKT_RKT0_RKNS_11TestDetailsE
 4533      00
 4534              	.LEHE235:
 4535              	.L331:
 4536              	.LEHB236:
 4537 0e95 E8000000 		call	_ZN8UnitTest11CurrentTest7DetailsEv@PLT
 4537      00
 4538 0e9a 488B30   		movq	(%rax), %rsi
 4539 0e9d BA680000 		movl	$104, %edx
 4539      00
 4540 0ea2 4889DF   		movq	%rbx, %rdi
 4541 0ea5 E8000000 		call	_ZN8UnitTest11TestDetailsC1ERKS0_i@PLT
 4541      00
 4542 0eaa C744240C 		movl	$255, 12(%rsp)
 4542      FF000000 
 4543 0eb2 E8000000 		call	_ZN8UnitTest11CurrentTest7ResultsEv@PLT
 4543      00
 4544 0eb7 488B38   		movq	(%rax), %rdi
 4545 0eba 488D7424 		leaq	12(%rsp), %rsi
 4545      0C
 4546 0ebf 4889D9   		movq	%rbx, %rcx
 4547 0ec2 4889EA   		movq	%rbp, %rdx
 4548 0ec5 E8000000 		call	_ZN8UnitTest10CheckEqualIihEEvRNS_11TestResultsERKT_RKT0_RKNS_11TestDetailsE
 4548      00
 4549              	.LEHE236:
 4550              	.L334:
 4551 0eca 4889EE   		movq	%rbp, %rsi
 4552 0ecd 488D3D00 		leaq	.LC27(%rip), %rdi
 4552      000000
 4553              	.LEHB237:
 4554 0ed4 E8000000 		call	getHexByte@PLT
 4554      00
 4555              	.LEHE237:
 4556 0ed9 8844240B 		movb	%al, 11(%rsp)
 4557              	.LEHB238:
 4558 0edd E8000000 		call	_ZN8UnitTest11CurrentTest7DetailsEv@PLT
 4558      00
 4559 0ee2 488B30   		movq	(%rax), %rsi
 4560 0ee5 BA6A0000 		movl	$106, %edx
 4560      00
 4561 0eea 4889DF   		movq	%rbx, %rdi
 4562 0eed E8000000 		call	_ZN8UnitTest11TestDetailsC1ERKS0_i@PLT
 4562      00
 4563 0ef2 C644240C 		movb	$1, 12(%rsp)
 4563      01
 4564 0ef7 E8000000 		call	_ZN8UnitTest11CurrentTest7ResultsEv@PLT
 4564      00
 4565 0efc 488B38   		movq	(%rax), %rdi
 4566 0eff 488D5424 		leaq	11(%rsp), %rdx
 4566      0B
 4567 0f04 488D7424 		leaq	12(%rsp), %rsi
 4567      0C
 4568 0f09 4889D9   		movq	%rbx, %rcx
 4569 0f0c E8000000 		call	_ZN8UnitTest10CheckEqualIbbEEvRNS_11TestResultsERKT_RKT0_RKNS_11TestDetailsE
 4569      00
 4570              	.LEHE238:
 4571              	.L337:
 4572 0f11 4889EE   		movq	%rbp, %rsi
 4573 0f14 488D3D00 		leaq	.LC28(%rip), %rdi
 4573      000000
 4574              	.LEHB239:
 4575 0f1b E8000000 		call	getHexByte@PLT
 4575      00
 4576              	.LEHE239:
 4577 0f20 8844240B 		movb	%al, 11(%rsp)
 4578              	.LEHB240:
 4579 0f24 E8000000 		call	_ZN8UnitTest11CurrentTest7DetailsEv@PLT
 4579      00
 4580 0f29 488B30   		movq	(%rax), %rsi
 4581 0f2c BA6C0000 		movl	$108, %edx
 4581      00
 4582 0f31 4889DF   		movq	%rbx, %rdi
 4583 0f34 E8000000 		call	_ZN8UnitTest11TestDetailsC1ERKS0_i@PLT
 4583      00
 4584 0f39 C644240C 		movb	$1, 12(%rsp)
 4584      01
 4585 0f3e E8000000 		call	_ZN8UnitTest11CurrentTest7ResultsEv@PLT
 4585      00
 4586 0f43 488B38   		movq	(%rax), %rdi
 4587 0f46 488D5424 		leaq	11(%rsp), %rdx
 4587      0B
 4588 0f4b 488D7424 		leaq	12(%rsp), %rsi
 4588      0C
 4589 0f50 4889D9   		movq	%rbx, %rcx
 4590 0f53 E8000000 		call	_ZN8UnitTest10CheckEqualIbbEEvRNS_11TestResultsERKT_RKT0_RKNS_11TestDetailsE
 4590      00
 4591              	.LEHE240:
 4592              	.L317:
 4593 0f58 488B4424 		movq	56(%rsp), %rax
 4593      38
 4594 0f5d 64482B04 		subq	%fs:40, %rax
 4594      25280000 
 4594      00
 4595 0f66 7509     		jne	.L360
 4596 0f68 4883C440 		addq	$64, %rsp
 4597              		.cfi_remember_state
 4598              		.cfi_def_cfa_offset 32
 4599 0f6c 5B       		popq	%rbx
 4600              		.cfi_def_cfa_offset 24
 4601 0f6d 5D       		popq	%rbp
 4602              		.cfi_def_cfa_offset 16
 4603 0f6e 415C     		popq	%r12
 4604              		.cfi_def_cfa_offset 8
 4605 0f70 C3       		ret
 4606              	.L360:
 4607              		.cfi_restore_state
 4608 0f71 E8000000 		call	__stack_chk_fail@PLT
 4608      00
 4609              	.L357:
 4610 0f76 F30F1EFA 		endbr64
 4611 0f7a 4889C7   		movq	%rax, %rdi
 4612 0f7d E9000000 		jmp	.L339
 4612      00
 4613              	.L355:
 4614 0f82 F30F1EFA 		endbr64
 4615 0f86 4889C7   		movq	%rax, %rdi
 4616 0f89 E9000000 		jmp	.L336
 4616      00
 4617              	.L353:
 4618 0f8e F30F1EFA 		endbr64
 4619 0f92 4889C7   		movq	%rax, %rdi
 4620 0f95 E9000000 		jmp	.L333
 4620      00
 4621              	.L351:
 4622 0f9a F30F1EFA 		endbr64
 4623 0f9e 4889C7   		movq	%rax, %rdi
 4624 0fa1 E9000000 		jmp	.L330
 4624      00
 4625              	.L349:
 4626 0fa6 F30F1EFA 		endbr64
 4627 0faa 4889C7   		movq	%rax, %rdi
 4628 0fad E9000000 		jmp	.L327
 4628      00
 4629              	.L347:
 4630 0fb2 F30F1EFA 		endbr64
 4631 0fb6 4889C7   		movq	%rax, %rdi
 4632 0fb9 E9000000 		jmp	.L324
 4632      00
 4633              	.L345:
 4634 0fbe F30F1EFA 		endbr64
 4635 0fc2 4889C7   		movq	%rax, %rdi
 4636 0fc5 E9000000 		jmp	.L321
 4636      00
 4637              	.L343:
 4638 0fca F30F1EFA 		endbr64
 4639 0fce 4889C7   		movq	%rax, %rdi
 4640 0fd1 E9000000 		jmp	.L318
 4640      00
 4641              		.section	.gcc_except_table
 4642              		.align 4
 4643              	.LLSDA1199:
 4644 0468 FF       		.byte	0xff
 4645 0469 9B       		.byte	0x9b
 4646 046a 51       		.uleb128 .LLSDATT1199-.LLSDATTD1199
 4647              	.LLSDATTD1199:
 4648 046b 01       		.byte	0x1
 4649 046c 46       		.uleb128 .LLSDACSE1199-.LLSDACSB1199
 4650              	.LLSDACSB1199:
 4651 046d 2B       		.uleb128 .LEHB228-.LFB1199
 4652 046e 05       		.uleb128 .LEHE228-.LEHB228
 4653 046f 00       		.uleb128 0
 4654 0470 00       		.uleb128 0
 4655 0471 34       		.uleb128 .LEHB229-.LFB1199
 4656 0472 39       		.uleb128 .LEHE229-.LEHB229
 4657 0473 9A05     		.uleb128 .L343-.LFB1199
 4658 0475 01       		.uleb128 0x1
 4659 0476 6D       		.uleb128 .LEHB230-.LFB1199
 4660 0477 35       		.uleb128 .LEHE230-.LEHB230
 4661 0478 8E05     		.uleb128 .L345-.LFB1199
 4662 047a 01       		.uleb128 0x1
 4663 047b AC01     		.uleb128 .LEHB231-.LFB1199
 4664 047d 05       		.uleb128 .LEHE231-.LEHB231
 4665 047e 00       		.uleb128 0
 4666 047f 00       		.uleb128 0
 4667 0480 B501     		.uleb128 .LEHB232-.LFB1199
 4668 0482 34       		.uleb128 .LEHE232-.LEHB232
 4669 0483 8205     		.uleb128 .L347-.LFB1199
 4670 0485 01       		.uleb128 0x1
 4671 0486 E901     		.uleb128 .LEHB233-.LFB1199
 4672 0488 35       		.uleb128 .LEHE233-.LEHB233
 4673 0489 F604     		.uleb128 .L349-.LFB1199
 4674 048b 01       		.uleb128 0x1
 4675 048c A802     		.uleb128 .LEHB234-.LFB1199
 4676 048e 05       		.uleb128 .LEHE234-.LEHB234
 4677 048f 00       		.uleb128 0
 4678 0490 00       		.uleb128 0
 4679 0491 B102     		.uleb128 .LEHB235-.LFB1199
 4680 0493 34       		.uleb128 .LEHE235-.LEHB235
 4681 0494 EA04     		.uleb128 .L351-.LFB1199
 4682 0496 01       		.uleb128 0x1
 4683 0497 E502     		.uleb128 .LEHB236-.LFB1199
 4684 0499 35       		.uleb128 .LEHE236-.LEHB236
 4685 049a DE04     		.uleb128 .L353-.LFB1199
 4686 049c 01       		.uleb128 0x1
 4687 049d A403     		.uleb128 .LEHB237-.LFB1199
 4688 049f 05       		.uleb128 .LEHE237-.LEHB237
 4689 04a0 00       		.uleb128 0
 4690 04a1 00       		.uleb128 0
 4691 04a2 AD03     		.uleb128 .LEHB238-.LFB1199
 4692 04a4 34       		.uleb128 .LEHE238-.LEHB238
 4693 04a5 D204     		.uleb128 .L355-.LFB1199
 4694 04a7 01       		.uleb128 0x1
 4695 04a8 EB03     		.uleb128 .LEHB239-.LFB1199
 4696 04aa 05       		.uleb128 .LEHE239-.LEHB239
 4697 04ab 00       		.uleb128 0
 4698 04ac 00       		.uleb128 0
 4699 04ad F403     		.uleb128 .LEHB240-.LFB1199
 4700 04af 34       		.uleb128 .LEHE240-.LEHB240
 4701 04b0 C604     		.uleb128 .L357-.LFB1199
 4702 04b2 01       		.uleb128 0x1
 4703              	.LLSDACSE1199:
 4704 04b3 01       		.byte	0x1
 4705 04b4 00       		.byte	0
 4706 04b5 000000   		.align 4
 4707 04b8 00000000 		.long	0
 4708              	
 4709              	.LLSDATT1199:
 4710              		.text
 4711              		.cfi_endproc
 4712              		.section	.text.unlikely
 4713              		.cfi_startproc
 4714              		.cfi_personality 0x9b,DW.ref.__gxx_personality_v0
 4715              		.cfi_lsda 0x1b,.LLSDAC1199
 4717              	_ZNK23TestConv_testGetHexByte7RunImplEv.cold:
 4718              	.LFSB1199:
 4719              	.L339:
 4720              		.cfi_def_cfa_offset 96
 4721              		.cfi_offset 3, -32
 4722              		.cfi_offset 6, -24
 4723              		.cfi_offset 12, -16
 4724 0e70 E8000000 		call	__cxa_begin_catch@PLT
 4724      00
 4725              	.LEHB241:
 4726 0e75 E8000000 		call	_ZN8UnitTest11CurrentTest7ResultsEv@PLT
 4726      00
 4727 0e7a 488B28   		movq	(%rax), %rbp
 4728 0e7d E8000000 		call	_ZN8UnitTest11CurrentTest7DetailsEv@PLT
 4728      00
 4729 0e82 488B30   		movq	(%rax), %rsi
 4730 0e85 BA6C0000 		movl	$108, %edx
 4730      00
 4731 0e8a 4889DF   		movq	%rbx, %rdi
 4732 0e8d E8000000 		call	_ZN8UnitTest11TestDetailsC1ERKS0_i@PLT
 4732      00
 4733 0e92 488D1500 		leaq	.LC22(%rip), %rdx
 4733      000000
 4734 0e99 4889DE   		movq	%rbx, %rsi
 4735 0e9c 4889EF   		movq	%rbp, %rdi
 4736 0e9f E8000000 		call	_ZN8UnitTest11TestResults13OnTestFailureERKNS_11TestDetailsEPKc@PLT
 4736      00
 4737              	.LEHE241:
 4738              	.LEHB242:
 4739 0ea4 E8000000 		call	__cxa_end_catch@PLT
 4739      00
 4740              	.LEHE242:
 4741 0ea9 E9000000 		jmp	.L317
 4741      00
 4742              	.L336:
 4743 0eae E8000000 		call	__cxa_begin_catch@PLT
 4743      00
 4744              	.LEHB243:
 4745 0eb3 E8000000 		call	_ZN8UnitTest11CurrentTest7ResultsEv@PLT
 4745      00
 4746 0eb8 4C8B20   		movq	(%rax), %r12
 4747 0ebb E8000000 		call	_ZN8UnitTest11CurrentTest7DetailsEv@PLT
 4747      00
 4748 0ec0 488B30   		movq	(%rax), %rsi
 4749 0ec3 BA6A0000 		movl	$106, %edx
 4749      00
 4750 0ec8 4889DF   		movq	%rbx, %rdi
 4751 0ecb E8000000 		call	_ZN8UnitTest11TestDetailsC1ERKS0_i@PLT
 4751      00
 4752 0ed0 488D1500 		leaq	.LC22(%rip), %rdx
 4752      000000
 4753 0ed7 4889DE   		movq	%rbx, %rsi
 4754 0eda 4C89E7   		movq	%r12, %rdi
 4755 0edd E8000000 		call	_ZN8UnitTest11TestResults13OnTestFailureERKNS_11TestDetailsEPKc@PLT
 4755      00
 4756              	.LEHE243:
 4757              	.LEHB244:
 4758 0ee2 E8000000 		call	__cxa_end_catch@PLT
 4758      00
 4759              	.LEHE244:
 4760 0ee7 E9000000 		jmp	.L337
 4760      00
 4761              	.L358:
 4762 0eec F30F1EFA 		endbr64
 4763 0ef0 4889C3   		movq	%rax, %rbx
 4764 0ef3 E8000000 		call	__cxa_end_catch@PLT
 4764      00
 4765 0ef8 4889DF   		movq	%rbx, %rdi
 4766              	.LEHB245:
 4767 0efb E8000000 		call	_Unwind_Resume@PLT
 4767      00
 4768              	.LEHE245:
 4769              	.L356:
 4770 0f00 F30F1EFA 		endbr64
 4771 0f04 4889C3   		movq	%rax, %rbx
 4772 0f07 E8000000 		call	__cxa_end_catch@PLT
 4772      00
 4773 0f0c 4889DF   		movq	%rbx, %rdi
 4774              	.LEHB246:
 4775 0f0f E8000000 		call	_Unwind_Resume@PLT
 4775      00
 4776              	.LEHE246:
 4777              	.L333:
 4778 0f14 E8000000 		call	__cxa_begin_catch@PLT
 4778      00
 4779              	.LEHB247:
 4780 0f19 E8000000 		call	_ZN8UnitTest11CurrentTest7ResultsEv@PLT
 4780      00
 4781 0f1e 4C8B20   		movq	(%rax), %r12
 4782 0f21 E8000000 		call	_ZN8UnitTest11CurrentTest7DetailsEv@PLT
 4782      00
 4783 0f26 488B30   		movq	(%rax), %rsi
 4784 0f29 BA680000 		movl	$104, %edx
 4784      00
 4785 0f2e 4889DF   		movq	%rbx, %rdi
 4786 0f31 E8000000 		call	_ZN8UnitTest11TestDetailsC1ERKS0_i@PLT
 4786      00
 4787 0f36 488D1500 		leaq	.LC31(%rip), %rdx
 4787      000000
 4788 0f3d 4889DE   		movq	%rbx, %rsi
 4789 0f40 4C89E7   		movq	%r12, %rdi
 4790 0f43 E8000000 		call	_ZN8UnitTest11TestResults13OnTestFailureERKNS_11TestDetailsEPKc@PLT
 4790      00
 4791              	.LEHE247:
 4792              	.LEHB248:
 4793 0f48 E8000000 		call	__cxa_end_catch@PLT
 4793      00
 4794              	.LEHE248:
 4795 0f4d E9000000 		jmp	.L334
 4795      00
 4796              	.L330:
 4797 0f52 E8000000 		call	__cxa_begin_catch@PLT
 4797      00
 4798              	.LEHB249:
 4799 0f57 E8000000 		call	_ZN8UnitTest11CurrentTest7ResultsEv@PLT
 4799      00
 4800 0f5c 4C8B20   		movq	(%rax), %r12
 4801 0f5f E8000000 		call	_ZN8UnitTest11CurrentTest7DetailsEv@PLT
 4801      00
 4802 0f64 488B30   		movq	(%rax), %rsi
 4803 0f67 BA670000 		movl	$103, %edx
 4803      00
 4804 0f6c 4889DF   		movq	%rbx, %rdi
 4805 0f6f E8000000 		call	_ZN8UnitTest11TestDetailsC1ERKS0_i@PLT
 4805      00
 4806 0f74 488D1500 		leaq	.LC5(%rip), %rdx
 4806      000000
 4807 0f7b 4889DE   		movq	%rbx, %rsi
 4808 0f7e 4C89E7   		movq	%r12, %rdi
 4809 0f81 E8000000 		call	_ZN8UnitTest11TestResults13OnTestFailureERKNS_11TestDetailsEPKc@PLT
 4809      00
 4810              	.LEHE249:
 4811              	.LEHB250:
 4812 0f86 E8000000 		call	__cxa_end_catch@PLT
 4812      00
 4813              	.LEHE250:
 4814 0f8b E9000000 		jmp	.L331
 4814      00
 4815              	.L354:
 4816 0f90 F30F1EFA 		endbr64
 4817 0f94 4889C3   		movq	%rax, %rbx
 4818 0f97 E8000000 		call	__cxa_end_catch@PLT
 4818      00
 4819 0f9c 4889DF   		movq	%rbx, %rdi
 4820              	.LEHB251:
 4821 0f9f E8000000 		call	_Unwind_Resume@PLT
 4821      00
 4822              	.LEHE251:
 4823              	.L352:
 4824 0fa4 F30F1EFA 		endbr64
 4825 0fa8 4889C3   		movq	%rax, %rbx
 4826 0fab E8000000 		call	__cxa_end_catch@PLT
 4826      00
 4827 0fb0 4889DF   		movq	%rbx, %rdi
 4828              	.LEHB252:
 4829 0fb3 E8000000 		call	_Unwind_Resume@PLT
 4829      00
 4830              	.LEHE252:
 4831              	.L327:
 4832 0fb8 E8000000 		call	__cxa_begin_catch@PLT
 4832      00
 4833              	.LEHB253:
 4834 0fbd E8000000 		call	_ZN8UnitTest11CurrentTest7ResultsEv@PLT
 4834      00
 4835 0fc2 4C8B20   		movq	(%rax), %r12
 4836 0fc5 E8000000 		call	_ZN8UnitTest11CurrentTest7DetailsEv@PLT
 4836      00
 4837 0fca 488B30   		movq	(%rax), %rsi
 4838 0fcd BA650000 		movl	$101, %edx
 4838      00
 4839 0fd2 4889DF   		movq	%rbx, %rdi
 4840 0fd5 E8000000 		call	_ZN8UnitTest11TestDetailsC1ERKS0_i@PLT
 4840      00
 4841 0fda 488D1500 		leaq	.LC30(%rip), %rdx
 4841      000000
 4842 0fe1 4889DE   		movq	%rbx, %rsi
 4843 0fe4 4C89E7   		movq	%r12, %rdi
 4844 0fe7 E8000000 		call	_ZN8UnitTest11TestResults13OnTestFailureERKNS_11TestDetailsEPKc@PLT
 4844      00
 4845              	.LEHE253:
 4846              	.LEHB254:
 4847 0fec E8000000 		call	__cxa_end_catch@PLT
 4847      00
 4848              	.LEHE254:
 4849 0ff1 E9000000 		jmp	.L328
 4849      00
 4850              	.L324:
 4851 0ff6 E8000000 		call	__cxa_begin_catch@PLT
 4851      00
 4852              	.LEHB255:
 4853 0ffb E8000000 		call	_ZN8UnitTest11CurrentTest7ResultsEv@PLT
 4853      00
 4854 1000 4C8B20   		movq	(%rax), %r12
 4855 1003 E8000000 		call	_ZN8UnitTest11CurrentTest7DetailsEv@PLT
 4855      00
 4856 1008 488B30   		movq	(%rax), %rsi
 4857 100b BA640000 		movl	$100, %edx
 4857      00
 4858 1010 4889DF   		movq	%rbx, %rdi
 4859 1013 E8000000 		call	_ZN8UnitTest11TestDetailsC1ERKS0_i@PLT
 4859      00
 4860 1018 488D1500 		leaq	.LC5(%rip), %rdx
 4860      000000
 4861 101f 4889DE   		movq	%rbx, %rsi
 4862 1022 4C89E7   		movq	%r12, %rdi
 4863 1025 E8000000 		call	_ZN8UnitTest11TestResults13OnTestFailureERKNS_11TestDetailsEPKc@PLT
 4863      00
 4864              	.LEHE255:
 4865              	.LEHB256:
 4866 102a E8000000 		call	__cxa_end_catch@PLT
 4866      00
 4867              	.LEHE256:
 4868 102f E9000000 		jmp	.L325
 4868      00
 4869              	.L350:
 4870 1034 F30F1EFA 		endbr64
 4871 1038 4889C3   		movq	%rax, %rbx
 4872 103b E8000000 		call	__cxa_end_catch@PLT
 4872      00
 4873 1040 4889DF   		movq	%rbx, %rdi
 4874              	.LEHB257:
 4875 1043 E8000000 		call	_Unwind_Resume@PLT
 4875      00
 4876              	.LEHE257:
 4877              	.L348:
 4878 1048 F30F1EFA 		endbr64
 4879 104c 4889C3   		movq	%rax, %rbx
 4880 104f E8000000 		call	__cxa_end_catch@PLT
 4880      00
 4881 1054 4889DF   		movq	%rbx, %rdi
 4882              	.LEHB258:
 4883 1057 E8000000 		call	_Unwind_Resume@PLT
 4883      00
 4884              	.LEHE258:
 4885              	.L321:
 4886 105c E8000000 		call	__cxa_begin_catch@PLT
 4886      00
 4887              	.LEHB259:
 4888 1061 E8000000 		call	_ZN8UnitTest11CurrentTest7ResultsEv@PLT
 4888      00
 4889 1066 4C8B20   		movq	(%rax), %r12
 4890 1069 E8000000 		call	_ZN8UnitTest11CurrentTest7DetailsEv@PLT
 4890      00
 4891 106e 488B30   		movq	(%rax), %rsi
 4892 1071 BA620000 		movl	$98, %edx
 4892      00
 4893 1076 4889DF   		movq	%rbx, %rdi
 4894 1079 E8000000 		call	_ZN8UnitTest11TestDetailsC1ERKS0_i@PLT
 4894      00
 4895 107e 488D1500 		leaq	.LC29(%rip), %rdx
 4895      000000
 4896 1085 4889DE   		movq	%rbx, %rsi
 4897 1088 4C89E7   		movq	%r12, %rdi
 4898 108b E8000000 		call	_ZN8UnitTest11TestResults13OnTestFailureERKNS_11TestDetailsEPKc@PLT
 4898      00
 4899              	.LEHE259:
 4900              	.LEHB260:
 4901 1090 E8000000 		call	__cxa_end_catch@PLT
 4901      00
 4902              	.LEHE260:
 4903 1095 E9000000 		jmp	.L322
 4903      00
 4904              	.L318:
 4905 109a E8000000 		call	__cxa_begin_catch@PLT
 4905      00
 4906              	.LEHB261:
 4907 109f E8000000 		call	_ZN8UnitTest11CurrentTest7ResultsEv@PLT
 4907      00
 4908 10a4 4C8B20   		movq	(%rax), %r12
 4909 10a7 E8000000 		call	_ZN8UnitTest11CurrentTest7DetailsEv@PLT
 4909      00
 4910 10ac 488D5C24 		leaq	16(%rsp), %rbx
 4910      10
 4911 10b1 488B30   		movq	(%rax), %rsi
 4912 10b4 BA610000 		movl	$97, %edx
 4912      00
 4913 10b9 4889DF   		movq	%rbx, %rdi
 4914 10bc E8000000 		call	_ZN8UnitTest11TestDetailsC1ERKS0_i@PLT
 4914      00
 4915 10c1 488D1500 		leaq	.LC5(%rip), %rdx
 4915      000000
 4916 10c8 4889DE   		movq	%rbx, %rsi
 4917 10cb 4C89E7   		movq	%r12, %rdi
 4918 10ce E8000000 		call	_ZN8UnitTest11TestResults13OnTestFailureERKNS_11TestDetailsEPKc@PLT
 4918      00
 4919              	.LEHE261:
 4920              	.LEHB262:
 4921 10d3 E8000000 		call	__cxa_end_catch@PLT
 4921      00
 4922              	.LEHE262:
 4923 10d8 E9000000 		jmp	.L319
 4923      00
 4924              	.L346:
 4925 10dd F30F1EFA 		endbr64
 4926 10e1 4889C3   		movq	%rax, %rbx
 4927 10e4 E8000000 		call	__cxa_end_catch@PLT
 4927      00
 4928 10e9 4889DF   		movq	%rbx, %rdi
 4929              	.LEHB263:
 4930 10ec E8000000 		call	_Unwind_Resume@PLT
 4930      00
 4931              	.LEHE263:
 4932              	.L344:
 4933 10f1 F30F1EFA 		endbr64
 4934 10f5 4889C3   		movq	%rax, %rbx
 4935 10f8 E8000000 		call	__cxa_end_catch@PLT
 4935      00
 4936 10fd 4889DF   		movq	%rbx, %rdi
 4937              	.LEHB264:
 4938 1100 E8000000 		call	_Unwind_Resume@PLT
 4938      00
 4939              	.LEHE264:
 4940              		.cfi_endproc
 4941              	.LFE1199:
 4942              		.section	.gcc_except_table
 4943              		.align 4
 4944              	.LLSDAC1199:
 4945 04bc FF       		.byte	0xff
 4946 04bd 9B       		.byte	0x9b
 4947 04be 8401     		.uleb128 .LLSDATTC1199-.LLSDATTDC1199
 4948              	.LLSDATTDC1199:
 4949 04c0 01       		.byte	0x1
 4950 04c1 7B       		.uleb128 .LLSDACSEC1199-.LLSDACSBC1199
 4951              	.LLSDACSBC1199:
 4952 04c2 05       		.uleb128 .LEHB241-.LCOLDB32
 4953 04c3 2F       		.uleb128 .LEHE241-.LEHB241
 4954 04c4 7C       		.uleb128 .L358-.LCOLDB32
 4955 04c5 00       		.uleb128 0
 4956 04c6 34       		.uleb128 .LEHB242-.LCOLDB32
 4957 04c7 05       		.uleb128 .LEHE242-.LEHB242
 4958 04c8 00       		.uleb128 0
 4959 04c9 00       		.uleb128 0
 4960 04ca 43       		.uleb128 .LEHB243-.LCOLDB32
 4961 04cb 2F       		.uleb128 .LEHE243-.LEHB243
 4962 04cc 9001     		.uleb128 .L356-.LCOLDB32
 4963 04ce 00       		.uleb128 0
 4964 04cf 72       		.uleb128 .LEHB244-.LCOLDB32
 4965 04d0 05       		.uleb128 .LEHE244-.LEHB244
 4966 04d1 00       		.uleb128 0
 4967 04d2 00       		.uleb128 0
 4968 04d3 8B01     		.uleb128 .LEHB245-.LCOLDB32
 4969 04d5 05       		.uleb128 .LEHE245-.LEHB245
 4970 04d6 00       		.uleb128 0
 4971 04d7 00       		.uleb128 0
 4972 04d8 9F01     		.uleb128 .LEHB246-.LCOLDB32
 4973 04da 05       		.uleb128 .LEHE246-.LEHB246
 4974 04db 00       		.uleb128 0
 4975 04dc 00       		.uleb128 0
 4976 04dd A901     		.uleb128 .LEHB247-.LCOLDB32
 4977 04df 2F       		.uleb128 .LEHE247-.LEHB247
 4978 04e0 A002     		.uleb128 .L354-.LCOLDB32
 4979 04e2 00       		.uleb128 0
 4980 04e3 D801     		.uleb128 .LEHB248-.LCOLDB32
 4981 04e5 05       		.uleb128 .LEHE248-.LEHB248
 4982 04e6 00       		.uleb128 0
 4983 04e7 00       		.uleb128 0
 4984 04e8 E701     		.uleb128 .LEHB249-.LCOLDB32
 4985 04ea 2F       		.uleb128 .LEHE249-.LEHB249
 4986 04eb B402     		.uleb128 .L352-.LCOLDB32
 4987 04ed 00       		.uleb128 0
 4988 04ee 9602     		.uleb128 .LEHB250-.LCOLDB32
 4989 04f0 05       		.uleb128 .LEHE250-.LEHB250
 4990 04f1 00       		.uleb128 0
 4991 04f2 00       		.uleb128 0
 4992 04f3 AF02     		.uleb128 .LEHB251-.LCOLDB32
 4993 04f5 05       		.uleb128 .LEHE251-.LEHB251
 4994 04f6 00       		.uleb128 0
 4995 04f7 00       		.uleb128 0
 4996 04f8 C302     		.uleb128 .LEHB252-.LCOLDB32
 4997 04fa 05       		.uleb128 .LEHE252-.LEHB252
 4998 04fb 00       		.uleb128 0
 4999 04fc 00       		.uleb128 0
 5000 04fd CD02     		.uleb128 .LEHB253-.LCOLDB32
 5001 04ff 2F       		.uleb128 .LEHE253-.LEHB253
 5002 0500 C403     		.uleb128 .L350-.LCOLDB32
 5003 0502 00       		.uleb128 0
 5004 0503 FC02     		.uleb128 .LEHB254-.LCOLDB32
 5005 0505 05       		.uleb128 .LEHE254-.LEHB254
 5006 0506 00       		.uleb128 0
 5007 0507 00       		.uleb128 0
 5008 0508 8B03     		.uleb128 .LEHB255-.LCOLDB32
 5009 050a 2F       		.uleb128 .LEHE255-.LEHB255
 5010 050b D803     		.uleb128 .L348-.LCOLDB32
 5011 050d 00       		.uleb128 0
 5012 050e BA03     		.uleb128 .LEHB256-.LCOLDB32
 5013 0510 05       		.uleb128 .LEHE256-.LEHB256
 5014 0511 00       		.uleb128 0
 5015 0512 00       		.uleb128 0
 5016 0513 D303     		.uleb128 .LEHB257-.LCOLDB32
 5017 0515 05       		.uleb128 .LEHE257-.LEHB257
 5018 0516 00       		.uleb128 0
 5019 0517 00       		.uleb128 0
 5020 0518 E703     		.uleb128 .LEHB258-.LCOLDB32
 5021 051a 05       		.uleb128 .LEHE258-.LEHB258
 5022 051b 00       		.uleb128 0
 5023 051c 00       		.uleb128 0
 5024 051d F103     		.uleb128 .LEHB259-.LCOLDB32
 5025 051f 2F       		.uleb128 .LEHE259-.LEHB259
 5026 0520 ED04     		.uleb128 .L346-.LCOLDB32
 5027 0522 00       		.uleb128 0
 5028 0523 A004     		.uleb128 .LEHB260-.LCOLDB32
 5029 0525 05       		.uleb128 .LEHE260-.LEHB260
 5030 0526 00       		.uleb128 0
 5031 0527 00       		.uleb128 0
 5032 0528 AF04     		.uleb128 .LEHB261-.LCOLDB32
 5033 052a 34       		.uleb128 .LEHE261-.LEHB261
 5034 052b 8105     		.uleb128 .L344-.LCOLDB32
 5035 052d 00       		.uleb128 0
 5036 052e E304     		.uleb128 .LEHB262-.LCOLDB32
 5037 0530 05       		.uleb128 .LEHE262-.LEHB262
 5038 0531 00       		.uleb128 0
 5039 0532 00       		.uleb128 0
 5040 0533 FC04     		.uleb128 .LEHB263-.LCOLDB32
 5041 0535 05       		.uleb128 .LEHE263-.LEHB263
 5042 0536 00       		.uleb128 0
 5043 0537 00       		.uleb128 0
 5044 0538 9005     		.uleb128 .LEHB264-.LCOLDB32
 5045 053a 05       		.uleb128 .LEHE264-.LEHB264
 5046 053b 00       		.uleb128 0
 5047 053c 00       		.uleb128 0
 5048              	.LLSDACSEC1199:
 5049 053d 01       		.byte	0x1
 5050 053e 00       		.byte	0
 5051 053f 00       		.align 4
 5052 0540 00000000 		.long	0
 5053              	
 5054              	.LLSDATTC1199:
 5055              		.section	.text.unlikely
 5056              		.text
 5058              		.section	.text.unlikely
 5060              	.LCOLDE32:
 5061              		.text
 5062              	.LHOTE32:
 5063              		.section	.text._ZN8UnitTest10CheckEqualIccEEvRNS_11TestResultsERKT_RKT0_RKNS_11TestDetailsE,"axG",
 5064              		.p2align 4
 5065              		.weak	_ZN8UnitTest10CheckEqualIccEEvRNS_11TestResultsERKT_RKT0_RKNS_11TestDetailsE
 5067              	_ZN8UnitTest10CheckEqualIccEEvRNS_11TestResultsERKT_RKT0_RKNS_11TestDetailsE:
 5068              	.LFB1241:
 5069              		.cfi_startproc
 5070              		.cfi_personality 0x9b,DW.ref.__gxx_personality_v0
 5071              		.cfi_lsda 0x1b,.LLSDA1241
 5072 0000 F30F1EFA 		endbr64
 5073 0004 4157     		pushq	%r15
 5074              		.cfi_def_cfa_offset 16
 5075              		.cfi_offset 15, -16
 5076 0006 4156     		pushq	%r14
 5077              		.cfi_def_cfa_offset 24
 5078              		.cfi_offset 14, -24
 5079 0008 4155     		pushq	%r13
 5080              		.cfi_def_cfa_offset 32
 5081              		.cfi_offset 13, -32
 5082 000a 4154     		pushq	%r12
 5083              		.cfi_def_cfa_offset 40
 5084              		.cfi_offset 12, -40
 5085 000c 55       		pushq	%rbp
 5086              		.cfi_def_cfa_offset 48
 5087              		.cfi_offset 6, -48
 5088 000d 53       		pushq	%rbx
 5089              		.cfi_def_cfa_offset 56
 5090              		.cfi_offset 3, -56
 5091 000e 4881ECE8 		subq	$488, %rsp
 5091      010000
 5092              		.cfi_def_cfa_offset 544
 5093 0015 48893C24 		movq	%rdi, (%rsp)
 5094 0019 48894C24 		movq	%rcx, 8(%rsp)
 5094      08
 5095 001e 64488B04 		movq	%fs:40, %rax
 5095      25280000 
 5095      00
 5096 0027 48898424 		movq	%rax, 472(%rsp)
 5096      D8010000 
 5097 002f 31C0     		xorl	%eax, %eax
 5098 0031 0FB602   		movzbl	(%rdx), %eax
 5099 0034 3806     		cmpb	%al, (%rsi)
 5100 0036 7530     		jne	.L383
 5101              	.L361:
 5102 0038 488B8424 		movq	472(%rsp), %rax
 5102      D8010000 
 5103 0040 64482B04 		subq	%fs:40, %rax
 5103      25280000 
 5103      00
 5104 0049 0F85D102 		jne	.L384
 5104      0000
 5105 004f 4881C4E8 		addq	$488, %rsp
 5105      010000
 5106              		.cfi_remember_state
 5107              		.cfi_def_cfa_offset 56
 5108 0056 5B       		popq	%rbx
 5109              		.cfi_def_cfa_offset 48
 5110 0057 5D       		popq	%rbp
 5111              		.cfi_def_cfa_offset 40
 5112 0058 415C     		popq	%r12
 5113              		.cfi_def_cfa_offset 32
 5114 005a 415D     		popq	%r13
 5115              		.cfi_def_cfa_offset 24
 5116 005c 415E     		popq	%r14
 5117              		.cfi_def_cfa_offset 16
 5118 005e 415F     		popq	%r15
 5119              		.cfi_def_cfa_offset 8
 5120 0060 C3       		ret
 5121              		.p2align 4,,10
 5122 0061 0F1F8000 		.p2align 3
 5122      000000
 5123              	.L383:
 5124              		.cfi_restore_state
 5125 0068 4C8DB424 		leaq	208(%rsp), %r14
 5125      D0000000 
 5126 0070 4889F5   		movq	%rsi, %rbp
 5127 0073 4C8D3D00 		leaq	24+_ZTCN8UnitTest15MemoryOutStreamE0_So(%rip), %r15
 5127      000000
 5128 007a 4889D3   		movq	%rdx, %rbx
 5129 007d 4C89F7   		movq	%r14, %rdi
 5130 0080 E8000000 		call	_ZNSt8ios_baseC2Ev@PLT
 5130      00
 5131 0085 31C0     		xorl	%eax, %eax
 5132 0087 660FEFC0 		pxor	%xmm0, %xmm0
 5133 008b 31F6     		xorl	%esi, %esi
 5134 008d 66898424 		movw	%ax, 432(%rsp)
 5134      B0010000 
 5135 0095 4C89F7   		movq	%r14, %rdi
 5136 0098 498D4728 		leaq	40(%r15), %rax
 5137 009c 48C78424 		movq	$0, 424(%rsp)
 5137      A8010000 
 5137      00000000 
 5138 00a8 4C897C24 		movq	%r15, 64(%rsp)
 5138      40
 5139 00ad 48898424 		movq	%rax, 208(%rsp)
 5139      D0000000 
 5140 00b5 0F118424 		movups	%xmm0, 440(%rsp)
 5140      B8010000 
 5141 00bd 0F118424 		movups	%xmm0, 456(%rsp)
 5141      C8010000 
 5142              	.LEHB265:
 5143 00c5 E8000000 		call	_ZNSt9basic_iosIcSt11char_traitsIcEE4initEPSt15basic_streambufIcS1_E@PLT
 5143      00
 5144              	.LEHE265:
 5145 00ca F30F7E05 		movq	.LC2(%rip), %xmm0
 5145      00000000 
 5146 00d2 4C8D6424 		leaq	64(%rsp), %r12
 5146      40
 5147 00d7 4C8D6C24 		leaq	72(%rsp), %r13
 5147      48
 5148 00dc 488D0500 		leaq	64+_ZTCN8UnitTest15MemoryOutStreamE0_NSt7__cxx1119basic_ostringstreamIcSt11char_traitsIcESaIc
 5148      000000
 5149 00e3 0F160500 		movhps	.LC3(%rip), %xmm0
 5149      000000
 5150 00ea 48898424 		movq	%rax, 208(%rsp)
 5150      D0000000 
 5151 00f2 488D8424 		leaq	128(%rsp), %rax
 5151      80000000 
 5152 00fa 4889C7   		movq	%rax, %rdi
 5153 00fd 0F294424 		movaps	%xmm0, 64(%rsp)
 5153      40
 5154 0102 660FEFC0 		pxor	%xmm0, %xmm0
 5155 0106 48894424 		movq	%rax, 32(%rsp)
 5155      20
 5156 010b 0F294424 		movaps	%xmm0, 80(%rsp)
 5156      50
 5157 0110 0F294424 		movaps	%xmm0, 96(%rsp)
 5157      60
 5158 0115 0F294424 		movaps	%xmm0, 112(%rsp)
 5158      70
 5159 011a E8000000 		call	_ZNSt6localeC1Ev@PLT
 5159      00
 5160 011f 488D0500 		leaq	16+_ZTVNSt7__cxx1115basic_stringbufIcSt11char_traitsIcESaIcEEE(%rip), %rax
 5160      000000
 5161 0126 C68424A0 		movb	$0, 160(%rsp)
 5161      00000000 
 5162 012e 4C89EE   		movq	%r13, %rsi
 5163 0131 48894424 		movq	%rax, 72(%rsp)
 5163      48
 5164 0136 488D8424 		leaq	160(%rsp), %rax
 5164      A0000000 
 5165 013e 48894424 		movq	%rax, 40(%rsp)
 5165      28
 5166 0143 48898424 		movq	%rax, 144(%rsp)
 5166      90000000 
 5167 014b 488B4424 		movq	64(%rsp), %rax
 5167      40
 5168 0150 48C78424 		movq	$0, 152(%rsp)
 5168      98000000 
 5168      00000000 
 5169 015c C7842488 		movl	$16, 136(%rsp)
 5169      00000010 
 5169      000000
 5170 0167 488B78E8 		movq	-24(%rax), %rdi
 5171 016b 4C01E7   		addq	%r12, %rdi
 5172              	.LEHB266:
 5173 016e E8000000 		call	_ZNSt9basic_iosIcSt11char_traitsIcEE4initEPSt15basic_streambufIcS1_E@PLT
 5173      00
 5174              	.LEHE266:
 5175 0173 488D0500 		leaq	24+_ZTVN8UnitTest15MemoryOutStreamE(%rip), %rax
 5175      000000
 5176 017a BA090000 		movl	$9, %edx
 5176      00
 5177 017f 4C89E7   		movq	%r12, %rdi
 5178 0182 48C78424 		movq	$0, 184(%rsp)
 5178      B8000000 
 5178      00000000 
 5179 018e 48894424 		movq	%rax, 64(%rsp)
 5179      40
 5180 0193 4C8DAC24 		leaq	192(%rsp), %r13
 5180      C0000000 
 5181 019b 4883C028 		addq	$40, %rax
 5182 019f 488D3500 		leaq	.LC0(%rip), %rsi
 5182      000000
 5183 01a6 48898424 		movq	%rax, 208(%rsp)
 5183      D0000000 
 5184 01ae 4C89AC24 		movq	%r13, 176(%rsp)
 5184      B0000000 
 5185 01b6 C68424C0 		movb	$0, 192(%rsp)
 5185      00000000 
 5186              	.LEHB267:
 5187 01be E8000000 		call	_ZSt16__ostream_insertIcSt11char_traitsIcEERSt13basic_ostreamIT_T0_ES6_PKS3_l@PLT
 5187      00
 5188 01c3 488B4424 		movq	64(%rsp), %rax
 5188      40
 5189 01c8 0FBE7500 		movsbl	0(%rbp), %esi
 5190 01cc 488B40E8 		movq	-24(%rax), %rax
 5191 01d0 40887424 		movb	%sil, 62(%rsp)
 5191      3E
 5192 01d5 48837C04 		cmpq	$0, 80(%rsp,%rax)
 5192      5000
 5193 01db 0F842F01 		je	.L367
 5193      0000
 5194 01e1 488D7424 		leaq	62(%rsp), %rsi
 5194      3E
 5195 01e6 BA010000 		movl	$1, %edx
 5195      00
 5196 01eb 4C89E7   		movq	%r12, %rdi
 5197 01ee E8000000 		call	_ZSt16__ostream_insertIcSt11char_traitsIcEERSt13basic_ostreamIT_T0_ES6_PKS3_l@PLT
 5197      00
 5198 01f3 4889C5   		movq	%rax, %rbp
 5199              	.L368:
 5200 01f6 BA090000 		movl	$9, %edx
 5200      00
 5201 01fb 488D3500 		leaq	.LC1(%rip), %rsi
 5201      000000
 5202 0202 4889EF   		movq	%rbp, %rdi
 5203 0205 E8000000 		call	_ZSt16__ostream_insertIcSt11char_traitsIcEERSt13basic_ostreamIT_T0_ES6_PKS3_l@PLT
 5203      00
 5204 020a 488B4500 		movq	0(%rbp), %rax
 5205 020e 0FBE33   		movsbl	(%rbx), %esi
 5206 0211 488B40E8 		movq	-24(%rax), %rax
 5207 0215 40887424 		movb	%sil, 63(%rsp)
 5207      3F
 5208 021a 48837C05 		cmpq	$0, 16(%rbp,%rax)
 5208      1000
 5209 0220 0F84DA00 		je	.L369
 5209      0000
 5210 0226 488D7424 		leaq	63(%rsp), %rsi
 5210      3F
 5211 022b BA010000 		movl	$1, %edx
 5211      00
 5212 0230 4889EF   		movq	%rbp, %rdi
 5213 0233 E8000000 		call	_ZSt16__ostream_insertIcSt11char_traitsIcEERSt13basic_ostreamIT_T0_ES6_PKS3_l@PLT
 5213      00
 5214              	.L371:
 5215 0238 4C89E7   		movq	%r12, %rdi
 5216 023b E8000000 		call	_ZNK8UnitTest15MemoryOutStream7GetTextEv@PLT
 5216      00
 5217 0240 F30F7E0D 		movq	.LC2(%rip), %xmm1
 5217      00000000 
 5218 0248 488B7424 		movq	8(%rsp), %rsi
 5218      08
 5219 024d 4889C2   		movq	%rax, %rdx
 5220 0250 488B3C24 		movq	(%rsp), %rdi
 5221 0254 0F160D00 		movhps	.LC4(%rip), %xmm1
 5221      000000
 5222 025b 0F294C24 		movaps	%xmm1, 16(%rsp)
 5222      10
 5223 0260 E8000000 		call	_ZN8UnitTest11TestResults13OnTestFailureERKNS_11TestDetailsEPKc@PLT
 5223      00
 5224              	.LEHE267:
 5225 0265 488D0500 		leaq	24+_ZTVN8UnitTest15MemoryOutStreamE(%rip), %rax
 5225      000000
 5226 026c 488BBC24 		movq	176(%rsp), %rdi
 5226      B0000000 
 5227 0274 48894424 		movq	%rax, 64(%rsp)
 5227      40
 5228 0279 4883C028 		addq	$40, %rax
 5229 027d 48898424 		movq	%rax, 208(%rsp)
 5229      D0000000 
 5230 0285 4C39EF   		cmpq	%r13, %rdi
 5231 0288 7405     		je	.L372
 5232 028a E8000000 		call	_ZdlPv@PLT
 5232      00
 5233              	.L372:
 5234 028f 488D0500 		leaq	64+_ZTCN8UnitTest15MemoryOutStreamE0_NSt7__cxx1119basic_ostringstreamIcSt11char_traitsIcESaIc
 5234      000000
 5235 0296 660F6F54 		movdqa	16(%rsp), %xmm2
 5235      2410
 5236 029c 488BBC24 		movq	144(%rsp), %rdi
 5236      90000000 
 5237 02a4 48898424 		movq	%rax, 208(%rsp)
 5237      D0000000 
 5238 02ac 488B4424 		movq	40(%rsp), %rax
 5238      28
 5239 02b1 0F295424 		movaps	%xmm2, 64(%rsp)
 5239      40
 5240 02b6 4839C7   		cmpq	%rax, %rdi
 5241 02b9 7405     		je	.L373
 5242 02bb E8000000 		call	_ZdlPv@PLT
 5242      00
 5243              	.L373:
 5244 02c0 488B7C24 		movq	32(%rsp), %rdi
 5244      20
 5245 02c5 488D0500 		leaq	16+_ZTVSt15basic_streambufIcSt11char_traitsIcEE(%rip), %rax
 5245      000000
 5246 02cc 48894424 		movq	%rax, 72(%rsp)
 5246      48
 5247 02d1 E8000000 		call	_ZNSt6localeD1Ev@PLT
 5247      00
 5248 02d6 488D0500 		leaq	16+_ZTVSt9basic_iosIcSt11char_traitsIcEE(%rip), %rax
 5248      000000
 5249 02dd 4C89F7   		movq	%r14, %rdi
 5250 02e0 4C897C24 		movq	%r15, 64(%rsp)
 5250      40
 5251 02e5 48898424 		movq	%rax, 208(%rsp)
 5251      D0000000 
 5252              	.LEHB268:
 5253 02ed E8000000 		call	_ZNSt8ios_baseD2Ev@PLT
 5253      00
 5254              	.LEHE268:
 5255 02f2 E941FDFF 		jmp	.L361
 5255      FF
 5256 02f7 660F1F84 		.p2align 4,,10
 5256      00000000 
 5256      00
 5257              		.p2align 3
 5258              	.L369:
 5259 0300 4889EF   		movq	%rbp, %rdi
 5260              	.LEHB269:
 5261 0303 E8000000 		call	_ZNSo3putEc@PLT
 5261      00
 5262 0308 E92BFFFF 		jmp	.L371
 5262      FF
 5263 030d 0F1F00   		.p2align 4,,10
 5264              		.p2align 3
 5265              	.L367:
 5266 0310 4C89E7   		movq	%r12, %rdi
 5267 0313 E8000000 		call	_ZNSo3putEc@PLT
 5267      00
 5268              	.LEHE269:
 5269 0318 4C89E5   		movq	%r12, %rbp
 5270 031b E9D6FEFF 		jmp	.L368
 5270      FF
 5271              	.L384:
 5272 0320 E8000000 		call	__stack_chk_fail@PLT
 5272      00
 5273              	.L377:
 5274 0325 F30F1EFA 		endbr64
 5275 0329 4889C3   		movq	%rax, %rbx
 5276 032c EB1F     		jmp	.L365
 5277              	.L378:
 5278 032e F30F1EFA 		endbr64
 5279 0332 4889C3   		movq	%rax, %rbx
 5280 0335 EB09     		jmp	.L364
 5281              	.L376:
 5282 0337 F30F1EFA 		endbr64
 5283 033b 4889C3   		movq	%rax, %rbx
 5284 033e EB2C     		jmp	.L374
 5285              	.L364:
 5286 0340 4C89EF   		movq	%r13, %rdi
 5287 0343 E8000000 		call	_ZNSt7__cxx1115basic_stringbufIcSt11char_traitsIcESaIcEED1Ev
 5287      00
 5288 0348 4C897C24 		movq	%r15, 64(%rsp)
 5288      40
 5289              	.L365:
 5290 034d 488D0500 		leaq	16+_ZTVSt9basic_iosIcSt11char_traitsIcEE(%rip), %rax
 5290      000000
 5291 0354 4C89F7   		movq	%r14, %rdi
 5292 0357 48898424 		movq	%rax, 208(%rsp)
 5292      D0000000 
 5293 035f E8000000 		call	_ZNSt8ios_baseD2Ev@PLT
 5293      00
 5294 0364 4889DF   		movq	%rbx, %rdi
 5295              	.LEHB270:
 5296 0367 E8000000 		call	_Unwind_Resume@PLT
 5296      00
 5297              	.LEHE270:
 5298              	.L374:
 5299 036c 4C89E7   		movq	%r12, %rdi
 5300 036f E8000000 		call	_ZN8UnitTest15MemoryOutStreamD1Ev
 5300      00
 5301 0374 4889DF   		movq	%rbx, %rdi
 5302              	.LEHB271:
 5303 0377 E8000000 		call	_Unwind_Resume@PLT
 5303      00
 5304              	.LEHE271:
 5305              		.cfi_endproc
 5306              	.LFE1241:
 5307              		.section	.gcc_except_table
 5308              	.LLSDA1241:
 5309 0544 FF       		.byte	0xff
 5310 0545 FF       		.byte	0xff
 5311 0546 01       		.byte	0x1
 5312 0547 28       		.uleb128 .LLSDACSE1241-.LLSDACSB1241
 5313              	.LLSDACSB1241:
 5314 0548 C501     		.uleb128 .LEHB265-.LFB1241
 5315 054a 05       		.uleb128 .LEHE265-.LEHB265
 5316 054b A506     		.uleb128 .L377-.LFB1241
 5317 054d 00       		.uleb128 0
 5318 054e EE02     		.uleb128 .LEHB266-.LFB1241
 5319 0550 05       		.uleb128 .LEHE266-.LEHB266
 5320 0551 AE06     		.uleb128 .L378-.LFB1241
 5321 0553 00       		.uleb128 0
 5322 0554 BE03     		.uleb128 .LEHB267-.LFB1241
 5323 0556 A701     		.uleb128 .LEHE267-.LEHB267
 5324 0558 B706     		.uleb128 .L376-.LFB1241
 5325 055a 00       		.uleb128 0
 5326 055b ED05     		.uleb128 .LEHB268-.LFB1241
 5327 055d 05       		.uleb128 .LEHE268-.LEHB268
 5328 055e 00       		.uleb128 0
 5329 055f 00       		.uleb128 0
 5330 0560 8306     		.uleb128 .LEHB269-.LFB1241
 5331 0562 15       		.uleb128 .LEHE269-.LEHB269
 5332 0563 B706     		.uleb128 .L376-.LFB1241
 5333 0565 00       		.uleb128 0
 5334 0566 E706     		.uleb128 .LEHB270-.LFB1241
 5335 0568 05       		.uleb128 .LEHE270-.LEHB270
 5336 0569 00       		.uleb128 0
 5337 056a 00       		.uleb128 0
 5338 056b F706     		.uleb128 .LEHB271-.LFB1241
 5339 056d 05       		.uleb128 .LEHE271-.LEHB271
 5340 056e 00       		.uleb128 0
 5341 056f 00       		.uleb128 0
 5342              	.LLSDACSE1241:
 5343              		.section	.text._ZN8UnitTest10CheckEqualIccEEvRNS_11TestResultsERKT_RKT0_RKNS_11TestDetailsE,"axG",
 5345              		.section	.rodata.str1.8
 5346 03ff 00       		.align 8
 5347              	.LC33:
 5348 0400 556E6861 		.string	"Unhandled exception in CHECK_EQUAL('0', getHexUpperNibble(0x0F))"
 5348      6E646C65 
 5348      64206578 
 5348      63657074 
 5348      696F6E20 
 5349 0441 00000000 		.align 8
 5349      000000
 5350              	.LC34:
 5351 0448 556E6861 		.string	"Unhandled exception in CHECK_EQUAL('1', getHexUpperNibble(0x1F))"
 5351      6E646C65 
 5351      64206578 
 5351      63657074 
 5351      696F6E20 
 5352 0489 00000000 		.align 8
 5352      000000
 5353              	.LC35:
 5354 0490 556E6861 		.string	"Unhandled exception in CHECK_EQUAL('2', getHexUpperNibble(0x2F))"
 5354      6E646C65 
 5354      64206578 
 5354      63657074 
 5354      696F6E20 
 5355 04d1 00000000 		.align 8
 5355      000000
 5356              	.LC36:
 5357 04d8 556E6861 		.string	"Unhandled exception in CHECK_EQUAL('3', getHexUpperNibble(0x3F))"
 5357      6E646C65 
 5357      64206578 
 5357      63657074 
 5357      696F6E20 
 5358 0519 00000000 		.align 8
 5358      000000
 5359              	.LC37:
 5360 0520 556E6861 		.string	"Unhandled exception in CHECK_EQUAL('4', getHexUpperNibble(0x4F))"
 5360      6E646C65 
 5360      64206578 
 5360      63657074 
 5360      696F6E20 
 5361 0561 00000000 		.align 8
 5361      000000
 5362              	.LC38:
 5363 0568 556E6861 		.string	"Unhandled exception in CHECK_EQUAL('5', getHexUpperNibble(0x5F))"
 5363      6E646C65 
 5363      64206578 
 5363      63657074 
 5363      696F6E20 
 5364 05a9 00000000 		.align 8
 5364      000000
 5365              	.LC39:
 5366 05b0 556E6861 		.string	"Unhandled exception in CHECK_EQUAL('6', getHexUpperNibble(0x6F))"
 5366      6E646C65 
 5366      64206578 
 5366      63657074 
 5366      696F6E20 
 5367 05f1 00000000 		.align 8
 5367      000000
 5368              	.LC40:
 5369 05f8 556E6861 		.string	"Unhandled exception in CHECK_EQUAL('7', getHexUpperNibble(0x7F))"
 5369      6E646C65 
 5369      64206578 
 5369      63657074 
 5369      696F6E20 
 5370 0639 00000000 		.align 8
 5370      000000
 5371              	.LC41:
 5372 0640 556E6861 		.string	"Unhandled exception in CHECK_EQUAL('8', getHexUpperNibble(0x8F))"
 5372      6E646C65 
 5372      64206578 
 5372      63657074 
 5372      696F6E20 
 5373 0681 00000000 		.align 8
 5373      000000
 5374              	.LC42:
 5375 0688 556E6861 		.string	"Unhandled exception in CHECK_EQUAL('9', getHexUpperNibble(0x9F))"
 5375      6E646C65 
 5375      64206578 
 5375      63657074 
 5375      696F6E20 
 5376 06c9 00000000 		.align 8
 5376      000000
 5377              	.LC43:
 5378 06d0 556E6861 		.string	"Unhandled exception in CHECK_EQUAL('A', getHexUpperNibble(0xAF))"
 5378      6E646C65 
 5378      64206578 
 5378      63657074 
 5378      696F6E20 
 5379 0711 00000000 		.align 8
 5379      000000
 5380              	.LC44:
 5381 0718 556E6861 		.string	"Unhandled exception in CHECK_EQUAL('B', getHexUpperNibble(0xBF))"
 5381      6E646C65 
 5381      64206578 
 5381      63657074 
 5381      696F6E20 
 5382 0759 00000000 		.align 8
 5382      000000
 5383              	.LC45:
 5384 0760 556E6861 		.string	"Unhandled exception in CHECK_EQUAL('C', getHexUpperNibble(0xCF))"
 5384      6E646C65 
 5384      64206578 
 5384      63657074 
 5384      696F6E20 
 5385 07a1 00000000 		.align 8
 5385      000000
 5386              	.LC46:
 5387 07a8 556E6861 		.string	"Unhandled exception in CHECK_EQUAL('D', getHexUpperNibble(0xDF))"
 5387      6E646C65 
 5387      64206578 
 5387      63657074 
 5387      696F6E20 
 5388 07e9 00000000 		.align 8
 5388      000000
 5389              	.LC47:
 5390 07f0 556E6861 		.string	"Unhandled exception in CHECK_EQUAL('E', getHexUpperNibble(0xEF))"
 5390      6E646C65 
 5390      64206578 
 5390      63657074 
 5390      696F6E20 
 5391 0831 00000000 		.align 8
 5391      000000
 5392              	.LC48:
 5393 0838 556E6861 		.string	"Unhandled exception in CHECK_EQUAL('F', getHexUpperNibble(0xFF))"
 5393      6E646C65 
 5393      64206578 
 5393      63657074 
 5393      696F6E20 
 5394              		.section	.text.unlikely
 5395 1105 90       		.align 2
 5396              	.LCOLDB49:
 5397              		.text
 5398              	.LHOTB49:
 5399              		.align 2
 5400 0fd6 662E0F1F 		.p2align 4
 5400      84000000 
 5400      0000
 5401              		.globl	_ZNK30TestConv_testGetHexUpperNibble7RunImplEv
 5403              	_ZNK30TestConv_testGetHexUpperNibble7RunImplEv:
 5404              	.LFB1203:
 5405              		.cfi_startproc
 5406              		.cfi_personality 0x9b,DW.ref.__gxx_personality_v0
 5407              		.cfi_lsda 0x1b,.LLSDA1203
 5408 0fe0 F30F1EFA 		endbr64
 5409 0fe4 55       		pushq	%rbp
 5410              		.cfi_def_cfa_offset 16
 5411              		.cfi_offset 6, -16
 5412 0fe5 53       		pushq	%rbx
 5413              		.cfi_def_cfa_offset 24
 5414              		.cfi_offset 3, -24
 5415 0fe6 4883EC48 		subq	$72, %rsp
 5416              		.cfi_def_cfa_offset 96
 5417 0fea 64488B04 		movq	%fs:40, %rax
 5417      25280000 
 5417      00
 5418 0ff3 48894424 		movq	%rax, 56(%rsp)
 5418      38
 5419 0ff8 31C0     		xorl	%eax, %eax
 5420              	.LEHB272:
 5421 0ffa E8000000 		call	_ZN8UnitTest11CurrentTest7DetailsEv@PLT
 5421      00
 5422 0fff 488D5C24 		leaq	16(%rsp), %rbx
 5422      10
 5423 1004 488B30   		movq	(%rax), %rsi
 5424 1007 BA700000 		movl	$112, %edx
 5424      00
 5425 100c 4889DF   		movq	%rbx, %rdi
 5426 100f E8000000 		call	_ZN8UnitTest11TestDetailsC1ERKS0_i@PLT
 5426      00
 5427 1014 BF0F0000 		movl	$15, %edi
 5427      00
 5428 1019 E8000000 		call	getHexUpperNibble@PLT
 5428      00
 5429 101e 8844240F 		movb	%al, 15(%rsp)
 5430 1022 C644240E 		movb	$48, 14(%rsp)
 5430      30
 5431 1027 E8000000 		call	_ZN8UnitTest11CurrentTest7ResultsEv@PLT
 5431      00
 5432 102c 488B38   		movq	(%rax), %rdi
 5433 102f 488D5424 		leaq	15(%rsp), %rdx
 5433      0F
 5434 1034 488D7424 		leaq	14(%rsp), %rsi
 5434      0E
 5435 1039 4889D9   		movq	%rbx, %rcx
 5436 103c E8000000 		call	_ZN8UnitTest10CheckEqualIccEEvRNS_11TestResultsERKT_RKT0_RKNS_11TestDetailsE
 5436      00
 5437              	.LEHE272:
 5438              	.L387:
 5439              	.LEHB273:
 5440 1041 E8000000 		call	_ZN8UnitTest11CurrentTest7DetailsEv@PLT
 5440      00
 5441 1046 488B30   		movq	(%rax), %rsi
 5442 1049 BA710000 		movl	$113, %edx
 5442      00
 5443 104e 4889DF   		movq	%rbx, %rdi
 5444 1051 E8000000 		call	_ZN8UnitTest11TestDetailsC1ERKS0_i@PLT
 5444      00
 5445 1056 BF1F0000 		movl	$31, %edi
 5445      00
 5446 105b E8000000 		call	getHexUpperNibble@PLT
 5446      00
 5447 1060 8844240F 		movb	%al, 15(%rsp)
 5448 1064 C644240E 		movb	$49, 14(%rsp)
 5448      31
 5449 1069 E8000000 		call	_ZN8UnitTest11CurrentTest7ResultsEv@PLT
 5449      00
 5450 106e 488B38   		movq	(%rax), %rdi
 5451 1071 488D5424 		leaq	15(%rsp), %rdx
 5451      0F
 5452 1076 488D7424 		leaq	14(%rsp), %rsi
 5452      0E
 5453 107b 4889D9   		movq	%rbx, %rcx
 5454 107e E8000000 		call	_ZN8UnitTest10CheckEqualIccEEvRNS_11TestResultsERKT_RKT0_RKNS_11TestDetailsE
 5454      00
 5455              	.LEHE273:
 5456              	.L390:
 5457              	.LEHB274:
 5458 1083 E8000000 		call	_ZN8UnitTest11CurrentTest7DetailsEv@PLT
 5458      00
 5459 1088 488B30   		movq	(%rax), %rsi
 5460 108b BA720000 		movl	$114, %edx
 5460      00
 5461 1090 4889DF   		movq	%rbx, %rdi
 5462 1093 E8000000 		call	_ZN8UnitTest11TestDetailsC1ERKS0_i@PLT
 5462      00
 5463 1098 BF2F0000 		movl	$47, %edi
 5463      00
 5464 109d E8000000 		call	getHexUpperNibble@PLT
 5464      00
 5465 10a2 8844240F 		movb	%al, 15(%rsp)
 5466 10a6 C644240E 		movb	$50, 14(%rsp)
 5466      32
 5467 10ab E8000000 		call	_ZN8UnitTest11CurrentTest7ResultsEv@PLT
 5467      00
 5468 10b0 488B38   		movq	(%rax), %rdi
 5469 10b3 488D5424 		leaq	15(%rsp), %rdx
 5469      0F
 5470 10b8 488D7424 		leaq	14(%rsp), %rsi
 5470      0E
 5471 10bd 4889D9   		movq	%rbx, %rcx
 5472 10c0 E8000000 		call	_ZN8UnitTest10CheckEqualIccEEvRNS_11TestResultsERKT_RKT0_RKNS_11TestDetailsE
 5472      00
 5473              	.LEHE274:
 5474              	.L393:
 5475              	.LEHB275:
 5476 10c5 E8000000 		call	_ZN8UnitTest11CurrentTest7DetailsEv@PLT
 5476      00
 5477 10ca 488B30   		movq	(%rax), %rsi
 5478 10cd BA730000 		movl	$115, %edx
 5478      00
 5479 10d2 4889DF   		movq	%rbx, %rdi
 5480 10d5 E8000000 		call	_ZN8UnitTest11TestDetailsC1ERKS0_i@PLT
 5480      00
 5481 10da BF3F0000 		movl	$63, %edi
 5481      00
 5482 10df E8000000 		call	getHexUpperNibble@PLT
 5482      00
 5483 10e4 8844240F 		movb	%al, 15(%rsp)
 5484 10e8 C644240E 		movb	$51, 14(%rsp)
 5484      33
 5485 10ed E8000000 		call	_ZN8UnitTest11CurrentTest7ResultsEv@PLT
 5485      00
 5486 10f2 488B38   		movq	(%rax), %rdi
 5487 10f5 488D5424 		leaq	15(%rsp), %rdx
 5487      0F
 5488 10fa 488D7424 		leaq	14(%rsp), %rsi
 5488      0E
 5489 10ff 4889D9   		movq	%rbx, %rcx
 5490 1102 E8000000 		call	_ZN8UnitTest10CheckEqualIccEEvRNS_11TestResultsERKT_RKT0_RKNS_11TestDetailsE
 5490      00
 5491              	.LEHE275:
 5492              	.L396:
 5493              	.LEHB276:
 5494 1107 E8000000 		call	_ZN8UnitTest11CurrentTest7DetailsEv@PLT
 5494      00
 5495 110c 488B30   		movq	(%rax), %rsi
 5496 110f BA740000 		movl	$116, %edx
 5496      00
 5497 1114 4889DF   		movq	%rbx, %rdi
 5498 1117 E8000000 		call	_ZN8UnitTest11TestDetailsC1ERKS0_i@PLT
 5498      00
 5499 111c BF4F0000 		movl	$79, %edi
 5499      00
 5500 1121 E8000000 		call	getHexUpperNibble@PLT
 5500      00
 5501 1126 8844240F 		movb	%al, 15(%rsp)
 5502 112a C644240E 		movb	$52, 14(%rsp)
 5502      34
 5503 112f E8000000 		call	_ZN8UnitTest11CurrentTest7ResultsEv@PLT
 5503      00
 5504 1134 488B38   		movq	(%rax), %rdi
 5505 1137 488D5424 		leaq	15(%rsp), %rdx
 5505      0F
 5506 113c 488D7424 		leaq	14(%rsp), %rsi
 5506      0E
 5507 1141 4889D9   		movq	%rbx, %rcx
 5508 1144 E8000000 		call	_ZN8UnitTest10CheckEqualIccEEvRNS_11TestResultsERKT_RKT0_RKNS_11TestDetailsE
 5508      00
 5509              	.LEHE276:
 5510              	.L399:
 5511              	.LEHB277:
 5512 1149 E8000000 		call	_ZN8UnitTest11CurrentTest7DetailsEv@PLT
 5512      00
 5513 114e 488B30   		movq	(%rax), %rsi
 5514 1151 BA750000 		movl	$117, %edx
 5514      00
 5515 1156 4889DF   		movq	%rbx, %rdi
 5516 1159 E8000000 		call	_ZN8UnitTest11TestDetailsC1ERKS0_i@PLT
 5516      00
 5517 115e BF5F0000 		movl	$95, %edi
 5517      00
 5518 1163 E8000000 		call	getHexUpperNibble@PLT
 5518      00
 5519 1168 8844240F 		movb	%al, 15(%rsp)
 5520 116c C644240E 		movb	$53, 14(%rsp)
 5520      35
 5521 1171 E8000000 		call	_ZN8UnitTest11CurrentTest7ResultsEv@PLT
 5521      00
 5522 1176 488B38   		movq	(%rax), %rdi
 5523 1179 488D5424 		leaq	15(%rsp), %rdx
 5523      0F
 5524 117e 488D7424 		leaq	14(%rsp), %rsi
 5524      0E
 5525 1183 4889D9   		movq	%rbx, %rcx
 5526 1186 E8000000 		call	_ZN8UnitTest10CheckEqualIccEEvRNS_11TestResultsERKT_RKT0_RKNS_11TestDetailsE
 5526      00
 5527              	.LEHE277:
 5528              	.L402:
 5529              	.LEHB278:
 5530 118b E8000000 		call	_ZN8UnitTest11CurrentTest7DetailsEv@PLT
 5530      00
 5531 1190 488B30   		movq	(%rax), %rsi
 5532 1193 BA760000 		movl	$118, %edx
 5532      00
 5533 1198 4889DF   		movq	%rbx, %rdi
 5534 119b E8000000 		call	_ZN8UnitTest11TestDetailsC1ERKS0_i@PLT
 5534      00
 5535 11a0 BF6F0000 		movl	$111, %edi
 5535      00
 5536 11a5 E8000000 		call	getHexUpperNibble@PLT
 5536      00
 5537 11aa 8844240F 		movb	%al, 15(%rsp)
 5538 11ae C644240E 		movb	$54, 14(%rsp)
 5538      36
 5539 11b3 E8000000 		call	_ZN8UnitTest11CurrentTest7ResultsEv@PLT
 5539      00
 5540 11b8 488B38   		movq	(%rax), %rdi
 5541 11bb 488D5424 		leaq	15(%rsp), %rdx
 5541      0F
 5542 11c0 488D7424 		leaq	14(%rsp), %rsi
 5542      0E
 5543 11c5 4889D9   		movq	%rbx, %rcx
 5544 11c8 E8000000 		call	_ZN8UnitTest10CheckEqualIccEEvRNS_11TestResultsERKT_RKT0_RKNS_11TestDetailsE
 5544      00
 5545              	.LEHE278:
 5546              	.L405:
 5547              	.LEHB279:
 5548 11cd E8000000 		call	_ZN8UnitTest11CurrentTest7DetailsEv@PLT
 5548      00
 5549 11d2 488B30   		movq	(%rax), %rsi
 5550 11d5 BA770000 		movl	$119, %edx
 5550      00
 5551 11da 4889DF   		movq	%rbx, %rdi
 5552 11dd E8000000 		call	_ZN8UnitTest11TestDetailsC1ERKS0_i@PLT
 5552      00
 5553 11e2 BF7F0000 		movl	$127, %edi
 5553      00
 5554 11e7 E8000000 		call	getHexUpperNibble@PLT
 5554      00
 5555 11ec 8844240F 		movb	%al, 15(%rsp)
 5556 11f0 C644240E 		movb	$55, 14(%rsp)
 5556      37
 5557 11f5 E8000000 		call	_ZN8UnitTest11CurrentTest7ResultsEv@PLT
 5557      00
 5558 11fa 488B38   		movq	(%rax), %rdi
 5559 11fd 488D5424 		leaq	15(%rsp), %rdx
 5559      0F
 5560 1202 488D7424 		leaq	14(%rsp), %rsi
 5560      0E
 5561 1207 4889D9   		movq	%rbx, %rcx
 5562 120a E8000000 		call	_ZN8UnitTest10CheckEqualIccEEvRNS_11TestResultsERKT_RKT0_RKNS_11TestDetailsE
 5562      00
 5563              	.LEHE279:
 5564              	.L408:
 5565              	.LEHB280:
 5566 120f E8000000 		call	_ZN8UnitTest11CurrentTest7DetailsEv@PLT
 5566      00
 5567 1214 488B30   		movq	(%rax), %rsi
 5568 1217 BA780000 		movl	$120, %edx
 5568      00
 5569 121c 4889DF   		movq	%rbx, %rdi
 5570 121f E8000000 		call	_ZN8UnitTest11TestDetailsC1ERKS0_i@PLT
 5570      00
 5571 1224 BF8F0000 		movl	$143, %edi
 5571      00
 5572 1229 E8000000 		call	getHexUpperNibble@PLT
 5572      00
 5573 122e 8844240F 		movb	%al, 15(%rsp)
 5574 1232 C644240E 		movb	$56, 14(%rsp)
 5574      38
 5575 1237 E8000000 		call	_ZN8UnitTest11CurrentTest7ResultsEv@PLT
 5575      00
 5576 123c 488B38   		movq	(%rax), %rdi
 5577 123f 488D5424 		leaq	15(%rsp), %rdx
 5577      0F
 5578 1244 488D7424 		leaq	14(%rsp), %rsi
 5578      0E
 5579 1249 4889D9   		movq	%rbx, %rcx
 5580 124c E8000000 		call	_ZN8UnitTest10CheckEqualIccEEvRNS_11TestResultsERKT_RKT0_RKNS_11TestDetailsE
 5580      00
 5581              	.LEHE280:
 5582              	.L411:
 5583              	.LEHB281:
 5584 1251 E8000000 		call	_ZN8UnitTest11CurrentTest7DetailsEv@PLT
 5584      00
 5585 1256 488B30   		movq	(%rax), %rsi
 5586 1259 BA790000 		movl	$121, %edx
 5586      00
 5587 125e 4889DF   		movq	%rbx, %rdi
 5588 1261 E8000000 		call	_ZN8UnitTest11TestDetailsC1ERKS0_i@PLT
 5588      00
 5589 1266 BF9F0000 		movl	$159, %edi
 5589      00
 5590 126b E8000000 		call	getHexUpperNibble@PLT
 5590      00
 5591 1270 8844240F 		movb	%al, 15(%rsp)
 5592 1274 C644240E 		movb	$57, 14(%rsp)
 5592      39
 5593 1279 E8000000 		call	_ZN8UnitTest11CurrentTest7ResultsEv@PLT
 5593      00
 5594 127e 488B38   		movq	(%rax), %rdi
 5595 1281 488D5424 		leaq	15(%rsp), %rdx
 5595      0F
 5596 1286 488D7424 		leaq	14(%rsp), %rsi
 5596      0E
 5597 128b 4889D9   		movq	%rbx, %rcx
 5598 128e E8000000 		call	_ZN8UnitTest10CheckEqualIccEEvRNS_11TestResultsERKT_RKT0_RKNS_11TestDetailsE
 5598      00
 5599              	.LEHE281:
 5600              	.L414:
 5601              	.LEHB282:
 5602 1293 E8000000 		call	_ZN8UnitTest11CurrentTest7DetailsEv@PLT
 5602      00
 5603 1298 488B30   		movq	(%rax), %rsi
 5604 129b BA7A0000 		movl	$122, %edx
 5604      00
 5605 12a0 4889DF   		movq	%rbx, %rdi
 5606 12a3 E8000000 		call	_ZN8UnitTest11TestDetailsC1ERKS0_i@PLT
 5606      00
 5607 12a8 BFAF0000 		movl	$175, %edi
 5607      00
 5608 12ad E8000000 		call	getHexUpperNibble@PLT
 5608      00
 5609 12b2 8844240F 		movb	%al, 15(%rsp)
 5610 12b6 C644240E 		movb	$65, 14(%rsp)
 5610      41
 5611 12bb E8000000 		call	_ZN8UnitTest11CurrentTest7ResultsEv@PLT
 5611      00
 5612 12c0 488B38   		movq	(%rax), %rdi
 5613 12c3 488D5424 		leaq	15(%rsp), %rdx
 5613      0F
 5614 12c8 488D7424 		leaq	14(%rsp), %rsi
 5614      0E
 5615 12cd 4889D9   		movq	%rbx, %rcx
 5616 12d0 E8000000 		call	_ZN8UnitTest10CheckEqualIccEEvRNS_11TestResultsERKT_RKT0_RKNS_11TestDetailsE
 5616      00
 5617              	.LEHE282:
 5618              	.L417:
 5619              	.LEHB283:
 5620 12d5 E8000000 		call	_ZN8UnitTest11CurrentTest7DetailsEv@PLT
 5620      00
 5621 12da 488B30   		movq	(%rax), %rsi
 5622 12dd BA7B0000 		movl	$123, %edx
 5622      00
 5623 12e2 4889DF   		movq	%rbx, %rdi
 5624 12e5 E8000000 		call	_ZN8UnitTest11TestDetailsC1ERKS0_i@PLT
 5624      00
 5625 12ea BFBF0000 		movl	$191, %edi
 5625      00
 5626 12ef E8000000 		call	getHexUpperNibble@PLT
 5626      00
 5627 12f4 8844240F 		movb	%al, 15(%rsp)
 5628 12f8 C644240E 		movb	$66, 14(%rsp)
 5628      42
 5629 12fd E8000000 		call	_ZN8UnitTest11CurrentTest7ResultsEv@PLT
 5629      00
 5630 1302 488B38   		movq	(%rax), %rdi
 5631 1305 488D5424 		leaq	15(%rsp), %rdx
 5631      0F
 5632 130a 488D7424 		leaq	14(%rsp), %rsi
 5632      0E
 5633 130f 4889D9   		movq	%rbx, %rcx
 5634 1312 E8000000 		call	_ZN8UnitTest10CheckEqualIccEEvRNS_11TestResultsERKT_RKT0_RKNS_11TestDetailsE
 5634      00
 5635              	.LEHE283:
 5636              	.L420:
 5637              	.LEHB284:
 5638 1317 E8000000 		call	_ZN8UnitTest11CurrentTest7DetailsEv@PLT
 5638      00
 5639 131c 488B30   		movq	(%rax), %rsi
 5640 131f BA7C0000 		movl	$124, %edx
 5640      00
 5641 1324 4889DF   		movq	%rbx, %rdi
 5642 1327 E8000000 		call	_ZN8UnitTest11TestDetailsC1ERKS0_i@PLT
 5642      00
 5643 132c BFCF0000 		movl	$207, %edi
 5643      00
 5644 1331 E8000000 		call	getHexUpperNibble@PLT
 5644      00
 5645 1336 8844240F 		movb	%al, 15(%rsp)
 5646 133a C644240E 		movb	$67, 14(%rsp)
 5646      43
 5647 133f E8000000 		call	_ZN8UnitTest11CurrentTest7ResultsEv@PLT
 5647      00
 5648 1344 488B38   		movq	(%rax), %rdi
 5649 1347 488D5424 		leaq	15(%rsp), %rdx
 5649      0F
 5650 134c 488D7424 		leaq	14(%rsp), %rsi
 5650      0E
 5651 1351 4889D9   		movq	%rbx, %rcx
 5652 1354 E8000000 		call	_ZN8UnitTest10CheckEqualIccEEvRNS_11TestResultsERKT_RKT0_RKNS_11TestDetailsE
 5652      00
 5653              	.LEHE284:
 5654              	.L423:
 5655              	.LEHB285:
 5656 1359 E8000000 		call	_ZN8UnitTest11CurrentTest7DetailsEv@PLT
 5656      00
 5657 135e 488B30   		movq	(%rax), %rsi
 5658 1361 BA7D0000 		movl	$125, %edx
 5658      00
 5659 1366 4889DF   		movq	%rbx, %rdi
 5660 1369 E8000000 		call	_ZN8UnitTest11TestDetailsC1ERKS0_i@PLT
 5660      00
 5661 136e BFDF0000 		movl	$223, %edi
 5661      00
 5662 1373 E8000000 		call	getHexUpperNibble@PLT
 5662      00
 5663 1378 8844240F 		movb	%al, 15(%rsp)
 5664 137c C644240E 		movb	$68, 14(%rsp)
 5664      44
 5665 1381 E8000000 		call	_ZN8UnitTest11CurrentTest7ResultsEv@PLT
 5665      00
 5666 1386 488B38   		movq	(%rax), %rdi
 5667 1389 488D5424 		leaq	15(%rsp), %rdx
 5667      0F
 5668 138e 488D7424 		leaq	14(%rsp), %rsi
 5668      0E
 5669 1393 4889D9   		movq	%rbx, %rcx
 5670 1396 E8000000 		call	_ZN8UnitTest10CheckEqualIccEEvRNS_11TestResultsERKT_RKT0_RKNS_11TestDetailsE
 5670      00
 5671              	.LEHE285:
 5672              	.L426:
 5673              	.LEHB286:
 5674 139b E8000000 		call	_ZN8UnitTest11CurrentTest7DetailsEv@PLT
 5674      00
 5675 13a0 488B30   		movq	(%rax), %rsi
 5676 13a3 BA7E0000 		movl	$126, %edx
 5676      00
 5677 13a8 4889DF   		movq	%rbx, %rdi
 5678 13ab E8000000 		call	_ZN8UnitTest11TestDetailsC1ERKS0_i@PLT
 5678      00
 5679 13b0 BFEF0000 		movl	$239, %edi
 5679      00
 5680 13b5 E8000000 		call	getHexUpperNibble@PLT
 5680      00
 5681 13ba 8844240F 		movb	%al, 15(%rsp)
 5682 13be C644240E 		movb	$69, 14(%rsp)
 5682      45
 5683 13c3 E8000000 		call	_ZN8UnitTest11CurrentTest7ResultsEv@PLT
 5683      00
 5684 13c8 488B38   		movq	(%rax), %rdi
 5685 13cb 488D5424 		leaq	15(%rsp), %rdx
 5685      0F
 5686 13d0 488D7424 		leaq	14(%rsp), %rsi
 5686      0E
 5687 13d5 4889D9   		movq	%rbx, %rcx
 5688 13d8 E8000000 		call	_ZN8UnitTest10CheckEqualIccEEvRNS_11TestResultsERKT_RKT0_RKNS_11TestDetailsE
 5688      00
 5689              	.LEHE286:
 5690              	.L429:
 5691              	.LEHB287:
 5692 13dd E8000000 		call	_ZN8UnitTest11CurrentTest7DetailsEv@PLT
 5692      00
 5693 13e2 488B30   		movq	(%rax), %rsi
 5694 13e5 BA7F0000 		movl	$127, %edx
 5694      00
 5695 13ea 4889DF   		movq	%rbx, %rdi
 5696 13ed E8000000 		call	_ZN8UnitTest11TestDetailsC1ERKS0_i@PLT
 5696      00
 5697 13f2 BFFF0000 		movl	$255, %edi
 5697      00
 5698 13f7 E8000000 		call	getHexUpperNibble@PLT
 5698      00
 5699 13fc 8844240F 		movb	%al, 15(%rsp)
 5700 1400 C644240E 		movb	$70, 14(%rsp)
 5700      46
 5701 1405 E8000000 		call	_ZN8UnitTest11CurrentTest7ResultsEv@PLT
 5701      00
 5702 140a 488B38   		movq	(%rax), %rdi
 5703 140d 488D5424 		leaq	15(%rsp), %rdx
 5703      0F
 5704 1412 488D7424 		leaq	14(%rsp), %rsi
 5704      0E
 5705 1417 4889D9   		movq	%rbx, %rcx
 5706 141a E8000000 		call	_ZN8UnitTest10CheckEqualIccEEvRNS_11TestResultsERKT_RKT0_RKNS_11TestDetailsE
 5706      00
 5707              	.LEHE287:
 5708 141f 488B4424 		movq	56(%rsp), %rax
 5708      38
 5709 1424 64482B04 		subq	%fs:40, %rax
 5709      25280000 
 5709      00
 5710 142d 7507     		jne	.L469
 5711 142f 4883C448 		addq	$72, %rsp
 5712              		.cfi_remember_state
 5713              		.cfi_def_cfa_offset 24
 5714 1433 5B       		popq	%rbx
 5715              		.cfi_def_cfa_offset 16
 5716 1434 5D       		popq	%rbp
 5717              		.cfi_def_cfa_offset 8
 5718 1435 C3       		ret
 5719              	.L469:
 5720              		.cfi_restore_state
 5721 1436 E8000000 		call	__stack_chk_fail@PLT
 5721      00
 5722              	.L465:
 5723 143b F30F1EFA 		endbr64
 5724 143f 4889C7   		movq	%rax, %rdi
 5725 1442 E9000000 		jmp	.L431
 5725      00
 5726              	.L463:
 5727 1447 F30F1EFA 		endbr64
 5728 144b 4889C7   		movq	%rax, %rdi
 5729 144e E9000000 		jmp	.L428
 5729      00
 5730              	.L461:
 5731 1453 F30F1EFA 		endbr64
 5732 1457 4889C7   		movq	%rax, %rdi
 5733 145a E9000000 		jmp	.L425
 5733      00
 5734              	.L459:
 5735 145f F30F1EFA 		endbr64
 5736 1463 4889C7   		movq	%rax, %rdi
 5737 1466 E9000000 		jmp	.L422
 5737      00
 5738              	.L457:
 5739 146b F30F1EFA 		endbr64
 5740 146f 4889C7   		movq	%rax, %rdi
 5741 1472 E9000000 		jmp	.L419
 5741      00
 5742              	.L455:
 5743 1477 F30F1EFA 		endbr64
 5744 147b 4889C7   		movq	%rax, %rdi
 5745 147e E9000000 		jmp	.L416
 5745      00
 5746              	.L453:
 5747 1483 F30F1EFA 		endbr64
 5748 1487 4889C7   		movq	%rax, %rdi
 5749 148a E9000000 		jmp	.L413
 5749      00
 5750              	.L451:
 5751 148f F30F1EFA 		endbr64
 5752 1493 4889C7   		movq	%rax, %rdi
 5753 1496 E9000000 		jmp	.L410
 5753      00
 5754              	.L449:
 5755 149b F30F1EFA 		endbr64
 5756 149f 4889C7   		movq	%rax, %rdi
 5757 14a2 E9000000 		jmp	.L407
 5757      00
 5758              	.L447:
 5759 14a7 F30F1EFA 		endbr64
 5760 14ab 4889C7   		movq	%rax, %rdi
 5761 14ae E9000000 		jmp	.L404
 5761      00
 5762              	.L445:
 5763 14b3 F30F1EFA 		endbr64
 5764 14b7 4889C7   		movq	%rax, %rdi
 5765 14ba E9000000 		jmp	.L401
 5765      00
 5766              	.L443:
 5767 14bf F30F1EFA 		endbr64
 5768 14c3 4889C7   		movq	%rax, %rdi
 5769 14c6 E9000000 		jmp	.L398
 5769      00
 5770              	.L441:
 5771 14cb F30F1EFA 		endbr64
 5772 14cf 4889C7   		movq	%rax, %rdi
 5773 14d2 E9000000 		jmp	.L395
 5773      00
 5774              	.L439:
 5775 14d7 F30F1EFA 		endbr64
 5776 14db 4889C7   		movq	%rax, %rdi
 5777 14de E9000000 		jmp	.L392
 5777      00
 5778              	.L437:
 5779 14e3 F30F1EFA 		endbr64
 5780 14e7 4889C7   		movq	%rax, %rdi
 5781 14ea E9000000 		jmp	.L389
 5781      00
 5782              	.L435:
 5783 14ef F30F1EFA 		endbr64
 5784 14f3 4889C7   		movq	%rax, %rdi
 5785 14f6 E9000000 		jmp	.L386
 5785      00
 5786              		.section	.gcc_except_table
 5787              		.align 4
 5788              	.LLSDA1203:
 5789 0570 FF       		.byte	0xff
 5790 0571 9B       		.byte	0x9b
 5791 0572 69       		.uleb128 .LLSDATT1203-.LLSDATTD1203
 5792              	.LLSDATTD1203:
 5793 0573 01       		.byte	0x1
 5794 0574 5E       		.uleb128 .LLSDACSE1203-.LLSDACSB1203
 5795              	.LLSDACSB1203:
 5796 0575 1A       		.uleb128 .LEHB272-.LFB1203
 5797 0576 47       		.uleb128 .LEHE272-.LEHB272
 5798 0577 8F0A     		.uleb128 .L435-.LFB1203
 5799 0579 01       		.uleb128 0x1
 5800 057a 61       		.uleb128 .LEHB273-.LFB1203
 5801 057b 42       		.uleb128 .LEHE273-.LEHB273
 5802 057c 830A     		.uleb128 .L437-.LFB1203
 5803 057e 01       		.uleb128 0x1
 5804 057f A301     		.uleb128 .LEHB274-.LFB1203
 5805 0581 42       		.uleb128 .LEHE274-.LEHB274
 5806 0582 F709     		.uleb128 .L439-.LFB1203
 5807 0584 01       		.uleb128 0x1
 5808 0585 E501     		.uleb128 .LEHB275-.LFB1203
 5809 0587 42       		.uleb128 .LEHE275-.LEHB275
 5810 0588 EB09     		.uleb128 .L441-.LFB1203
 5811 058a 01       		.uleb128 0x1
 5812 058b A702     		.uleb128 .LEHB276-.LFB1203
 5813 058d 42       		.uleb128 .LEHE276-.LEHB276
 5814 058e DF09     		.uleb128 .L443-.LFB1203
 5815 0590 01       		.uleb128 0x1
 5816 0591 E902     		.uleb128 .LEHB277-.LFB1203
 5817 0593 42       		.uleb128 .LEHE277-.LEHB277
 5818 0594 D309     		.uleb128 .L445-.LFB1203
 5819 0596 01       		.uleb128 0x1
 5820 0597 AB03     		.uleb128 .LEHB278-.LFB1203
 5821 0599 42       		.uleb128 .LEHE278-.LEHB278
 5822 059a C709     		.uleb128 .L447-.LFB1203
 5823 059c 01       		.uleb128 0x1
 5824 059d ED03     		.uleb128 .LEHB279-.LFB1203
 5825 059f 42       		.uleb128 .LEHE279-.LEHB279
 5826 05a0 BB09     		.uleb128 .L449-.LFB1203
 5827 05a2 01       		.uleb128 0x1
 5828 05a3 AF04     		.uleb128 .LEHB280-.LFB1203
 5829 05a5 42       		.uleb128 .LEHE280-.LEHB280
 5830 05a6 AF09     		.uleb128 .L451-.LFB1203
 5831 05a8 01       		.uleb128 0x1
 5832 05a9 F104     		.uleb128 .LEHB281-.LFB1203
 5833 05ab 42       		.uleb128 .LEHE281-.LEHB281
 5834 05ac A309     		.uleb128 .L453-.LFB1203
 5835 05ae 01       		.uleb128 0x1
 5836 05af B305     		.uleb128 .LEHB282-.LFB1203
 5837 05b1 42       		.uleb128 .LEHE282-.LEHB282
 5838 05b2 9709     		.uleb128 .L455-.LFB1203
 5839 05b4 01       		.uleb128 0x1
 5840 05b5 F505     		.uleb128 .LEHB283-.LFB1203
 5841 05b7 42       		.uleb128 .LEHE283-.LEHB283
 5842 05b8 8B09     		.uleb128 .L457-.LFB1203
 5843 05ba 01       		.uleb128 0x1
 5844 05bb B706     		.uleb128 .LEHB284-.LFB1203
 5845 05bd 42       		.uleb128 .LEHE284-.LEHB284
 5846 05be FF08     		.uleb128 .L459-.LFB1203
 5847 05c0 01       		.uleb128 0x1
 5848 05c1 F906     		.uleb128 .LEHB285-.LFB1203
 5849 05c3 42       		.uleb128 .LEHE285-.LEHB285
 5850 05c4 F308     		.uleb128 .L461-.LFB1203
 5851 05c6 01       		.uleb128 0x1
 5852 05c7 BB07     		.uleb128 .LEHB286-.LFB1203
 5853 05c9 42       		.uleb128 .LEHE286-.LEHB286
 5854 05ca E708     		.uleb128 .L463-.LFB1203
 5855 05cc 01       		.uleb128 0x1
 5856 05cd FD07     		.uleb128 .LEHB287-.LFB1203
 5857 05cf 42       		.uleb128 .LEHE287-.LEHB287
 5858 05d0 DB08     		.uleb128 .L465-.LFB1203
 5859 05d2 01       		.uleb128 0x1
 5860              	.LLSDACSE1203:
 5861 05d3 01       		.byte	0x1
 5862 05d4 00       		.byte	0
 5863 05d5 000000   		.align 4
 5864 05d8 00000000 		.long	0
 5865              	
 5866              	.LLSDATT1203:
 5867              		.text
 5868              		.cfi_endproc
 5869              		.section	.text.unlikely
 5870              		.cfi_startproc
 5871              		.cfi_personality 0x9b,DW.ref.__gxx_personality_v0
 5872              		.cfi_lsda 0x1b,.LLSDAC1203
 5874              	_ZNK30TestConv_testGetHexUpperNibble7RunImplEv.cold:
 5875              	.LFSB1203:
 5876              	.L431:
 5877              		.cfi_def_cfa_offset 96
 5878              		.cfi_offset 3, -24
 5879              		.cfi_offset 6, -16
 5880 1106 E8000000 		call	__cxa_begin_catch@PLT
 5880      00
 5881              	.LEHB288:
 5882 110b E8000000 		call	_ZN8UnitTest11CurrentTest7ResultsEv@PLT
 5882      00
 5883 1110 488B28   		movq	(%rax), %rbp
 5884 1113 E8000000 		call	_ZN8UnitTest11CurrentTest7DetailsEv@PLT
 5884      00
 5885 1118 488B30   		movq	(%rax), %rsi
 5886 111b BA7F0000 		movl	$127, %edx
 5886      00
 5887 1120 4889DF   		movq	%rbx, %rdi
 5888 1123 E8000000 		call	_ZN8UnitTest11TestDetailsC1ERKS0_i@PLT
 5888      00
 5889 1128 488D1500 		leaq	.LC48(%rip), %rdx
 5889      000000
 5890 112f 4889DE   		movq	%rbx, %rsi
 5891 1132 4889EF   		movq	%rbp, %rdi
 5892 1135 E8000000 		call	_ZN8UnitTest11TestResults13OnTestFailureERKNS_11TestDetailsEPKc@PLT
 5892      00
 5893              	.LEHE288:
 5894 113a 488B4424 		movq	56(%rsp), %rax
 5894      38
 5895 113f 64482B04 		subq	%fs:40, %rax
 5895      25280000 
 5895      00
 5896 1148 7549     		jne	.L470
 5897 114a 4883C448 		addq	$72, %rsp
 5898              		.cfi_remember_state
 5899              		.cfi_def_cfa_offset 24
 5900 114e 5B       		popq	%rbx
 5901              		.cfi_def_cfa_offset 16
 5902 114f 5D       		popq	%rbp
 5903              		.cfi_def_cfa_offset 8
 5904              	.LEHB289:
 5905 1150 E9000000 		jmp	__cxa_end_catch@PLT
 5905      00
 5906              	.LEHE289:
 5907              	.L428:
 5908              		.cfi_restore_state
 5909 1155 E8000000 		call	__cxa_begin_catch@PLT
 5909      00
 5910              	.LEHB290:
 5911 115a E8000000 		call	_ZN8UnitTest11CurrentTest7ResultsEv@PLT
 5911      00
 5912 115f 488B28   		movq	(%rax), %rbp
 5913 1162 E8000000 		call	_ZN8UnitTest11CurrentTest7DetailsEv@PLT
 5913      00
 5914 1167 488B30   		movq	(%rax), %rsi
 5915 116a BA7E0000 		movl	$126, %edx
 5915      00
 5916 116f 4889DF   		movq	%rbx, %rdi
 5917 1172 E8000000 		call	_ZN8UnitTest11TestDetailsC1ERKS0_i@PLT
 5917      00
 5918 1177 488D1500 		leaq	.LC47(%rip), %rdx
 5918      000000
 5919 117e 4889DE   		movq	%rbx, %rsi
 5920 1181 4889EF   		movq	%rbp, %rdi
 5921 1184 E8000000 		call	_ZN8UnitTest11TestResults13OnTestFailureERKNS_11TestDetailsEPKc@PLT
 5921      00
 5922              	.LEHE290:
 5923              	.LEHB291:
 5924 1189 E8000000 		call	__cxa_end_catch@PLT
 5924      00
 5925              	.LEHE291:
 5926 118e E9000000 		jmp	.L429
 5926      00
 5927              	.L470:
 5928 1193 E8000000 		call	__stack_chk_fail@PLT
 5928      00
 5929              	.L464:
 5930 1198 F30F1EFA 		endbr64
 5931 119c 4889C3   		movq	%rax, %rbx
 5932 119f E8000000 		call	__cxa_end_catch@PLT
 5932      00
 5933 11a4 4889DF   		movq	%rbx, %rdi
 5934              	.LEHB292:
 5935 11a7 E8000000 		call	_Unwind_Resume@PLT
 5935      00
 5936              	.LEHE292:
 5937              	.L466:
 5938 11ac F30F1EFA 		endbr64
 5939 11b0 4889C3   		movq	%rax, %rbx
 5940 11b3 E8000000 		call	__cxa_end_catch@PLT
 5940      00
 5941 11b8 4889DF   		movq	%rbx, %rdi
 5942              	.LEHB293:
 5943 11bb E8000000 		call	_Unwind_Resume@PLT
 5943      00
 5944              	.LEHE293:
 5945              	.L425:
 5946 11c0 E8000000 		call	__cxa_begin_catch@PLT
 5946      00
 5947              	.LEHB294:
 5948 11c5 E8000000 		call	_ZN8UnitTest11CurrentTest7ResultsEv@PLT
 5948      00
 5949 11ca 488B28   		movq	(%rax), %rbp
 5950 11cd E8000000 		call	_ZN8UnitTest11CurrentTest7DetailsEv@PLT
 5950      00
 5951 11d2 488B30   		movq	(%rax), %rsi
 5952 11d5 BA7D0000 		movl	$125, %edx
 5952      00
 5953 11da 4889DF   		movq	%rbx, %rdi
 5954 11dd E8000000 		call	_ZN8UnitTest11TestDetailsC1ERKS0_i@PLT
 5954      00
 5955 11e2 488D1500 		leaq	.LC46(%rip), %rdx
 5955      000000
 5956 11e9 4889DE   		movq	%rbx, %rsi
 5957 11ec 4889EF   		movq	%rbp, %rdi
 5958 11ef E8000000 		call	_ZN8UnitTest11TestResults13OnTestFailureERKNS_11TestDetailsEPKc@PLT
 5958      00
 5959              	.LEHE294:
 5960              	.LEHB295:
 5961 11f4 E8000000 		call	__cxa_end_catch@PLT
 5961      00
 5962              	.LEHE295:
 5963 11f9 E9000000 		jmp	.L426
 5963      00
 5964              	.L422:
 5965 11fe E8000000 		call	__cxa_begin_catch@PLT
 5965      00
 5966              	.LEHB296:
 5967 1203 E8000000 		call	_ZN8UnitTest11CurrentTest7ResultsEv@PLT
 5967      00
 5968 1208 488B28   		movq	(%rax), %rbp
 5969 120b E8000000 		call	_ZN8UnitTest11CurrentTest7DetailsEv@PLT
 5969      00
 5970 1210 488B30   		movq	(%rax), %rsi
 5971 1213 BA7C0000 		movl	$124, %edx
 5971      00
 5972 1218 4889DF   		movq	%rbx, %rdi
 5973 121b E8000000 		call	_ZN8UnitTest11TestDetailsC1ERKS0_i@PLT
 5973      00
 5974 1220 488D1500 		leaq	.LC45(%rip), %rdx
 5974      000000
 5975 1227 4889DE   		movq	%rbx, %rsi
 5976 122a 4889EF   		movq	%rbp, %rdi
 5977 122d E8000000 		call	_ZN8UnitTest11TestResults13OnTestFailureERKNS_11TestDetailsEPKc@PLT
 5977      00
 5978              	.LEHE296:
 5979              	.LEHB297:
 5980 1232 E8000000 		call	__cxa_end_catch@PLT
 5980      00
 5981              	.LEHE297:
 5982 1237 E9000000 		jmp	.L423
 5982      00
 5983              	.L462:
 5984 123c F30F1EFA 		endbr64
 5985 1240 4889C3   		movq	%rax, %rbx
 5986 1243 E8000000 		call	__cxa_end_catch@PLT
 5986      00
 5987 1248 4889DF   		movq	%rbx, %rdi
 5988              	.LEHB298:
 5989 124b E8000000 		call	_Unwind_Resume@PLT
 5989      00
 5990              	.LEHE298:
 5991              	.L460:
 5992 1250 F30F1EFA 		endbr64
 5993 1254 4889C3   		movq	%rax, %rbx
 5994 1257 E8000000 		call	__cxa_end_catch@PLT
 5994      00
 5995 125c 4889DF   		movq	%rbx, %rdi
 5996              	.LEHB299:
 5997 125f E8000000 		call	_Unwind_Resume@PLT
 5997      00
 5998              	.LEHE299:
 5999              	.L419:
 6000 1264 E8000000 		call	__cxa_begin_catch@PLT
 6000      00
 6001              	.LEHB300:
 6002 1269 E8000000 		call	_ZN8UnitTest11CurrentTest7ResultsEv@PLT
 6002      00
 6003 126e 488B28   		movq	(%rax), %rbp
 6004 1271 E8000000 		call	_ZN8UnitTest11CurrentTest7DetailsEv@PLT
 6004      00
 6005 1276 488B30   		movq	(%rax), %rsi
 6006 1279 BA7B0000 		movl	$123, %edx
 6006      00
 6007 127e 4889DF   		movq	%rbx, %rdi
 6008 1281 E8000000 		call	_ZN8UnitTest11TestDetailsC1ERKS0_i@PLT
 6008      00
 6009 1286 488D1500 		leaq	.LC44(%rip), %rdx
 6009      000000
 6010 128d 4889DE   		movq	%rbx, %rsi
 6011 1290 4889EF   		movq	%rbp, %rdi
 6012 1293 E8000000 		call	_ZN8UnitTest11TestResults13OnTestFailureERKNS_11TestDetailsEPKc@PLT
 6012      00
 6013              	.LEHE300:
 6014              	.LEHB301:
 6015 1298 E8000000 		call	__cxa_end_catch@PLT
 6015      00
 6016              	.LEHE301:
 6017 129d E9000000 		jmp	.L420
 6017      00
 6018              	.L416:
 6019 12a2 E8000000 		call	__cxa_begin_catch@PLT
 6019      00
 6020              	.LEHB302:
 6021 12a7 E8000000 		call	_ZN8UnitTest11CurrentTest7ResultsEv@PLT
 6021      00
 6022 12ac 488B28   		movq	(%rax), %rbp
 6023 12af E8000000 		call	_ZN8UnitTest11CurrentTest7DetailsEv@PLT
 6023      00
 6024 12b4 488B30   		movq	(%rax), %rsi
 6025 12b7 BA7A0000 		movl	$122, %edx
 6025      00
 6026 12bc 4889DF   		movq	%rbx, %rdi
 6027 12bf E8000000 		call	_ZN8UnitTest11TestDetailsC1ERKS0_i@PLT
 6027      00
 6028 12c4 488D1500 		leaq	.LC43(%rip), %rdx
 6028      000000
 6029 12cb 4889DE   		movq	%rbx, %rsi
 6030 12ce 4889EF   		movq	%rbp, %rdi
 6031 12d1 E8000000 		call	_ZN8UnitTest11TestResults13OnTestFailureERKNS_11TestDetailsEPKc@PLT
 6031      00
 6032              	.LEHE302:
 6033              	.LEHB303:
 6034 12d6 E8000000 		call	__cxa_end_catch@PLT
 6034      00
 6035              	.LEHE303:
 6036 12db E9000000 		jmp	.L417
 6036      00
 6037              	.L458:
 6038 12e0 F30F1EFA 		endbr64
 6039 12e4 4889C3   		movq	%rax, %rbx
 6040 12e7 E8000000 		call	__cxa_end_catch@PLT
 6040      00
 6041 12ec 4889DF   		movq	%rbx, %rdi
 6042              	.LEHB304:
 6043 12ef E8000000 		call	_Unwind_Resume@PLT
 6043      00
 6044              	.LEHE304:
 6045              	.L456:
 6046 12f4 F30F1EFA 		endbr64
 6047 12f8 4889C3   		movq	%rax, %rbx
 6048 12fb E8000000 		call	__cxa_end_catch@PLT
 6048      00
 6049 1300 4889DF   		movq	%rbx, %rdi
 6050              	.LEHB305:
 6051 1303 E8000000 		call	_Unwind_Resume@PLT
 6051      00
 6052              	.LEHE305:
 6053              	.L413:
 6054 1308 E8000000 		call	__cxa_begin_catch@PLT
 6054      00
 6055              	.LEHB306:
 6056 130d E8000000 		call	_ZN8UnitTest11CurrentTest7ResultsEv@PLT
 6056      00
 6057 1312 488B28   		movq	(%rax), %rbp
 6058 1315 E8000000 		call	_ZN8UnitTest11CurrentTest7DetailsEv@PLT
 6058      00
 6059 131a 488B30   		movq	(%rax), %rsi
 6060 131d BA790000 		movl	$121, %edx
 6060      00
 6061 1322 4889DF   		movq	%rbx, %rdi
 6062 1325 E8000000 		call	_ZN8UnitTest11TestDetailsC1ERKS0_i@PLT
 6062      00
 6063 132a 488D1500 		leaq	.LC42(%rip), %rdx
 6063      000000
 6064 1331 4889DE   		movq	%rbx, %rsi
 6065 1334 4889EF   		movq	%rbp, %rdi
 6066 1337 E8000000 		call	_ZN8UnitTest11TestResults13OnTestFailureERKNS_11TestDetailsEPKc@PLT
 6066      00
 6067              	.LEHE306:
 6068              	.LEHB307:
 6069 133c E8000000 		call	__cxa_end_catch@PLT
 6069      00
 6070              	.LEHE307:
 6071 1341 E9000000 		jmp	.L414
 6071      00
 6072              	.L410:
 6073 1346 E8000000 		call	__cxa_begin_catch@PLT
 6073      00
 6074              	.LEHB308:
 6075 134b E8000000 		call	_ZN8UnitTest11CurrentTest7ResultsEv@PLT
 6075      00
 6076 1350 488B28   		movq	(%rax), %rbp
 6077 1353 E8000000 		call	_ZN8UnitTest11CurrentTest7DetailsEv@PLT
 6077      00
 6078 1358 488B30   		movq	(%rax), %rsi
 6079 135b BA780000 		movl	$120, %edx
 6079      00
 6080 1360 4889DF   		movq	%rbx, %rdi
 6081 1363 E8000000 		call	_ZN8UnitTest11TestDetailsC1ERKS0_i@PLT
 6081      00
 6082 1368 488D1500 		leaq	.LC41(%rip), %rdx
 6082      000000
 6083 136f 4889DE   		movq	%rbx, %rsi
 6084 1372 4889EF   		movq	%rbp, %rdi
 6085 1375 E8000000 		call	_ZN8UnitTest11TestResults13OnTestFailureERKNS_11TestDetailsEPKc@PLT
 6085      00
 6086              	.LEHE308:
 6087              	.LEHB309:
 6088 137a E8000000 		call	__cxa_end_catch@PLT
 6088      00
 6089              	.LEHE309:
 6090 137f E9000000 		jmp	.L411
 6090      00
 6091              	.L454:
 6092 1384 F30F1EFA 		endbr64
 6093 1388 4889C3   		movq	%rax, %rbx
 6094 138b E8000000 		call	__cxa_end_catch@PLT
 6094      00
 6095 1390 4889DF   		movq	%rbx, %rdi
 6096              	.LEHB310:
 6097 1393 E8000000 		call	_Unwind_Resume@PLT
 6097      00
 6098              	.LEHE310:
 6099              	.L452:
 6100 1398 F30F1EFA 		endbr64
 6101 139c 4889C3   		movq	%rax, %rbx
 6102 139f E8000000 		call	__cxa_end_catch@PLT
 6102      00
 6103 13a4 4889DF   		movq	%rbx, %rdi
 6104              	.LEHB311:
 6105 13a7 E8000000 		call	_Unwind_Resume@PLT
 6105      00
 6106              	.LEHE311:
 6107              	.L407:
 6108 13ac E8000000 		call	__cxa_begin_catch@PLT
 6108      00
 6109              	.LEHB312:
 6110 13b1 E8000000 		call	_ZN8UnitTest11CurrentTest7ResultsEv@PLT
 6110      00
 6111 13b6 488B28   		movq	(%rax), %rbp
 6112 13b9 E8000000 		call	_ZN8UnitTest11CurrentTest7DetailsEv@PLT
 6112      00
 6113 13be 488B30   		movq	(%rax), %rsi
 6114 13c1 BA770000 		movl	$119, %edx
 6114      00
 6115 13c6 4889DF   		movq	%rbx, %rdi
 6116 13c9 E8000000 		call	_ZN8UnitTest11TestDetailsC1ERKS0_i@PLT
 6116      00
 6117 13ce 488D1500 		leaq	.LC40(%rip), %rdx
 6117      000000
 6118 13d5 4889DE   		movq	%rbx, %rsi
 6119 13d8 4889EF   		movq	%rbp, %rdi
 6120 13db E8000000 		call	_ZN8UnitTest11TestResults13OnTestFailureERKNS_11TestDetailsEPKc@PLT
 6120      00
 6121              	.LEHE312:
 6122              	.LEHB313:
 6123 13e0 E8000000 		call	__cxa_end_catch@PLT
 6123      00
 6124              	.LEHE313:
 6125 13e5 E9000000 		jmp	.L408
 6125      00
 6126              	.L404:
 6127 13ea E8000000 		call	__cxa_begin_catch@PLT
 6127      00
 6128              	.LEHB314:
 6129 13ef E8000000 		call	_ZN8UnitTest11CurrentTest7ResultsEv@PLT
 6129      00
 6130 13f4 488B28   		movq	(%rax), %rbp
 6131 13f7 E8000000 		call	_ZN8UnitTest11CurrentTest7DetailsEv@PLT
 6131      00
 6132 13fc 488B30   		movq	(%rax), %rsi
 6133 13ff BA760000 		movl	$118, %edx
 6133      00
 6134 1404 4889DF   		movq	%rbx, %rdi
 6135 1407 E8000000 		call	_ZN8UnitTest11TestDetailsC1ERKS0_i@PLT
 6135      00
 6136 140c 488D1500 		leaq	.LC39(%rip), %rdx
 6136      000000
 6137 1413 4889DE   		movq	%rbx, %rsi
 6138 1416 4889EF   		movq	%rbp, %rdi
 6139 1419 E8000000 		call	_ZN8UnitTest11TestResults13OnTestFailureERKNS_11TestDetailsEPKc@PLT
 6139      00
 6140              	.LEHE314:
 6141              	.LEHB315:
 6142 141e E8000000 		call	__cxa_end_catch@PLT
 6142      00
 6143              	.LEHE315:
 6144 1423 E9000000 		jmp	.L405
 6144      00
 6145              	.L450:
 6146 1428 F30F1EFA 		endbr64
 6147 142c 4889C3   		movq	%rax, %rbx
 6148 142f E8000000 		call	__cxa_end_catch@PLT
 6148      00
 6149 1434 4889DF   		movq	%rbx, %rdi
 6150              	.LEHB316:
 6151 1437 E8000000 		call	_Unwind_Resume@PLT
 6151      00
 6152              	.LEHE316:
 6153              	.L448:
 6154 143c F30F1EFA 		endbr64
 6155 1440 4889C3   		movq	%rax, %rbx
 6156 1443 E8000000 		call	__cxa_end_catch@PLT
 6156      00
 6157 1448 4889DF   		movq	%rbx, %rdi
 6158              	.LEHB317:
 6159 144b E8000000 		call	_Unwind_Resume@PLT
 6159      00
 6160              	.LEHE317:
 6161              	.L401:
 6162 1450 E8000000 		call	__cxa_begin_catch@PLT
 6162      00
 6163              	.LEHB318:
 6164 1455 E8000000 		call	_ZN8UnitTest11CurrentTest7ResultsEv@PLT
 6164      00
 6165 145a 488B28   		movq	(%rax), %rbp
 6166 145d E8000000 		call	_ZN8UnitTest11CurrentTest7DetailsEv@PLT
 6166      00
 6167 1462 488B30   		movq	(%rax), %rsi
 6168 1465 BA750000 		movl	$117, %edx
 6168      00
 6169 146a 4889DF   		movq	%rbx, %rdi
 6170 146d E8000000 		call	_ZN8UnitTest11TestDetailsC1ERKS0_i@PLT
 6170      00
 6171 1472 488D1500 		leaq	.LC38(%rip), %rdx
 6171      000000
 6172 1479 4889DE   		movq	%rbx, %rsi
 6173 147c 4889EF   		movq	%rbp, %rdi
 6174 147f E8000000 		call	_ZN8UnitTest11TestResults13OnTestFailureERKNS_11TestDetailsEPKc@PLT
 6174      00
 6175              	.LEHE318:
 6176              	.LEHB319:
 6177 1484 E8000000 		call	__cxa_end_catch@PLT
 6177      00
 6178              	.LEHE319:
 6179 1489 E9000000 		jmp	.L402
 6179      00
 6180              	.L398:
 6181 148e E8000000 		call	__cxa_begin_catch@PLT
 6181      00
 6182              	.LEHB320:
 6183 1493 E8000000 		call	_ZN8UnitTest11CurrentTest7ResultsEv@PLT
 6183      00
 6184 1498 488B28   		movq	(%rax), %rbp
 6185 149b E8000000 		call	_ZN8UnitTest11CurrentTest7DetailsEv@PLT
 6185      00
 6186 14a0 488B30   		movq	(%rax), %rsi
 6187 14a3 BA740000 		movl	$116, %edx
 6187      00
 6188 14a8 4889DF   		movq	%rbx, %rdi
 6189 14ab E8000000 		call	_ZN8UnitTest11TestDetailsC1ERKS0_i@PLT
 6189      00
 6190 14b0 488D1500 		leaq	.LC37(%rip), %rdx
 6190      000000
 6191 14b7 4889DE   		movq	%rbx, %rsi
 6192 14ba 4889EF   		movq	%rbp, %rdi
 6193 14bd E8000000 		call	_ZN8UnitTest11TestResults13OnTestFailureERKNS_11TestDetailsEPKc@PLT
 6193      00
 6194              	.LEHE320:
 6195              	.LEHB321:
 6196 14c2 E8000000 		call	__cxa_end_catch@PLT
 6196      00
 6197              	.LEHE321:
 6198 14c7 E9000000 		jmp	.L399
 6198      00
 6199              	.L446:
 6200 14cc F30F1EFA 		endbr64
 6201 14d0 4889C3   		movq	%rax, %rbx
 6202 14d3 E8000000 		call	__cxa_end_catch@PLT
 6202      00
 6203 14d8 4889DF   		movq	%rbx, %rdi
 6204              	.LEHB322:
 6205 14db E8000000 		call	_Unwind_Resume@PLT
 6205      00
 6206              	.LEHE322:
 6207              	.L444:
 6208 14e0 F30F1EFA 		endbr64
 6209 14e4 4889C3   		movq	%rax, %rbx
 6210 14e7 E8000000 		call	__cxa_end_catch@PLT
 6210      00
 6211 14ec 4889DF   		movq	%rbx, %rdi
 6212              	.LEHB323:
 6213 14ef E8000000 		call	_Unwind_Resume@PLT
 6213      00
 6214              	.LEHE323:
 6215              	.L395:
 6216 14f4 E8000000 		call	__cxa_begin_catch@PLT
 6216      00
 6217              	.LEHB324:
 6218 14f9 E8000000 		call	_ZN8UnitTest11CurrentTest7ResultsEv@PLT
 6218      00
 6219 14fe 488B28   		movq	(%rax), %rbp
 6220 1501 E8000000 		call	_ZN8UnitTest11CurrentTest7DetailsEv@PLT
 6220      00
 6221 1506 488B30   		movq	(%rax), %rsi
 6222 1509 BA730000 		movl	$115, %edx
 6222      00
 6223 150e 4889DF   		movq	%rbx, %rdi
 6224 1511 E8000000 		call	_ZN8UnitTest11TestDetailsC1ERKS0_i@PLT
 6224      00
 6225 1516 488D1500 		leaq	.LC36(%rip), %rdx
 6225      000000
 6226 151d 4889DE   		movq	%rbx, %rsi
 6227 1520 4889EF   		movq	%rbp, %rdi
 6228 1523 E8000000 		call	_ZN8UnitTest11TestResults13OnTestFailureERKNS_11TestDetailsEPKc@PLT
 6228      00
 6229              	.LEHE324:
 6230              	.LEHB325:
 6231 1528 E8000000 		call	__cxa_end_catch@PLT
 6231      00
 6232              	.LEHE325:
 6233 152d E9000000 		jmp	.L396
 6233      00
 6234              	.L392:
 6235 1532 E8000000 		call	__cxa_begin_catch@PLT
 6235      00
 6236              	.LEHB326:
 6237 1537 E8000000 		call	_ZN8UnitTest11CurrentTest7ResultsEv@PLT
 6237      00
 6238 153c 488B28   		movq	(%rax), %rbp
 6239 153f E8000000 		call	_ZN8UnitTest11CurrentTest7DetailsEv@PLT
 6239      00
 6240 1544 488B30   		movq	(%rax), %rsi
 6241 1547 BA720000 		movl	$114, %edx
 6241      00
 6242 154c 4889DF   		movq	%rbx, %rdi
 6243 154f E8000000 		call	_ZN8UnitTest11TestDetailsC1ERKS0_i@PLT
 6243      00
 6244 1554 488D1500 		leaq	.LC35(%rip), %rdx
 6244      000000
 6245 155b 4889DE   		movq	%rbx, %rsi
 6246 155e 4889EF   		movq	%rbp, %rdi
 6247 1561 E8000000 		call	_ZN8UnitTest11TestResults13OnTestFailureERKNS_11TestDetailsEPKc@PLT
 6247      00
 6248              	.LEHE326:
 6249              	.LEHB327:
 6250 1566 E8000000 		call	__cxa_end_catch@PLT
 6250      00
 6251              	.LEHE327:
 6252 156b E9000000 		jmp	.L393
 6252      00
 6253              	.L442:
 6254 1570 F30F1EFA 		endbr64
 6255 1574 4889C3   		movq	%rax, %rbx
 6256 1577 E8000000 		call	__cxa_end_catch@PLT
 6256      00
 6257 157c 4889DF   		movq	%rbx, %rdi
 6258              	.LEHB328:
 6259 157f E8000000 		call	_Unwind_Resume@PLT
 6259      00
 6260              	.LEHE328:
 6261              	.L440:
 6262 1584 F30F1EFA 		endbr64
 6263 1588 4889C3   		movq	%rax, %rbx
 6264 158b E8000000 		call	__cxa_end_catch@PLT
 6264      00
 6265 1590 4889DF   		movq	%rbx, %rdi
 6266              	.LEHB329:
 6267 1593 E8000000 		call	_Unwind_Resume@PLT
 6267      00
 6268              	.LEHE329:
 6269              	.L389:
 6270 1598 E8000000 		call	__cxa_begin_catch@PLT
 6270      00
 6271              	.LEHB330:
 6272 159d E8000000 		call	_ZN8UnitTest11CurrentTest7ResultsEv@PLT
 6272      00
 6273 15a2 488B28   		movq	(%rax), %rbp
 6274 15a5 E8000000 		call	_ZN8UnitTest11CurrentTest7DetailsEv@PLT
 6274      00
 6275 15aa 488B30   		movq	(%rax), %rsi
 6276 15ad BA710000 		movl	$113, %edx
 6276      00
 6277 15b2 4889DF   		movq	%rbx, %rdi
 6278 15b5 E8000000 		call	_ZN8UnitTest11TestDetailsC1ERKS0_i@PLT
 6278      00
 6279 15ba 488D1500 		leaq	.LC34(%rip), %rdx
 6279      000000
 6280 15c1 4889DE   		movq	%rbx, %rsi
 6281 15c4 4889EF   		movq	%rbp, %rdi
 6282 15c7 E8000000 		call	_ZN8UnitTest11TestResults13OnTestFailureERKNS_11TestDetailsEPKc@PLT
 6282      00
 6283              	.LEHE330:
 6284              	.LEHB331:
 6285 15cc E8000000 		call	__cxa_end_catch@PLT
 6285      00
 6286              	.LEHE331:
 6287 15d1 E9000000 		jmp	.L390
 6287      00
 6288              	.L386:
 6289 15d6 E8000000 		call	__cxa_begin_catch@PLT
 6289      00
 6290              	.LEHB332:
 6291 15db E8000000 		call	_ZN8UnitTest11CurrentTest7ResultsEv@PLT
 6291      00
 6292 15e0 488B28   		movq	(%rax), %rbp
 6293 15e3 E8000000 		call	_ZN8UnitTest11CurrentTest7DetailsEv@PLT
 6293      00
 6294 15e8 488D5C24 		leaq	16(%rsp), %rbx
 6294      10
 6295 15ed 488B30   		movq	(%rax), %rsi
 6296 15f0 BA700000 		movl	$112, %edx
 6296      00
 6297 15f5 4889DF   		movq	%rbx, %rdi
 6298 15f8 E8000000 		call	_ZN8UnitTest11TestDetailsC1ERKS0_i@PLT
 6298      00
 6299 15fd 488D1500 		leaq	.LC33(%rip), %rdx
 6299      000000
 6300 1604 4889DE   		movq	%rbx, %rsi
 6301 1607 4889EF   		movq	%rbp, %rdi
 6302 160a E8000000 		call	_ZN8UnitTest11TestResults13OnTestFailureERKNS_11TestDetailsEPKc@PLT
 6302      00
 6303              	.LEHE332:
 6304              	.LEHB333:
 6305 160f E8000000 		call	__cxa_end_catch@PLT
 6305      00
 6306              	.LEHE333:
 6307 1614 E9000000 		jmp	.L387
 6307      00
 6308              	.L438:
 6309 1619 F30F1EFA 		endbr64
 6310 161d 4889C3   		movq	%rax, %rbx
 6311 1620 E8000000 		call	__cxa_end_catch@PLT
 6311      00
 6312 1625 4889DF   		movq	%rbx, %rdi
 6313              	.LEHB334:
 6314 1628 E8000000 		call	_Unwind_Resume@PLT
 6314      00
 6315              	.LEHE334:
 6316              	.L436:
 6317 162d F30F1EFA 		endbr64
 6318 1631 4889C3   		movq	%rax, %rbx
 6319 1634 E8000000 		call	__cxa_end_catch@PLT
 6319      00
 6320 1639 4889DF   		movq	%rbx, %rdi
 6321              	.LEHB335:
 6322 163c E8000000 		call	_Unwind_Resume@PLT
 6322      00
 6323              	.LEHE335:
 6324              		.cfi_endproc
 6325              	.LFE1203:
 6326              		.section	.gcc_except_table
 6327              		.align 4
 6328              	.LLSDAC1203:
 6329 05dc FF       		.byte	0xff
 6330 05dd 9B       		.byte	0x9b
 6331 05de 8802     		.uleb128 .LLSDATTC1203-.LLSDATTDC1203
 6332              	.LLSDATTDC1203:
 6333 05e0 01       		.byte	0x1
 6334 05e1 FD01     		.uleb128 .LLSDACSEC1203-.LLSDACSBC1203
 6335              	.LLSDACSBC1203:
 6336 05e3 05       		.uleb128 .LEHB288-.LCOLDB49
 6337 05e4 2F       		.uleb128 .LEHE288-.LEHB288
 6338 05e5 A601     		.uleb128 .L466-.LCOLDB49
 6339 05e7 00       		.uleb128 0
 6340 05e8 4A       		.uleb128 .LEHB289-.LCOLDB49
 6341 05e9 05       		.uleb128 .LEHE289-.LEHB289
 6342 05ea 00       		.uleb128 0
 6343 05eb 00       		.uleb128 0
 6344 05ec 54       		.uleb128 .LEHB290-.LCOLDB49
 6345 05ed 2F       		.uleb128 .LEHE290-.LEHB290
 6346 05ee 9201     		.uleb128 .L464-.LCOLDB49
 6347 05f0 00       		.uleb128 0
 6348 05f1 8301     		.uleb128 .LEHB291-.LCOLDB49
 6349 05f3 05       		.uleb128 .LEHE291-.LEHB291
 6350 05f4 00       		.uleb128 0
 6351 05f5 00       		.uleb128 0
 6352 05f6 A101     		.uleb128 .LEHB292-.LCOLDB49
 6353 05f8 05       		.uleb128 .LEHE292-.LEHB292
 6354 05f9 00       		.uleb128 0
 6355 05fa 00       		.uleb128 0
 6356 05fb B501     		.uleb128 .LEHB293-.LCOLDB49
 6357 05fd 05       		.uleb128 .LEHE293-.LEHB293
 6358 05fe 00       		.uleb128 0
 6359 05ff 00       		.uleb128 0
 6360 0600 BF01     		.uleb128 .LEHB294-.LCOLDB49
 6361 0602 2F       		.uleb128 .LEHE294-.LEHB294
 6362 0603 B602     		.uleb128 .L462-.LCOLDB49
 6363 0605 00       		.uleb128 0
 6364 0606 EE01     		.uleb128 .LEHB295-.LCOLDB49
 6365 0608 05       		.uleb128 .LEHE295-.LEHB295
 6366 0609 00       		.uleb128 0
 6367 060a 00       		.uleb128 0
 6368 060b FD01     		.uleb128 .LEHB296-.LCOLDB49
 6369 060d 2F       		.uleb128 .LEHE296-.LEHB296
 6370 060e CA02     		.uleb128 .L460-.LCOLDB49
 6371 0610 00       		.uleb128 0
 6372 0611 AC02     		.uleb128 .LEHB297-.LCOLDB49
 6373 0613 05       		.uleb128 .LEHE297-.LEHB297
 6374 0614 00       		.uleb128 0
 6375 0615 00       		.uleb128 0
 6376 0616 C502     		.uleb128 .LEHB298-.LCOLDB49
 6377 0618 05       		.uleb128 .LEHE298-.LEHB298
 6378 0619 00       		.uleb128 0
 6379 061a 00       		.uleb128 0
 6380 061b D902     		.uleb128 .LEHB299-.LCOLDB49
 6381 061d 05       		.uleb128 .LEHE299-.LEHB299
 6382 061e 00       		.uleb128 0
 6383 061f 00       		.uleb128 0
 6384 0620 E302     		.uleb128 .LEHB300-.LCOLDB49
 6385 0622 2F       		.uleb128 .LEHE300-.LEHB300
 6386 0623 DA03     		.uleb128 .L458-.LCOLDB49
 6387 0625 00       		.uleb128 0
 6388 0626 9203     		.uleb128 .LEHB301-.LCOLDB49
 6389 0628 05       		.uleb128 .LEHE301-.LEHB301
 6390 0629 00       		.uleb128 0
 6391 062a 00       		.uleb128 0
 6392 062b A103     		.uleb128 .LEHB302-.LCOLDB49
 6393 062d 2F       		.uleb128 .LEHE302-.LEHB302
 6394 062e EE03     		.uleb128 .L456-.LCOLDB49
 6395 0630 00       		.uleb128 0
 6396 0631 D003     		.uleb128 .LEHB303-.LCOLDB49
 6397 0633 05       		.uleb128 .LEHE303-.LEHB303
 6398 0634 00       		.uleb128 0
 6399 0635 00       		.uleb128 0
 6400 0636 E903     		.uleb128 .LEHB304-.LCOLDB49
 6401 0638 05       		.uleb128 .LEHE304-.LEHB304
 6402 0639 00       		.uleb128 0
 6403 063a 00       		.uleb128 0
 6404 063b FD03     		.uleb128 .LEHB305-.LCOLDB49
 6405 063d 05       		.uleb128 .LEHE305-.LEHB305
 6406 063e 00       		.uleb128 0
 6407 063f 00       		.uleb128 0
 6408 0640 8704     		.uleb128 .LEHB306-.LCOLDB49
 6409 0642 2F       		.uleb128 .LEHE306-.LEHB306
 6410 0643 FE04     		.uleb128 .L454-.LCOLDB49
 6411 0645 00       		.uleb128 0
 6412 0646 B604     		.uleb128 .LEHB307-.LCOLDB49
 6413 0648 05       		.uleb128 .LEHE307-.LEHB307
 6414 0649 00       		.uleb128 0
 6415 064a 00       		.uleb128 0
 6416 064b C504     		.uleb128 .LEHB308-.LCOLDB49
 6417 064d 2F       		.uleb128 .LEHE308-.LEHB308
 6418 064e 9205     		.uleb128 .L452-.LCOLDB49
 6419 0650 00       		.uleb128 0
 6420 0651 F404     		.uleb128 .LEHB309-.LCOLDB49
 6421 0653 05       		.uleb128 .LEHE309-.LEHB309
 6422 0654 00       		.uleb128 0
 6423 0655 00       		.uleb128 0
 6424 0656 8D05     		.uleb128 .LEHB310-.LCOLDB49
 6425 0658 05       		.uleb128 .LEHE310-.LEHB310
 6426 0659 00       		.uleb128 0
 6427 065a 00       		.uleb128 0
 6428 065b A105     		.uleb128 .LEHB311-.LCOLDB49
 6429 065d 05       		.uleb128 .LEHE311-.LEHB311
 6430 065e 00       		.uleb128 0
 6431 065f 00       		.uleb128 0
 6432 0660 AB05     		.uleb128 .LEHB312-.LCOLDB49
 6433 0662 2F       		.uleb128 .LEHE312-.LEHB312
 6434 0663 A206     		.uleb128 .L450-.LCOLDB49
 6435 0665 00       		.uleb128 0
 6436 0666 DA05     		.uleb128 .LEHB313-.LCOLDB49
 6437 0668 05       		.uleb128 .LEHE313-.LEHB313
 6438 0669 00       		.uleb128 0
 6439 066a 00       		.uleb128 0
 6440 066b E905     		.uleb128 .LEHB314-.LCOLDB49
 6441 066d 2F       		.uleb128 .LEHE314-.LEHB314
 6442 066e B606     		.uleb128 .L448-.LCOLDB49
 6443 0670 00       		.uleb128 0
 6444 0671 9806     		.uleb128 .LEHB315-.LCOLDB49
 6445 0673 05       		.uleb128 .LEHE315-.LEHB315
 6446 0674 00       		.uleb128 0
 6447 0675 00       		.uleb128 0
 6448 0676 B106     		.uleb128 .LEHB316-.LCOLDB49
 6449 0678 05       		.uleb128 .LEHE316-.LEHB316
 6450 0679 00       		.uleb128 0
 6451 067a 00       		.uleb128 0
 6452 067b C506     		.uleb128 .LEHB317-.LCOLDB49
 6453 067d 05       		.uleb128 .LEHE317-.LEHB317
 6454 067e 00       		.uleb128 0
 6455 067f 00       		.uleb128 0
 6456 0680 CF06     		.uleb128 .LEHB318-.LCOLDB49
 6457 0682 2F       		.uleb128 .LEHE318-.LEHB318
 6458 0683 C607     		.uleb128 .L446-.LCOLDB49
 6459 0685 00       		.uleb128 0
 6460 0686 FE06     		.uleb128 .LEHB319-.LCOLDB49
 6461 0688 05       		.uleb128 .LEHE319-.LEHB319
 6462 0689 00       		.uleb128 0
 6463 068a 00       		.uleb128 0
 6464 068b 8D07     		.uleb128 .LEHB320-.LCOLDB49
 6465 068d 2F       		.uleb128 .LEHE320-.LEHB320
 6466 068e DA07     		.uleb128 .L444-.LCOLDB49
 6467 0690 00       		.uleb128 0
 6468 0691 BC07     		.uleb128 .LEHB321-.LCOLDB49
 6469 0693 05       		.uleb128 .LEHE321-.LEHB321
 6470 0694 00       		.uleb128 0
 6471 0695 00       		.uleb128 0
 6472 0696 D507     		.uleb128 .LEHB322-.LCOLDB49
 6473 0698 05       		.uleb128 .LEHE322-.LEHB322
 6474 0699 00       		.uleb128 0
 6475 069a 00       		.uleb128 0
 6476 069b E907     		.uleb128 .LEHB323-.LCOLDB49
 6477 069d 05       		.uleb128 .LEHE323-.LEHB323
 6478 069e 00       		.uleb128 0
 6479 069f 00       		.uleb128 0
 6480 06a0 F307     		.uleb128 .LEHB324-.LCOLDB49
 6481 06a2 2F       		.uleb128 .LEHE324-.LEHB324
 6482 06a3 EA08     		.uleb128 .L442-.LCOLDB49
 6483 06a5 00       		.uleb128 0
 6484 06a6 A208     		.uleb128 .LEHB325-.LCOLDB49
 6485 06a8 05       		.uleb128 .LEHE325-.LEHB325
 6486 06a9 00       		.uleb128 0
 6487 06aa 00       		.uleb128 0
 6488 06ab B108     		.uleb128 .LEHB326-.LCOLDB49
 6489 06ad 2F       		.uleb128 .LEHE326-.LEHB326
 6490 06ae FE08     		.uleb128 .L440-.LCOLDB49
 6491 06b0 00       		.uleb128 0
 6492 06b1 E008     		.uleb128 .LEHB327-.LCOLDB49
 6493 06b3 05       		.uleb128 .LEHE327-.LEHB327
 6494 06b4 00       		.uleb128 0
 6495 06b5 00       		.uleb128 0
 6496 06b6 F908     		.uleb128 .LEHB328-.LCOLDB49
 6497 06b8 05       		.uleb128 .LEHE328-.LEHB328
 6498 06b9 00       		.uleb128 0
 6499 06ba 00       		.uleb128 0
 6500 06bb 8D09     		.uleb128 .LEHB329-.LCOLDB49
 6501 06bd 05       		.uleb128 .LEHE329-.LEHB329
 6502 06be 00       		.uleb128 0
 6503 06bf 00       		.uleb128 0
 6504 06c0 9709     		.uleb128 .LEHB330-.LCOLDB49
 6505 06c2 2F       		.uleb128 .LEHE330-.LEHB330
 6506 06c3 930A     		.uleb128 .L438-.LCOLDB49
 6507 06c5 00       		.uleb128 0
 6508 06c6 C609     		.uleb128 .LEHB331-.LCOLDB49
 6509 06c8 05       		.uleb128 .LEHE331-.LEHB331
 6510 06c9 00       		.uleb128 0
 6511 06ca 00       		.uleb128 0
 6512 06cb D509     		.uleb128 .LEHB332-.LCOLDB49
 6513 06cd 34       		.uleb128 .LEHE332-.LEHB332
 6514 06ce A70A     		.uleb128 .L436-.LCOLDB49
 6515 06d0 00       		.uleb128 0
 6516 06d1 890A     		.uleb128 .LEHB333-.LCOLDB49
 6517 06d3 05       		.uleb128 .LEHE333-.LEHB333
 6518 06d4 00       		.uleb128 0
 6519 06d5 00       		.uleb128 0
 6520 06d6 A20A     		.uleb128 .LEHB334-.LCOLDB49
 6521 06d8 05       		.uleb128 .LEHE334-.LEHB334
 6522 06d9 00       		.uleb128 0
 6523 06da 00       		.uleb128 0
 6524 06db B60A     		.uleb128 .LEHB335-.LCOLDB49
 6525 06dd 05       		.uleb128 .LEHE335-.LEHB335
 6526 06de 00       		.uleb128 0
 6527 06df 00       		.uleb128 0
 6528              	.LLSDACSEC1203:
 6529 06e0 01       		.byte	0x1
 6530 06e1 00       		.byte	0
 6531 06e2 0000     		.align 4
 6532 06e4 00000000 		.long	0
 6533              	
 6534              	.LLSDATTC1203:
 6535              		.section	.text.unlikely
 6536              		.text
 6538              		.section	.text.unlikely
 6540              	.LCOLDE49:
 6541              		.text
 6542              	.LHOTE49:
 6543              		.section	.rodata.str1.8
 6544 0879 00000000 		.align 8
 6544      000000
 6545              	.LC50:
 6546 0880 556E6861 		.string	"Unhandled exception in CHECK_EQUAL('0', getHexLowerNibble(0xF0))"
 6546      6E646C65 
 6546      64206578 
 6546      63657074 
 6546      696F6E20 
 6547 08c1 00000000 		.align 8
 6547      000000
 6548              	.LC51:
 6549 08c8 556E6861 		.string	"Unhandled exception in CHECK_EQUAL('1', getHexLowerNibble(0xF1))"
 6549      6E646C65 
 6549      64206578 
 6549      63657074 
 6549      696F6E20 
 6550 0909 00000000 		.align 8
 6550      000000
 6551              	.LC52:
 6552 0910 556E6861 		.string	"Unhandled exception in CHECK_EQUAL('2', getHexLowerNibble(0xF2))"
 6552      6E646C65 
 6552      64206578 
 6552      63657074 
 6552      696F6E20 
 6553 0951 00000000 		.align 8
 6553      000000
 6554              	.LC53:
 6555 0958 556E6861 		.string	"Unhandled exception in CHECK_EQUAL('3', getHexLowerNibble(0xF3))"
 6555      6E646C65 
 6555      64206578 
 6555      63657074 
 6555      696F6E20 
 6556 0999 00000000 		.align 8
 6556      000000
 6557              	.LC54:
 6558 09a0 556E6861 		.string	"Unhandled exception in CHECK_EQUAL('4', getHexLowerNibble(0xF4))"
 6558      6E646C65 
 6558      64206578 
 6558      63657074 
 6558      696F6E20 
 6559 09e1 00000000 		.align 8
 6559      000000
 6560              	.LC55:
 6561 09e8 556E6861 		.string	"Unhandled exception in CHECK_EQUAL('5', getHexLowerNibble(0xF5))"
 6561      6E646C65 
 6561      64206578 
 6561      63657074 
 6561      696F6E20 
 6562 0a29 00000000 		.align 8
 6562      000000
 6563              	.LC56:
 6564 0a30 556E6861 		.string	"Unhandled exception in CHECK_EQUAL('6', getHexLowerNibble(0xF6))"
 6564      6E646C65 
 6564      64206578 
 6564      63657074 
 6564      696F6E20 
 6565 0a71 00000000 		.align 8
 6565      000000
 6566              	.LC57:
 6567 0a78 556E6861 		.string	"Unhandled exception in CHECK_EQUAL('7', getHexLowerNibble(0xF7))"
 6567      6E646C65 
 6567      64206578 
 6567      63657074 
 6567      696F6E20 
 6568 0ab9 00000000 		.align 8
 6568      000000
 6569              	.LC58:
 6570 0ac0 556E6861 		.string	"Unhandled exception in CHECK_EQUAL('8', getHexLowerNibble(0xF8))"
 6570      6E646C65 
 6570      64206578 
 6570      63657074 
 6570      696F6E20 
 6571 0b01 00000000 		.align 8
 6571      000000
 6572              	.LC59:
 6573 0b08 556E6861 		.string	"Unhandled exception in CHECK_EQUAL('9', getHexLowerNibble(0xF9))"
 6573      6E646C65 
 6573      64206578 
 6573      63657074 
 6573      696F6E20 
 6574 0b49 00000000 		.align 8
 6574      000000
 6575              	.LC60:
 6576 0b50 556E6861 		.string	"Unhandled exception in CHECK_EQUAL('A', getHexLowerNibble(0xFA))"
 6576      6E646C65 
 6576      64206578 
 6576      63657074 
 6576      696F6E20 
 6577 0b91 00000000 		.align 8
 6577      000000
 6578              	.LC61:
 6579 0b98 556E6861 		.string	"Unhandled exception in CHECK_EQUAL('B', getHexLowerNibble(0xFB))"
 6579      6E646C65 
 6579      64206578 
 6579      63657074 
 6579      696F6E20 
 6580 0bd9 00000000 		.align 8
 6580      000000
 6581              	.LC62:
 6582 0be0 556E6861 		.string	"Unhandled exception in CHECK_EQUAL('C', getHexLowerNibble(0xFC))"
 6582      6E646C65 
 6582      64206578 
 6582      63657074 
 6582      696F6E20 
 6583 0c21 00000000 		.align 8
 6583      000000
 6584              	.LC63:
 6585 0c28 556E6861 		.string	"Unhandled exception in CHECK_EQUAL('D', getHexLowerNibble(0xFD))"
 6585      6E646C65 
 6585      64206578 
 6585      63657074 
 6585      696F6E20 
 6586 0c69 00000000 		.align 8
 6586      000000
 6587              	.LC64:
 6588 0c70 556E6861 		.string	"Unhandled exception in CHECK_EQUAL('E', getHexLowerNibble(0xFE))"
 6588      6E646C65 
 6588      64206578 
 6588      63657074 
 6588      696F6E20 
 6589 0cb1 00000000 		.align 8
 6589      000000
 6590              	.LC65:
 6591 0cb8 556E6861 		.string	"Unhandled exception in CHECK_EQUAL('F', getHexLowerNibble(0xFF))"
 6591      6E646C65 
 6591      64206578 
 6591      63657074 
 6591      696F6E20 
 6592              		.section	.text.unlikely
 6593 1641 90       		.align 2
 6594              	.LCOLDB66:
 6595              		.text
 6596              	.LHOTB66:
 6597 14fb 90       		.align 2
 6598 14fc 0F1F4000 		.p2align 4
 6599              		.globl	_ZNK30TestConv_testGetHexLowerNibble7RunImplEv
 6601              	_ZNK30TestConv_testGetHexLowerNibble7RunImplEv:
 6602              	.LFB1207:
 6603              		.cfi_startproc
 6604              		.cfi_personality 0x9b,DW.ref.__gxx_personality_v0
 6605              		.cfi_lsda 0x1b,.LLSDA1207
 6606 1500 F30F1EFA 		endbr64
 6607 1504 55       		pushq	%rbp
 6608              		.cfi_def_cfa_offset 16
 6609              		.cfi_offset 6, -16
 6610 1505 53       		pushq	%rbx
 6611              		.cfi_def_cfa_offset 24
 6612              		.cfi_offset 3, -24
 6613 1506 4883EC48 		subq	$72, %rsp
 6614              		.cfi_def_cfa_offset 96
 6615 150a 64488B04 		movq	%fs:40, %rax
 6615      25280000 
 6615      00
 6616 1513 48894424 		movq	%rax, 56(%rsp)
 6616      38
 6617 1518 31C0     		xorl	%eax, %eax
 6618              	.LEHB336:
 6619 151a E8000000 		call	_ZN8UnitTest11CurrentTest7DetailsEv@PLT
 6619      00
 6620 151f 488D5C24 		leaq	16(%rsp), %rbx
 6620      10
 6621 1524 488B30   		movq	(%rax), %rsi
 6622 1527 BA830000 		movl	$131, %edx
 6622      00
 6623 152c 4889DF   		movq	%rbx, %rdi
 6624 152f E8000000 		call	_ZN8UnitTest11TestDetailsC1ERKS0_i@PLT
 6624      00
 6625 1534 BFF00000 		movl	$240, %edi
 6625      00
 6626 1539 E8000000 		call	getHexLowerNibble@PLT
 6626      00
 6627 153e 8844240F 		movb	%al, 15(%rsp)
 6628 1542 C644240E 		movb	$48, 14(%rsp)
 6628      30
 6629 1547 E8000000 		call	_ZN8UnitTest11CurrentTest7ResultsEv@PLT
 6629      00
 6630 154c 488B38   		movq	(%rax), %rdi
 6631 154f 488D5424 		leaq	15(%rsp), %rdx
 6631      0F
 6632 1554 488D7424 		leaq	14(%rsp), %rsi
 6632      0E
 6633 1559 4889D9   		movq	%rbx, %rcx
 6634 155c E8000000 		call	_ZN8UnitTest10CheckEqualIccEEvRNS_11TestResultsERKT_RKT0_RKNS_11TestDetailsE
 6634      00
 6635              	.LEHE336:
 6636              	.L473:
 6637              	.LEHB337:
 6638 1561 E8000000 		call	_ZN8UnitTest11CurrentTest7DetailsEv@PLT
 6638      00
 6639 1566 488B30   		movq	(%rax), %rsi
 6640 1569 BA840000 		movl	$132, %edx
 6640      00
 6641 156e 4889DF   		movq	%rbx, %rdi
 6642 1571 E8000000 		call	_ZN8UnitTest11TestDetailsC1ERKS0_i@PLT
 6642      00
 6643 1576 BFF10000 		movl	$241, %edi
 6643      00
 6644 157b E8000000 		call	getHexLowerNibble@PLT
 6644      00
 6645 1580 8844240F 		movb	%al, 15(%rsp)
 6646 1584 C644240E 		movb	$49, 14(%rsp)
 6646      31
 6647 1589 E8000000 		call	_ZN8UnitTest11CurrentTest7ResultsEv@PLT
 6647      00
 6648 158e 488B38   		movq	(%rax), %rdi
 6649 1591 488D5424 		leaq	15(%rsp), %rdx
 6649      0F
 6650 1596 488D7424 		leaq	14(%rsp), %rsi
 6650      0E
 6651 159b 4889D9   		movq	%rbx, %rcx
 6652 159e E8000000 		call	_ZN8UnitTest10CheckEqualIccEEvRNS_11TestResultsERKT_RKT0_RKNS_11TestDetailsE
 6652      00
 6653              	.LEHE337:
 6654              	.L476:
 6655              	.LEHB338:
 6656 15a3 E8000000 		call	_ZN8UnitTest11CurrentTest7DetailsEv@PLT
 6656      00
 6657 15a8 488B30   		movq	(%rax), %rsi
 6658 15ab BA850000 		movl	$133, %edx
 6658      00
 6659 15b0 4889DF   		movq	%rbx, %rdi
 6660 15b3 E8000000 		call	_ZN8UnitTest11TestDetailsC1ERKS0_i@PLT
 6660      00
 6661 15b8 BFF20000 		movl	$242, %edi
 6661      00
 6662 15bd E8000000 		call	getHexLowerNibble@PLT
 6662      00
 6663 15c2 8844240F 		movb	%al, 15(%rsp)
 6664 15c6 C644240E 		movb	$50, 14(%rsp)
 6664      32
 6665 15cb E8000000 		call	_ZN8UnitTest11CurrentTest7ResultsEv@PLT
 6665      00
 6666 15d0 488B38   		movq	(%rax), %rdi
 6667 15d3 488D5424 		leaq	15(%rsp), %rdx
 6667      0F
 6668 15d8 488D7424 		leaq	14(%rsp), %rsi
 6668      0E
 6669 15dd 4889D9   		movq	%rbx, %rcx
 6670 15e0 E8000000 		call	_ZN8UnitTest10CheckEqualIccEEvRNS_11TestResultsERKT_RKT0_RKNS_11TestDetailsE
 6670      00
 6671              	.LEHE338:
 6672              	.L479:
 6673              	.LEHB339:
 6674 15e5 E8000000 		call	_ZN8UnitTest11CurrentTest7DetailsEv@PLT
 6674      00
 6675 15ea 488B30   		movq	(%rax), %rsi
 6676 15ed BA860000 		movl	$134, %edx
 6676      00
 6677 15f2 4889DF   		movq	%rbx, %rdi
 6678 15f5 E8000000 		call	_ZN8UnitTest11TestDetailsC1ERKS0_i@PLT
 6678      00
 6679 15fa BFF30000 		movl	$243, %edi
 6679      00
 6680 15ff E8000000 		call	getHexLowerNibble@PLT
 6680      00
 6681 1604 8844240F 		movb	%al, 15(%rsp)
 6682 1608 C644240E 		movb	$51, 14(%rsp)
 6682      33
 6683 160d E8000000 		call	_ZN8UnitTest11CurrentTest7ResultsEv@PLT
 6683      00
 6684 1612 488B38   		movq	(%rax), %rdi
 6685 1615 488D5424 		leaq	15(%rsp), %rdx
 6685      0F
 6686 161a 488D7424 		leaq	14(%rsp), %rsi
 6686      0E
 6687 161f 4889D9   		movq	%rbx, %rcx
 6688 1622 E8000000 		call	_ZN8UnitTest10CheckEqualIccEEvRNS_11TestResultsERKT_RKT0_RKNS_11TestDetailsE
 6688      00
 6689              	.LEHE339:
 6690              	.L482:
 6691              	.LEHB340:
 6692 1627 E8000000 		call	_ZN8UnitTest11CurrentTest7DetailsEv@PLT
 6692      00
 6693 162c 488B30   		movq	(%rax), %rsi
 6694 162f BA870000 		movl	$135, %edx
 6694      00
 6695 1634 4889DF   		movq	%rbx, %rdi
 6696 1637 E8000000 		call	_ZN8UnitTest11TestDetailsC1ERKS0_i@PLT
 6696      00
 6697 163c BFF40000 		movl	$244, %edi
 6697      00
 6698 1641 E8000000 		call	getHexLowerNibble@PLT
 6698      00
 6699 1646 8844240F 		movb	%al, 15(%rsp)
 6700 164a C644240E 		movb	$52, 14(%rsp)
 6700      34
 6701 164f E8000000 		call	_ZN8UnitTest11CurrentTest7ResultsEv@PLT
 6701      00
 6702 1654 488B38   		movq	(%rax), %rdi
 6703 1657 488D5424 		leaq	15(%rsp), %rdx
 6703      0F
 6704 165c 488D7424 		leaq	14(%rsp), %rsi
 6704      0E
 6705 1661 4889D9   		movq	%rbx, %rcx
 6706 1664 E8000000 		call	_ZN8UnitTest10CheckEqualIccEEvRNS_11TestResultsERKT_RKT0_RKNS_11TestDetailsE
 6706      00
 6707              	.LEHE340:
 6708              	.L485:
 6709              	.LEHB341:
 6710 1669 E8000000 		call	_ZN8UnitTest11CurrentTest7DetailsEv@PLT
 6710      00
 6711 166e 488B30   		movq	(%rax), %rsi
 6712 1671 BA880000 		movl	$136, %edx
 6712      00
 6713 1676 4889DF   		movq	%rbx, %rdi
 6714 1679 E8000000 		call	_ZN8UnitTest11TestDetailsC1ERKS0_i@PLT
 6714      00
 6715 167e BFF50000 		movl	$245, %edi
 6715      00
 6716 1683 E8000000 		call	getHexLowerNibble@PLT
 6716      00
 6717 1688 8844240F 		movb	%al, 15(%rsp)
 6718 168c C644240E 		movb	$53, 14(%rsp)
 6718      35
 6719 1691 E8000000 		call	_ZN8UnitTest11CurrentTest7ResultsEv@PLT
 6719      00
 6720 1696 488B38   		movq	(%rax), %rdi
 6721 1699 488D5424 		leaq	15(%rsp), %rdx
 6721      0F
 6722 169e 488D7424 		leaq	14(%rsp), %rsi
 6722      0E
 6723 16a3 4889D9   		movq	%rbx, %rcx
 6724 16a6 E8000000 		call	_ZN8UnitTest10CheckEqualIccEEvRNS_11TestResultsERKT_RKT0_RKNS_11TestDetailsE
 6724      00
 6725              	.LEHE341:
 6726              	.L488:
 6727              	.LEHB342:
 6728 16ab E8000000 		call	_ZN8UnitTest11CurrentTest7DetailsEv@PLT
 6728      00
 6729 16b0 488B30   		movq	(%rax), %rsi
 6730 16b3 BA890000 		movl	$137, %edx
 6730      00
 6731 16b8 4889DF   		movq	%rbx, %rdi
 6732 16bb E8000000 		call	_ZN8UnitTest11TestDetailsC1ERKS0_i@PLT
 6732      00
 6733 16c0 BFF60000 		movl	$246, %edi
 6733      00
 6734 16c5 E8000000 		call	getHexLowerNibble@PLT
 6734      00
 6735 16ca 8844240F 		movb	%al, 15(%rsp)
 6736 16ce C644240E 		movb	$54, 14(%rsp)
 6736      36
 6737 16d3 E8000000 		call	_ZN8UnitTest11CurrentTest7ResultsEv@PLT
 6737      00
 6738 16d8 488B38   		movq	(%rax), %rdi
 6739 16db 488D5424 		leaq	15(%rsp), %rdx
 6739      0F
 6740 16e0 488D7424 		leaq	14(%rsp), %rsi
 6740      0E
 6741 16e5 4889D9   		movq	%rbx, %rcx
 6742 16e8 E8000000 		call	_ZN8UnitTest10CheckEqualIccEEvRNS_11TestResultsERKT_RKT0_RKNS_11TestDetailsE
 6742      00
 6743              	.LEHE342:
 6744              	.L491:
 6745              	.LEHB343:
 6746 16ed E8000000 		call	_ZN8UnitTest11CurrentTest7DetailsEv@PLT
 6746      00
 6747 16f2 488B30   		movq	(%rax), %rsi
 6748 16f5 BA8A0000 		movl	$138, %edx
 6748      00
 6749 16fa 4889DF   		movq	%rbx, %rdi
 6750 16fd E8000000 		call	_ZN8UnitTest11TestDetailsC1ERKS0_i@PLT
 6750      00
 6751 1702 BFF70000 		movl	$247, %edi
 6751      00
 6752 1707 E8000000 		call	getHexLowerNibble@PLT
 6752      00
 6753 170c 8844240F 		movb	%al, 15(%rsp)
 6754 1710 C644240E 		movb	$55, 14(%rsp)
 6754      37
 6755 1715 E8000000 		call	_ZN8UnitTest11CurrentTest7ResultsEv@PLT
 6755      00
 6756 171a 488B38   		movq	(%rax), %rdi
 6757 171d 488D5424 		leaq	15(%rsp), %rdx
 6757      0F
 6758 1722 488D7424 		leaq	14(%rsp), %rsi
 6758      0E
 6759 1727 4889D9   		movq	%rbx, %rcx
 6760 172a E8000000 		call	_ZN8UnitTest10CheckEqualIccEEvRNS_11TestResultsERKT_RKT0_RKNS_11TestDetailsE
 6760      00
 6761              	.LEHE343:
 6762              	.L494:
 6763              	.LEHB344:
 6764 172f E8000000 		call	_ZN8UnitTest11CurrentTest7DetailsEv@PLT
 6764      00
 6765 1734 488B30   		movq	(%rax), %rsi
 6766 1737 BA8B0000 		movl	$139, %edx
 6766      00
 6767 173c 4889DF   		movq	%rbx, %rdi
 6768 173f E8000000 		call	_ZN8UnitTest11TestDetailsC1ERKS0_i@PLT
 6768      00
 6769 1744 BFF80000 		movl	$248, %edi
 6769      00
 6770 1749 E8000000 		call	getHexLowerNibble@PLT
 6770      00
 6771 174e 8844240F 		movb	%al, 15(%rsp)
 6772 1752 C644240E 		movb	$56, 14(%rsp)
 6772      38
 6773 1757 E8000000 		call	_ZN8UnitTest11CurrentTest7ResultsEv@PLT
 6773      00
 6774 175c 488B38   		movq	(%rax), %rdi
 6775 175f 488D5424 		leaq	15(%rsp), %rdx
 6775      0F
 6776 1764 488D7424 		leaq	14(%rsp), %rsi
 6776      0E
 6777 1769 4889D9   		movq	%rbx, %rcx
 6778 176c E8000000 		call	_ZN8UnitTest10CheckEqualIccEEvRNS_11TestResultsERKT_RKT0_RKNS_11TestDetailsE
 6778      00
 6779              	.LEHE344:
 6780              	.L497:
 6781              	.LEHB345:
 6782 1771 E8000000 		call	_ZN8UnitTest11CurrentTest7DetailsEv@PLT
 6782      00
 6783 1776 488B30   		movq	(%rax), %rsi
 6784 1779 BA8C0000 		movl	$140, %edx
 6784      00
 6785 177e 4889DF   		movq	%rbx, %rdi
 6786 1781 E8000000 		call	_ZN8UnitTest11TestDetailsC1ERKS0_i@PLT
 6786      00
 6787 1786 BFF90000 		movl	$249, %edi
 6787      00
 6788 178b E8000000 		call	getHexLowerNibble@PLT
 6788      00
 6789 1790 8844240F 		movb	%al, 15(%rsp)
 6790 1794 C644240E 		movb	$57, 14(%rsp)
 6790      39
 6791 1799 E8000000 		call	_ZN8UnitTest11CurrentTest7ResultsEv@PLT
 6791      00
 6792 179e 488B38   		movq	(%rax), %rdi
 6793 17a1 488D5424 		leaq	15(%rsp), %rdx
 6793      0F
 6794 17a6 488D7424 		leaq	14(%rsp), %rsi
 6794      0E
 6795 17ab 4889D9   		movq	%rbx, %rcx
 6796 17ae E8000000 		call	_ZN8UnitTest10CheckEqualIccEEvRNS_11TestResultsERKT_RKT0_RKNS_11TestDetailsE
 6796      00
 6797              	.LEHE345:
 6798              	.L500:
 6799              	.LEHB346:
 6800 17b3 E8000000 		call	_ZN8UnitTest11CurrentTest7DetailsEv@PLT
 6800      00
 6801 17b8 488B30   		movq	(%rax), %rsi
 6802 17bb BA8D0000 		movl	$141, %edx
 6802      00
 6803 17c0 4889DF   		movq	%rbx, %rdi
 6804 17c3 E8000000 		call	_ZN8UnitTest11TestDetailsC1ERKS0_i@PLT
 6804      00
 6805 17c8 BFFA0000 		movl	$250, %edi
 6805      00
 6806 17cd E8000000 		call	getHexLowerNibble@PLT
 6806      00
 6807 17d2 8844240F 		movb	%al, 15(%rsp)
 6808 17d6 C644240E 		movb	$65, 14(%rsp)
 6808      41
 6809 17db E8000000 		call	_ZN8UnitTest11CurrentTest7ResultsEv@PLT
 6809      00
 6810 17e0 488B38   		movq	(%rax), %rdi
 6811 17e3 488D5424 		leaq	15(%rsp), %rdx
 6811      0F
 6812 17e8 488D7424 		leaq	14(%rsp), %rsi
 6812      0E
 6813 17ed 4889D9   		movq	%rbx, %rcx
 6814 17f0 E8000000 		call	_ZN8UnitTest10CheckEqualIccEEvRNS_11TestResultsERKT_RKT0_RKNS_11TestDetailsE
 6814      00
 6815              	.LEHE346:
 6816              	.L503:
 6817              	.LEHB347:
 6818 17f5 E8000000 		call	_ZN8UnitTest11CurrentTest7DetailsEv@PLT
 6818      00
 6819 17fa 488B30   		movq	(%rax), %rsi
 6820 17fd BA8E0000 		movl	$142, %edx
 6820      00
 6821 1802 4889DF   		movq	%rbx, %rdi
 6822 1805 E8000000 		call	_ZN8UnitTest11TestDetailsC1ERKS0_i@PLT
 6822      00
 6823 180a BFFB0000 		movl	$251, %edi
 6823      00
 6824 180f E8000000 		call	getHexLowerNibble@PLT
 6824      00
 6825 1814 8844240F 		movb	%al, 15(%rsp)
 6826 1818 C644240E 		movb	$66, 14(%rsp)
 6826      42
 6827 181d E8000000 		call	_ZN8UnitTest11CurrentTest7ResultsEv@PLT
 6827      00
 6828 1822 488B38   		movq	(%rax), %rdi
 6829 1825 488D5424 		leaq	15(%rsp), %rdx
 6829      0F
 6830 182a 488D7424 		leaq	14(%rsp), %rsi
 6830      0E
 6831 182f 4889D9   		movq	%rbx, %rcx
 6832 1832 E8000000 		call	_ZN8UnitTest10CheckEqualIccEEvRNS_11TestResultsERKT_RKT0_RKNS_11TestDetailsE
 6832      00
 6833              	.LEHE347:
 6834              	.L506:
 6835              	.LEHB348:
 6836 1837 E8000000 		call	_ZN8UnitTest11CurrentTest7DetailsEv@PLT
 6836      00
 6837 183c 488B30   		movq	(%rax), %rsi
 6838 183f BA8F0000 		movl	$143, %edx
 6838      00
 6839 1844 4889DF   		movq	%rbx, %rdi
 6840 1847 E8000000 		call	_ZN8UnitTest11TestDetailsC1ERKS0_i@PLT
 6840      00
 6841 184c BFFC0000 		movl	$252, %edi
 6841      00
 6842 1851 E8000000 		call	getHexLowerNibble@PLT
 6842      00
 6843 1856 8844240F 		movb	%al, 15(%rsp)
 6844 185a C644240E 		movb	$67, 14(%rsp)
 6844      43
 6845 185f E8000000 		call	_ZN8UnitTest11CurrentTest7ResultsEv@PLT
 6845      00
 6846 1864 488B38   		movq	(%rax), %rdi
 6847 1867 488D5424 		leaq	15(%rsp), %rdx
 6847      0F
 6848 186c 488D7424 		leaq	14(%rsp), %rsi
 6848      0E
 6849 1871 4889D9   		movq	%rbx, %rcx
 6850 1874 E8000000 		call	_ZN8UnitTest10CheckEqualIccEEvRNS_11TestResultsERKT_RKT0_RKNS_11TestDetailsE
 6850      00
 6851              	.LEHE348:
 6852              	.L509:
 6853              	.LEHB349:
 6854 1879 E8000000 		call	_ZN8UnitTest11CurrentTest7DetailsEv@PLT
 6854      00
 6855 187e 488B30   		movq	(%rax), %rsi
 6856 1881 BA900000 		movl	$144, %edx
 6856      00
 6857 1886 4889DF   		movq	%rbx, %rdi
 6858 1889 E8000000 		call	_ZN8UnitTest11TestDetailsC1ERKS0_i@PLT
 6858      00
 6859 188e BFFD0000 		movl	$253, %edi
 6859      00
 6860 1893 E8000000 		call	getHexLowerNibble@PLT
 6860      00
 6861 1898 8844240F 		movb	%al, 15(%rsp)
 6862 189c C644240E 		movb	$68, 14(%rsp)
 6862      44
 6863 18a1 E8000000 		call	_ZN8UnitTest11CurrentTest7ResultsEv@PLT
 6863      00
 6864 18a6 488B38   		movq	(%rax), %rdi
 6865 18a9 488D5424 		leaq	15(%rsp), %rdx
 6865      0F
 6866 18ae 488D7424 		leaq	14(%rsp), %rsi
 6866      0E
 6867 18b3 4889D9   		movq	%rbx, %rcx
 6868 18b6 E8000000 		call	_ZN8UnitTest10CheckEqualIccEEvRNS_11TestResultsERKT_RKT0_RKNS_11TestDetailsE
 6868      00
 6869              	.LEHE349:
 6870              	.L512:
 6871              	.LEHB350:
 6872 18bb E8000000 		call	_ZN8UnitTest11CurrentTest7DetailsEv@PLT
 6872      00
 6873 18c0 488B30   		movq	(%rax), %rsi
 6874 18c3 BA910000 		movl	$145, %edx
 6874      00
 6875 18c8 4889DF   		movq	%rbx, %rdi
 6876 18cb E8000000 		call	_ZN8UnitTest11TestDetailsC1ERKS0_i@PLT
 6876      00
 6877 18d0 BFFE0000 		movl	$254, %edi
 6877      00
 6878 18d5 E8000000 		call	getHexLowerNibble@PLT
 6878      00
 6879 18da 8844240F 		movb	%al, 15(%rsp)
 6880 18de C644240E 		movb	$69, 14(%rsp)
 6880      45
 6881 18e3 E8000000 		call	_ZN8UnitTest11CurrentTest7ResultsEv@PLT
 6881      00
 6882 18e8 488B38   		movq	(%rax), %rdi
 6883 18eb 488D5424 		leaq	15(%rsp), %rdx
 6883      0F
 6884 18f0 488D7424 		leaq	14(%rsp), %rsi
 6884      0E
 6885 18f5 4889D9   		movq	%rbx, %rcx
 6886 18f8 E8000000 		call	_ZN8UnitTest10CheckEqualIccEEvRNS_11TestResultsERKT_RKT0_RKNS_11TestDetailsE
 6886      00
 6887              	.LEHE350:
 6888              	.L515:
 6889              	.LEHB351:
 6890 18fd E8000000 		call	_ZN8UnitTest11CurrentTest7DetailsEv@PLT
 6890      00
 6891 1902 488B30   		movq	(%rax), %rsi
 6892 1905 BA920000 		movl	$146, %edx
 6892      00
 6893 190a 4889DF   		movq	%rbx, %rdi
 6894 190d E8000000 		call	_ZN8UnitTest11TestDetailsC1ERKS0_i@PLT
 6894      00
 6895 1912 BFFF0000 		movl	$255, %edi
 6895      00
 6896 1917 E8000000 		call	getHexLowerNibble@PLT
 6896      00
 6897 191c 8844240F 		movb	%al, 15(%rsp)
 6898 1920 C644240E 		movb	$70, 14(%rsp)
 6898      46
 6899 1925 E8000000 		call	_ZN8UnitTest11CurrentTest7ResultsEv@PLT
 6899      00
 6900 192a 488B38   		movq	(%rax), %rdi
 6901 192d 488D5424 		leaq	15(%rsp), %rdx
 6901      0F
 6902 1932 488D7424 		leaq	14(%rsp), %rsi
 6902      0E
 6903 1937 4889D9   		movq	%rbx, %rcx
 6904 193a E8000000 		call	_ZN8UnitTest10CheckEqualIccEEvRNS_11TestResultsERKT_RKT0_RKNS_11TestDetailsE
 6904      00
 6905              	.LEHE351:
 6906 193f 488B4424 		movq	56(%rsp), %rax
 6906      38
 6907 1944 64482B04 		subq	%fs:40, %rax
 6907      25280000 
 6907      00
 6908 194d 7507     		jne	.L555
 6909 194f 4883C448 		addq	$72, %rsp
 6910              		.cfi_remember_state
 6911              		.cfi_def_cfa_offset 24
 6912 1953 5B       		popq	%rbx
 6913              		.cfi_def_cfa_offset 16
 6914 1954 5D       		popq	%rbp
 6915              		.cfi_def_cfa_offset 8
 6916 1955 C3       		ret
 6917              	.L555:
 6918              		.cfi_restore_state
 6919 1956 E8000000 		call	__stack_chk_fail@PLT
 6919      00
 6920              	.L551:
 6921 195b F30F1EFA 		endbr64
 6922 195f 4889C7   		movq	%rax, %rdi
 6923 1962 E9000000 		jmp	.L517
 6923      00
 6924              	.L549:
 6925 1967 F30F1EFA 		endbr64
 6926 196b 4889C7   		movq	%rax, %rdi
 6927 196e E9000000 		jmp	.L514
 6927      00
 6928              	.L547:
 6929 1973 F30F1EFA 		endbr64
 6930 1977 4889C7   		movq	%rax, %rdi
 6931 197a E9000000 		jmp	.L511
 6931      00
 6932              	.L545:
 6933 197f F30F1EFA 		endbr64
 6934 1983 4889C7   		movq	%rax, %rdi
 6935 1986 E9000000 		jmp	.L508
 6935      00
 6936              	.L543:
 6937 198b F30F1EFA 		endbr64
 6938 198f 4889C7   		movq	%rax, %rdi
 6939 1992 E9000000 		jmp	.L505
 6939      00
 6940              	.L541:
 6941 1997 F30F1EFA 		endbr64
 6942 199b 4889C7   		movq	%rax, %rdi
 6943 199e E9000000 		jmp	.L502
 6943      00
 6944              	.L539:
 6945 19a3 F30F1EFA 		endbr64
 6946 19a7 4889C7   		movq	%rax, %rdi
 6947 19aa E9000000 		jmp	.L499
 6947      00
 6948              	.L537:
 6949 19af F30F1EFA 		endbr64
 6950 19b3 4889C7   		movq	%rax, %rdi
 6951 19b6 E9000000 		jmp	.L496
 6951      00
 6952              	.L535:
 6953 19bb F30F1EFA 		endbr64
 6954 19bf 4889C7   		movq	%rax, %rdi
 6955 19c2 E9000000 		jmp	.L493
 6955      00
 6956              	.L533:
 6957 19c7 F30F1EFA 		endbr64
 6958 19cb 4889C7   		movq	%rax, %rdi
 6959 19ce E9000000 		jmp	.L490
 6959      00
 6960              	.L531:
 6961 19d3 F30F1EFA 		endbr64
 6962 19d7 4889C7   		movq	%rax, %rdi
 6963 19da E9000000 		jmp	.L487
 6963      00
 6964              	.L529:
 6965 19df F30F1EFA 		endbr64
 6966 19e3 4889C7   		movq	%rax, %rdi
 6967 19e6 E9000000 		jmp	.L484
 6967      00
 6968              	.L527:
 6969 19eb F30F1EFA 		endbr64
 6970 19ef 4889C7   		movq	%rax, %rdi
 6971 19f2 E9000000 		jmp	.L481
 6971      00
 6972              	.L525:
 6973 19f7 F30F1EFA 		endbr64
 6974 19fb 4889C7   		movq	%rax, %rdi
 6975 19fe E9000000 		jmp	.L478
 6975      00
 6976              	.L523:
 6977 1a03 F30F1EFA 		endbr64
 6978 1a07 4889C7   		movq	%rax, %rdi
 6979 1a0a E9000000 		jmp	.L475
 6979      00
 6980              	.L521:
 6981 1a0f F30F1EFA 		endbr64
 6982 1a13 4889C7   		movq	%rax, %rdi
 6983 1a16 E9000000 		jmp	.L472
 6983      00
 6984              		.section	.gcc_except_table
 6985              		.align 4
 6986              	.LLSDA1207:
 6987 06e8 FF       		.byte	0xff
 6988 06e9 9B       		.byte	0x9b
 6989 06ea 69       		.uleb128 .LLSDATT1207-.LLSDATTD1207
 6990              	.LLSDATTD1207:
 6991 06eb 01       		.byte	0x1
 6992 06ec 5E       		.uleb128 .LLSDACSE1207-.LLSDACSB1207
 6993              	.LLSDACSB1207:
 6994 06ed 1A       		.uleb128 .LEHB336-.LFB1207
 6995 06ee 47       		.uleb128 .LEHE336-.LEHB336
 6996 06ef 8F0A     		.uleb128 .L521-.LFB1207
 6997 06f1 01       		.uleb128 0x1
 6998 06f2 61       		.uleb128 .LEHB337-.LFB1207
 6999 06f3 42       		.uleb128 .LEHE337-.LEHB337
 7000 06f4 830A     		.uleb128 .L523-.LFB1207
 7001 06f6 01       		.uleb128 0x1
 7002 06f7 A301     		.uleb128 .LEHB338-.LFB1207
 7003 06f9 42       		.uleb128 .LEHE338-.LEHB338
 7004 06fa F709     		.uleb128 .L525-.LFB1207
 7005 06fc 01       		.uleb128 0x1
 7006 06fd E501     		.uleb128 .LEHB339-.LFB1207
 7007 06ff 42       		.uleb128 .LEHE339-.LEHB339
 7008 0700 EB09     		.uleb128 .L527-.LFB1207
 7009 0702 01       		.uleb128 0x1
 7010 0703 A702     		.uleb128 .LEHB340-.LFB1207
 7011 0705 42       		.uleb128 .LEHE340-.LEHB340
 7012 0706 DF09     		.uleb128 .L529-.LFB1207
 7013 0708 01       		.uleb128 0x1
 7014 0709 E902     		.uleb128 .LEHB341-.LFB1207
 7015 070b 42       		.uleb128 .LEHE341-.LEHB341
 7016 070c D309     		.uleb128 .L531-.LFB1207
 7017 070e 01       		.uleb128 0x1
 7018 070f AB03     		.uleb128 .LEHB342-.LFB1207
 7019 0711 42       		.uleb128 .LEHE342-.LEHB342
 7020 0712 C709     		.uleb128 .L533-.LFB1207
 7021 0714 01       		.uleb128 0x1
 7022 0715 ED03     		.uleb128 .LEHB343-.LFB1207
 7023 0717 42       		.uleb128 .LEHE343-.LEHB343
 7024 0718 BB09     		.uleb128 .L535-.LFB1207
 7025 071a 01       		.uleb128 0x1
 7026 071b AF04     		.uleb128 .LEHB344-.LFB1207
 7027 071d 42       		.uleb128 .LEHE344-.LEHB344
 7028 071e AF09     		.uleb128 .L537-.LFB1207
 7029 0720 01       		.uleb128 0x1
 7030 0721 F104     		.uleb128 .LEHB345-.LFB1207
 7031 0723 42       		.uleb128 .LEHE345-.LEHB345
 7032 0724 A309     		.uleb128 .L539-.LFB1207
 7033 0726 01       		.uleb128 0x1
 7034 0727 B305     		.uleb128 .LEHB346-.LFB1207
 7035 0729 42       		.uleb128 .LEHE346-.LEHB346
 7036 072a 9709     		.uleb128 .L541-.LFB1207
 7037 072c 01       		.uleb128 0x1
 7038 072d F505     		.uleb128 .LEHB347-.LFB1207
 7039 072f 42       		.uleb128 .LEHE347-.LEHB347
 7040 0730 8B09     		.uleb128 .L543-.LFB1207
 7041 0732 01       		.uleb128 0x1
 7042 0733 B706     		.uleb128 .LEHB348-.LFB1207
 7043 0735 42       		.uleb128 .LEHE348-.LEHB348
 7044 0736 FF08     		.uleb128 .L545-.LFB1207
 7045 0738 01       		.uleb128 0x1
 7046 0739 F906     		.uleb128 .LEHB349-.LFB1207
 7047 073b 42       		.uleb128 .LEHE349-.LEHB349
 7048 073c F308     		.uleb128 .L547-.LFB1207
 7049 073e 01       		.uleb128 0x1
 7050 073f BB07     		.uleb128 .LEHB350-.LFB1207
 7051 0741 42       		.uleb128 .LEHE350-.LEHB350
 7052 0742 E708     		.uleb128 .L549-.LFB1207
 7053 0744 01       		.uleb128 0x1
 7054 0745 FD07     		.uleb128 .LEHB351-.LFB1207
 7055 0747 42       		.uleb128 .LEHE351-.LEHB351
 7056 0748 DB08     		.uleb128 .L551-.LFB1207
 7057 074a 01       		.uleb128 0x1
 7058              	.LLSDACSE1207:
 7059 074b 01       		.byte	0x1
 7060 074c 00       		.byte	0
 7061 074d 000000   		.align 4
 7062 0750 00000000 		.long	0
 7063              	
 7064              	.LLSDATT1207:
 7065              		.text
 7066              		.cfi_endproc
 7067              		.section	.text.unlikely
 7068              		.cfi_startproc
 7069              		.cfi_personality 0x9b,DW.ref.__gxx_personality_v0
 7070              		.cfi_lsda 0x1b,.LLSDAC1207
 7072              	_ZNK30TestConv_testGetHexLowerNibble7RunImplEv.cold:
 7073              	.LFSB1207:
 7074              	.L517:
 7075              		.cfi_def_cfa_offset 96
 7076              		.cfi_offset 3, -24
 7077              		.cfi_offset 6, -16
 7078 1642 E8000000 		call	__cxa_begin_catch@PLT
 7078      00
 7079              	.LEHB352:
 7080 1647 E8000000 		call	_ZN8UnitTest11CurrentTest7ResultsEv@PLT
 7080      00
 7081 164c 488B28   		movq	(%rax), %rbp
 7082 164f E8000000 		call	_ZN8UnitTest11CurrentTest7DetailsEv@PLT
 7082      00
 7083 1654 488B30   		movq	(%rax), %rsi
 7084 1657 BA920000 		movl	$146, %edx
 7084      00
 7085 165c 4889DF   		movq	%rbx, %rdi
 7086 165f E8000000 		call	_ZN8UnitTest11TestDetailsC1ERKS0_i@PLT
 7086      00
 7087 1664 488D1500 		leaq	.LC65(%rip), %rdx
 7087      000000
 7088 166b 4889DE   		movq	%rbx, %rsi
 7089 166e 4889EF   		movq	%rbp, %rdi
 7090 1671 E8000000 		call	_ZN8UnitTest11TestResults13OnTestFailureERKNS_11TestDetailsEPKc@PLT
 7090      00
 7091              	.LEHE352:
 7092 1676 488B4424 		movq	56(%rsp), %rax
 7092      38
 7093 167b 64482B04 		subq	%fs:40, %rax
 7093      25280000 
 7093      00
 7094 1684 7549     		jne	.L556
 7095 1686 4883C448 		addq	$72, %rsp
 7096              		.cfi_remember_state
 7097              		.cfi_def_cfa_offset 24
 7098 168a 5B       		popq	%rbx
 7099              		.cfi_def_cfa_offset 16
 7100 168b 5D       		popq	%rbp
 7101              		.cfi_def_cfa_offset 8
 7102              	.LEHB353:
 7103 168c E9000000 		jmp	__cxa_end_catch@PLT
 7103      00
 7104              	.LEHE353:
 7105              	.L514:
 7106              		.cfi_restore_state
 7107 1691 E8000000 		call	__cxa_begin_catch@PLT
 7107      00
 7108              	.LEHB354:
 7109 1696 E8000000 		call	_ZN8UnitTest11CurrentTest7ResultsEv@PLT
 7109      00
 7110 169b 488B28   		movq	(%rax), %rbp
 7111 169e E8000000 		call	_ZN8UnitTest11CurrentTest7DetailsEv@PLT
 7111      00
 7112 16a3 488B30   		movq	(%rax), %rsi
 7113 16a6 BA910000 		movl	$145, %edx
 7113      00
 7114 16ab 4889DF   		movq	%rbx, %rdi
 7115 16ae E8000000 		call	_ZN8UnitTest11TestDetailsC1ERKS0_i@PLT
 7115      00
 7116 16b3 488D1500 		leaq	.LC64(%rip), %rdx
 7116      000000
 7117 16ba 4889DE   		movq	%rbx, %rsi
 7118 16bd 4889EF   		movq	%rbp, %rdi
 7119 16c0 E8000000 		call	_ZN8UnitTest11TestResults13OnTestFailureERKNS_11TestDetailsEPKc@PLT
 7119      00
 7120              	.LEHE354:
 7121              	.LEHB355:
 7122 16c5 E8000000 		call	__cxa_end_catch@PLT
 7122      00
 7123              	.LEHE355:
 7124 16ca E9000000 		jmp	.L515
 7124      00
 7125              	.L556:
 7126 16cf E8000000 		call	__stack_chk_fail@PLT
 7126      00
 7127              	.L550:
 7128 16d4 F30F1EFA 		endbr64
 7129 16d8 4889C3   		movq	%rax, %rbx
 7130 16db E8000000 		call	__cxa_end_catch@PLT
 7130      00
 7131 16e0 4889DF   		movq	%rbx, %rdi
 7132              	.LEHB356:
 7133 16e3 E8000000 		call	_Unwind_Resume@PLT
 7133      00
 7134              	.LEHE356:
 7135              	.L552:
 7136 16e8 F30F1EFA 		endbr64
 7137 16ec 4889C3   		movq	%rax, %rbx
 7138 16ef E8000000 		call	__cxa_end_catch@PLT
 7138      00
 7139 16f4 4889DF   		movq	%rbx, %rdi
 7140              	.LEHB357:
 7141 16f7 E8000000 		call	_Unwind_Resume@PLT
 7141      00
 7142              	.LEHE357:
 7143              	.L511:
 7144 16fc E8000000 		call	__cxa_begin_catch@PLT
 7144      00
 7145              	.LEHB358:
 7146 1701 E8000000 		call	_ZN8UnitTest11CurrentTest7ResultsEv@PLT
 7146      00
 7147 1706 488B28   		movq	(%rax), %rbp
 7148 1709 E8000000 		call	_ZN8UnitTest11CurrentTest7DetailsEv@PLT
 7148      00
 7149 170e 488B30   		movq	(%rax), %rsi
 7150 1711 BA900000 		movl	$144, %edx
 7150      00
 7151 1716 4889DF   		movq	%rbx, %rdi
 7152 1719 E8000000 		call	_ZN8UnitTest11TestDetailsC1ERKS0_i@PLT
 7152      00
 7153 171e 488D1500 		leaq	.LC63(%rip), %rdx
 7153      000000
 7154 1725 4889DE   		movq	%rbx, %rsi
 7155 1728 4889EF   		movq	%rbp, %rdi
 7156 172b E8000000 		call	_ZN8UnitTest11TestResults13OnTestFailureERKNS_11TestDetailsEPKc@PLT
 7156      00
 7157              	.LEHE358:
 7158              	.LEHB359:
 7159 1730 E8000000 		call	__cxa_end_catch@PLT
 7159      00
 7160              	.LEHE359:
 7161 1735 E9000000 		jmp	.L512
 7161      00
 7162              	.L508:
 7163 173a E8000000 		call	__cxa_begin_catch@PLT
 7163      00
 7164              	.LEHB360:
 7165 173f E8000000 		call	_ZN8UnitTest11CurrentTest7ResultsEv@PLT
 7165      00
 7166 1744 488B28   		movq	(%rax), %rbp
 7167 1747 E8000000 		call	_ZN8UnitTest11CurrentTest7DetailsEv@PLT
 7167      00
 7168 174c 488B30   		movq	(%rax), %rsi
 7169 174f BA8F0000 		movl	$143, %edx
 7169      00
 7170 1754 4889DF   		movq	%rbx, %rdi
 7171 1757 E8000000 		call	_ZN8UnitTest11TestDetailsC1ERKS0_i@PLT
 7171      00
 7172 175c 488D1500 		leaq	.LC62(%rip), %rdx
 7172      000000
 7173 1763 4889DE   		movq	%rbx, %rsi
 7174 1766 4889EF   		movq	%rbp, %rdi
 7175 1769 E8000000 		call	_ZN8UnitTest11TestResults13OnTestFailureERKNS_11TestDetailsEPKc@PLT
 7175      00
 7176              	.LEHE360:
 7177              	.LEHB361:
 7178 176e E8000000 		call	__cxa_end_catch@PLT
 7178      00
 7179              	.LEHE361:
 7180 1773 E9000000 		jmp	.L509
 7180      00
 7181              	.L548:
 7182 1778 F30F1EFA 		endbr64
 7183 177c 4889C3   		movq	%rax, %rbx
 7184 177f E8000000 		call	__cxa_end_catch@PLT
 7184      00
 7185 1784 4889DF   		movq	%rbx, %rdi
 7186              	.LEHB362:
 7187 1787 E8000000 		call	_Unwind_Resume@PLT
 7187      00
 7188              	.LEHE362:
 7189              	.L546:
 7190 178c F30F1EFA 		endbr64
 7191 1790 4889C3   		movq	%rax, %rbx
 7192 1793 E8000000 		call	__cxa_end_catch@PLT
 7192      00
 7193 1798 4889DF   		movq	%rbx, %rdi
 7194              	.LEHB363:
 7195 179b E8000000 		call	_Unwind_Resume@PLT
 7195      00
 7196              	.LEHE363:
 7197              	.L505:
 7198 17a0 E8000000 		call	__cxa_begin_catch@PLT
 7198      00
 7199              	.LEHB364:
 7200 17a5 E8000000 		call	_ZN8UnitTest11CurrentTest7ResultsEv@PLT
 7200      00
 7201 17aa 488B28   		movq	(%rax), %rbp
 7202 17ad E8000000 		call	_ZN8UnitTest11CurrentTest7DetailsEv@PLT
 7202      00
 7203 17b2 488B30   		movq	(%rax), %rsi
 7204 17b5 BA8E0000 		movl	$142, %edx
 7204      00
 7205 17ba 4889DF   		movq	%rbx, %rdi
 7206 17bd E8000000 		call	_ZN8UnitTest11TestDetailsC1ERKS0_i@PLT
 7206      00
 7207 17c2 488D1500 		leaq	.LC61(%rip), %rdx
 7207      000000
 7208 17c9 4889DE   		movq	%rbx, %rsi
 7209 17cc 4889EF   		movq	%rbp, %rdi
 7210 17cf E8000000 		call	_ZN8UnitTest11TestResults13OnTestFailureERKNS_11TestDetailsEPKc@PLT
 7210      00
 7211              	.LEHE364:
 7212              	.LEHB365:
 7213 17d4 E8000000 		call	__cxa_end_catch@PLT
 7213      00
 7214              	.LEHE365:
 7215 17d9 E9000000 		jmp	.L506
 7215      00
 7216              	.L502:
 7217 17de E8000000 		call	__cxa_begin_catch@PLT
 7217      00
 7218              	.LEHB366:
 7219 17e3 E8000000 		call	_ZN8UnitTest11CurrentTest7ResultsEv@PLT
 7219      00
 7220 17e8 488B28   		movq	(%rax), %rbp
 7221 17eb E8000000 		call	_ZN8UnitTest11CurrentTest7DetailsEv@PLT
 7221      00
 7222 17f0 488B30   		movq	(%rax), %rsi
 7223 17f3 BA8D0000 		movl	$141, %edx
 7223      00
 7224 17f8 4889DF   		movq	%rbx, %rdi
 7225 17fb E8000000 		call	_ZN8UnitTest11TestDetailsC1ERKS0_i@PLT
 7225      00
 7226 1800 488D1500 		leaq	.LC60(%rip), %rdx
 7226      000000
 7227 1807 4889DE   		movq	%rbx, %rsi
 7228 180a 4889EF   		movq	%rbp, %rdi
 7229 180d E8000000 		call	_ZN8UnitTest11TestResults13OnTestFailureERKNS_11TestDetailsEPKc@PLT
 7229      00
 7230              	.LEHE366:
 7231              	.LEHB367:
 7232 1812 E8000000 		call	__cxa_end_catch@PLT
 7232      00
 7233              	.LEHE367:
 7234 1817 E9000000 		jmp	.L503
 7234      00
 7235              	.L544:
 7236 181c F30F1EFA 		endbr64
 7237 1820 4889C3   		movq	%rax, %rbx
 7238 1823 E8000000 		call	__cxa_end_catch@PLT
 7238      00
 7239 1828 4889DF   		movq	%rbx, %rdi
 7240              	.LEHB368:
 7241 182b E8000000 		call	_Unwind_Resume@PLT
 7241      00
 7242              	.LEHE368:
 7243              	.L542:
 7244 1830 F30F1EFA 		endbr64
 7245 1834 4889C3   		movq	%rax, %rbx
 7246 1837 E8000000 		call	__cxa_end_catch@PLT
 7246      00
 7247 183c 4889DF   		movq	%rbx, %rdi
 7248              	.LEHB369:
 7249 183f E8000000 		call	_Unwind_Resume@PLT
 7249      00
 7250              	.LEHE369:
 7251              	.L499:
 7252 1844 E8000000 		call	__cxa_begin_catch@PLT
 7252      00
 7253              	.LEHB370:
 7254 1849 E8000000 		call	_ZN8UnitTest11CurrentTest7ResultsEv@PLT
 7254      00
 7255 184e 488B28   		movq	(%rax), %rbp
 7256 1851 E8000000 		call	_ZN8UnitTest11CurrentTest7DetailsEv@PLT
 7256      00
 7257 1856 488B30   		movq	(%rax), %rsi
 7258 1859 BA8C0000 		movl	$140, %edx
 7258      00
 7259 185e 4889DF   		movq	%rbx, %rdi
 7260 1861 E8000000 		call	_ZN8UnitTest11TestDetailsC1ERKS0_i@PLT
 7260      00
 7261 1866 488D1500 		leaq	.LC59(%rip), %rdx
 7261      000000
 7262 186d 4889DE   		movq	%rbx, %rsi
 7263 1870 4889EF   		movq	%rbp, %rdi
 7264 1873 E8000000 		call	_ZN8UnitTest11TestResults13OnTestFailureERKNS_11TestDetailsEPKc@PLT
 7264      00
 7265              	.LEHE370:
 7266              	.LEHB371:
 7267 1878 E8000000 		call	__cxa_end_catch@PLT
 7267      00
 7268              	.LEHE371:
 7269 187d E9000000 		jmp	.L500
 7269      00
 7270              	.L496:
 7271 1882 E8000000 		call	__cxa_begin_catch@PLT
 7271      00
 7272              	.LEHB372:
 7273 1887 E8000000 		call	_ZN8UnitTest11CurrentTest7ResultsEv@PLT
 7273      00
 7274 188c 488B28   		movq	(%rax), %rbp
 7275 188f E8000000 		call	_ZN8UnitTest11CurrentTest7DetailsEv@PLT
 7275      00
 7276 1894 488B30   		movq	(%rax), %rsi
 7277 1897 BA8B0000 		movl	$139, %edx
 7277      00
 7278 189c 4889DF   		movq	%rbx, %rdi
 7279 189f E8000000 		call	_ZN8UnitTest11TestDetailsC1ERKS0_i@PLT
 7279      00
 7280 18a4 488D1500 		leaq	.LC58(%rip), %rdx
 7280      000000
 7281 18ab 4889DE   		movq	%rbx, %rsi
 7282 18ae 4889EF   		movq	%rbp, %rdi
 7283 18b1 E8000000 		call	_ZN8UnitTest11TestResults13OnTestFailureERKNS_11TestDetailsEPKc@PLT
 7283      00
 7284              	.LEHE372:
 7285              	.LEHB373:
 7286 18b6 E8000000 		call	__cxa_end_catch@PLT
 7286      00
 7287              	.LEHE373:
 7288 18bb E9000000 		jmp	.L497
 7288      00
 7289              	.L540:
 7290 18c0 F30F1EFA 		endbr64
 7291 18c4 4889C3   		movq	%rax, %rbx
 7292 18c7 E8000000 		call	__cxa_end_catch@PLT
 7292      00
 7293 18cc 4889DF   		movq	%rbx, %rdi
 7294              	.LEHB374:
 7295 18cf E8000000 		call	_Unwind_Resume@PLT
 7295      00
 7296              	.LEHE374:
 7297              	.L538:
 7298 18d4 F30F1EFA 		endbr64
 7299 18d8 4889C3   		movq	%rax, %rbx
 7300 18db E8000000 		call	__cxa_end_catch@PLT
 7300      00
 7301 18e0 4889DF   		movq	%rbx, %rdi
 7302              	.LEHB375:
 7303 18e3 E8000000 		call	_Unwind_Resume@PLT
 7303      00
 7304              	.LEHE375:
 7305              	.L493:
 7306 18e8 E8000000 		call	__cxa_begin_catch@PLT
 7306      00
 7307              	.LEHB376:
 7308 18ed E8000000 		call	_ZN8UnitTest11CurrentTest7ResultsEv@PLT
 7308      00
 7309 18f2 488B28   		movq	(%rax), %rbp
 7310 18f5 E8000000 		call	_ZN8UnitTest11CurrentTest7DetailsEv@PLT
 7310      00
 7311 18fa 488B30   		movq	(%rax), %rsi
 7312 18fd BA8A0000 		movl	$138, %edx
 7312      00
 7313 1902 4889DF   		movq	%rbx, %rdi
 7314 1905 E8000000 		call	_ZN8UnitTest11TestDetailsC1ERKS0_i@PLT
 7314      00
 7315 190a 488D1500 		leaq	.LC57(%rip), %rdx
 7315      000000
 7316 1911 4889DE   		movq	%rbx, %rsi
 7317 1914 4889EF   		movq	%rbp, %rdi
 7318 1917 E8000000 		call	_ZN8UnitTest11TestResults13OnTestFailureERKNS_11TestDetailsEPKc@PLT
 7318      00
 7319              	.LEHE376:
 7320              	.LEHB377:
 7321 191c E8000000 		call	__cxa_end_catch@PLT
 7321      00
 7322              	.LEHE377:
 7323 1921 E9000000 		jmp	.L494
 7323      00
 7324              	.L490:
 7325 1926 E8000000 		call	__cxa_begin_catch@PLT
 7325      00
 7326              	.LEHB378:
 7327 192b E8000000 		call	_ZN8UnitTest11CurrentTest7ResultsEv@PLT
 7327      00
 7328 1930 488B28   		movq	(%rax), %rbp
 7329 1933 E8000000 		call	_ZN8UnitTest11CurrentTest7DetailsEv@PLT
 7329      00
 7330 1938 488B30   		movq	(%rax), %rsi
 7331 193b BA890000 		movl	$137, %edx
 7331      00
 7332 1940 4889DF   		movq	%rbx, %rdi
 7333 1943 E8000000 		call	_ZN8UnitTest11TestDetailsC1ERKS0_i@PLT
 7333      00
 7334 1948 488D1500 		leaq	.LC56(%rip), %rdx
 7334      000000
 7335 194f 4889DE   		movq	%rbx, %rsi
 7336 1952 4889EF   		movq	%rbp, %rdi
 7337 1955 E8000000 		call	_ZN8UnitTest11TestResults13OnTestFailureERKNS_11TestDetailsEPKc@PLT
 7337      00
 7338              	.LEHE378:
 7339              	.LEHB379:
 7340 195a E8000000 		call	__cxa_end_catch@PLT
 7340      00
 7341              	.LEHE379:
 7342 195f E9000000 		jmp	.L491
 7342      00
 7343              	.L536:
 7344 1964 F30F1EFA 		endbr64
 7345 1968 4889C3   		movq	%rax, %rbx
 7346 196b E8000000 		call	__cxa_end_catch@PLT
 7346      00
 7347 1970 4889DF   		movq	%rbx, %rdi
 7348              	.LEHB380:
 7349 1973 E8000000 		call	_Unwind_Resume@PLT
 7349      00
 7350              	.LEHE380:
 7351              	.L534:
 7352 1978 F30F1EFA 		endbr64
 7353 197c 4889C3   		movq	%rax, %rbx
 7354 197f E8000000 		call	__cxa_end_catch@PLT
 7354      00
 7355 1984 4889DF   		movq	%rbx, %rdi
 7356              	.LEHB381:
 7357 1987 E8000000 		call	_Unwind_Resume@PLT
 7357      00
 7358              	.LEHE381:
 7359              	.L487:
 7360 198c E8000000 		call	__cxa_begin_catch@PLT
 7360      00
 7361              	.LEHB382:
 7362 1991 E8000000 		call	_ZN8UnitTest11CurrentTest7ResultsEv@PLT
 7362      00
 7363 1996 488B28   		movq	(%rax), %rbp
 7364 1999 E8000000 		call	_ZN8UnitTest11CurrentTest7DetailsEv@PLT
 7364      00
 7365 199e 488B30   		movq	(%rax), %rsi
 7366 19a1 BA880000 		movl	$136, %edx
 7366      00
 7367 19a6 4889DF   		movq	%rbx, %rdi
 7368 19a9 E8000000 		call	_ZN8UnitTest11TestDetailsC1ERKS0_i@PLT
 7368      00
 7369 19ae 488D1500 		leaq	.LC55(%rip), %rdx
 7369      000000
 7370 19b5 4889DE   		movq	%rbx, %rsi
 7371 19b8 4889EF   		movq	%rbp, %rdi
 7372 19bb E8000000 		call	_ZN8UnitTest11TestResults13OnTestFailureERKNS_11TestDetailsEPKc@PLT
 7372      00
 7373              	.LEHE382:
 7374              	.LEHB383:
 7375 19c0 E8000000 		call	__cxa_end_catch@PLT
 7375      00
 7376              	.LEHE383:
 7377 19c5 E9000000 		jmp	.L488
 7377      00
 7378              	.L484:
 7379 19ca E8000000 		call	__cxa_begin_catch@PLT
 7379      00
 7380              	.LEHB384:
 7381 19cf E8000000 		call	_ZN8UnitTest11CurrentTest7ResultsEv@PLT
 7381      00
 7382 19d4 488B28   		movq	(%rax), %rbp
 7383 19d7 E8000000 		call	_ZN8UnitTest11CurrentTest7DetailsEv@PLT
 7383      00
 7384 19dc 488B30   		movq	(%rax), %rsi
 7385 19df BA870000 		movl	$135, %edx
 7385      00
 7386 19e4 4889DF   		movq	%rbx, %rdi
 7387 19e7 E8000000 		call	_ZN8UnitTest11TestDetailsC1ERKS0_i@PLT
 7387      00
 7388 19ec 488D1500 		leaq	.LC54(%rip), %rdx
 7388      000000
 7389 19f3 4889DE   		movq	%rbx, %rsi
 7390 19f6 4889EF   		movq	%rbp, %rdi
 7391 19f9 E8000000 		call	_ZN8UnitTest11TestResults13OnTestFailureERKNS_11TestDetailsEPKc@PLT
 7391      00
 7392              	.LEHE384:
 7393              	.LEHB385:
 7394 19fe E8000000 		call	__cxa_end_catch@PLT
 7394      00
 7395              	.LEHE385:
 7396 1a03 E9000000 		jmp	.L485
 7396      00
 7397              	.L532:
 7398 1a08 F30F1EFA 		endbr64
 7399 1a0c 4889C3   		movq	%rax, %rbx
 7400 1a0f E8000000 		call	__cxa_end_catch@PLT
 7400      00
 7401 1a14 4889DF   		movq	%rbx, %rdi
 7402              	.LEHB386:
 7403 1a17 E8000000 		call	_Unwind_Resume@PLT
 7403      00
 7404              	.LEHE386:
 7405              	.L530:
 7406 1a1c F30F1EFA 		endbr64
 7407 1a20 4889C3   		movq	%rax, %rbx
 7408 1a23 E8000000 		call	__cxa_end_catch@PLT
 7408      00
 7409 1a28 4889DF   		movq	%rbx, %rdi
 7410              	.LEHB387:
 7411 1a2b E8000000 		call	_Unwind_Resume@PLT
 7411      00
 7412              	.LEHE387:
 7413              	.L481:
 7414 1a30 E8000000 		call	__cxa_begin_catch@PLT
 7414      00
 7415              	.LEHB388:
 7416 1a35 E8000000 		call	_ZN8UnitTest11CurrentTest7ResultsEv@PLT
 7416      00
 7417 1a3a 488B28   		movq	(%rax), %rbp
 7418 1a3d E8000000 		call	_ZN8UnitTest11CurrentTest7DetailsEv@PLT
 7418      00
 7419 1a42 488B30   		movq	(%rax), %rsi
 7420 1a45 BA860000 		movl	$134, %edx
 7420      00
 7421 1a4a 4889DF   		movq	%rbx, %rdi
 7422 1a4d E8000000 		call	_ZN8UnitTest11TestDetailsC1ERKS0_i@PLT
 7422      00
 7423 1a52 488D1500 		leaq	.LC53(%rip), %rdx
 7423      000000
 7424 1a59 4889DE   		movq	%rbx, %rsi
 7425 1a5c 4889EF   		movq	%rbp, %rdi
 7426 1a5f E8000000 		call	_ZN8UnitTest11TestResults13OnTestFailureERKNS_11TestDetailsEPKc@PLT
 7426      00
 7427              	.LEHE388:
 7428              	.LEHB389:
 7429 1a64 E8000000 		call	__cxa_end_catch@PLT
 7429      00
 7430              	.LEHE389:
 7431 1a69 E9000000 		jmp	.L482
 7431      00
 7432              	.L478:
 7433 1a6e E8000000 		call	__cxa_begin_catch@PLT
 7433      00
 7434              	.LEHB390:
 7435 1a73 E8000000 		call	_ZN8UnitTest11CurrentTest7ResultsEv@PLT
 7435      00
 7436 1a78 488B28   		movq	(%rax), %rbp
 7437 1a7b E8000000 		call	_ZN8UnitTest11CurrentTest7DetailsEv@PLT
 7437      00
 7438 1a80 488B30   		movq	(%rax), %rsi
 7439 1a83 BA850000 		movl	$133, %edx
 7439      00
 7440 1a88 4889DF   		movq	%rbx, %rdi
 7441 1a8b E8000000 		call	_ZN8UnitTest11TestDetailsC1ERKS0_i@PLT
 7441      00
 7442 1a90 488D1500 		leaq	.LC52(%rip), %rdx
 7442      000000
 7443 1a97 4889DE   		movq	%rbx, %rsi
 7444 1a9a 4889EF   		movq	%rbp, %rdi
 7445 1a9d E8000000 		call	_ZN8UnitTest11TestResults13OnTestFailureERKNS_11TestDetailsEPKc@PLT
 7445      00
 7446              	.LEHE390:
 7447              	.LEHB391:
 7448 1aa2 E8000000 		call	__cxa_end_catch@PLT
 7448      00
 7449              	.LEHE391:
 7450 1aa7 E9000000 		jmp	.L479
 7450      00
 7451              	.L528:
 7452 1aac F30F1EFA 		endbr64
 7453 1ab0 4889C3   		movq	%rax, %rbx
 7454 1ab3 E8000000 		call	__cxa_end_catch@PLT
 7454      00
 7455 1ab8 4889DF   		movq	%rbx, %rdi
 7456              	.LEHB392:
 7457 1abb E8000000 		call	_Unwind_Resume@PLT
 7457      00
 7458              	.LEHE392:
 7459              	.L526:
 7460 1ac0 F30F1EFA 		endbr64
 7461 1ac4 4889C3   		movq	%rax, %rbx
 7462 1ac7 E8000000 		call	__cxa_end_catch@PLT
 7462      00
 7463 1acc 4889DF   		movq	%rbx, %rdi
 7464              	.LEHB393:
 7465 1acf E8000000 		call	_Unwind_Resume@PLT
 7465      00
 7466              	.LEHE393:
 7467              	.L475:
 7468 1ad4 E8000000 		call	__cxa_begin_catch@PLT
 7468      00
 7469              	.LEHB394:
 7470 1ad9 E8000000 		call	_ZN8UnitTest11CurrentTest7ResultsEv@PLT
 7470      00
 7471 1ade 488B28   		movq	(%rax), %rbp
 7472 1ae1 E8000000 		call	_ZN8UnitTest11CurrentTest7DetailsEv@PLT
 7472      00
 7473 1ae6 488B30   		movq	(%rax), %rsi
 7474 1ae9 BA840000 		movl	$132, %edx
 7474      00
 7475 1aee 4889DF   		movq	%rbx, %rdi
 7476 1af1 E8000000 		call	_ZN8UnitTest11TestDetailsC1ERKS0_i@PLT
 7476      00
 7477 1af6 488D1500 		leaq	.LC51(%rip), %rdx
 7477      000000
 7478 1afd 4889DE   		movq	%rbx, %rsi
 7479 1b00 4889EF   		movq	%rbp, %rdi
 7480 1b03 E8000000 		call	_ZN8UnitTest11TestResults13OnTestFailureERKNS_11TestDetailsEPKc@PLT
 7480      00
 7481              	.LEHE394:
 7482              	.LEHB395:
 7483 1b08 E8000000 		call	__cxa_end_catch@PLT
 7483      00
 7484              	.LEHE395:
 7485 1b0d E9000000 		jmp	.L476
 7485      00
 7486              	.L472:
 7487 1b12 E8000000 		call	__cxa_begin_catch@PLT
 7487      00
 7488              	.LEHB396:
 7489 1b17 E8000000 		call	_ZN8UnitTest11CurrentTest7ResultsEv@PLT
 7489      00
 7490 1b1c 488B28   		movq	(%rax), %rbp
 7491 1b1f E8000000 		call	_ZN8UnitTest11CurrentTest7DetailsEv@PLT
 7491      00
 7492 1b24 488D5C24 		leaq	16(%rsp), %rbx
 7492      10
 7493 1b29 488B30   		movq	(%rax), %rsi
 7494 1b2c BA830000 		movl	$131, %edx
 7494      00
 7495 1b31 4889DF   		movq	%rbx, %rdi
 7496 1b34 E8000000 		call	_ZN8UnitTest11TestDetailsC1ERKS0_i@PLT
 7496      00
 7497 1b39 488D1500 		leaq	.LC50(%rip), %rdx
 7497      000000
 7498 1b40 4889DE   		movq	%rbx, %rsi
 7499 1b43 4889EF   		movq	%rbp, %rdi
 7500 1b46 E8000000 		call	_ZN8UnitTest11TestResults13OnTestFailureERKNS_11TestDetailsEPKc@PLT
 7500      00
 7501              	.LEHE396:
 7502              	.LEHB397:
 7503 1b4b E8000000 		call	__cxa_end_catch@PLT
 7503      00
 7504              	.LEHE397:
 7505 1b50 E9000000 		jmp	.L473
 7505      00
 7506              	.L524:
 7507 1b55 F30F1EFA 		endbr64
 7508 1b59 4889C3   		movq	%rax, %rbx
 7509 1b5c E8000000 		call	__cxa_end_catch@PLT
 7509      00
 7510 1b61 4889DF   		movq	%rbx, %rdi
 7511              	.LEHB398:
 7512 1b64 E8000000 		call	_Unwind_Resume@PLT
 7512      00
 7513              	.LEHE398:
 7514              	.L522:
 7515 1b69 F30F1EFA 		endbr64
 7516 1b6d 4889C3   		movq	%rax, %rbx
 7517 1b70 E8000000 		call	__cxa_end_catch@PLT
 7517      00
 7518 1b75 4889DF   		movq	%rbx, %rdi
 7519              	.LEHB399:
 7520 1b78 E8000000 		call	_Unwind_Resume@PLT
 7520      00
 7521              	.LEHE399:
 7522              		.cfi_endproc
 7523              	.LFE1207:
 7524              		.section	.gcc_except_table
 7525              		.align 4
 7526              	.LLSDAC1207:
 7527 0754 FF       		.byte	0xff
 7528 0755 9B       		.byte	0x9b
 7529 0756 8802     		.uleb128 .LLSDATTC1207-.LLSDATTDC1207
 7530              	.LLSDATTDC1207:
 7531 0758 01       		.byte	0x1
 7532 0759 FD01     		.uleb128 .LLSDACSEC1207-.LLSDACSBC1207
 7533              	.LLSDACSBC1207:
 7534 075b 05       		.uleb128 .LEHB352-.LCOLDB66
 7535 075c 2F       		.uleb128 .LEHE352-.LEHB352
 7536 075d A601     		.uleb128 .L552-.LCOLDB66
 7537 075f 00       		.uleb128 0
 7538 0760 4A       		.uleb128 .LEHB353-.LCOLDB66
 7539 0761 05       		.uleb128 .LEHE353-.LEHB353
 7540 0762 00       		.uleb128 0
 7541 0763 00       		.uleb128 0
 7542 0764 54       		.uleb128 .LEHB354-.LCOLDB66
 7543 0765 2F       		.uleb128 .LEHE354-.LEHB354
 7544 0766 9201     		.uleb128 .L550-.LCOLDB66
 7545 0768 00       		.uleb128 0
 7546 0769 8301     		.uleb128 .LEHB355-.LCOLDB66
 7547 076b 05       		.uleb128 .LEHE355-.LEHB355
 7548 076c 00       		.uleb128 0
 7549 076d 00       		.uleb128 0
 7550 076e A101     		.uleb128 .LEHB356-.LCOLDB66
 7551 0770 05       		.uleb128 .LEHE356-.LEHB356
 7552 0771 00       		.uleb128 0
 7553 0772 00       		.uleb128 0
 7554 0773 B501     		.uleb128 .LEHB357-.LCOLDB66
 7555 0775 05       		.uleb128 .LEHE357-.LEHB357
 7556 0776 00       		.uleb128 0
 7557 0777 00       		.uleb128 0
 7558 0778 BF01     		.uleb128 .LEHB358-.LCOLDB66
 7559 077a 2F       		.uleb128 .LEHE358-.LEHB358
 7560 077b B602     		.uleb128 .L548-.LCOLDB66
 7561 077d 00       		.uleb128 0
 7562 077e EE01     		.uleb128 .LEHB359-.LCOLDB66
 7563 0780 05       		.uleb128 .LEHE359-.LEHB359
 7564 0781 00       		.uleb128 0
 7565 0782 00       		.uleb128 0
 7566 0783 FD01     		.uleb128 .LEHB360-.LCOLDB66
 7567 0785 2F       		.uleb128 .LEHE360-.LEHB360
 7568 0786 CA02     		.uleb128 .L546-.LCOLDB66
 7569 0788 00       		.uleb128 0
 7570 0789 AC02     		.uleb128 .LEHB361-.LCOLDB66
 7571 078b 05       		.uleb128 .LEHE361-.LEHB361
 7572 078c 00       		.uleb128 0
 7573 078d 00       		.uleb128 0
 7574 078e C502     		.uleb128 .LEHB362-.LCOLDB66
 7575 0790 05       		.uleb128 .LEHE362-.LEHB362
 7576 0791 00       		.uleb128 0
 7577 0792 00       		.uleb128 0
 7578 0793 D902     		.uleb128 .LEHB363-.LCOLDB66
 7579 0795 05       		.uleb128 .LEHE363-.LEHB363
 7580 0796 00       		.uleb128 0
 7581 0797 00       		.uleb128 0
 7582 0798 E302     		.uleb128 .LEHB364-.LCOLDB66
 7583 079a 2F       		.uleb128 .LEHE364-.LEHB364
 7584 079b DA03     		.uleb128 .L544-.LCOLDB66
 7585 079d 00       		.uleb128 0
 7586 079e 9203     		.uleb128 .LEHB365-.LCOLDB66
 7587 07a0 05       		.uleb128 .LEHE365-.LEHB365
 7588 07a1 00       		.uleb128 0
 7589 07a2 00       		.uleb128 0
 7590 07a3 A103     		.uleb128 .LEHB366-.LCOLDB66
 7591 07a5 2F       		.uleb128 .LEHE366-.LEHB366
 7592 07a6 EE03     		.uleb128 .L542-.LCOLDB66
 7593 07a8 00       		.uleb128 0
 7594 07a9 D003     		.uleb128 .LEHB367-.LCOLDB66
 7595 07ab 05       		.uleb128 .LEHE367-.LEHB367
 7596 07ac 00       		.uleb128 0
 7597 07ad 00       		.uleb128 0
 7598 07ae E903     		.uleb128 .LEHB368-.LCOLDB66
 7599 07b0 05       		.uleb128 .LEHE368-.LEHB368
 7600 07b1 00       		.uleb128 0
 7601 07b2 00       		.uleb128 0
 7602 07b3 FD03     		.uleb128 .LEHB369-.LCOLDB66
 7603 07b5 05       		.uleb128 .LEHE369-.LEHB369
 7604 07b6 00       		.uleb128 0
 7605 07b7 00       		.uleb128 0
 7606 07b8 8704     		.uleb128 .LEHB370-.LCOLDB66
 7607 07ba 2F       		.uleb128 .LEHE370-.LEHB370
 7608 07bb FE04     		.uleb128 .L540-.LCOLDB66
 7609 07bd 00       		.uleb128 0
 7610 07be B604     		.uleb128 .LEHB371-.LCOLDB66
 7611 07c0 05       		.uleb128 .LEHE371-.LEHB371
 7612 07c1 00       		.uleb128 0
 7613 07c2 00       		.uleb128 0
 7614 07c3 C504     		.uleb128 .LEHB372-.LCOLDB66
 7615 07c5 2F       		.uleb128 .LEHE372-.LEHB372
 7616 07c6 9205     		.uleb128 .L538-.LCOLDB66
 7617 07c8 00       		.uleb128 0
 7618 07c9 F404     		.uleb128 .LEHB373-.LCOLDB66
 7619 07cb 05       		.uleb128 .LEHE373-.LEHB373
 7620 07cc 00       		.uleb128 0
 7621 07cd 00       		.uleb128 0
 7622 07ce 8D05     		.uleb128 .LEHB374-.LCOLDB66
 7623 07d0 05       		.uleb128 .LEHE374-.LEHB374
 7624 07d1 00       		.uleb128 0
 7625 07d2 00       		.uleb128 0
 7626 07d3 A105     		.uleb128 .LEHB375-.LCOLDB66
 7627 07d5 05       		.uleb128 .LEHE375-.LEHB375
 7628 07d6 00       		.uleb128 0
 7629 07d7 00       		.uleb128 0
 7630 07d8 AB05     		.uleb128 .LEHB376-.LCOLDB66
 7631 07da 2F       		.uleb128 .LEHE376-.LEHB376
 7632 07db A206     		.uleb128 .L536-.LCOLDB66
 7633 07dd 00       		.uleb128 0
 7634 07de DA05     		.uleb128 .LEHB377-.LCOLDB66
 7635 07e0 05       		.uleb128 .LEHE377-.LEHB377
 7636 07e1 00       		.uleb128 0
 7637 07e2 00       		.uleb128 0
 7638 07e3 E905     		.uleb128 .LEHB378-.LCOLDB66
 7639 07e5 2F       		.uleb128 .LEHE378-.LEHB378
 7640 07e6 B606     		.uleb128 .L534-.LCOLDB66
 7641 07e8 00       		.uleb128 0
 7642 07e9 9806     		.uleb128 .LEHB379-.LCOLDB66
 7643 07eb 05       		.uleb128 .LEHE379-.LEHB379
 7644 07ec 00       		.uleb128 0
 7645 07ed 00       		.uleb128 0
 7646 07ee B106     		.uleb128 .LEHB380-.LCOLDB66
 7647 07f0 05       		.uleb128 .LEHE380-.LEHB380
 7648 07f1 00       		.uleb128 0
 7649 07f2 00       		.uleb128 0
 7650 07f3 C506     		.uleb128 .LEHB381-.LCOLDB66
 7651 07f5 05       		.uleb128 .LEHE381-.LEHB381
 7652 07f6 00       		.uleb128 0
 7653 07f7 00       		.uleb128 0
 7654 07f8 CF06     		.uleb128 .LEHB382-.LCOLDB66
 7655 07fa 2F       		.uleb128 .LEHE382-.LEHB382
 7656 07fb C607     		.uleb128 .L532-.LCOLDB66
 7657 07fd 00       		.uleb128 0
 7658 07fe FE06     		.uleb128 .LEHB383-.LCOLDB66
 7659 0800 05       		.uleb128 .LEHE383-.LEHB383
 7660 0801 00       		.uleb128 0
 7661 0802 00       		.uleb128 0
 7662 0803 8D07     		.uleb128 .LEHB384-.LCOLDB66
 7663 0805 2F       		.uleb128 .LEHE384-.LEHB384
 7664 0806 DA07     		.uleb128 .L530-.LCOLDB66
 7665 0808 00       		.uleb128 0
 7666 0809 BC07     		.uleb128 .LEHB385-.LCOLDB66
 7667 080b 05       		.uleb128 .LEHE385-.LEHB385
 7668 080c 00       		.uleb128 0
 7669 080d 00       		.uleb128 0
 7670 080e D507     		.uleb128 .LEHB386-.LCOLDB66
 7671 0810 05       		.uleb128 .LEHE386-.LEHB386
 7672 0811 00       		.uleb128 0
 7673 0812 00       		.uleb128 0
 7674 0813 E907     		.uleb128 .LEHB387-.LCOLDB66
 7675 0815 05       		.uleb128 .LEHE387-.LEHB387
 7676 0816 00       		.uleb128 0
 7677 0817 00       		.uleb128 0
 7678 0818 F307     		.uleb128 .LEHB388-.LCOLDB66
 7679 081a 2F       		.uleb128 .LEHE388-.LEHB388
 7680 081b EA08     		.uleb128 .L528-.LCOLDB66
 7681 081d 00       		.uleb128 0
 7682 081e A208     		.uleb128 .LEHB389-.LCOLDB66
 7683 0820 05       		.uleb128 .LEHE389-.LEHB389
 7684 0821 00       		.uleb128 0
 7685 0822 00       		.uleb128 0
 7686 0823 B108     		.uleb128 .LEHB390-.LCOLDB66
 7687 0825 2F       		.uleb128 .LEHE390-.LEHB390
 7688 0826 FE08     		.uleb128 .L526-.LCOLDB66
 7689 0828 00       		.uleb128 0
 7690 0829 E008     		.uleb128 .LEHB391-.LCOLDB66
 7691 082b 05       		.uleb128 .LEHE391-.LEHB391
 7692 082c 00       		.uleb128 0
 7693 082d 00       		.uleb128 0
 7694 082e F908     		.uleb128 .LEHB392-.LCOLDB66
 7695 0830 05       		.uleb128 .LEHE392-.LEHB392
 7696 0831 00       		.uleb128 0
 7697 0832 00       		.uleb128 0
 7698 0833 8D09     		.uleb128 .LEHB393-.LCOLDB66
 7699 0835 05       		.uleb128 .LEHE393-.LEHB393
 7700 0836 00       		.uleb128 0
 7701 0837 00       		.uleb128 0
 7702 0838 9709     		.uleb128 .LEHB394-.LCOLDB66
 7703 083a 2F       		.uleb128 .LEHE394-.LEHB394
 7704 083b 930A     		.uleb128 .L524-.LCOLDB66
 7705 083d 00       		.uleb128 0
 7706 083e C609     		.uleb128 .LEHB395-.LCOLDB66
 7707 0840 05       		.uleb128 .LEHE395-.LEHB395
 7708 0841 00       		.uleb128 0
 7709 0842 00       		.uleb128 0
 7710 0843 D509     		.uleb128 .LEHB396-.LCOLDB66
 7711 0845 34       		.uleb128 .LEHE396-.LEHB396
 7712 0846 A70A     		.uleb128 .L522-.LCOLDB66
 7713 0848 00       		.uleb128 0
 7714 0849 890A     		.uleb128 .LEHB397-.LCOLDB66
 7715 084b 05       		.uleb128 .LEHE397-.LEHB397
 7716 084c 00       		.uleb128 0
 7717 084d 00       		.uleb128 0
 7718 084e A20A     		.uleb128 .LEHB398-.LCOLDB66
 7719 0850 05       		.uleb128 .LEHE398-.LEHB398
 7720 0851 00       		.uleb128 0
 7721 0852 00       		.uleb128 0
 7722 0853 B60A     		.uleb128 .LEHB399-.LCOLDB66
 7723 0855 05       		.uleb128 .LEHE399-.LEHB399
 7724 0856 00       		.uleb128 0
 7725 0857 00       		.uleb128 0
 7726              	.LLSDACSEC1207:
 7727 0858 01       		.byte	0x1
 7728 0859 00       		.byte	0
 7729 085a 0000     		.align 4
 7730 085c 00000000 		.long	0
 7731              	
 7732              	.LLSDATTC1207:
 7733              		.section	.text.unlikely
 7734              		.text
 7736              		.section	.text.unlikely
 7738              	.LCOLDE66:
 7739              		.text
 7740              	.LHOTE66:
 7741              		.section	.rodata.str1.1
 7742              	.LC67:
 7743 000f 74657374 		.string	"testConv.cpp"
 7743      436F6E76 
 7743      2E637070 
 7743      00
 7744              	.LC68:
 7745 001c 44656661 		.string	"DefaultSuite"
 7745      756C7453 
 7745      75697465 
 7745      00
 7746              	.LC69:
 7747 0029 436F6E76 		.string	"Conv_testGetHexNibble"
 7747      5F746573 
 7747      74476574 
 7747      4865784E 
 7747      6962626C 
 7748              	.LC70:
 7749 003f 436F6E76 		.string	"Conv_testGetHexByte"
 7749      5F746573 
 7749      74476574 
 7749      48657842 
 7749      79746500 
 7750              	.LC71:
 7751 0053 436F6E76 		.string	"Conv_testGetHexUpperNibble"
 7751      5F746573 
 7751      74476574 
 7751      48657855 
 7751      70706572 
 7752              	.LC72:
 7753 006e 436F6E76 		.string	"Conv_testGetHexLowerNibble"
 7753      5F746573 
 7753      74476574 
 7753      4865784C 
 7753      6F776572 
 7754              		.section	.text.startup,"ax",@progbits
 7755              		.p2align 4
 7757              	_GLOBAL__sub_I_testConv_testGetHexNibbleInstance:
 7758              	.LFB1315:
 7759              		.cfi_startproc
 7760 0000 F30F1EFA 		endbr64
 7761 0004 4155     		pushq	%r13
 7762              		.cfi_def_cfa_offset 16
 7763              		.cfi_offset 13, -16
 7764 0006 4C8D2D00 		leaq	testConv_testGetHexNibbleInstance(%rip), %r13
 7764      000000
 7765 000d 41B81400 		movl	$20, %r8d
 7765      0000
 7766 0013 488D3500 		leaq	.LC69(%rip), %rsi
 7766      000000
 7767 001a 4154     		pushq	%r12
 7768              		.cfi_def_cfa_offset 24
 7769              		.cfi_offset 12, -24
 7770 001c 4C8D2500 		leaq	.LC67(%rip), %r12
 7770      000000
 7771 0023 4C89EF   		movq	%r13, %rdi
 7772 0026 55       		pushq	%rbp
 7773              		.cfi_def_cfa_offset 32
 7774              		.cfi_offset 6, -32
 7775 0027 488D2D00 		leaq	.LC68(%rip), %rbp
 7775      000000
 7776 002e 4C89E1   		movq	%r12, %rcx
 7777 0031 53       		pushq	%rbx
 7778              		.cfi_def_cfa_offset 40
 7779              		.cfi_offset 3, -40
 7780 0032 4889EA   		movq	%rbp, %rdx
 7781 0035 488D1D00 		leaq	__dso_handle(%rip), %rbx
 7781      000000
 7782 003c 4883EC08 		subq	$8, %rsp
 7783              		.cfi_def_cfa_offset 48
 7784 0040 E8000000 		call	_ZN8UnitTest4TestC2EPKcS2_S2_i@PLT
 7784      00
 7785 0045 4889DA   		movq	%rbx, %rdx
 7786 0048 4C89EE   		movq	%r13, %rsi
 7787 004b 488D3D00 		leaq	_ZN25TestConv_testGetHexNibbleD1Ev(%rip), %rdi
 7787      000000
 7788 0052 488D0500 		leaq	16+_ZTV25TestConv_testGetHexNibble(%rip), %rax
 7788      000000
 7789 0059 48890500 		movq	%rax, testConv_testGetHexNibbleInstance(%rip)
 7789      000000
 7790 0060 E8000000 		call	__cxa_atexit@PLT
 7790      00
 7791 0065 E8000000 		call	_ZN8UnitTest4Test11GetTestListEv@PLT
 7791      00
 7792 006a 4C89EA   		movq	%r13, %rdx
 7793 006d 488D3D00 		leaq	adderConv_testGetHexNibble(%rip), %rdi
 7793      000000
 7794 0074 4C8D2D00 		leaq	testConv_testGetHexByteInstance(%rip), %r13
 7794      000000
 7795 007b 4889C6   		movq	%rax, %rsi
 7796 007e E8000000 		call	_ZN8UnitTest9ListAdderC1ERNS_8TestListEPNS_4TestE@PLT
 7796      00
 7797 0083 4C89E1   		movq	%r12, %rcx
 7798 0086 4889EA   		movq	%rbp, %rdx
 7799 0089 4C89EF   		movq	%r13, %rdi
 7800 008c 41B85D00 		movl	$93, %r8d
 7800      0000
 7801 0092 488D3500 		leaq	.LC70(%rip), %rsi
 7801      000000
 7802 0099 E8000000 		call	_ZN8UnitTest4TestC2EPKcS2_S2_i@PLT
 7802      00
 7803 009e 4889DA   		movq	%rbx, %rdx
 7804 00a1 4C89EE   		movq	%r13, %rsi
 7805 00a4 488D3D00 		leaq	_ZN23TestConv_testGetHexByteD1Ev(%rip), %rdi
 7805      000000
 7806 00ab 488D0500 		leaq	16+_ZTV23TestConv_testGetHexByte(%rip), %rax
 7806      000000
 7807 00b2 48890500 		movq	%rax, testConv_testGetHexByteInstance(%rip)
 7807      000000
 7808 00b9 E8000000 		call	__cxa_atexit@PLT
 7808      00
 7809 00be E8000000 		call	_ZN8UnitTest4Test11GetTestListEv@PLT
 7809      00
 7810 00c3 4C89EA   		movq	%r13, %rdx
 7811 00c6 488D3D00 		leaq	adderConv_testGetHexByte(%rip), %rdi
 7811      000000
 7812 00cd 4C8D2D00 		leaq	testConv_testGetHexUpperNibbleInstance(%rip), %r13
 7812      000000
 7813 00d4 4889C6   		movq	%rax, %rsi
 7814 00d7 E8000000 		call	_ZN8UnitTest9ListAdderC1ERNS_8TestListEPNS_4TestE@PLT
 7814      00
 7815 00dc 4C89E1   		movq	%r12, %rcx
 7816 00df 4889EA   		movq	%rbp, %rdx
 7817 00e2 4C89EF   		movq	%r13, %rdi
 7818 00e5 41B86F00 		movl	$111, %r8d
 7818      0000
 7819 00eb 488D3500 		leaq	.LC71(%rip), %rsi
 7819      000000
 7820 00f2 E8000000 		call	_ZN8UnitTest4TestC2EPKcS2_S2_i@PLT
 7820      00
 7821 00f7 4889DA   		movq	%rbx, %rdx
 7822 00fa 4C89EE   		movq	%r13, %rsi
 7823 00fd 488D3D00 		leaq	_ZN30TestConv_testGetHexUpperNibbleD1Ev(%rip), %rdi
 7823      000000
 7824 0104 488D0500 		leaq	16+_ZTV30TestConv_testGetHexUpperNibble(%rip), %rax
 7824      000000
 7825 010b 48890500 		movq	%rax, testConv_testGetHexUpperNibbleInstance(%rip)
 7825      000000
 7826 0112 E8000000 		call	__cxa_atexit@PLT
 7826      00
 7827 0117 E8000000 		call	_ZN8UnitTest4Test11GetTestListEv@PLT
 7827      00
 7828 011c 4C89EA   		movq	%r13, %rdx
 7829 011f 488D3D00 		leaq	adderConv_testGetHexUpperNibble(%rip), %rdi
 7829      000000
 7830 0126 4889C6   		movq	%rax, %rsi
 7831 0129 E8000000 		call	_ZN8UnitTest9ListAdderC1ERNS_8TestListEPNS_4TestE@PLT
 7831      00
 7832 012e 4889EA   		movq	%rbp, %rdx
 7833 0131 4C89E1   		movq	%r12, %rcx
 7834 0134 488D2D00 		leaq	testConv_testGetHexLowerNibbleInstance(%rip), %rbp
 7834      000000
 7835 013b 41B88200 		movl	$130, %r8d
 7835      0000
 7836 0141 4889EF   		movq	%rbp, %rdi
 7837 0144 488D3500 		leaq	.LC72(%rip), %rsi
 7837      000000
 7838 014b E8000000 		call	_ZN8UnitTest4TestC2EPKcS2_S2_i@PLT
 7838      00
 7839 0150 4889DA   		movq	%rbx, %rdx
 7840 0153 4889EE   		movq	%rbp, %rsi
 7841 0156 488D3D00 		leaq	_ZN30TestConv_testGetHexLowerNibbleD1Ev(%rip), %rdi
 7841      000000
 7842 015d 488D0500 		leaq	16+_ZTV30TestConv_testGetHexLowerNibble(%rip), %rax
 7842      000000
 7843 0164 48890500 		movq	%rax, testConv_testGetHexLowerNibbleInstance(%rip)
 7843      000000
 7844 016b E8000000 		call	__cxa_atexit@PLT
 7844      00
 7845 0170 E8000000 		call	_ZN8UnitTest4Test11GetTestListEv@PLT
 7845      00
 7846 0175 4883C408 		addq	$8, %rsp
 7847              		.cfi_def_cfa_offset 40
 7848 0179 4889EA   		movq	%rbp, %rdx
 7849 017c 488D3D00 		leaq	adderConv_testGetHexLowerNibble(%rip), %rdi
 7849      000000
 7850 0183 5B       		popq	%rbx
 7851              		.cfi_def_cfa_offset 32
 7852 0184 4889C6   		movq	%rax, %rsi
 7853 0187 5D       		popq	%rbp
 7854              		.cfi_def_cfa_offset 24
 7855 0188 415C     		popq	%r12
 7856              		.cfi_def_cfa_offset 16
 7857 018a 415D     		popq	%r13
 7858              		.cfi_def_cfa_offset 8
 7859 018c E9000000 		jmp	_ZN8UnitTest9ListAdderC1ERNS_8TestListEPNS_4TestE@PLT
 7859      00
 7860              		.cfi_endproc
 7861              	.LFE1315:
 7863              		.section	.init_array,"aw"
 7864              		.align 8
 7865 0000 00000000 		.quad	_GLOBAL__sub_I_testConv_testGetHexNibbleInstance
 7865      00000000 
 7866              		.weak	_ZTSN8UnitTest15MemoryOutStreamE
 7867              		.section	.rodata._ZTSN8UnitTest15MemoryOutStreamE,"aG",@progbits,_ZTSN8UnitTest15MemoryOutStreamE,
 7868              		.align 16
 7871              	_ZTSN8UnitTest15MemoryOutStreamE:
 7872 0000 4E38556E 		.string	"N8UnitTest15MemoryOutStreamE"
 7872      69745465 
 7872      73743135 
 7872      4D656D6F 
 7872      72794F75 
 7873              		.weak	_ZTIN8UnitTest15MemoryOutStreamE
 7874              		.section	.data.rel.ro._ZTIN8UnitTest15MemoryOutStreamE,"awG",@progbits,_ZTIN8UnitTest15MemoryOutSt
 7875              		.align 8
 7878              	_ZTIN8UnitTest15MemoryOutStreamE:
 7879 0000 00000000 		.quad	_ZTVN10__cxxabiv120__si_class_type_infoE+16
 7879      00000000 
 7880 0008 00000000 		.quad	_ZTSN8UnitTest15MemoryOutStreamE
 7880      00000000 
 7881 0010 00000000 		.quad	_ZTINSt7__cxx1119basic_ostringstreamIcSt11char_traitsIcESaIcEEE
 7881      00000000 
 7882              		.weak	_ZTS25TestConv_testGetHexNibble
 7883              		.section	.rodata._ZTS25TestConv_testGetHexNibble,"aG",@progbits,_ZTS25TestConv_testGetHexNibble,co
 7884              		.align 16
 7887              	_ZTS25TestConv_testGetHexNibble:
 7888 0000 32355465 		.string	"25TestConv_testGetHexNibble"
 7888      7374436F 
 7888      6E765F74 
 7888      65737447 
 7888      65744865 
 7889              		.weak	_ZTI25TestConv_testGetHexNibble
 7890              		.section	.data.rel.ro._ZTI25TestConv_testGetHexNibble,"awG",@progbits,_ZTI25TestConv_testGetHexNib
 7891              		.align 8
 7894              	_ZTI25TestConv_testGetHexNibble:
 7895 0000 00000000 		.quad	_ZTVN10__cxxabiv120__si_class_type_infoE+16
 7895      00000000 
 7896 0008 00000000 		.quad	_ZTS25TestConv_testGetHexNibble
 7896      00000000 
 7897 0010 00000000 		.quad	_ZTIN8UnitTest4TestE
 7897      00000000 
 7898              		.weak	_ZTS23TestConv_testGetHexByte
 7899              		.section	.rodata._ZTS23TestConv_testGetHexByte,"aG",@progbits,_ZTS23TestConv_testGetHexByte,comdat
 7900              		.align 16
 7903              	_ZTS23TestConv_testGetHexByte:
 7904 0000 32335465 		.string	"23TestConv_testGetHexByte"
 7904      7374436F 
 7904      6E765F74 
 7904      65737447 
 7904      65744865 
 7905              		.weak	_ZTI23TestConv_testGetHexByte
 7906              		.section	.data.rel.ro._ZTI23TestConv_testGetHexByte,"awG",@progbits,_ZTI23TestConv_testGetHexByte,
 7907              		.align 8
 7910              	_ZTI23TestConv_testGetHexByte:
 7911 0000 00000000 		.quad	_ZTVN10__cxxabiv120__si_class_type_infoE+16
 7911      00000000 
 7912 0008 00000000 		.quad	_ZTS23TestConv_testGetHexByte
 7912      00000000 
 7913 0010 00000000 		.quad	_ZTIN8UnitTest4TestE
 7913      00000000 
 7914              		.weak	_ZTS30TestConv_testGetHexUpperNibble
 7915              		.section	.rodata._ZTS30TestConv_testGetHexUpperNibble,"aG",@progbits,_ZTS30TestConv_testGetHexUppe
 7916              		.align 32
 7919              	_ZTS30TestConv_testGetHexUpperNibble:
 7920 0000 33305465 		.string	"30TestConv_testGetHexUpperNibble"
 7920      7374436F 
 7920      6E765F74 
 7920      65737447 
 7920      65744865 
 7921              		.weak	_ZTI30TestConv_testGetHexUpperNibble
 7922              		.section	.data.rel.ro._ZTI30TestConv_testGetHexUpperNibble,"awG",@progbits,_ZTI30TestConv_testGetH
 7923              		.align 8
 7926              	_ZTI30TestConv_testGetHexUpperNibble:
 7927 0000 00000000 		.quad	_ZTVN10__cxxabiv120__si_class_type_infoE+16
 7927      00000000 
 7928 0008 00000000 		.quad	_ZTS30TestConv_testGetHexUpperNibble
 7928      00000000 
 7929 0010 00000000 		.quad	_ZTIN8UnitTest4TestE
 7929      00000000 
 7930              		.weak	_ZTS30TestConv_testGetHexLowerNibble
 7931              		.section	.rodata._ZTS30TestConv_testGetHexLowerNibble,"aG",@progbits,_ZTS30TestConv_testGetHexLowe
 7932              		.align 32
 7935              	_ZTS30TestConv_testGetHexLowerNibble:
 7936 0000 33305465 		.string	"30TestConv_testGetHexLowerNibble"
 7936      7374436F 
 7936      6E765F74 
 7936      65737447 
 7936      65744865 
 7937              		.weak	_ZTI30TestConv_testGetHexLowerNibble
 7938              		.section	.data.rel.ro._ZTI30TestConv_testGetHexLowerNibble,"awG",@progbits,_ZTI30TestConv_testGetH
 7939              		.align 8
 7942              	_ZTI30TestConv_testGetHexLowerNibble:
 7943 0000 00000000 		.quad	_ZTVN10__cxxabiv120__si_class_type_infoE+16
 7943      00000000 
 7944 0008 00000000 		.quad	_ZTS30TestConv_testGetHexLowerNibble
 7944      00000000 
 7945 0010 00000000 		.quad	_ZTIN8UnitTest4TestE
 7945      00000000 
 7946              		.hidden	_ZTCN8UnitTest15MemoryOutStreamE0_So
 7947              		.weak	_ZTCN8UnitTest15MemoryOutStreamE0_So
 7948              		.section	.data.rel.ro._ZTCN8UnitTest15MemoryOutStreamE0_So,"awG",@progbits,_ZTVN8UnitTest15MemoryO
 7949              		.align 8
 7952              	_ZTCN8UnitTest15MemoryOutStreamE0_So:
 7953 0000 90000000 		.quad	144
 7953      00000000 
 7954 0008 00000000 		.quad	0
 7954      00000000 
 7955 0010 00000000 		.quad	_ZTISo
 7955      00000000 
 7956 0018 00000000 		.quad	0
 7956      00000000 
 7957 0020 00000000 		.quad	0
 7957      00000000 
 7958 0028 70FFFFFF 		.quad	-144
 7958      FFFFFFFF 
 7959 0030 70FFFFFF 		.quad	-144
 7959      FFFFFFFF 
 7960 0038 00000000 		.quad	_ZTISo
 7960      00000000 
 7961 0040 00000000 		.quad	0
 7961      00000000 
 7962 0048 00000000 		.quad	0
 7962      00000000 
 7963              		.hidden	_ZTCN8UnitTest15MemoryOutStreamE0_NSt7__cxx1119basic_ostringstreamIcSt11char_traitsIcESaIc
 7964              		.weak	_ZTCN8UnitTest15MemoryOutStreamE0_NSt7__cxx1119basic_ostringstreamIcSt11char_traitsIcESaIcEE
 7965              		.section	.data.rel.ro._ZTCN8UnitTest15MemoryOutStreamE0_NSt7__cxx1119basic_ostringstreamIcSt11char
 7966              		.align 8
 7969              	_ZTCN8UnitTest15MemoryOutStreamE0_NSt7__cxx1119basic_ostringstreamIcSt11char_traitsIcESaIcEEE:
 7970 0000 90000000 		.quad	144
 7970      00000000 
 7971 0008 00000000 		.quad	0
 7971      00000000 
 7972 0010 00000000 		.quad	_ZTINSt7__cxx1119basic_ostringstreamIcSt11char_traitsIcESaIcEEE
 7972      00000000 
 7973 0018 00000000 		.quad	0
 7973      00000000 
 7974 0020 00000000 		.quad	0
 7974      00000000 
 7975 0028 70FFFFFF 		.quad	-144
 7975      FFFFFFFF 
 7976 0030 70FFFFFF 		.quad	-144
 7976      FFFFFFFF 
 7977 0038 00000000 		.quad	_ZTINSt7__cxx1119basic_ostringstreamIcSt11char_traitsIcESaIcEEE
 7977      00000000 
 7978 0040 00000000 		.quad	0
 7978      00000000 
 7979 0048 00000000 		.quad	0
 7979      00000000 
 7980              		.weak	_ZTTN8UnitTest15MemoryOutStreamE
 7981              		.section	.data.rel.ro.local._ZTTN8UnitTest15MemoryOutStreamE,"awG",@progbits,_ZTVN8UnitTest15Memor
 7982              		.align 8
 7985              	_ZTTN8UnitTest15MemoryOutStreamE:
 7986 0000 00000000 		.quad	_ZTVN8UnitTest15MemoryOutStreamE+24
 7986      00000000 
 7987 0008 00000000 		.quad	_ZTCN8UnitTest15MemoryOutStreamE0_NSt7__cxx1119basic_ostringstreamIcSt11char_traitsIcESaIcEE
 7987      00000000 
 7988 0010 00000000 		.quad	_ZTCN8UnitTest15MemoryOutStreamE0_So+24
 7988      00000000 
 7989 0018 00000000 		.quad	_ZTCN8UnitTest15MemoryOutStreamE0_So+64
 7989      00000000 
 7990 0020 00000000 		.quad	_ZTCN8UnitTest15MemoryOutStreamE0_NSt7__cxx1119basic_ostringstreamIcSt11char_traitsIcESaIcEE
 7990      00000000 
 7991 0028 00000000 		.quad	_ZTVN8UnitTest15MemoryOutStreamE+64
 7991      00000000 
 7992              		.weak	_ZTVN8UnitTest15MemoryOutStreamE
 7993              		.section	.data.rel.ro.local._ZTVN8UnitTest15MemoryOutStreamE,"awG",@progbits,_ZTVN8UnitTest15Memor
 7994              		.align 8
 7997              	_ZTVN8UnitTest15MemoryOutStreamE:
 7998 0000 90000000 		.quad	144
 7998      00000000 
 7999 0008 00000000 		.quad	0
 7999      00000000 
 8000 0010 00000000 		.quad	_ZTIN8UnitTest15MemoryOutStreamE
 8000      00000000 
 8001 0018 00000000 		.quad	_ZN8UnitTest15MemoryOutStreamD1Ev
 8001      00000000 
 8002 0020 00000000 		.quad	_ZN8UnitTest15MemoryOutStreamD0Ev
 8002      00000000 
 8003 0028 70FFFFFF 		.quad	-144
 8003      FFFFFFFF 
 8004 0030 70FFFFFF 		.quad	-144
 8004      FFFFFFFF 
 8005 0038 00000000 		.quad	_ZTIN8UnitTest15MemoryOutStreamE
 8005      00000000 
 8006 0040 00000000 		.quad	_ZTv0_n24_N8UnitTest15MemoryOutStreamD1Ev
 8006      00000000 
 8007 0048 00000000 		.quad	_ZTv0_n24_N8UnitTest15MemoryOutStreamD0Ev
 8007      00000000 
 8008              		.weak	_ZTV25TestConv_testGetHexNibble
 8009              		.section	.data.rel.ro.local._ZTV25TestConv_testGetHexNibble,"awG",@progbits,_ZTV25TestConv_testGet
 8010              		.align 8
 8013              	_ZTV25TestConv_testGetHexNibble:
 8014 0000 00000000 		.quad	0
 8014      00000000 
 8015 0008 00000000 		.quad	_ZTI25TestConv_testGetHexNibble
 8015      00000000 
 8016 0010 00000000 		.quad	_ZN25TestConv_testGetHexNibbleD1Ev
 8016      00000000 
 8017 0018 00000000 		.quad	_ZN25TestConv_testGetHexNibbleD0Ev
 8017      00000000 
 8018 0020 00000000 		.quad	_ZNK25TestConv_testGetHexNibble7RunImplEv
 8018      00000000 
 8019              		.weak	_ZTV23TestConv_testGetHexByte
 8020              		.section	.data.rel.ro.local._ZTV23TestConv_testGetHexByte,"awG",@progbits,_ZTV23TestConv_testGetHe
 8021              		.align 8
 8024              	_ZTV23TestConv_testGetHexByte:
 8025 0000 00000000 		.quad	0
 8025      00000000 
 8026 0008 00000000 		.quad	_ZTI23TestConv_testGetHexByte
 8026      00000000 
 8027 0010 00000000 		.quad	_ZN23TestConv_testGetHexByteD1Ev
 8027      00000000 
 8028 0018 00000000 		.quad	_ZN23TestConv_testGetHexByteD0Ev
 8028      00000000 
 8029 0020 00000000 		.quad	_ZNK23TestConv_testGetHexByte7RunImplEv
 8029      00000000 
 8030              		.weak	_ZTV30TestConv_testGetHexUpperNibble
 8031              		.section	.data.rel.ro.local._ZTV30TestConv_testGetHexUpperNibble,"awG",@progbits,_ZTV30TestConv_te
 8032              		.align 8
 8035              	_ZTV30TestConv_testGetHexUpperNibble:
 8036 0000 00000000 		.quad	0
 8036      00000000 
 8037 0008 00000000 		.quad	_ZTI30TestConv_testGetHexUpperNibble
 8037      00000000 
 8038 0010 00000000 		.quad	_ZN30TestConv_testGetHexUpperNibbleD1Ev
 8038      00000000 
 8039 0018 00000000 		.quad	_ZN30TestConv_testGetHexUpperNibbleD0Ev
 8039      00000000 
 8040 0020 00000000 		.quad	_ZNK30TestConv_testGetHexUpperNibble7RunImplEv
 8040      00000000 
 8041              		.weak	_ZTV30TestConv_testGetHexLowerNibble
 8042              		.section	.data.rel.ro.local._ZTV30TestConv_testGetHexLowerNibble,"awG",@progbits,_ZTV30TestConv_te
 8043              		.align 8
 8046              	_ZTV30TestConv_testGetHexLowerNibble:
 8047 0000 00000000 		.quad	0
 8047      00000000 
 8048 0008 00000000 		.quad	_ZTI30TestConv_testGetHexLowerNibble
 8048      00000000 
 8049 0010 00000000 		.quad	_ZN30TestConv_testGetHexLowerNibbleD1Ev
 8049      00000000 
 8050 0018 00000000 		.quad	_ZN30TestConv_testGetHexLowerNibbleD0Ev
 8050      00000000 
 8051 0020 00000000 		.quad	_ZNK30TestConv_testGetHexLowerNibble7RunImplEv
 8051      00000000 
 8052              		.globl	adderConv_testGetHexLowerNibble
 8053              		.bss
 8056              	adderConv_testGetHexLowerNibble:
 8057 0000 00       		.zero	1
 8058              		.globl	testConv_testGetHexLowerNibbleInstance
 8059 0001 00000000 		.align 32
 8059      00000000 
 8059      00000000 
 8059      00000000 
 8059      00000000 
 8062              	testConv_testGetHexLowerNibbleInstance:
 8063 0020 00000000 		.zero	56
 8063      00000000 
 8063      00000000 
 8063      00000000 
 8063      00000000 
 8064              		.globl	adderConv_testGetHexUpperNibble
 8067              	adderConv_testGetHexUpperNibble:
 8068 0058 00       		.zero	1
 8069              		.globl	testConv_testGetHexUpperNibbleInstance
 8070 0059 00000000 		.align 32
 8070      000000
 8073              	testConv_testGetHexUpperNibbleInstance:
 8074 0060 00000000 		.zero	56
 8074      00000000 
 8074      00000000 
 8074      00000000 
 8074      00000000 
 8075              		.globl	adderConv_testGetHexByte
 8078              	adderConv_testGetHexByte:
 8079 0098 00       		.zero	1
 8080              		.globl	testConv_testGetHexByteInstance
 8081 0099 00000000 		.align 32
 8081      000000
 8084              	testConv_testGetHexByteInstance:
 8085 00a0 00000000 		.zero	56
 8085      00000000 
 8085      00000000 
 8085      00000000 
 8085      00000000 
 8086              		.globl	adderConv_testGetHexNibble
 8089              	adderConv_testGetHexNibble:
 8090 00d8 00       		.zero	1
 8091              		.globl	testConv_testGetHexNibbleInstance
 8092 00d9 00000000 		.align 32
 8092      000000
 8095              	testConv_testGetHexNibbleInstance:
 8096 00e0 00000000 		.zero	56
 8096      00000000 
 8096      00000000 
 8096      00000000 
 8096      00000000 
 8097              		.section	.data.rel.ro.local,"aw"
 8098              		.align 8
 8099              	.LC2:
 8100 0000 00000000 		.quad	_ZTCN8UnitTest15MemoryOutStreamE0_NSt7__cxx1119basic_ostringstreamIcSt11char_traitsIcESaIcEE
 8100      00000000 
 8101              		.section	.data.rel.ro,"aw"
 8102              		.align 8
 8103              	.LC3:
 8104 0000 00000000 		.quad	_ZTVSt15basic_streambufIcSt11char_traitsIcEE+16
 8104      00000000 
 8105              		.align 8
 8106              	.LC4:
 8107 0008 00000000 		.quad	_ZTVNSt7__cxx1115basic_stringbufIcSt11char_traitsIcESaIcEEE+16
 8107      00000000 
 8108              		.hidden	DW.ref.__gxx_personality_v0
 8109              		.weak	DW.ref.__gxx_personality_v0
 8110              		.section	.data.rel.local.DW.ref.__gxx_personality_v0,"awG",@progbits,DW.ref.__gxx_personality_v0,c
 8111              		.align 8
 8114              	DW.ref.__gxx_personality_v0:
 8115 0000 00000000 		.quad	__gxx_personality_v0
 8115      00000000 
 8116              		.hidden	__dso_handle
 8117              		.ident	"GCC: (Ubuntu 12.2.0-17ubuntu1) 12.2.0"
 8118              		.section	.note.GNU-stack,"",@progbits
 8119              		.section	.note.gnu.property,"a"
 8120              		.align 8
 8121 0000 04000000 		.long	1f - 0f
 8122 0004 10000000 		.long	4f - 1f
 8123 0008 05000000 		.long	5
 8124              	0:
 8125 000c 474E5500 		.string	"GNU"
 8126              	1:
 8127              		.align 8
 8128 0010 020000C0 		.long	0xc0000002
 8129 0014 04000000 		.long	3f - 2f
 8130              	2:
 8131 0018 03000000 		.long	0x3
 8132              	3:
 8133 001c 00000000 		.align 8
 8134              	4:
DEFINED SYMBOLS
                            *ABS*:0000000000000000 testConv.cpp
     /tmp/cc4vtjIU.s:8      .text._ZN30TestConv_testGetHexLowerNibbleD2Ev:0000000000000000 _ZN30TestConv_testGetHexLowerNibbleD2Ev
     /tmp/cc4vtjIU.s:8046   .data.rel.ro.local._ZTV30TestConv_testGetHexLowerNibble:0000000000000000 _ZTV30TestConv_testGetHexLowerNibble
     /tmp/cc4vtjIU.s:8      .text._ZN30TestConv_testGetHexLowerNibbleD2Ev:0000000000000000 _ZN30TestConv_testGetHexLowerNibbleD1Ev
     /tmp/cc4vtjIU.s:25     .text._ZN30TestConv_testGetHexLowerNibbleD0Ev:0000000000000000 _ZN30TestConv_testGetHexLowerNibbleD0Ev
     /tmp/cc4vtjIU.s:8114   .data.rel.local.DW.ref.__gxx_personality_v0:0000000000000000 DW.ref.__gxx_personality_v0
     /tmp/cc4vtjIU.s:91     .text._ZN30TestConv_testGetHexUpperNibbleD2Ev:0000000000000000 _ZN30TestConv_testGetHexUpperNibbleD2Ev
     /tmp/cc4vtjIU.s:8035   .data.rel.ro.local._ZTV30TestConv_testGetHexUpperNibble:0000000000000000 _ZTV30TestConv_testGetHexUpperNibble
     /tmp/cc4vtjIU.s:91     .text._ZN30TestConv_testGetHexUpperNibbleD2Ev:0000000000000000 _ZN30TestConv_testGetHexUpperNibbleD1Ev
     /tmp/cc4vtjIU.s:108    .text._ZN30TestConv_testGetHexUpperNibbleD0Ev:0000000000000000 _ZN30TestConv_testGetHexUpperNibbleD0Ev
     /tmp/cc4vtjIU.s:173    .text._ZN23TestConv_testGetHexByteD2Ev:0000000000000000 _ZN23TestConv_testGetHexByteD2Ev
     /tmp/cc4vtjIU.s:8024   .data.rel.ro.local._ZTV23TestConv_testGetHexByte:0000000000000000 _ZTV23TestConv_testGetHexByte
     /tmp/cc4vtjIU.s:173    .text._ZN23TestConv_testGetHexByteD2Ev:0000000000000000 _ZN23TestConv_testGetHexByteD1Ev
     /tmp/cc4vtjIU.s:190    .text._ZN23TestConv_testGetHexByteD0Ev:0000000000000000 _ZN23TestConv_testGetHexByteD0Ev
     /tmp/cc4vtjIU.s:255    .text._ZN25TestConv_testGetHexNibbleD2Ev:0000000000000000 _ZN25TestConv_testGetHexNibbleD2Ev
     /tmp/cc4vtjIU.s:8013   .data.rel.ro.local._ZTV25TestConv_testGetHexNibble:0000000000000000 _ZTV25TestConv_testGetHexNibble
     /tmp/cc4vtjIU.s:255    .text._ZN25TestConv_testGetHexNibbleD2Ev:0000000000000000 _ZN25TestConv_testGetHexNibbleD1Ev
     /tmp/cc4vtjIU.s:272    .text._ZN25TestConv_testGetHexNibbleD0Ev:0000000000000000 _ZN25TestConv_testGetHexNibbleD0Ev
     /tmp/cc4vtjIU.s:337    .text._ZN8UnitTest15MemoryOutStreamD1Ev:0000000000000000 _ZN8UnitTest15MemoryOutStreamD1Ev
     /tmp/cc4vtjIU.s:7997   .data.rel.ro.local._ZTVN8UnitTest15MemoryOutStreamE:0000000000000000 _ZTVN8UnitTest15MemoryOutStreamE
     /tmp/cc4vtjIU.s:7969   .data.rel.ro._ZTCN8UnitTest15MemoryOutStreamE0_NSt7__cxx1119basic_ostringstreamIcSt11char_traitsIcESaIcEEE:0000000000000000 _ZTCN8UnitTest15MemoryOutStreamE0_NSt7__cxx1119basic_ostringstreamIcSt11char_traitsIcESaIcEEE
     /tmp/cc4vtjIU.s:7952   .data.rel.ro._ZTCN8UnitTest15MemoryOutStreamE0_So:0000000000000000 _ZTCN8UnitTest15MemoryOutStreamE0_So
     /tmp/cc4vtjIU.s:387    .text._ZN8UnitTest15MemoryOutStreamD1Ev:00000000000000b0 _ZTv0_n24_N8UnitTest15MemoryOutStreamD1Ev
     /tmp/cc4vtjIU.s:441    .text._ZN8UnitTest15MemoryOutStreamD0Ev:0000000000000000 _ZN8UnitTest15MemoryOutStreamD0Ev
     /tmp/cc4vtjIU.s:535    .text._ZN8UnitTest15MemoryOutStreamD0Ev:00000000000000e0 _ZTv0_n24_N8UnitTest15MemoryOutStreamD0Ev
     /tmp/cc4vtjIU.s:633    .text._ZNSt7__cxx1115basic_stringbufIcSt11char_traitsIcESaIcEED2Ev:0000000000000000 _ZNSt7__cxx1115basic_stringbufIcSt11char_traitsIcESaIcEED2Ev
     /tmp/cc4vtjIU.s:633    .text._ZNSt7__cxx1115basic_stringbufIcSt11char_traitsIcESaIcEED2Ev:0000000000000000 _ZNSt7__cxx1115basic_stringbufIcSt11char_traitsIcESaIcEED1Ev
     /tmp/cc4vtjIU.s:665    .text._ZNSt7__cxx1115basic_stringbufIcSt11char_traitsIcESaIcEED0Ev:0000000000000000 _ZNSt7__cxx1115basic_stringbufIcSt11char_traitsIcESaIcEED0Ev
     /tmp/cc4vtjIU.s:701    .text._ZN8UnitTest10CheckEqualIbbEEvRNS_11TestResultsERKT_RKT0_RKNS_11TestDetailsE:0000000000000000 _ZN8UnitTest10CheckEqualIbbEEvRNS_11TestResultsERKT_RKT0_RKNS_11TestDetailsE
     /tmp/cc4vtjIU.s:693    .rodata._ZN8UnitTest10CheckEqualIbbEEvRNS_11TestResultsERKT_RKT0_RKNS_11TestDetailsE.str1.1:0000000000000000 .LC0
     /tmp/cc4vtjIU.s:695    .rodata._ZN8UnitTest10CheckEqualIbbEEvRNS_11TestResultsERKT_RKT0_RKNS_11TestDetailsE.str1.1:000000000000000a .LC1
     /tmp/cc4vtjIU.s:948    .text._ZN8UnitTest10CheckEqualIihEEvRNS_11TestResultsERKT_RKT0_RKNS_11TestDetailsE:0000000000000000 _ZN8UnitTest10CheckEqualIihEEvRNS_11TestResultsERKT_RKT0_RKNS_11TestDetailsE
     /tmp/cc4vtjIU.s:1275   .text:0000000000000000 _ZNK25TestConv_testGetHexNibble7RunImplEv
     /tmp/cc4vtjIU.s:2602   .text.unlikely:0000000000000000 _ZNK25TestConv_testGetHexNibble7RunImplEv.cold
     /tmp/cc4vtjIU.s:1264   .rodata.str1.8:0000000000000338 .LC22
     /tmp/cc4vtjIU.s:1261   .rodata.str1.8:0000000000000308 .LC21
     /tmp/cc4vtjIU.s:1258   .rodata.str1.8:00000000000002d8 .LC20
     /tmp/cc4vtjIU.s:1213   .rodata.str1.8:0000000000000000 .LC5
     /tmp/cc4vtjIU.s:1255   .rodata.str1.8:00000000000002a8 .LC19
     /tmp/cc4vtjIU.s:1252   .rodata.str1.8:0000000000000278 .LC18
     /tmp/cc4vtjIU.s:1249   .rodata.str1.8:0000000000000248 .LC17
     /tmp/cc4vtjIU.s:1246   .rodata.str1.8:0000000000000218 .LC16
     /tmp/cc4vtjIU.s:1243   .rodata.str1.8:00000000000001e8 .LC15
     /tmp/cc4vtjIU.s:1240   .rodata.str1.8:00000000000001b8 .LC14
     /tmp/cc4vtjIU.s:1237   .rodata.str1.8:0000000000000188 .LC13
     /tmp/cc4vtjIU.s:1234   .rodata.str1.8:0000000000000158 .LC12
     /tmp/cc4vtjIU.s:1231   .rodata.str1.8:0000000000000128 .LC11
     /tmp/cc4vtjIU.s:1228   .rodata.str1.8:00000000000000f8 .LC10
     /tmp/cc4vtjIU.s:1225   .rodata.str1.8:00000000000000c8 .LC9
     /tmp/cc4vtjIU.s:1222   .rodata.str1.8:0000000000000098 .LC8
     /tmp/cc4vtjIU.s:1219   .rodata.str1.8:0000000000000068 .LC7
     /tmp/cc4vtjIU.s:1216   .rodata.str1.8:0000000000000038 .LC6
     /tmp/cc4vtjIU.s:4421   .text:0000000000000d30 _ZNK23TestConv_testGetHexByte7RunImplEv
     /tmp/cc4vtjIU.s:4392   .rodata.str1.1:0000000000000000 .LC24
     /tmp/cc4vtjIU.s:4394   .rodata.str1.1:0000000000000003 .LC25
     /tmp/cc4vtjIU.s:4396   .rodata.str1.1:0000000000000006 .LC26
     /tmp/cc4vtjIU.s:4398   .rodata.str1.1:0000000000000009 .LC27
     /tmp/cc4vtjIU.s:4400   .rodata.str1.1:000000000000000c .LC28
     /tmp/cc4vtjIU.s:4717   .text.unlikely:0000000000000e70 _ZNK23TestConv_testGetHexByte7RunImplEv.cold
     /tmp/cc4vtjIU.s:4410   .rodata.str1.8:00000000000003d0 .LC31
     /tmp/cc4vtjIU.s:4407   .rodata.str1.8:00000000000003a0 .LC30
     /tmp/cc4vtjIU.s:4404   .rodata.str1.8:0000000000000370 .LC29
     /tmp/cc4vtjIU.s:5067   .text._ZN8UnitTest10CheckEqualIccEEvRNS_11TestResultsERKT_RKT0_RKNS_11TestDetailsE:0000000000000000 _ZN8UnitTest10CheckEqualIccEEvRNS_11TestResultsERKT_RKT0_RKNS_11TestDetailsE
     /tmp/cc4vtjIU.s:5403   .text:0000000000000fe0 _ZNK30TestConv_testGetHexUpperNibble7RunImplEv
     /tmp/cc4vtjIU.s:5874   .text.unlikely:0000000000001106 _ZNK30TestConv_testGetHexUpperNibble7RunImplEv.cold
     /tmp/cc4vtjIU.s:5392   .rodata.str1.8:0000000000000838 .LC48
     /tmp/cc4vtjIU.s:5389   .rodata.str1.8:00000000000007f0 .LC47
     /tmp/cc4vtjIU.s:5386   .rodata.str1.8:00000000000007a8 .LC46
     /tmp/cc4vtjIU.s:5383   .rodata.str1.8:0000000000000760 .LC45
     /tmp/cc4vtjIU.s:5380   .rodata.str1.8:0000000000000718 .LC44
     /tmp/cc4vtjIU.s:5377   .rodata.str1.8:00000000000006d0 .LC43
     /tmp/cc4vtjIU.s:5374   .rodata.str1.8:0000000000000688 .LC42
     /tmp/cc4vtjIU.s:5371   .rodata.str1.8:0000000000000640 .LC41
     /tmp/cc4vtjIU.s:5368   .rodata.str1.8:00000000000005f8 .LC40
     /tmp/cc4vtjIU.s:5365   .rodata.str1.8:00000000000005b0 .LC39
     /tmp/cc4vtjIU.s:5362   .rodata.str1.8:0000000000000568 .LC38
     /tmp/cc4vtjIU.s:5359   .rodata.str1.8:0000000000000520 .LC37
     /tmp/cc4vtjIU.s:5356   .rodata.str1.8:00000000000004d8 .LC36
     /tmp/cc4vtjIU.s:5353   .rodata.str1.8:0000000000000490 .LC35
     /tmp/cc4vtjIU.s:5350   .rodata.str1.8:0000000000000448 .LC34
     /tmp/cc4vtjIU.s:5347   .rodata.str1.8:0000000000000400 .LC33
     /tmp/cc4vtjIU.s:6601   .text:0000000000001500 _ZNK30TestConv_testGetHexLowerNibble7RunImplEv
     /tmp/cc4vtjIU.s:7072   .text.unlikely:0000000000001642 _ZNK30TestConv_testGetHexLowerNibble7RunImplEv.cold
     /tmp/cc4vtjIU.s:6590   .rodata.str1.8:0000000000000cb8 .LC65
     /tmp/cc4vtjIU.s:6587   .rodata.str1.8:0000000000000c70 .LC64
     /tmp/cc4vtjIU.s:6584   .rodata.str1.8:0000000000000c28 .LC63
     /tmp/cc4vtjIU.s:6581   .rodata.str1.8:0000000000000be0 .LC62
     /tmp/cc4vtjIU.s:6578   .rodata.str1.8:0000000000000b98 .LC61
     /tmp/cc4vtjIU.s:6575   .rodata.str1.8:0000000000000b50 .LC60
     /tmp/cc4vtjIU.s:6572   .rodata.str1.8:0000000000000b08 .LC59
     /tmp/cc4vtjIU.s:6569   .rodata.str1.8:0000000000000ac0 .LC58
     /tmp/cc4vtjIU.s:6566   .rodata.str1.8:0000000000000a78 .LC57
     /tmp/cc4vtjIU.s:6563   .rodata.str1.8:0000000000000a30 .LC56
     /tmp/cc4vtjIU.s:6560   .rodata.str1.8:00000000000009e8 .LC55
     /tmp/cc4vtjIU.s:6557   .rodata.str1.8:00000000000009a0 .LC54
     /tmp/cc4vtjIU.s:6554   .rodata.str1.8:0000000000000958 .LC53
     /tmp/cc4vtjIU.s:6551   .rodata.str1.8:0000000000000910 .LC52
     /tmp/cc4vtjIU.s:6548   .rodata.str1.8:00000000000008c8 .LC51
     /tmp/cc4vtjIU.s:6545   .rodata.str1.8:0000000000000880 .LC50
     /tmp/cc4vtjIU.s:7757   .text.startup:0000000000000000 _GLOBAL__sub_I_testConv_testGetHexNibbleInstance
     /tmp/cc4vtjIU.s:8095   .bss:00000000000000e0 testConv_testGetHexNibbleInstance
     /tmp/cc4vtjIU.s:7746   .rodata.str1.1:0000000000000029 .LC69
     /tmp/cc4vtjIU.s:7742   .rodata.str1.1:000000000000000f .LC67
     /tmp/cc4vtjIU.s:7744   .rodata.str1.1:000000000000001c .LC68
     /tmp/cc4vtjIU.s:8089   .bss:00000000000000d8 adderConv_testGetHexNibble
     /tmp/cc4vtjIU.s:8084   .bss:00000000000000a0 testConv_testGetHexByteInstance
     /tmp/cc4vtjIU.s:7748   .rodata.str1.1:000000000000003f .LC70
     /tmp/cc4vtjIU.s:8078   .bss:0000000000000098 adderConv_testGetHexByte
     /tmp/cc4vtjIU.s:8073   .bss:0000000000000060 testConv_testGetHexUpperNibbleInstance
     /tmp/cc4vtjIU.s:7750   .rodata.str1.1:0000000000000053 .LC71
     /tmp/cc4vtjIU.s:8067   .bss:0000000000000058 adderConv_testGetHexUpperNibble
     /tmp/cc4vtjIU.s:8062   .bss:0000000000000020 testConv_testGetHexLowerNibbleInstance
     /tmp/cc4vtjIU.s:7752   .rodata.str1.1:000000000000006e .LC72
     /tmp/cc4vtjIU.s:8056   .bss:0000000000000000 adderConv_testGetHexLowerNibble
     /tmp/cc4vtjIU.s:7871   .rodata._ZTSN8UnitTest15MemoryOutStreamE:0000000000000000 _ZTSN8UnitTest15MemoryOutStreamE
     /tmp/cc4vtjIU.s:7878   .data.rel.ro._ZTIN8UnitTest15MemoryOutStreamE:0000000000000000 _ZTIN8UnitTest15MemoryOutStreamE
     /tmp/cc4vtjIU.s:7887   .rodata._ZTS25TestConv_testGetHexNibble:0000000000000000 _ZTS25TestConv_testGetHexNibble
     /tmp/cc4vtjIU.s:7894   .data.rel.ro._ZTI25TestConv_testGetHexNibble:0000000000000000 _ZTI25TestConv_testGetHexNibble
     /tmp/cc4vtjIU.s:7903   .rodata._ZTS23TestConv_testGetHexByte:0000000000000000 _ZTS23TestConv_testGetHexByte
     /tmp/cc4vtjIU.s:7910   .data.rel.ro._ZTI23TestConv_testGetHexByte:0000000000000000 _ZTI23TestConv_testGetHexByte
     /tmp/cc4vtjIU.s:7919   .rodata._ZTS30TestConv_testGetHexUpperNibble:0000000000000000 _ZTS30TestConv_testGetHexUpperNibble
     /tmp/cc4vtjIU.s:7926   .data.rel.ro._ZTI30TestConv_testGetHexUpperNibble:0000000000000000 _ZTI30TestConv_testGetHexUpperNibble
     /tmp/cc4vtjIU.s:7935   .rodata._ZTS30TestConv_testGetHexLowerNibble:0000000000000000 _ZTS30TestConv_testGetHexLowerNibble
     /tmp/cc4vtjIU.s:7942   .data.rel.ro._ZTI30TestConv_testGetHexLowerNibble:0000000000000000 _ZTI30TestConv_testGetHexLowerNibble
     /tmp/cc4vtjIU.s:7985   .data.rel.ro.local._ZTTN8UnitTest15MemoryOutStreamE:0000000000000000 _ZTTN8UnitTest15MemoryOutStreamE
                           .group:0000000000000000 _ZN30TestConv_testGetHexLowerNibbleD5Ev
                           .group:0000000000000000 _ZN30TestConv_testGetHexUpperNibbleD5Ev
                           .group:0000000000000000 _ZN23TestConv_testGetHexByteD5Ev
                           .group:0000000000000000 _ZN25TestConv_testGetHexNibbleD5Ev
                           .group:0000000000000000 _ZNSt7__cxx1115basic_stringbufIcSt11char_traitsIcESaIcEED5Ev

UNDEFINED SYMBOLS
_ZN8UnitTest4TestD2Ev
_ZdlPv
_Unwind_Resume
__gxx_personality_v0
_ZTVNSt7__cxx1115basic_stringbufIcSt11char_traitsIcESaIcEEE
_ZTVSt15basic_streambufIcSt11char_traitsIcEE
_ZNSt6localeD1Ev
_ZTVSt9basic_iosIcSt11char_traitsIcEE
_ZNSt8ios_baseD2Ev
_ZNSt8ios_baseC2Ev
_ZNSt9basic_iosIcSt11char_traitsIcEE4initEPSt15basic_streambufIcS1_E
_ZNSt6localeC1Ev
_ZSt16__ostream_insertIcSt11char_traitsIcEERSt13basic_ostreamIT_T0_ES6_PKS3_l
_ZNSo9_M_insertIbEERSoT_
_ZNK8UnitTest15MemoryOutStream7GetTextEv
_ZN8UnitTest11TestResults13OnTestFailureERKNS_11TestDetailsEPKc
__stack_chk_fail
_ZNSolsEi
_ZNSo3putEc
getHexNibble
_ZN8UnitTest11CurrentTest7DetailsEv
_ZN8UnitTest11TestDetailsC1ERKS0_i
_ZN8UnitTest11CurrentTest7ResultsEv
__cxa_begin_catch
__cxa_end_catch
getHexByte
getHexUpperNibble
getHexLowerNibble
__dso_handle
_ZN8UnitTest4TestC2EPKcS2_S2_i
__cxa_atexit
_ZN8UnitTest4Test11GetTestListEv
_ZN8UnitTest9ListAdderC1ERNS_8TestListEPNS_4TestE
_ZTVN10__cxxabiv120__si_class_type_infoE
_ZTINSt7__cxx1119basic_ostringstreamIcSt11char_traitsIcESaIcEEE
_ZTIN8UnitTest4TestE
_ZTISo
